(lp1
(lp2
(lp3
VSOKFEEY12A81C21487
p4
aVSOPNWXV12AC90718F5
p5
aa(lp6
VSOFPKLH12AB0182B11
p7
aVSOTYHDU12B35058AAF
p8
aVSOLKXFC12AC96186F1
p9
aa(lp10
VSOKQJDK12A6D4F5F1C
p11
aVSOKSWOT12AB018C3F0
p12
aVSONBOSO12A6701FEA3
p13
aa(lp14
VSOYWNIU12A8AE45729
p15
aVSOIGZZW12AB018830A
p16
aVSORUWYJ12AB0181EBF
p17
aa(lp18
VSOCAHDF12AB018139F
p19
aVSODJVRT12AC468F5F1
p20
aa(lp21
VSOCWDKM12A8C14593C
p22
aVSOBHSSW12A6D4FBD38
p23
aVSODUOVI12A8C14074C
p24
aVSOKNCNR12A6701FDEC
p25
aVSOHPCHI12A6D4F89E0
p26
aVSOOYYYI12A8C1414F9
p27
aVSOLVDEX12AB0180D2E
p28
aa(lp29
VSOHBHPH12AB0185C09
p30
aVSOEFVPG12A8C13221B
p31
aa(lp32
VSOXKVQM12A8C1423EF
p33
aVSOPFVLK12A8C134E4F
p34
aa(lp35
VSONBHFL12A6D4F7987
p36
aVSOBESPR12A8C140055
p37
aVSOGIXRG12A8C135536
p38
aa(lp39
VSOGUZFC12A8C1336F2
p40
aVSOCFCLI12AB0186EAA
p41
aa(lp42
VSOEJCLU12A8C13DF05
p43
aVSOBBMOZ12A58A79532
p44
aa(lp45
VSOVYBBK12AB0184C8B
p46
aVSOCQODI12A6D4FAF81
p47
aa(lp48
VSOTYHDU12B35058AAF
p49
aVSOLHFWL12A58A7C700
p50
aVSOLBFSA12AB018B3FC
p51
aa(lp52
VSOFIGTP12A8C135989
p53
aVSONXVWS12AB0185055
p54
aVSOBESPR12A8C140055
p55
aa(lp56
VSOFAHSA12AB0186707
p57
aVSOWFVPN12AB01883F5
p58
aa(lp59
VSOIQTSE12A8C1413AA
p60
aVSOPSCFO12AB0189541
p61
aVSOKCPOK12A8C135830
p62
aa(lp63
VSOXONZG12A58A7B14B
p64
aVSOSWBQX12AB01883E4
p65
aa(lp66
VSOJONTI12AC468B774
p67
aVSODFVZL12A8C131101
p68
aVSODKLLM12AB01834C0
p69
aa(lp70
VSOWQJUV12A6701FA45
p71
aVSOKWOUK12D02199979
p72
aVSOPPJZK12AB018AF31
p73
aa(lp74
VSOJBMSC12A6D4F68F7
p75
aVSOADXIF12A58A765AD
p76
aVSOYNFTG12AC468B4ED
p77
aVSOBRCHW12A6D4FB97B
p78
aa(lp79
VSOOAUWE12AB0188390
p80
aVSOBNZDL12A6D4FCDCC
p81
aVSOPUECE12AB018A9D0
p82
aa(lp83
VSOXNGWU12AAFF44467
p84
aVSOETLDX12A6D4F817F
p85
aVSOZIGVA12A6D4F89E6
p86
aa(lp87
VSOEJLYX12AC468C212
p88
aVSOVBOSK12A58A79EFC
p89
aVSOIZFEH12AB01881CC
p90
aa(lp91
VSOYBOIQ12A6310E2C4
p92
aVSOORPXN12A58A7771C
p93
aa(lp94
VSOWWYBK12A8C145607
p95
aVSOOJLWA12AB0185215
p96
aVSOCTRUR12AF72A0A90
p97
aa(lp98
VSOPYUDJ12A8C1358C8
p99
aVSOIQOQS12A8C1363D9
p100
aVSOCFCLI12AB0186EAA
p101
aVSOIQTSE12A8C1413AA
p102
aVSOGIXRG12A8C135536
p103
aVSOHKNAG12A8C1406D0
p104
aVSOKQABB12A8C135AC3
p105
aVSOARKBG12A8C134943
p106
aVSOBNVCL12AAF3B44F5
p107
aVSOROQUD12AB017E722
p108
aVSOIGXTM12AB0186DBE
p109
aVSODGDIC12A58A7A443
p110
aVSOFYCVA12A58A77D38
p111
aVSORZOQJ12AAF3B4B3F
p112
aVSOBMFZS12A6D4F705D
p113
aa(lp114
VSOBBKLC12A8C140E96
p115
aVSOEETZV12AB0185A77
p116
aVSORRIYI12AB0183BF3
p117
aVSOWMWBR12A58A7D58E
p118
aVSOFNDAZ12AB0186CBE
p119
aVSODJVRT12AC468F5F1
p120
aVSOFXOXU12A8C142D92
p121
aVSOGHPHQ12A6D4FA29D
p122
aVSOEVKFJ12AB017C27B
p123
aVSOMODHH12A8C1372BD
p124
aVSOAOHRU12A8C13412E
p125
aa(lp126
VSOCSFOD12AB017DBA6
p127
aVSORUGWA12A58A7F924
p128
aa(lp129
VSOMVYSS12A6D4FD2E0
p130
aVSODSAHW12A81C20FAC
p131
aa(lp132
VSOKCMEE12A8C13742B
p133
aVSOTOZYN12AB0184639
p134
aa(lp135
VSOOEVUI12A8C13589F
p136
aVSOMAEAT12A8C1381C1
p137
aVSOPYUDJ12A8C1358C8
p138
aa(lp139
VSOZOCOZ12A8C13E306
p140
aVSOECFRZ12A58A80066
p141
aa(lp142
VSOJONTI12AC468B774
p143
aVSOCKBDV12A8C13A3C2
p144
aa(lp145
VSOOSIYW12A6D4F982E
p146
aVSOTUFXE12AB0183E3D
p147
aVSOCGFOR12AB0186DAC
p148
aa(lp149
VSOFTCCT12A6D4FA1B0
p150
aVSONQFAT12A8C13112B
p151
aa(lp152
VSOMJALI12AB0182407
p153
aVSOFXVCR12AB0181F91
p154
aa(lp155
VSOJRPFV12A8C140E99
p156
aVSOKRWGB12A58A7806F
p157
aVSOCIOQD12A8C13A7D9
p158
aa(lp159
VSOIINVE12A8C14133A
p160
aVSOCPDNO12A8C13C3BC
p161
aa(lp162
VSOODHEF12A8C140464
p163
aVSOOACBF12A8C141359
p164
aa(lp165
VSOTWFJO12AB018C259
p166
aVSOMADAK12AC9072A68
p167
aa(lp168
VSOEPPWF12A58A7B44B
p169
aVSOUCNOF12A58A7A823
p170
aa(lp171
VSOTYZBF12A6D4FC176
p172
aVSODFMXN12AB0181D1C
p173
aa(lp174
VSOLKXFC12AC96186F1
p175
aVSOSRGZN12A8C133DF4
p176
aVSOZGXLR12A8C1422B1
p177
aa(lp178
VSOEZGBH12AB0180130
p179
aVSOGIXRG12A8C135536
p180
aa(lp181
VSORYRKD12A81C1FEF0
p182
aVSOBYWCI12A6D4F81FD
p183
aVSOBECLR12A6D22723E
p184
aVSOITCJG12A8C13443E
p185
aa(lp186
VSOVMEPK12A8C141C37
p187
aVSORRLHA12A6D4F6EA3
p188
aa(lp189
VSOIJXRU12A8C139A80
p190
aVSOJYNTZ12A81C21A0A
p191
aa(lp192
VSOSZBEI12A8C14407F
p193
aVSOHJJSS12A8C13EBCA
p194
aVSOUTZWJ12CF5F8816B
p195
aVSOSSZUC12CF546516F
p196
aa(lp197
VSOYPXVH12AB017FFCF
p198
aVSOMJYPZ12AB018052F
p199
aa(lp200
VSORENUX12A6D4F88FF
p201
aVSOBYWCI12A6D4F81FD
p202
aVSOVMEPK12A8C141C37
p203
aVSOIGXTM12AB0186DBE
p204
aVSOHGEJI12A8C13A7A4
p205
aVSOASRRP12AB0180FDE
p206
aVSOMWAEG12A8C1395D2
p207
aVSOYDXLF12A6D4F7778
p208
aa(lp209
VSODRMMM12AC468C29A
p210
aVSOMJULV12A6D4F81FE
p211
aVSOFXBJF12A8C13974E
p212
aa(lp213
VSOEUNFQ12A8C134B4E
p214
aVSOLKXFC12AC96186F1
p215
aVSOGDWYA12A6D4F8182
p216
aVSOKULNS12AB01842C2
p217
aVSOCFCLI12AB0186EAA
p218
aVSOCJZKU12A8C142BEC
p219
aVSOHPWRZ12A8C142AC7
p220
aVSOJLNYT12A8C1372C2
p221
aVSOBMFZS12A6D4F705D
p222
aVSOQIPWM12A6D4F59F6
p223
aa(lp224
VSOFYCVA12A58A77D38
p225
aVSORWWJH12A6701ED34
p226
aVSONNDZZ12A8C13BA9D
p227
aa(lp228
VSOWNNQF12A58A79CF1
p229
aVSOQXTLT12A58A7C14D
p230
aa(lp231
VSOJBDQT12A58A75FBE
p232
aVSOLMHHI12AB017A0DB
p233
aVSOWSNZZ12A58A75C2B
p234
aa(lp235
VSOEEULP12A6D4F79E5
p236
aVSOHPDNL12A58A7906A
p237
aa(lp238
VSOFHNPM12A8C1412AA
p239
aVSOENQYY12A8C134FC6
p240
aa(lp241
VSOGKETN12A8C13C039
p242
aVSOPNSIL12A8C13045F
p243
aVSOHHUVQ12A6701ED31
p244
aa(lp245
VSOZSSRD12AB01804C6
p246
aVSOVNSDJ12AB017F83B
p247
aVSOGERZE12A8C135C67
p248
aa(lp249
VSOBBFXB12AB018883F
p250
aVSOONWUM12A6D4F936D
p251
aa(lp252
VSORZOQJ12AAF3B4B3F
p253
aVSOSQBIQ12A8C13C05D
p254
aVSOGZJQL12AB01813A9
p255
aVSODZQPF12A6D4F971A
p256
aVSOQDGZV12A8C143489
p257
aa(lp258
VSOHBHMN12A58A78CC5
p259
aVSOIJXRU12A8C139A80
p260
aa(lp261
VSOVVLXT12AB018B82C
p262
aVSOGKETN12A8C13C039
p263
aa(lp264
VSOAEUCH12AB0183292
p265
aVSODKVDA12AB01858CE
p266
aa(lp267
VSOKDDVW12A8C135D59
p268
aVSOXXYLC12A8C141ACC
p269
aa(lp270
VSOFNDAZ12AB0186CBE
p271
aVSONGFEF12AF72A2643
p272
aa(lp273
VSOAABLG12A6D4F73D2
p274
aVSOAAIFS12A67020756
p275
aVSOSVZON12AC468E2F1
p276
aVSOTWJID12A8C13A7B7
p277
aa(lp278
VSOSQCYU12A679CF220
p279
aVSOONVYD12AB0182B18
p280
aa(lp281
VSOFFWCW12A8C133BBD
p282
aVSOIHSCO12A58A7A85D
p283
aa(lp284
VSOOVGJX12AB0188B94
p285
aVSONDWDC12AC46868DE
p286
aVSOFDBIO12A8C135AB4
p287
aVSOQJVEP12A58A7BE55
p288
aVSOHTRST12A8C1381D2
p289
aa(lp290
VSOOFMXM12A8C140476
p291
aVSOPYUDJ12A8C1358C8
p292
aVSOSWOOV12A8C136281
p293
aa(lp294
VSOYBULW12A8C13C5E1
p295
aVSODMCLG12AF72A782E
p296
aa(lp297
VSODVGQX12A58A79B52
p298
aVSOHGNGT12A6D4F9353
p299
aVSOMELXQ12A8C141EC0
p300
aa(lp301
VSOZEWJF12A6D4FBA22
p302
aVSOYNAHS12A8C1439FF
p303
aVSOLKXFC12AC96186F1
p304
aa(lp305
VSOJYNTZ12A81C21A0A
p306
aVSOOIQZC12A6701FEA1
p307
aa(lp308
VSOQCDUW12A6D4F57C9
p309
aVSOBGNRZ12A8C133CD3
p310
aVSOPKNMO12AB018C486
p311
aVSONLRPO12D0219A01F
p312
aa(lp313
VSOCEDDL12AB01801D1
p314
aVSOBKFFK12A8C140083
p315
aVSOAXTWU12AB0186DCD
p316
aa(lp317
VSOMCILJ12AB01843C4
p318
aVSOFHTXA12AB01885CB
p319
aa(lp320
VSONGFEF12AF72A2643
p321
aVSOUFHIQ12AB018F515
p322
aVSOGCTJG12A8C143462
p323
aVSOORGVV12A8C1451FB
p324
aVSOVPWBI12A8C145213
p325
aVSOBBKLC12A8C140E96
p326
aVSOMTLPS12AB017FDD8
p327
aa(lp328
VSOICYCD12AC3DFB03C
p329
aVSOVBORF12AC3DF57B6
p330
aa(lp331
VSOUEUKX12A8C139617
p332
aVSOIKVNN12A8C13D9FF
p333
aa(lp334
VSOFLTSF12A8C135F71
p335
aVSOOCYQI12A8C132F15
p336
aVSOOOYNI12A6310D7B5
p337
aVSOBAPJF12A670208FD
p338
aa(lp339
VSOXXDTT12A6D4F96D3
p340
aVSOFEXUP12AC9070E91
p341
aa(lp342
VSODGIJZ12AB018EB2B
p343
aVSOFZDGZ12A8C138683
p344
aa(lp345
VSOBOWZK12A8C1385DB
p346
aVSOFFLJN12A8C136FB9
p347
aVSOFHCMC12CF5F88A60
p348
aa(lp349
VSOEWCXZ12AB0182326
p350
aVSOAXHAL12AB017D83E
p351
aa(lp352
VSOCACWP12A8C138095
p353
aVSOWSSLJ12AB018A84E
p354
aVSOLRYGH12AC468D83A
p355
aVSOCCKHF12A6D4FB643
p356
aa(lp357
VSOFDBIO12A8C135AB4
p358
aVSOQVAPZ12AC9071B98
p359
aa(lp360
VSOTDQDP12CF5F86B46
p361
aVSOQYDRD12CF4E258AE
p362
aa(lp363
VSONSVSC12A6D4F8036
p364
aVSOPDGAI12A8C13BAA2
p365
aa(lp366
VSORIJDS12AB018583F
p367
aVSOKNJOY12AB017FD8B
p368
aVSOBZWGW12AB01848B5
p369
aa(lp370
VSOPYUDJ12A8C1358C8
p371
aVSOVYDQS12AAA8C8F8C
p372
aa(lp373
VSOFPGXP12A58A78AAB
p374
aVSOGAISJ12AB0180168
p375
aVSOBBCWQ12A8C130F91
p376
aVSOKSQGB12A81C21422
p377
aa(lp378
VSOLWGVX12AC468C540
p379
aVSOAAYDQ12A58A7FC0E
p380
aa(lp381
VSOLLUOU12A58A7DC52
p382
aVSOIKPPH12A6D4FDBD8
p383
aa(lp384
VSOCQHIP12A67021245
p385
aVSOZSPDR12A8C1402BF
p386
aa(lp387
VSOMEDFP12A8C136505
p388
aVSOBSYST12A8C140A1C
p389
aa(lp390
VSOWRQLR12A6D4F7CD7
p391
aVSOADVER12A6D4F68AF
p392
aa(lp393
VSOLGNBB12A6D4FA8B3
p394
aVSOZYVWP12A6D4FD50C
p395
aa(lp396
VSOBHHFX12AC468F5D7
p397
aVSOHZUSV12A58A7C291
p398
aVSOCCUOV12AB018329B
p399
aVSOEYNUG12A58A76510
p400
aVSOANWJH12A8C13A720
p401
aa(lp402
VSOIMNVW12AB017E83A
p403
aVSOVWRQB12A67021BCA
p404
aa(lp405
VSOFYCVA12A58A77D38
p406
aVSORZOQJ12AAF3B4B3F
p407
aa(lp408
VSOBKFIB12AB0187A08
p409
aVSOPNWWE12AC4686809
p410
aa(lp411
VSOPUECE12AB018A9D0
p412
aVSOCCUOV12AB018329B
p413
aVSOIQOQS12A8C1363D9
p414
aVSOPHQIX12A8C137EDB
p415
aa(lp416
VSOJYNTZ12A81C21A0A
p417
aVSOIRHTL12AB0180524
p418
aVSOYWPQD12A8C1333E2
p419
aa(lp420
VSOKMRZB12A8C1327BE
p421
aVSOIMYFV12A8C135D0F
p422
aa(lp423
VSOBUEZE12A8C13A64F
p424
aVSORBVDV12AB01857E1
p425
aVSOAYGDH12A8C139DE5
p426
aa(lp427
VSOCRWWH12A8C14410D
p428
aVSOIZFEH12AB01881CC
p429
aa(lp430
VSOLLCMJ12A58A77C42
p431
aVSORGWUN12A58A7CF2A
p432
aVSOWNNQF12A58A79CF1
p433
aa(lp434
VSOWPVXY12A8C13B814
p435
aVSOJQCVF12D0219763F
p436
aa(lp437
VSOMKKQG12A8C133C8A
p438
aVSONMIVB12A8C13B7C8
p439
aVSORXQFP12A8C132F51
p440
aVSOSNTUU12A6D4F971D
p441
aa(lp442
VSOLIHTZ12A8C141FCB
p443
aVSOHYAFW12AAF3B3E24
p444
aa(lp445
VSONUWUH12A6D4F9364
p446
aVSOMXURA12A8C13287E
p447
aa(lp448
VSONNDZZ12A8C13BA9D
p449
aVSOAIHUT12A8C14575B
p450
aVSOCALJW12A8C145775
p451
aVSOPYRDL12A8C142A65
p452
aVSOIPGGZ12A8C146C4F
p453
aa(lp454
VSODNPUK12AAF3B4547
p455
aVSOJDHWD12A8C1457D1
p456
aVSOHYSRV12A8C13FE49
p457
aa(lp458
VSOLZRZT12A6D4F89F8
p459
aVSOOVGJX12AB0188B94
p460
aa(lp461
VSOFYCVA12A58A77D38
p462
aVSOHEQRJ12A58A79F1A
p463
aa(lp464
VSORJVBI12AB01860C6
p465
aVSONGZQC12AB01833A6
p466
aVSOCNHJQ12A58A7B7AD
p467
aVSOPSJCL12A6D4FADE7
p468
aVSOGIXRG12A8C135536
p469
aa(lp470
VSOLQOIZ12A8C142AE2
p471
aVSOZHTZL12A8C141B8E
p472
aVSOTLYRD12AB01820D4
p473
aa(lp474
VSOQGOUK12AB017CA42
p475
aVSOLDICM12AB0188192
p476
aa(lp477
VSOIKTWI12AB017DB72
p478
aVSOEWDUX12AB018124F
p479
aa(lp480
VSOCLIXR12A8C13F3D2
p481
aVSOLQPSI12AB018223F
p482
aVSONETXJ12A8C138C83
p483
aa(lp484
VSOASRRP12AB0180FDE
p485
aVSOXXYLC12A8C141ACC
p486
aVSOARBWU12AB0183217
p487
aa(lp488
VSOIGXTM12AB0186DBE
p489
aVSOKDDVW12A8C135D59
p490
aa(lp491
VSOAYAEJ12A58A7A592
p492
aVSOLVDEX12AB0180D2E
p493
aa(lp494
VSOHGARK12AB0187FD5
p495
aVSODPJPZ12A8C13AEE2
p496
aa(lp497
VSOAWEGJ12A6D4F5EC1
p498
aVSOSOCNC12A8C1386D7
p499
aa(lp500
VSOZKINS12AC9097235
p501
aVSOGMZLO12A8C136995
p502
aa(lp503
VSOJEZJL12A6701DA9B
p504
aVSODXHTT12A6D4F8991
p505
aa(lp506
VSOLQOIZ12A8C142AE2
p507
aVSOTGEFA12AB017BD67
p508
aVSOTZWXC12A6D4F68AD
p509
aa(lp510
VSOITCJG12A8C13443E
p511
aVSOIUHJC12A8C135083
p512
aa(lp513
VSOKRVVT12A6D4F6A41
p514
aVSOSVDOS12AAF3B4F6A
p515
aa(lp516
VSOGUZFC12A8C1336F2
p517
aVSOYHHQC12AB018A902
p518
aa(lp519
VSOAHRNF12A58A78933
p520
aVSONFIZE12AB018A3DB
p521
aVSOLCUZS12A58A7B1AC
p522
aVSOFHNPM12A8C1412AA
p523
aVSODJVRT12AC468F5F1
p524
aVSOCUFBW12A8C13541D
p525
aVSOICPOE12A8C13A8B1
p526
aa(lp527
VSOKZSCJ12A8C133503
p528
aVSOHHLET12A8C13F8C2
p529
aVSODGMXN12AC960A1DD
p530
aVSOODGER12A8C1325D9
p531
aVSOFAXDL12A58A7C510
p532
aVSOLCIJJ12A8C13700B
p533
aVSOJKOZL12A8C137FC9
p534
aVSOHMHLN12AC90977FE
p535
aVSORZOQJ12AAF3B4B3F
p536
aVSOBKAAD12A8C142692
p537
aVSOGKDYV12A8C1397C4
p538
aVSODSAHW12A81C20FAC
p539
aVSOLUUQS12AB0181339
p540
aVSOIXWAM12AB0182B60
p541
aa(lp542
VSOEWQUG12A6D4FCBC5
p543
aVSOMCILJ12AB01843C4
p544
aa(lp545
VSOOITHF12A6D4FC7B2
p546
aVSOHKKKA12AB01825F2
p547
aVSOMBVVO12A8C135901
p548
aa(lp549
VSOJRDJF12A8C1397F2
p550
aVSOFTUZE12A8C133D54
p551
aVSOCCUOV12AB018329B
p552
aVSOVUWIS12AC960A0A7
p553
aa(lp554
VSOXMPSK12A58A7CCA8
p555
aVSODPIJK12A8C1413E7
p556
aa(lp557
VSOGOYHV12AB017E0CB
p558
aVSODWLTX12A6D4F89C8
p559
aa(lp560
VSOOTKQN12AB017A585
p561
aVSOESTZQ12A67021556
p562
aVSOAKFQG12A8AE48426
p563
aVSOWQJUV12A6701FA45
p564
aa(lp565
VSOVRHSO12A6701E35E
p566
aVSOKCANM12A6D4F8A2E
p567
aa(lp568
VSOQIPWM12A6D4F59F6
p569
aVSOLKXFC12AC96186F1
p570
aa(lp571
VSOHYBQL12AB0188A78
p572
aVSOGRQME12AB0187DE3
p573
aa(lp574
VSOWJDFZ12A67021B41
p575
aVSOWWXQZ12A8C135093
p576
aVSORWOED12AB01814EC
p577
aa(lp578
VSOHXPUB12A6D4F89E5
p579
aVSOPSETW12AC3DF9764
p580
aa(lp581
VSOLZSQR12A6D4FCC2A
p582
aVSOEOUFK12A67020E62
p583
aa(lp584
VSOPFVLK12A8C134E4F
p585
aVSOBTFGH12A6D4F89E8
p586
aa(lp587
VSOYPMMT12A67021A38
p588
aVSOAVJHB12A8C137073
p589
aVSOKNCNR12A6701FDEC
p590
aa(lp591
VSOLCEFS12AC960A09D
p592
aVSOKQKUM12A8C1341D6
p593
aa(lp594
VSOIJXRU12A8C139A80
p595
aVSOUAQJD12A8C141C63
p596
aa(lp597
VSOQIPWM12A6D4F59F6
p598
aVSOKDDVW12A8C135D59
p599
aVSODZQPF12A6D4F971A
p600
aVSOGKETN12A8C13C039
p601
aVSOWTNCY12AB01841B7
p602
aVSOUFJQO12A6D4F6B0A
p603
aa(lp604
VSOQIPWM12A6D4F59F6
p605
aVSOGDWYA12A6D4F8182
p606
aVSOLLLLR12AAF3B4492
p607
aVSOONWUM12A6D4F936D
p608
aVSOGEDQO12A8C13693B
p609
aVSOHIXPI12AB017C590
p610
aa(lp611
VSOIOWCI12AAF3B3378
p612
aVSOQSIUH12AB017FE13
p613
aa(lp614
VSOMDNYJ12A8C140C5B
p615
aVSOBTRCD12A6701E976
p616
aVSOXYPIQ12A58A78713
p617
aa(lp618
VSOEEYNQ12A8C132864
p619
aVSOTTNDK12A8C1339CB
p620
aa(lp621
VSODKVDA12AB01858CE
p622
aVSOJBOYM12A8C13D2F4
p623
aa(lp624
VSORHUMZ12CF5F87365
p625
aVSORMUAO12A6D4F9262
p626
aa(lp627
VSOLLGNY12A6D4FA28A
p628
aVSORGGRP12A8C13DBDD
p629
aa(lp630
VSOQIPWM12A6D4F59F6
p631
aVSONIGRL12AB018A38F
p632
aa(lp633
VSOLKXFC12AC96186F1
p634
aVSOMANCR12AB017F4C1
p635
aa(lp636
VSOWNNQF12A58A79CF1
p637
aVSOQVAPZ12AC9071B98
p638
aa(lp639
VSOFOXTX12A6D4FB91B
p640
aVSOJTCUZ12AB018B8B8
p641
aVSOGBIRS12AAF3B4F5E
p642
aVSOLMUHR12AB018B2D8
p643
aa(lp644
VSOOSGOM12AB017BDA0
p645
aVSOBNJHO12A6D4F842B
p646
aVSODHJOX12AB0180343
p647
aa(lp648
VSODDIJY12A58A7DD5E
p649
aVSONSYGH12A8C13B8E1
p650
aVSOXLLBC12A6D4FC646
p651
aVSOAZVLB12A6D4FCC2D
p652
aVSOAEGPW12AB017D5EC
p653
aa(lp654
VSOMTXDX12AC9071B6F
p655
aVSOPPCUC12AB018820B
p656
aVSOPFJNX12AB017B4A4
p657
aa(lp658
VSOIXPYU12AF72A33EB
p659
aVSORBIQX12A6310EF74
p660
aa(lp661
VSOKHBQN12A81C21D0C
p662
aVSOECEWU12A8C141125
p663
aa(lp664
VSOCPBMU12AB01898CB
p665
aVSOKJBEN12AC9071730
p666
aa(lp667
VSOEWOOJ12AC3DF5526
p668
aVSODJWIE12AB0188551
p669
aa(lp670
VSOAIXSA12A58A79615
p671
aVSOATPWE12A58A78CF2
p672
aa(lp673
VSOUPUON12A8C136816
p674
aVSOBRGQX12AB0181B99
p675
aa(lp676
VSOMCZTI12AB018EDF6
p677
aVSOIWPNL12A58A80227
p678
aVSOQYIIQ12AB018A541
p679
aa(lp680
VSOEAMAI12A8C13DBC0
p681
aVSORYRKD12A81C1FEF0
p682
aa(lp683
VSORUNXI12AB017CFC0
p684
aVSOPBDVI12A58A7DB60
p685
aa(lp686
VSOAYAEJ12A58A7A592
p687
aVSOEOGAG129F0694C91
p688
aVSOEYEOG12A6D4FD103
p689
aVSOVRFSI12AB017D667
p690
aVSOROQUD12AB017E722
p691
aa(lp692
VSOGTUBF12A58A7C21E
p693
aVSOGHFZT12AB017D211
p694
aVSOVPBWJ12AB01823B7
p695
aVSOZWANW12AB018550E
p696
aVSOIWNLU12AB017D668
p697
aa(lp698
VSOBDBAV12AB0181A04
p699
aVSOCFQFI12AB0182D31
p700
aa(lp701
VSOEWRPN12AB017CBCF
p702
aVSOJIRMA12AB018A79F
p703
aVSOGWQWJ12A8C13A3BC
p704
aVSODKFLM12AB017F2A8
p705
aa(lp706
VSOPZHQQ12A8C13E24F
p707
aVSOBWBVX12AB0184453
p708
aVSOKDDVW12A8C135D59
p709
aa(lp710
VSOCPGVR12AB0185AC1
p711
aVSOXCJVB12A8C133D66
p712
aa(lp713
VSODGIJZ12AB018EB2B
p714
aVSOGCFRA12A8C13591A
p715
aa(lp716
VSOHTHKO12A8C139807
p717
aVSOGVKVQ12A8C135903
p718
aVSOATSAY12AB0182CE5
p719
aVSOLVDEX12AB0180D2E
p720
aVSOIGXTM12AB0186DBE
p721
aVSOOANYZ12A6701D083
p722
aVSOGBFOX12AB0181B02
p723
aVSODYMIJ12AB018C2D5
p724
aVSOXESGI12A8C13F85C
p725
aa(lp726
VSOJTLPE12AB0183EC9
p727
aVSOCSTEA12AB018AFAC
p728
aVSOIDYKY12A6D4FBD85
p729
aVSOZYLYT12A6D4F6D89
p730
aVSOLIHTZ12A8C141FCB
p731
aVSOJHTBI12AB0184DA4
p732
aVSOBIDTJ12AAF3B4423
p733
aa(lp734
VSOWFGAT12A8C134B26
p735
aVSOXDAWQ12A58A7ACDB
p736
aVSOMODHH12A8C1372BD
p737
aVSOZQEYB12A6D4F60D2
p738
aa(lp739
VSOJBMSC12A6D4F68F7
p740
aVSOAMIJJ12AB0186E3B
p741
aVSOMZEYJ12A8C13F7B0
p742
aVSOTQNAZ12AC46877A5
p743
aa(lp744
VSOYETVU12A8C13735A
p745
aVSOHOETK12CF5F87FF2
p746
aa(lp747
VSOBBFXB12AB018883F
p748
aVSOGIXRG12A8C135536
p749
aVSOMLHVM12A6D4FA261
p750
aVSOCZSML12A6701D06C
p751
aa(lp752
VSOFKYFK12A6D4FD73D
p753
aVSOGGRVI12A8C137B8B
p754
aVSOLQOIZ12A8C142AE2
p755
aVSOLVDEX12AB0180D2E
p756
aa(lp757
VSOCXXJE12A8C132E87
p758
aVSOYJZEA12D0219C027
p759
aa(lp760
VSOHPCHI12A6D4F89E0
p761
aVSONPHBD12A58A78F49
p762
aa(lp763
VSOZYVAL12D0219047B
p764
aVSOTRVZV12AC468E7B6
p765
aVSOOOHSP12AB018880B
p766
aa(lp767
VSOCCUOV12AB018329B
p768
aVSOLYEEP12AB017ED1B
p769
aVSORDTLA12AB0189EA0
p770
aa(lp771
VSOKHPOV12A8C13D641
p772
aVSOIWQNI12A8C1308D2
p773
aVSOMUWXQ12D02193456
p774
aa(lp775
VSOTBOKS12A8C141CA1
p776
aVSONGFEF12AF72A2643
p777
aa(lp778
VSOUXUWL12AB01827AB
p779
aVSOVDHBN12A6D4F61AF
p780
aa(lp781
VSOJWEWR12AAF3B5720
p782
aVSOZFDZD12CF5826629
p783
aa(lp784
VSOJULCC12AB018C36B
p785
aVSOBBRAF12A8C144452
p786
aVSOQSIUH12AB017FE13
p787
aVSOFLHQD12A58A7CEB1
p788
aa(lp789
VSOTODXV12AB017E98D
p790
aVSOXJYBL12A679AE5D0
p791
aVSOAMBIN12AF72AC2FC
p792
aa(lp793
VSOFSXAP12A8C1328D2
p794
aVSOGXCSP12AC468A5C6
p795
aa(lp796
VSOWNNQF12A58A79CF1
p797
aVSODDYJY12A8C133393
p798
aVSOCCUOV12AB018329B
p799
aVSOCNORU12A8C141587
p800
aVSOEVKFJ12AB017C27B
p801
aVSODOFWM12AB018119C
p802
aVSOLMADE12AC468ADE1
p803
aa(lp804
VSOSZBEI12A8C14407F
p805
aVSOPYUDJ12A8C1358C8
p806
aa(lp807
VSOVMEPK12A8C141C37
p808
aVSOVMUWF12A8C134762
p809
aVSOLKXFC12AC96186F1
p810
aVSOJPYBB12A58A7EADB
p811
aVSOMODHH12A8C1372BD
p812
aa(lp813
VSOXQWNW12A58A78204
p814
aVSOSRRIM12A58A7CD21
p815
aa(lp816
VSOMDSIH12A8C13C8FD
p817
aVSOTMXXL12A8C13C7DC
p818
aVSOYIMXQ12A8C13240F
p819
aa(lp820
VSONZLKB12A8C13241C
p821
aVSOFQKFX12A8C1468ED
p822
aa(lp823
VSOEYEOG12A6D4FD103
p824
aVSOERNJR12B34F1EC21
p825
aa(lp826
VSORNHUW12A6D4F9006
p827
aVSOXNUES12A6D4F770B
p828
aa(lp829
VSOIJDNF12A67AD856F
p830
aVSODJRXJ12A6701FDFD
p831
aa(lp832
VSOBEXBO12A67020E78
p833
aVSOPSETW12AC3DF9764
p834
aa(lp835
VSODGIJZ12AB018EB2B
p836
aVSOZWANW12AB018550E
p837
aVSOKSWOT12AB018C3F0
p838
aa(lp839
VSOMEDFP12A8C136505
p840
aVSOLTTEU12A8C134E34
p841
aa(lp842
VSOGXCSP12AC468A5C6
p843
aVSOIUZSY12AB01852B7
p844
aVSOMRSNE12AB017F3EA
p845
aa(lp846
VSOGNSFE12AC3DF7E6C
p847
aVSONBXEA12AC9072EB3
p848
aa(lp849
VSOAPHHW12AC468B4B7
p850
aVSORUFCY12AB0181559
p851
aa(lp852
VSOBDFZW12AB0185C8F
p853
aVSOBMFZS12A6D4F705D
p854
aVSOHBKDH12A67021C68
p855
aVSOERXTU12A6D4FCDDC
p856
aa(lp857
VSOSZFOX12A81C2230C
p858
aVSODIKNU12A58A7D735
p859
aVSOTLNTJ12D02198BE7
p860
aa(lp861
VSOFWMPP12D02193ABD
p862
aVSOMOMBD12A67021B9B
p863
aa(lp864
VSOIDJZY12A6701DEF7
p865
aVSOFLWDU12D02191AD3
p866
aa(lp867
VSOODBWM12A6D4F6B0E
p868
aVSOUFJQO12A6D4F6B0A
p869
aVSOBAKOT12A67021B3D
p870
aVSOJUTSQ12AF729EA02
p871
aVSOXTEQW12A6D4F9F18
p872
aa(lp873
VSOBEHVU12AB017E842
p874
aVSOJAYTA12AB017F27A
p875
aVSOBDLSO12AB018C3C9
p876
aVSOFYCVA12A58A77D38
p877
aa(lp878
VSOEZLHI12A8C13F581
p879
aVSOZSILE12AB01885B7
p880
aa(lp881
VSOJRWIF12A8C136DD6
p882
aVSOBYCGK12AB0180D47
p883
aVSOIEJZC12AB0182DAA
p884
aa(lp885
VSOZKLMU12A8AE4714C
p886
aVSOBECLR12A6D22723E
p887
aVSORYRKD12A81C1FEF0
p888
aa(lp889
VSOCVTWG12A6D4FBD85
p890
aVSOZSBQY12A8C144B42
p891
aa(lp892
VSOTPCIE12A58A79B0D
p893
aVSOLNWAP12AB018195C
p894
aa(lp895
VSOAHAQF12A8C13AB79
p896
aVSOUESFH12A6D4F662F
p897
aa(lp898
VSOUAIQR12A8C141562
p899
aVSOVAQEG12A8C137437
p900
aVSOCKNUT12AB0186333
p901
aa(lp902
VSOTMIFT12A8C142A30
p903
aVSOHXPRI12A6D4F94B0
p904
aVSOHAAHJ12A6D4FAAC2
p905
aa(lp906
VSOQWNIF12A6D4FCCFE
p907
aVSOHZUSV12A58A7C291
p908
aa(lp909
VSOHZUSV12A58A7C291
p910
aVSOXXTKU12AB017C76D
p911
aVSOLUUQS12AB0181339
p912
aa(lp913
VSOUBKLK12A58A7DFB2
p914
aVSOAYJHI12A6D4F9989
p915
aa(lp916
VSOBECLR12A6D22723E
p917
aVSOQVAPZ12AC9071B98
p918
aa(lp919
VSODPJPZ12A8C13AEE2
p920
aVSOLZVFP12D021907D6
p921
aa(lp922
VSOBWNNK12AAFF436D9
p923
aVSOMUJML12AB0189652
p924
aa(lp925
VSOTAWTP12CF5CFC3DF
p926
aVSORZKLP12AB0183399
p927
aa(lp928
VSOYCNZF12A6D4F7F87
p929
aVSOUIWBY12A6D4FD9C5
p930
aa(lp931
VSOTGSUO12A8C130C85
p932
aVSOBIDTJ12AAF3B4423
p933
aVSOZAYEG12AB017E48E
p934
aa(lp935
VSOHHNDC12A8C13224F
p936
aVSOIIAOF12A8C1338F0
p937
aVSOLZFNC12A58A79359
p938
aa(lp939
VSONNVDX12A6D4FB509
p940
aVSOLSPBD12A8AE47260
p941
aa(lp942
VSOSYWII12A6D4FD0F9
p943
aVSOCLQXP12A8C143630
p944
aVSOBCRFB12CF5F88992
p945
aa(lp946
VSOTKSNO12A8C14072F
p947
aVSOOGKFN12A8AE4883F
p948
aa(lp949
VSOSNWDQ12AB01895BB
p950
aVSOXVCOA12A6701E1F5
p951
aa(lp952
VSOXDFKG12A8C1342B8
p953
aVSOJSHSS12AAF3B47C8
p954
aVSOMXMKN12AC468B522
p955
aa(lp956
VSOKNCNR12A6701FDEC
p957
aVSOJBWVZ12A8C143757
p958
aVSOUFHIQ12AB018F515
p959
aa(lp960
VSOWVZOF12AB018424B
p961
aVSOLGFRC12AB01813F0
p962
aa(lp963
VSOISOGI12A6D4F780F
p964
aVSOLZSQR12A6D4FCC2A
p965
aa(lp966
VSOUWRMY12A6D4FA141
p967
aVSORZDFC12AB01813D8
p968
aa(lp969
VSODCKDF12A8C136B9D
p970
aVSOLQOIZ12A8C142AE2
p971
aVSOBESPR12A8C140055
p972
aa(lp973
VSOEOMAU12A6D4FCCE9
p974
aVSOVQAQI12AB0188FF4
p975
aa(lp976
VSOIGXTM12AB0186DBE
p977
aVSOXYSFB12A8C142853
p978
aa(lp979
VSOEZGBH12AB0180130
p980
aVSOEDMSO12AB01897C6
p981
aVSOBSFRI12A8C139FEF
p982
aVSOTRWLM12A6D4F8E81
p983
aa(lp984
VSOHYGUA12A58A79257
p985
aVSOONWUM12A6D4F936D
p986
aVSOJYNTZ12A81C21A0A
p987
aVSORENUX12A6D4F88FF
p988
aVSODROWB12AB0181316
p989
aa(lp990
VSOHVLAD12A8C132F6B
p991
aVSOONFUB12A6D4FC1A8
p992
aa(lp993
VSOERNJR12B34F1EC21
p994
aVSOGIXRG12A8C135536
p995
aVSOKQJDK12A6D4F5F1C
p996
aVSOJONRL12AB01816FB
p997
aa(lp998
VSOCTRDB12AB0180FDB
p999
aVSOFKYFK12A6D4FD73D
p1000
aVSOFCVLP12AB017E87C
p1001
aa(lp1002
VSOVMEPK12A8C141C37
p1003
aVSODUOVI12A8C14074C
p1004
aa(lp1005
VSOXHGYU12A81C21F3F
p1006
aVSOLQOIZ12A8C142AE2
p1007
aa(lp1008
VSOUFJQO12A6D4F6B0A
p1009
aVSOQWPKL12A8C140F8E
p1010
aa(lp1011
VSONNVDX12A6D4FB509
p1012
aVSOJNFTM12AB017E08F
p1013
aVSOGIXRG12A8C135536
p1014
aVSOOVGJX12AB0188B94
p1015
aVSOWVNCY12AC468E465
p1016
aa(lp1017
VSOYQOIR12AB018B281
p1018
aVSOCDYZM12AC468A555
p1019
aVSOZACGN12A8C132417
p1020
aVSOJJPAO12AF729D67C
p1021
aa(lp1022
VSOWYWFB12CF5F88A8C
p1023
aVSOEVYFJ12A6D4F7657
p1024
aVSOAOTJM12A8C1380DA
p1025
aa(lp1026
VSOFNQHD12A8C13E38E
p1027
aVSOQLECX12A8C13E270
p1028
aVSOPAURM12A8C13B8D1
p1029
aa(lp1030
VSOAIKTL12A58A7EA5A
p1031
aVSOZNQOI12A58A79973
p1032
aVSOBMURV12A8C139E55
p1033
aa(lp1034
VSODJVRT12AC468F5F1
p1035
aVSONFIZE12AB018A3DB
p1036
aa(lp1037
VSOIYIMY12AB0186148
p1038
aVSOJDGNP12A8C13F5FA
p1039
aVSOHIPIA12A8C136320
p1040
aa(lp1041
VSOHOLXP12AB018A9FD
p1042
aVSOCCUOV12AB018329B
p1043
aVSOVQWJX12AB0183214
p1044
aVSOVUUZM12A6D4FB559
p1045
aa(lp1046
VSOUZXYJ12A8C142C7E
p1047
aVSONGBJH12A8C13692E
p1048
aVSODNPUK12AAF3B4547
p1049
aVSODROWB12AB0181316
p1050
aVSODGDIC12A58A7A443
p1051
aa(lp1052
VSOFXOXU12A8C142D92
p1053
aVSOOTYTN12AB018B63C
p1054
aVSOQEEMR12A6D4F7C5E
p1055
aVSOJIKXK12AB018743E
p1056
aa(lp1057
VSOWHBPR12AB01808C7
p1058
aVSOFXGKC12A8C1345D9
p1059
aa(lp1060
VSOCHBUE12AB017CA3B
p1061
aVSOQGBNJ12A67020335
p1062
aVSODGFOH12AF72A2292
p1063
aa(lp1064
VSOGRFFM12A8AE47266
p1065
aVSOMRSNE12AB017F3EA
p1066
aVSOPSJCL12A6D4FADE7
p1067
aa(lp1068
VSOAKVZT12A6310E216
p1069
aVSOBECLR12A6D22723E
p1070
aa(lp1071
VSODKQOF12A8C13B51F
p1072
aVSOMOJUG12A6D4F8173
p1073
aa(lp1074
VSOJBOKX12A8C13B8F0
p1075
aVSOHMYAX12A6D4F81F6
p1076
aVSOVEDPW12A8C14214A
p1077
aVSOHNEHJ12A8AE4573C
p1078
aVSOFKYFK12A6D4FD73D
p1079
aa(lp1080
VSOFYCVA12A58A77D38
p1081
aVSORZOQJ12AAF3B4B3F
p1082
aa(lp1083
VSOUXUWL12AB01827AB
p1084
aVSOVDHBN12A6D4F61AF
p1085
aa(lp1086
VSOGCCLX12A58A7BEB6
p1087
aVSOFWAWC12AB0185464
p1088
aVSOCPEFC12A58A79DDA
p1089
aVSOLTAFJ12A8C140F86
p1090
aVSONDGTZ12A8C139D2D
p1091
aVSODRMMM12AC468C29A
p1092
aa(lp1093
VSOHOPJU12A58A7F644
p1094
aVSOCHHHT12AB0188E9C
p1095
aaa(lp1096
g557
ag560
ag565
ag224
ag228
ag231
ag542
a(lp1097
VSOYBRXG12A58A776D6
p1098
aVSOBAIXZ12A8AE4770F
p1099
aa(lp1100
VSOOOWVT12AAF3B4A99
p1101
aVSOFFWTH12A6310D9E8
p1102
aag993
ag998
ag1002
ag966
ag604
ag611
a(lp1103
VSOPPXLM12AB01850E8
p1104
aVSOETAMO12A58A7909F
p1105
aa(lp1106
VSOHKNNA12AC4688846
p1107
aVSOMWURB12AC468EAE0
p1108
aag18
ag21
a(lp1109
VSOGLLRX12A67ADCF0D
p1110
aVSOJKRIW12A8C133F6E
p1111
aa(lp1112
VSOFCUWH12A8C142A7E
p1113
aVSOPCOIQ12AB017D69B
p1114
aVSOKHEDX12A6D4FAC70
p1115
aag852
ag839
ag842
ag789
ag793
ag434
ag437
a(lp1116
VSOWTDUW12AB0183DD0
p1117
aVSOBPNMG12AAF3B48D8
p1118
aa(lp1119
VSOSXGYR12A58A760D8
p1120
aVSOMNUOD12A8C13EFD1
p1121
aa(lp1122
VSOGPHDZ12AB0183404
p1123
aVSOYIVXI12A8AE46172
p1124
aa(lp1125
VSOJLHPU12AB018B1F2
p1126
aVSOOCDDX12A6D4FC92C
p1127
aag339
ag342
ag345
a(lp1128
VSOIPYQO12A6D4F82DE
p1129
aVSOLWUPG12AB0188179
p1130
aVSOJQCVF12D0219763F
p1131
aa(lp1132
VSOJJZHF12D02191574
p1133
aVSOBZMOI12A8AE4827F
p1134
aa(lp1135
VSOZPMEQ12A8C142F53
p1136
aVSOBBKGF12A8C1311EE
p1137
aVSOMLKNW12A58A792D7
p1138
aa(lp1139
VSOHWKJS12AB01851DA
p1140
aVSONWNEK12A67ADBD30
p1141
aag916
a(lp1142
VSOKEJRI12AB017C215
p1143
aVSOMBUZT12A8C141B9D
p1144
aag192
ag197
ag14
a(lp1145
VSOBGPSK12A679CF223
p1146
aVSOJGZNS12AC4689596
p1147
aVSODKZHY12AB017CB49
p1148
aag614
ag618
ag273
ag278
ag281
ag396
ag402
ag405
ag305
ag308
a(lp1149
VSOWSUXU12A8C13C7E5
p1150
aVSOIMIUC12AC907577D
p1151
aVSOGYCGW12A8C13757C
p1152
aag680
ag683
ag1034
ag1037
ag1041
ag1046
ag778
ag781
a(lp1153
VSOLWGVX12AC468C540
p1154
aVSOLPQNJ12AB0184C19
p1155
aa(lp1156
VSOFHPWH12A8C133113
p1157
aVSOVMEPK12A8C141C37
p1158
aa(lp1159
VSODHAKM12A58A7D72A
p1160
aVSOGCFRA12A8C13591A
p1161
aVSOCDSJV12A81C22C82
p1162
aVSOPIQEF12AB018A5DD
p1163
aa(lp1164
VSOMODHH12A8C1372BD
p1165
aVSOLUUQS12AB0181339
p1166
aVSOHMHLN12AC90977FE
p1167
aVSOKBJLF12A8C13E257
p1168
aVSOBTJAU12A81C23499
p1169
aag1086
ag1093
ag1068
ag597
ag363
ag366
ag370
ag664
ag667
ag670
ag673
ag676
ag726
ag734
ag739
a(lp1170
VSOPAUZU12A6D4F60D0
p1171
aVSOZWANW12AB018550E
p1172
aag835
ag545
ag549
ag554
a(lp1173
VSORCKZP12A8C1468F5
p1174
aVSOZYVRZ12AB0181D8D
p1175
aa(lp1176
VSOTYHDU12B35058AAF
p1177
aVSOBWIFN12A8C134C81
p1178
aVSOYBQUU12AB018BBED
p1179
aag6
ag10
ag939
ag942
ag946
ag949
a(lp1180
VSODJVRT12AC468F5F1
p1181
aVSOOWKBQ12AC468D0E8
p1182
aa(lp1183
VSOKJAXT12A8C13F543
p1184
aVSOEPQFH12AC4686AC5
p1185
aVSONFIZE12AB018A3DB
p1186
aVSOPHQIX12A8C137EDB
p1187
aa(lp1188
VSOAMJJV12A58A77723
p1189
aVSOLIHTZ12A8C141FCB
p1190
aVSOXPUNJ12AB0184B90
p1191
aVSOBRCHW12A6D4FB97B
p1192
aag235
ag594
ag716
a(lp1193
VSOANNUY12A8C140439
p1194
aVSOJOBSE12A58A7805F
p1195
aa(lp1196
VSOVODFR12A58A7D052
p1197
aVSOBRAUD12AB0183207
p1198
aa(lp1199
VSOHTCES12AC468865B
p1200
aVSOSMOVI12AC468990A
p1201
aa(lp1202
VSOMNIRO12AB018A656
p1203
aVSOHIMVD12AB017CE78
p1204
aag448
ag454
ag458
ag461
ag500
ag503
ag200
ag209
ag213
a(lp1205
VSOTHJHE12A58A7BB31
p1206
aVSODESVE12A8C1446D1
p1207
aa(lp1208
VSOAAPGE12A8C1321CC
p1209
aVSOKSXIL12A6D4FBDDD
p1210
aag42
ag45
ag373
ag378
ag969
ag973
ag976
ag979
ag984
ag760
ag763
ag767
ag1026
ag1030
ag621
ag506
ag510
ag513
ag349
ag352
ag357
ag328
ag331
ag334
a(lp1211
VSOQVMLI12A6D4F8319
p1212
aVSOLKDCY12A8C13803E
p1213
aa(lp1214
VSOBESPR12A8C140055
p1215
aVSOEYEOG12A6D4FD103
p1216
aVSOFPFYH12A6D4F93B7
p1217
aag165
ag168
ag171
a(lp1218
VSOIUTNG12A81C22DB1
p1219
aVSODKORI12A6D4F68B1
p1220
aa(lp1221
VSOEMWIW12A8C1420AF
p1222
aVSOQUQRC12A6310E89B
p1223
aVSOTSEJY12AB0180F56
p1224
aVSOCPLCG12A6D4F59EC
p1225
aa(lp1226
VSOYLDAD12AB0180641
p1227
aVSONZLKB12A8C13241C
p1228
aVSOEYEOG12A6D4FD103
p1229
aVSOCZSML12A6701D06C
p1230
aVSOMODHH12A8C1372BD
p1231
aVSOLJQOK12A8C14028B
p1232
aVSORSQOT12AB0182B63
p1233
aVSOGBFOX12AB0181B02
p1234
aVSOKCUER12AF729F510
p1235
aag829
ag832
ag494
ag497
ag1071
ag1074
ag1080
ag360
ag892
ag895
ag823
ag74
ag79
ag83
ag87
ag873
ag70
ag846
ag849
ag135
ag139
ag142
a(lp1236
VSOLOWDO12A58291376
p1237
aVSOVBOSK12A58A79EFC
p1238
aVSOSQBIQ12A8C13C05D
p1239
aag784
ag630
ag633
ag636
ag639
ag644
a(lp1240
VSOUEAGF12A8C131FBD
p1241
aVSOKJSQZ12A8AE47EDD
p1242
aag757
a(lp1243
VSOFNKEK12A8C13DBC5
p1244
aVSOAYVUP12D02199E41
p1245
aVSOFXPZA12A8C13DD8A
p1246
aa(lp1247
VSOSIGXF12A8C145736
p1248
aVSORBVDV12AB01857E1
p1249
aVSOALKBV12A6D4F6EE2
p1250
aVSOYCYDC12D021B3C6D
p1251
aVSOKSWOT12AB018C3F0
p1252
aVSOGNKVE12A8C13E9EE
p1253
aVSOLNIGM12D02197959
p1254
aa(lp1255
VSOYXCNB12A6D4F904F
p1256
aVSOCPJJW12A6D4F8E11
p1257
aVSONLRPO12D0219A01F
p1258
aa(lp1259
VSORACKL12A8C135FCA
p1260
aVSOTBFTW12D0219A1E6
p1261
aVSOEQQTS12AB0188315
p1262
aVSOEKGDM12AB0186354
p1263
aag264
ag747
ag752
ag484
ag488
ag491
ag423
ag427
ag430
ag1005
ag1008
ag1011
ag1017
ag29
ag284
ag290
ag902
a(lp1264
VSOBBKOJ12D021B2043
p1265
aVSOGBFOX12AB0181B02
p1266
aVSOTBOKS12A8C141CA1
p1267
aVSOHLHRN12CF5465207
p1268
aVSOJBMSC12A6D4F68F7
p1269
aVSOJTCUZ12AB018B8B8
p1270
aa(lp1271
VSOUBQUI12AC468ADCD
p1272
aVSOFYCVA12A58A77D38
p1273
aVSOASRRP12AB0180FDE
p1274
aVSOMBLQN12D0219333C
p1275
aag928
ag878
ag881
ag885
a(lp1276
VSOTVBRH12AF72A74C7
p1277
aVSOBJFWS12AB01878ED
p1278
aa(lp1279
VSOEWEHO12A6D4FA441
p1280
aVSOMJZLT12A8C140186
p1281
aVSOLKFQU12A6D4F9A74
p1282
aa(lp1283
VSOAJCSA12AC468C991
p1284
aVSODKVUC12A8159E8AF
p1285
aVSOMITBC12A58A7D9B8
p1286
aVSOFUYTQ12AC90719F0
p1287
aag574
ag578
ag658
ag661
ag174
ag178
ag181
ag186
ag189
a(lp1288
VSOCTFQW12AC4689ACF
p1289
aVSOSYCKO12AB0182678
p1290
aa(lp1291
VSOFXFQR12A8C1334B8
p1292
aVSOLVOOE12AB01897C0
p1293
aa(lp1294
VSODDYJY12A8C133393
p1295
aVSOFRCQM12A58A7D887
p1296
aVSOIDALD12AB0188320
p1297
aVSONOCTV12A8C143843
p1298
aVSOJYHCD12A58A7B671
p1299
aVSOXFLKC12A58A7C686
p1300
aVSOQSIUH12AB017FE13
p1301
aa(lp1302
VSOTKNTC12AB018E1D5
p1303
aVSOTELBI12AB01872BD
p1304
aVSOTLIQH12AB018796C
p1305
aa(lp1306
VSONLPIP12A8C137368
p1307
aVSOERNJR12B34F1EC21
p1308
aag313
ag317
ag320
ag1060
ag1064
ag408
ag952
ag956
ag960
ag963
ag477
ag480
ag91
ag94
ag931
ag935
ag906
ag909
ag913
a(lp1309
VSOCMCHV12AB0188DEC
p1310
aVSODKTET12A8C13125A
p1311
aa(lp1312
VSOYWRJH12A8C13BC6E
p1313
aVSOZLHHQ12B0B808819
p1314
aVSOFNREZ12A8C131268
p1315
aa(lp1316
VSOQFKLA12A58A7A127
p1317
aVSOIOSMN12AB018749E
p1318
aVSODGFLS12D0219050F
p1319
aa(lp1320
VSOOGHLY12A8C13C68F
p1321
aVSOLQOIZ12A8C142AE2
p1322
aa(lp1323
VSOXEZKP12A8C13BAA3
p1324
aVSORGUXE12A8C143E11
p1325
aVSOSWTMP12AB017C0F6
p1326
aVSOFMHMW12A6D4F9BE9
p1327
aVSOQSYUS12AB01801DB
p1328
aVSODJKLT12AB0180A1E
p1329
aVSOIVMDO12AB01838BA
p1330
aVSOKZPKU12A8C133A99
p1331
aa(lp1332
VSOHIUMZ12AB018325E
p1333
aVSOHZWGG12A8C1345D1
p1334
aag898
ag393
ag241
ag245
a(lp1335
VSOERMGZ12A8C137E14
p1336
aVSOCRWWH12A8C14410D
p1337
aVSOPITNP12A8C1408F9
p1338
aVSOPUJVG12A58A768FB
p1339
aVSODROWB12AB0181316
p1340
aVSOUZXYJ12A8C142C7E
p1341
aVSODGDIC12A58A7A443
p1342
aVSOHIPIA12A8C136320
p1343
aVSOXXTKU12AB017C76D
p1344
aVSONDPLZ12A8C13270C
p1345
aVSOGLSAC12A58A77DE3
p1346
aVSODDYJY12A8C133393
p1347
aVSOEPMAS12A58A7AE18
p1348
aVSOHBJUH12AB018B22D
p1349
aVSORRIYI12AB0183BF3
p1350
aVSOEWRPN12AB017CBCF
p1351
aVSOVNZDW12A8C1336A1
p1352
aVSOFZMFH12A8C144B75
p1353
aVSOJWIEL12AB01819E9
p1354
aVSOWNKOE12A8C13322D
p1355
aVSOGCFRA12A8C13591A
p1356
aVSOESRYL12A8C137E2B
p1357
aa(lp1358
VSOFGOLX12AAFF43ECA
p1359
aVSOYHRME12A58A8048E
p1360
aVSOMUWXQ12D02193456
p1361
aag126
ag129
ag132
ag516
ag648
ag654
a(lp1362
VSOQPOWZ12A8C137DF6
p1363
aVSORFNGF12A8C138F18
p1364
aVSOFWCBL12A8C138117
p1365
aVSOZZDBY12A81C234A0
p1366
aVSOZXXQW12AB017FAA2
p1367
aVSOURZQH12A8C13F690
p1368
aVSOYVNHZ12AB018A970
p1369
aVSOLHFNE12AAF3B3C0B
p1370
aVSOLWGVX12AC468C540
p1371
aVSOZMCOM12A8C13F945
p1372
aa(lp1373
VSOOGHLY12A8C13C68F
p1374
aVSONQGGH12A8C13982E
p1375
aVSOEOPAA12A6D4FB4E2
p1376
aa(lp1377
VSOUGWSA12AB018AD85
p1378
aVSOGLLRX12A67ADCF0D
p1379
aa(lp1380
VSOJAOSW12AB018B243
p1381
aVSOYWBWB12AB017EBB1
p1382
aag581
ag584
ag587
ag591
ag145
a(lp1383
VSOETLDX12A6D4F817F
p1384
aVSOTZZQP12AB0180DC0
p1385
aa(lp1386
VSOEDMSO12AB01897C6
p1387
aVSOEZLNN12A8C136946
p1388
aa(lp1389
VSODLGVB12A58A7863C
p1390
aVSOWIQDN12D021B2379
p1391
aVSOGCTJG12A8C143462
p1392
aa(lp1393
VSOXEKVK12A8C133668
p1394
aVSOCFCLI12AB0186EAA
p1395
aa(lp1396
VSOENGPQ12A8C13E9FE
p1397
aVSOGHPHQ12A6D4FA29D
p1398
aVSOKJSJR12A8C134190
p1399
aaa(lp1400
g581
ag584
ag587
ag591
ag1022
a(lp1401
VSOQBPES12A8C131B67
p1402
aVSODZDBP12A8C1442C2
p1403
aa(lp1404
VSOTRLCA12AF72A2D03
p1405
aVSOMKCLA12A8AE4562E
p1406
aVSOKSWOT12AB018C3F0
p1407
aVSOKCANM12A6D4F8A2E
p1408
aVSOQEPOG12A6D4F9F5A
p1409
aag993
ag998
ag1002
ag686
ag692
ag506
ag510
ag513
ag757
a(lp1410
VSOZHWCJ12A8C136F22
p1411
aVSONNZSK12AC90715DF
p1412
aa(lp1413
VSOKSHIZ12A8C137ADD
p1414
aVSODTFKE12AC468E71E
p1415
aVSOUGTKJ12A58A7C791
p1416
aag542
ag1060
ag1064
ag839
ag842
ag1236
ag464
ag470
ag474
ag1128
ag1132
ag1135
ag1139
a(lp1417
VSOALTVX12A6D4F852F
p1418
aVSOAFTLX12A6D4F8FC2
p1419
aVSOYKIOA12A6D4FA549
p1420
aVSOQPDTL12A81C21F19
p1421
aag1103
ag1106
ag192
ag197
ag145
ag823
ag408
ag829
ag832
ag1125
ag381
ag384
ag698
ag701
ag621
ag1153
ag1156
ag1159
ag1164
ag423
ag427
ag430
ag387
ag390
ag680
ag683
ag545
ag549
ag554
ag1383
ag1386
ag1389
ag1393
ag1396
a(lp1422
VSOKIWMW12A81C22CA9
p1423
aVSOJWTUL12A8C13411E
p1424
aVSOFEUMU12A67020A6C
p1425
aVSOJYKJV12A8C143CE1
p1426
aa(lp1427
VSOFWQAG12A8C14074A
p1428
aVSOFHMTF12AB0188D21
p1429
aag434
ag437
ag200
ag209
ag213
ag1071
ag1074
ag1080
ag519
ag527
ag1068
ag706
ag710
ag713
ag939
ag942
ag946
ag949
ag916
ag568
ag571
ag363
ag366
ag370
ag1034
ag1037
ag1041
ag1046
ag873
ag716
ag165
ag168
ag171
ag1083
ag726
ag734
ag739
ag373
ag378
ag396
ag402
ag405
a(lp1430
VSOJDFUM12AB0184B78
p1431
aVSOQYQOQ12A8C1381BA
p1432
aa(lp1433
VSOIASEA12A8C1319D0
p1434
aVSOGQFNS12A8C13A77A
p1435
aag966
ag1193
ag1196
ag1199
ag1202
ag789
ag793
ag594
ag267
ag270
ag74
ag79
ag83
ag87
ag1243
ag1247
ag1255
ag760
ag763
ag767
ag149
ag152
ag155
ag159
ag162
ag902
ag18
ag21
ag846
ag849
ag1142
ag1240
ag1377
ag1380
a(lp1436
VSOKUJQU12A8C1331C4
p1437
aVSOKXNTI12AC3DF44AA
p1438
aag1052
ag1057
ag1306
ag1205
ag1208
ag1097
ag1100
ag238
ag1026
ag1030
ag411
ag416
ag420
ag494
ag497
ag835
ag1276
ag1279
ag1283
ag42
ag45
ag224
ag228
ag231
ag898
ag630
ag633
ag636
ag639
ag644
ag1362
ag1373
ag91
ag94
ag658
ag661
ag1116
ag1119
ag1122
ag235
ag892
ag895
ag771
ag775
ag448
ag454
ag458
ag461
ag889
ag48
ag52
ag557
ag560
ag565
ag878
ag881
ag885
ag931
ag935
ag1211
ag1214
ag273
ag278
ag281
ag1005
ag1008
ag1011
ag1017
ag857
ag861
ag864
ag867
ag442
ag445
ag70
ag484
ag488
ag491
ag1259
ag919
ag922
ag925
ag928
ag339
ag342
ag345
ag969
ag973
ag976
ag979
ag984
ag597
ag516
ag174
ag178
ag181
ag186
ag189
ag778
ag781
ag249
ag252
ag258
ag261
ag1264
ag1271
ag29
a(lp1439
VSOFBMFI12A8C1426C0
p1440
aVSOZXQHF12A58A79168
p1441
aa(lp1442
VSOOCNDR12AF72A6292
p1443
aVSOXKTAV12A58A7E199
p1444
aag56
ag59
ag63
ag66
ag1170
ag305
ag308
ag393
ag14
ag1145
ag284
ag290
ag126
ag129
ag132
ag906
ag909
ag913
aa(lp1445
g648
ag654
ag757
ag931
ag935
ag1103
ag1106
ag857
ag861
ag864
ag867
ag1236
ag224
ag228
ag231
ag273
ag278
ag281
ag1180
ag1183
ag1188
ag952
ag956
ag960
ag963
ag516
ag604
ag611
ag1243
ag1247
ag1255
ag1306
ag744
ag1264
ag1271
ag1071
ag1074
ag1080
ag1125
ag574
ag578
ag494
ag497
ag1362
ag1373
ag568
ag571
ag784
ag32
ag35
ag39
ag796
ag804
ag807
ag813
ag816
ag820
ag1097
ag1100
ag658
ag661
ag1052
ag1057
ag902
ag1170
ag892
ag895
ag464
ag470
ag474
ag126
ag129
ag132
ag313
ag317
ag320
ag1410
ag1413
ag349
ag352
ag357
ag581
ag584
ag587
ag591
ag1153
ag1156
ag1159
ag1164
ag264
ag898
ag29
ag1439
ag1442
ag621
ag363
ag366
ag370
ag1276
ag1279
ag1283
ag1142
ag305
ag308
ag381
ag384
ag328
ag331
ag334
ag1086
ag1093
ag56
ag59
ag63
ag66
ag680
ag683
ag1383
ag1386
ag1389
ag1393
ag1396
ag889
ag1401
ag1404
ag165
ag168
ag171
ag91
ag94
ag852
ag1109
ag1112
ag557
ag560
ag565
ag919
ag922
ag925
ag771
ag775
ag1377
ag1380
ag1422
ag1427
ag1417
ag726
ag734
ag739
ag18
ag21
ag70
ag1116
ag1119
ag1122
ag396
ag402
ag405
ag174
ag178
ag181
ag186
ag189
ag241
ag245
ag238
ag442
ag445
ag484
ag488
ag491
ag149
ag152
ag155
ag159
ag162
ag966
ag6
ag10
ag1320
ag1323
ag1332
ag990
ag698
ag701
ag393
ag249
ag252
ag258
ag261
ag1026
ag1030
ag506
ag510
ag513
ag664
ag667
ag670
ag673
ag676
ag200
ag209
ag213
ag826
ag192
ag197
ag1430
ag1433
ag448
ag454
ag458
ag461
ag1193
ag1196
ag1199
ag1202
ag1149
ag267
ag270
ag1218
ag1221
ag1226
ag1005
ag1008
ag1011
ag1017
ag423
ag427
ag430
ag98
ag114
ag829
ag832
ag294
ag297
ag301
ag1240
ag906
ag909
ag913
ag135
ag139
ag142
ag760
ag763
ag767
ag411
ag416
ag420
ag839
ag842
ag624
ag627
ag969
ag973
ag976
ag979
ag984
ag1083
ag373
ag378
ag1173
ag1176
ag145
ag387
ag390
ag1259
ag1335
ag789
ag793
ag235
a(lp1446
VSOEBBGK12AB0186A62
p1447
aVSOLKXFC12AC96186F1
p1448
aVSOLMUHR12AB018B2D8
p1449
aVSOCFCLI12AB0186EAA
p1450
aVSOUFJQO12A6D4F6B0A
p1451
aVSOGIXRG12A8C135536
p1452
aVSOITCJG12A8C13443E
p1453
aVSOOIQZC12A6701FEA1
p1454
aVSOQPQTT12A58A782B0
p1455
aVSOCDDAS12A6D4FB24D
p1456
aa(lp1457
VSOJYNTZ12A81C21A0A
p1458
aVSOBNJHO12A6D4F842B
p1459
aa(lp1460
VSOJBMSC12A6D4F68F7
p1461
aVSOXJCOT12A6701C89B
p1462
aVSOHBHMN12A58A78CC5
p1463
aag1436
ag1211
ag1214
ag594
ag1128
ag1132
ag1135
ag1139
ag545
ag549
ag554
aa(lp1464
g557
ag560
ag565
ag1362
ag1373
ag1060
ag1064
ag835
ag1430
ag1433
ag484
ag488
ag491
ag852
ag771
ag775
ag784
ag614
ag618
ag1068
ag1383
ag1386
ag1389
ag1393
ag1396
ag680
ag683
ag574
ag578
ag1259
ag477
ag480
ag969
ag973
ag976
ag979
ag984
ag1446
ag1457
ag1460
ag494
ag497
ag952
ag956
ag960
ag963
ag1211
ag1214
ag706
ag710
ag713
ag1125
ag1410
ag1413
ag931
ag935
ag74
ag79
ag83
ag87
ag542
ag1005
ag1008
ag1011
ag1017
ag889
ag241
ag245
ag1264
ag1271
ag1288
ag1291
ag1294
ag1302
ag192
ag197
ag716
ag387
ag390
ag18
ag21
ag423
ag427
ag430
ag744
ag698
ag701
ag624
ag627
ag448
ag454
ag458
ag461
ag267
ag270
ag98
ag114
ag200
ag209
ag213
ag648
ag654
ag928
ag906
ag909
ag913
ag14
ag1306
ag313
ag317
ag320
ag174
ag178
ag181
ag186
ag189
ag442
ag445
ag846
ag849
ag1142
ag1358
ag1417
ag1276
ag1279
ag1283
ag1026
ag1030
ag1173
ag1176
ag149
ag152
ag155
ag159
ag162
ag1439
ag1442
ag939
ag942
ag946
ag949
ag500
ag503
ag545
ag549
ag554
ag597
ag363
ag366
ag370
ag56
ag59
ag63
ag66
ag264
ag823
a(lp1465
VSONQOKF12A6D4F8EC4
p1466
aVSOYSFLQ12A6D4FB890
p1467
aVSOZIRZE12A6D4F8A56
p1468
aVSOIKQMF12A6701C40C
p1469
aa(lp1470
VSOULHOL12AB01885D7
p1471
aVSONRDIS12A8C130C66
p1472
aVSOFHJPS12A6BD537A0
p1473
aa(lp1474
VSORBVDV12AB01857E1
p1475
aVSOOAHBX12AC4687467
p1476
aa(lp1477
VSONRUQQ12A8C143C11
p1478
aVSORCQRX12AF72AC4CC
p1479
aa(lp1480
VSORZOQJ12AAF3B4B3F
p1481
aVSORGGRP12A8C13DBDD
p1482
aVSOMPAVU12AB018586D
p1483
aVSOLEVAV12A8C135262
p1484
aVSODVWZM12A58A7B86D
p1485
aag898
ag165
ag168
ag171
ag568
ag571
ag892
ag895
a(lp1486
VSOECCBT12A8C132812
p1487
aVSOFZDGZ12A8C138683
p1488
aVSOLSDRY12AB017C587
p1489
aVSOEMTAV12AB018A03E
p1490
aa(lp1491
VSOANARV12A58A7CF20
p1492
aVSOJVDLT12A8C141B77
p1493
aVSORBFNH12A81C2141D
p1494
aa(lp1495
VSOENLKQ12A58A78E82
p1496
aVSOKYVVZ12A58A7A29D
p1497
aag135
ag139
ag142
ag393
ag826
ag990
ag1128
ag1132
ag1135
ag1139
ag249
ag252
ag258
ag261
ag829
ag832
ag3
ag747
ag752
ag396
ag402
ag405
ag1145
ag1401
ag1404
ag1205
ag1208
ag235
ag594
ag1022
ag339
ag342
ag345
ag760
ag763
ag767
ag224
ag228
ag231
ag6
ag10
ag1052
ag1057
ag1116
ag1119
ag1122
ag91
ag94
ag1153
ag1156
ag1159
ag1164
ag145
ag581
ag584
ag587
ag591
ag1086
ag1093
ag630
ag633
ag636
ag639
ag644
ag70
ag1071
ag1074
ag1080
ag1335
ag294
ag297
ag301
ag1240
ag42
ag45
ag1083
ag1149
ag873
ag966
ag1320
ag1323
ag1332
ag839
ag842
ag878
ag881
ag885
ag434
ag437
ag32
ag35
ag39
ag1193
ag1196
ag1199
ag1202
ag273
ag278
ag281
ag1218
ag1221
ag1226
ag1243
ag1247
ag1255
ag516
aa(lp1498
g1097
ag1100
ag928
ag519
ag527
ag1320
ag1323
ag1332
ag1149
ag1145
ag835
ag1259
ag1306
ag1276
ag1279
ag1283
ag1486
ag1491
ag1495
ag771
ag775
ag1211
ag1214
ag916
ag873
ag1180
ag1183
ag1188
ag411
ag416
ag420
ag658
ag661
ag839
ag842
ag621
ag931
ag935
ag1026
ag1030
ag1335
ag542
ag846
ag849
ag939
ag942
ag946
ag949
ag1358
ag1383
ag1386
ag1389
ag1393
ag1396
ag581
ag584
ag587
ag591
ag1170
ag145
ag249
ag252
ag258
ag261
ag1083
ag1410
ag1413
ag1218
ag1221
ag1226
ag1153
ag1156
ag1159
ag1164
ag135
ag139
ag142
ag597
ag796
ag804
ag807
ag813
ag816
ag820
ag1068
ag919
ag922
ag925
ag1236
ag1142
ag898
ag648
ag654
ag500
ag503
ag892
ag895
ag545
ag549
ag554
ag624
ag627
ag614
ag618
ag14
ag165
ag168
ag171
ag744
ag328
ag331
ag334
ag506
ag510
ag513
ag789
ag793
ag91
ag94
ag294
ag297
ag301
ag990
ag969
ag973
ag976
ag979
ag984
ag408
ag477
ag480
ag1446
ag1457
ag1460
ag680
ag683
ag993
ag998
ag1002
ag1116
ag1119
ag1122
ag778
ag781
ag1205
ag1208
ag726
ag734
ag739
ag966
ag192
ag197
ag594
ag906
ag909
ag913
ag829
ag832
ag393
ag264
ag1109
ag1112
ag1125
ag1128
ag1132
ag1135
ag1139
ag174
ag178
ag181
ag186
ag189
ag1022
ag857
ag861
ag864
ag867
ag1086
ag1093
ag568
ag571
ag6
ag10
ag823
ag387
ag390
ag339
ag342
ag345
ag1034
ag1037
ag1041
ag1046
ag434
ag437
ag423
ag427
ag430
ag757
ag574
ag578
ag878
ag881
ag885
ag1240
ag349
ag352
ag357
ag238
ag464
ag470
ag474
ag1103
ag1106
ag3
ag1362
ag1373
ag494
ag497
ag1422
ag1427
ag1005
ag1008
ag1011
ag1017
ag698
ag701
ag1071
ag1074
ag1080
ag1377
ag1380
ag760
ag763
ag767
ag516
ag852
ag604
ag611
ag396
ag402
ag405
ag889
ag1288
ag1291
ag1294
ag1302
ag273
ag278
ag281
ag284
ag290
ag1465
ag1470
ag1474
ag1477
ag1480
ag18
ag21
ag1439
ag1442
ag29
ag267
ag270
ag313
ag317
ag320
ag952
ag956
ag960
ag963
aa(lp1499
g393
ag581
ag584
ag587
ag591
ag1103
ag1106
ag1417
ag747
ag752
ag846
ag849
ag1097
ag1100
ag349
ag352
ag357
ag464
ag470
ag474
ag1288
ag1291
ag1294
ag1302
ag313
ag317
ag320
ag1430
ag1433
ag664
ag667
ag670
ag673
ag676
ag898
ag568
ag571
ag91
ag94
ag771
ag775
ag1022
ag74
ag79
ag83
ag87
ag249
ag252
ag258
ag261
ag14
ag360
ag545
ag549
ag554
ag889
ag574
ag578
ag1125
ag648
ag654
ag145
ag200
ag209
ag213
ag494
ag497
ag500
ag503
ag839
ag842
ag778
ag781
ag284
ag290
ag1068
ag516
ag192
ag197
ag966
ag1034
ag1037
ag1041
ag1046
ag1264
ag1271
ag1153
ag1156
ag1159
ag1164
ag1335
ag56
ag59
ag63
ag66
ag878
ag881
ag885
ag267
ag270
ag594
ag1109
ag1112
ag680
ag683
ag1005
ag1008
ag1011
ag1017
ag6
ag10
ag604
ag611
ag952
ag956
ag960
ag963
ag1240
ag373
ag378
ag1083
ag381
ag384
ag294
ag297
ag301
ag339
ag342
ag345
ag658
ag661
ag906
ag909
ag913
ag448
ag454
ag458
ag461
ag1218
ag1221
ag1226
ag305
ag308
ag1309
ag1312
ag1316
ag42
ag45
ag126
ag129
ag132
ag238
ag328
ag331
ag334
ag1128
ag1132
ag1135
ag1139
ag916
ag784
ag993
ag998
ag1002
ag264
ag823
ag1142
ag29
ag1173
ag1176
ag396
ag402
ag405
ag557
ag560
ag565
ag1320
ag1323
ag1332
ag1052
ag1057
ag597
ag829
ag832
ag1383
ag1386
ag1389
ag1393
ag1396
ag48
ag52
ag757
ag1486
ag1491
ag1495
ag363
ag366
ag370
ag1436
ag1211
ag1214
ag716
ag1026
ag1030
ag990
ag411
ag416
ag420
ag919
ag922
ag925
ag1071
ag1074
ag1080
ag224
ag228
ag231
ag434
ag437
ag423
ag427
ag430
ag165
ag168
ag171
ag857
ag861
ag864
ag867
ag706
ag710
ag713
ag928
ag70
ag484
ag488
ag491
ag1236
ag852
ag726
ag734
ag739
ag1259
ag1060
ag1064
ag3
ag1170
ag1377
ag1380
ag969
ag973
ag976
ag979
ag984
ag873
ag624
ag627
ag826
ag698
ag701
ag902
ag796
ag804
ag807
ag813
ag816
ag820
ag273
ag278
ag281
ag789
ag793
ag149
ag152
ag155
ag159
ag162
aa(lp1500
g1236
ag1309
ag1312
ag1316
ag664
ag667
ag670
ag673
ag676
ag423
ag427
ag430
ag74
ag79
ag83
ag87
ag680
ag683
ag931
ag935
ag771
ag775
ag1383
ag1386
ag1389
ag1393
ag1396
ag1193
ag1196
ag1199
ag1202
ag916
ag56
ag59
ag63
ag66
ag966
ag393
ag1125
ag1240
ag305
ag308
ag1026
ag1030
ag434
ag437
ag145
ag249
ag252
ag258
ag261
ag238
ag1306
ag574
ag578
ag1243
ag1247
ag1255
ag149
ag152
ag155
ag159
ag162
ag1401
ag1404
ag594
ag1083
ag477
ag480
ag846
ag849
ag604
ag611
ag1417
ag952
ag956
ag960
ag963
ag1052
ag1057
ag878
ag881
ag885
ag1071
ag1074
ag1080
ag408
ag829
ag832
ag545
ag549
ag554
ag906
ag909
ag913
ag18
ag21
ag939
ag942
ag946
ag949
ag1358
ag597
ag744
ag165
ag168
ag171
ag360
ag621
ag224
ag228
ag231
ag789
ag793
ag464
ag470
ag474
ag835
ag919
ag922
ag925
ag542
ag1218
ag1221
ag1226
ag1205
ag1208
ag1153
ag1156
ag1159
ag1164
ag1439
ag1442
ag1116
ag1119
ag1122
ag852
ag1446
ag1457
ag1460
ag1170
ag91
ag94
ag494
ag497
ag1097
ag1100
ag200
ag209
ag213
ag235
ag14
ag747
ag752
ag3
ag889
ag1264
ag1271
ag349
ag352
ag357
ag381
ag384
ag328
ag331
ag334
ag826
ag1086
ag1093
ag1410
ag1413
ag784
ag686
ag692
ag396
ag402
ag405
ag29
ag264
ag1320
ag1323
ag1332
ag516
ag48
ag52
ag1034
ag1037
ag1041
ag1046
ag630
ag633
ag636
ag639
ag644
ag557
ag560
ag565
ag442
ag445
ag294
ag297
ag301
ag892
ag895
ag796
ag804
ag807
ag813
ag816
ag820
ag448
ag454
ag458
ag461
ag411
ag416
ag420
ag135
ag139
ag142
ag1335
ag778
ag781
ag568
ag571
ag993
ag998
ag1002
ag1109
ag1112
ag857
ag861
ag864
ag867
ag1128
ag1132
ag1135
ag1139
ag1022
ag1436
ag706
ag710
ag713
ag1422
ag1427
ag363
ag366
ag370
ag70
ag581
ag584
ag587
ag591
ag1288
ag1291
ag1294
ag1302
ag273
ag278
ag281
ag1145
ag698
ag701
ag1430
ag1433
ag267
ag270
ag1149
ag1142
ag284
ag290
ag1259
ag902
ag313
ag317
ag320
aa(lp1501
g74
ag79
ag83
ag87
ag328
ag331
ag334
ag1170
ag238
ag373
ag378
ag857
ag861
ag864
ag867
ag829
ag832
ag423
ag427
ag430
ag604
ag611
ag29
ag1068
ag411
ag416
ag420
ag1422
ag1427
ag135
ag139
ag142
ag349
ag352
ag357
ag6
ag10
ag145
ag500
ag503
ag747
ag752
ag149
ag152
ag155
ag159
ag162
ag760
ag763
ag767
ag98
ag114
ag1439
ag1442
ag916
ag1125
ag18
ag21
ag484
ag488
ag491
ag726
ag734
ag739
ag545
ag549
ag554
ag1383
ag1386
ag1389
ag1393
ag1396
ag1052
ag1057
ag1149
ag1180
ag1183
ag1188
ag1086
ag1093
ag966
ag928
ag3
ag1128
ag1132
ag1135
ag1139
ag91
ag94
ag1071
ag1074
ag1080
ag165
ag168
ag171
ag1022
ag1083
ag249
ag252
ag258
ag261
ag969
ag973
ag976
ag979
ag984
ag658
ag661
ag624
ag627
ag594
ag1306
ag1142
ag789
ag793
ag1218
ag1221
ag1226
ag680
ag683
ag648
ag654
ag224
ag228
ag231
ag698
ag701
ag363
ag366
ag370
ag339
ag342
ag345
ag873
ag796
ag804
ag807
ag813
ag816
ag820
ag1417
ag1173
ag1176
ag581
ag584
ag587
ag591
ag381
ag384
ag241
ag245
ag597
ag464
ag470
ag474
ag506
ag510
ag513
ag784
ag1401
ag1404
ag716
ag273
ag278
ag281
ag294
ag297
ag301
ag574
ag578
ag1320
ag1323
ag1332
ag1264
ag1271
ag434
ag437
ag852
ag305
ag308
ag477
ag480
ag823
ag1211
ag1214
ag1486
ag1491
ag1495
ag516
ag898
ag664
ag667
ag670
ag673
ag676
ag1362
ag1373
ag14
ag1116
ag1119
ag1122
ag448
ag454
ag458
ag461
ag906
ag909
ag913
ag1240
ag126
ag129
ag132
ag1103
ag1106
ag892
ag895
ag1205
ag1208
ag778
ag781
ag442
ag445
ag744
ag200
ag209
ag213
ag1410
ag1413
ag1446
ag1457
ag1460
ag1335
ag557
ag560
ag565
ag878
ag881
ag885
ag494
ag497
ag931
ag935
ag614
ag618
ag192
ag197
ag630
ag633
ag636
ag639
ag644
ag919
ag922
ag925
ag1034
ag1037
ag1041
ag1046
ag32
ag35
ag39
ag1060
ag1064
ag1193
ag1196
ag1199
ag1202
ag313
ag317
ag320
ag1097
ag1100
ag1430
ag1433
ag1465
ag1470
ag1474
ag1477
ag1480
ag993
ag998
ag1002
ag846
ag849
ag1026
ag1030
ag42
ag45
aa(lp1502
g396
ag402
ag405
ag174
ag178
ag181
ag186
ag189
ag889
ag1034
ag1037
ag1041
ag1046
ag238
ag519
ag527
ag581
ag584
ag587
ag591
ag1264
ag1271
ag757
ag294
ag297
ag301
ag1153
ag1156
ag1159
ag1164
ag878
ag881
ag885
ag1071
ag1074
ag1080
ag630
ag633
ag636
ag639
ag644
ag1173
ag1176
ag823
ag411
ag416
ag420
ag42
ag45
ag1401
ag1404
ag1097
ag1100
ag789
ag793
ag273
ag278
ag281
ag339
ag342
ag345
ag1205
ag1208
ag1465
ag1470
ag1474
ag1477
ag1480
ag686
ag692
ag48
ag52
ag990
ag919
ag922
ag925
ag29
ag149
ag152
ag155
ag159
ag162
ag969
ag973
ag976
ag979
ag984
ag145
ag200
ag209
ag213
ag1170
ag1439
ag1442
ag771
ag775
ag241
ag245
ag906
ag909
ag913
ag726
ag734
ag739
ag1026
ag1030
ag14
ag1236
ag249
ag252
ag258
ag261
ag393
ag284
ag290
ag796
ag804
ag807
ag813
ag816
ag820
ag6
ag10
ag56
ag59
ag63
ag66
ag516
ag1410
ag1413
ag264
ag760
ag763
ag767
ag442
ag445
ag1422
ag1427
ag624
ag627
ag1218
ag1221
ag1226
ag784
ag542
ag658
ag661
ag305
ag308
ag1083
ag477
ag480
ag680
ag683
ag902
ag1335
ag408
ag1142
ag484
ag488
ag491
ag1005
ag1008
ag1011
ag1017
ag500
ag503
ag604
ag611
ag1145
ag1446
ag1457
ag1460
ag373
ag378
ag1276
ag1279
ag1283
ag1436
ag706
ag710
ag713
ag846
ag849
ag557
ag560
ag565
ag1180
ag1183
ag1188
ag839
ag842
ag98
ag114
ag826
ag135
ag139
ag142
ag1193
ag1196
ag1199
ag1202
ag126
ag129
ag132
ag1362
ag1373
ag1417
ag648
ag654
ag931
ag935
ag267
ag270
ag3
ag1309
ag1312
ag1316
ag857
ag861
ag864
ag867
ag434
ag437
ag1211
ag1214
ag313
ag317
ag320
ag423
ag427
ag430
ag74
ag79
ag83
ag87
ag1128
ag1132
ag1135
ag1139
ag744
ag835
ag387
ag390
ag568
ag571
ag1086
ag1093
ag1116
ag1119
ag1122
ag716
ag235
ag192
ag197
ag952
ag956
ag960
ag963
ag1259
ag747
ag752
ag1358
ag70
ag1486
ag1491
ag1495
ag360
ag165
ag168
ag171
ag966
ag574
ag578
ag1383
ag1386
ag1389
ag1393
ag1396
ag1243
ag1247
ag1255
ag1306
aa.