(lp1
(lp2
(lp3
VSOWYHGQ12A6701DF26
p4
aVSOIRSJB12AB01815B7
p5
aVSOAPRGQ12A6D4F8AAD
p6
aVSOUQZAB12A6D4F7C6B
p7
aa(lp8
VSODNYXG12A6D4FAC69
p9
aVSOZPZII12A8C1424A7
p10
aa(lp11
VSOEFJBN12A8C141555
p12
aVSOCHBRE12AB017B38B
p13
aVSOCPPHW12A8C142B91
p14
aa(lp15
VSOESTSE12AF72A1BA1
p16
aVSOUOKED12A8C133871
p17
aa(lp18
VSOUCHLY12A8C13CA6C
p19
aVSOLSDHR12AB018224B
p20
aa(lp21
VSOUAOBT12A8C13FABB
p22
aVSOCLFJY12A58A7BF64
p23
aa(lp24
VSOMISTH12A6310E059
p25
aVSOCIAFQ12AF72A154F
p26
aa(lp27
VSOXTVVG12A6D4F8F16
p28
aVSOFGIKI12A6D4F93CA
p29
aa(lp30
VSOMCLCA12AB01839A1
p31
aVSOONGJS12A6701DAAA
p32
aa(lp33
VSOCECSW12A58A7B6FD
p34
aVSOPUCXJ12A8C132C7E
p35
aa(lp36
VSOSNSQJ12AB018188C
p37
aVSOMRKHG12A8C1316F7
p38
aa(lp39
VSOFZNPK12AC468C02D
p40
aVSOGATYY12A8C13BA3F
p41
aVSOCBXXO12A8C134A85
p42
aVSOVEQNL12A8C13F2A5
p43
aa(lp44
VSOCPRXO12AB017F2F0
p45
aVSOTKCVY12A8C134438
p46
aa(lp47
VSOYVAFC12A8C139C19
p48
aVSOGCGEI12AC468D8D4
p49
aa(lp50
VSONGYMA12A6D4F8A32
p51
aVSOAIJIL12AC46861C4
p52
aa(lp53
VSODKYON12A6701DF2E
p54
aVSOUTMKU12A58A78365
p55
aa(lp56
VSOVEHML12AB018C38D
p57
aVSOXGJTG12AB0185F74
p58
aa(lp59
VSODJTZQ12A8C1321FF
p60
aVSOLPVHO12AB018C39A
p61
aVSOIXOZT12A6D4FA263
p62
aVSOQHXKV12A6D4F93CE
p63
aVSOCIHAA12A6D4FB496
p64
aa(lp65
VSOHHXLD12A8C13DE00
p66
aVSORBURG12A8C131637
p67
aVSONQQAI12A6D4F8F49
p68
aVSOAGRJW12A8C1424CA
p69
aa(lp70
VSOPGQUV12AC3DF46E6
p71
aVSOPKTJH12A8C142D73
p72
aVSOJJFTO12AAF3B1D4C
p73
aa(lp74
VSOJKOAN12A67AE0D72
p75
aVSOSWDBW12A6D4FBF97
p76
aVSOLQXBJ12A6D4F8F32
p77
aVSOHUYSI12AB018450C
p78
aa(lp79
VSOCQZST12A8C1425BD
p80
aVSOEMHGV12A8C13BC4A
p81
aVSOTLEHB12A8C135ED5
p82
aa(lp83
VSOEXCBA12AB0183318
p84
aVSOUFTRV12AB017F242
p85
aa(lp86
VSOENDQX12A8C1319E3
p87
aVSOLZNSD12A6D223BA6
p88
aa(lp89
VSOROSCX12A81C2372C
p90
aVSOTUNHI12B0B80AFE2
p91
aa(lp92
VSOMMPHN12AB0183CF6
p93
aVSOAUMDH12A8C13F2D4
p94
aa(lp95
VSOORUBT12CF5662662
p96
aVSOAQGHR12A8C136EB1
p97
aa(lp98
VSOADNRV12AB01815BB
p99
aVSOAKWNJ12AB0186B60
p100
aa(lp101
VSOFRCHU12A8C13F96B
p102
aVSOHQPYH12AB0189354
p103
aVSOFQKUE12AC468E22B
p104
aa(lp105
VSOLTVQF12A8C13170C
p106
aVSOYUATZ12A58A7BC99
p107
aa(lp108
VSOLELBW12A8C1386D0
p109
aVSOHLNKG12A8C143994
p110
aa(lp111
VSOBIEZV12AF72A298C
p112
aVSONVHSY12A6D4F61A1
p113
aa(lp114
VSODKTIY12AB0188309
p115
aVSOFCRRN12A58A78FC6
p116
aa(lp117
VSOYIKNE12A6D4F782E
p118
aVSOZVCTY12A6D4F7CAF
p119
aa(lp120
VSOEIVJS12AB01863A1
p121
aVSOHOGGK12AB017D699
p122
aa(lp123
VSOYBNDW12A8C1340CE
p124
aVSOFRQKQ12A6D4F8F2E
p125
aVSORVCJI12CF5F8909D
p126
aa(lp127
VSOBDMJA12A8C143AA5
p128
aVSODQSZN12AC3DF992C
p129
aa(lp130
VSOVUBJV12A58A7B7FB
p131
aVSOHDNRL12A8C142196
p132
aVSORSMNT12A8C1374A8
p133
aa(lp134
VSOWTQXT12A8C132A0A
p135
aVSOHXBSL12A8C136064
p136
aVSOLNQJJ12A58A78B54
p137
aa(lp138
VSOGCGEI12AC468D8D4
p139
aVSOSVMII12A6701F92D
p140
aa(lp141
VSOXTUHF12A8C1312B4
p142
aVSOMDVGP12A8C13C25A
p143
aVSOIDHYL12A58A7FA32
p144
aa(lp145
VSOONJCC12A58A7BC94
p146
aVSOCQWMC12A8C1429D1
p147
aVSOESGEF12AF72A8765
p148
aa(lp149
VSOSWHRD12A6D4FB458
p150
aVSORJJBT12AB0187562
p151
aVSOAIJFI12AB0188387
p152
aVSONTSLF12A8C137835
p153
aa(lp154
VSOJZCNZ12AB017F121
p155
aVSOYYKQG12AB01834A1
p156
aa(lp157
VSOPNSLI12AB0187C03
p158
aVSOCYKEW12A6D4F9A19
p159
aVSOHQRVJ12AAF3B556B
p160
aa(lp161
VSOUJBIK12AB01864F7
p162
aVSOLYEEU12A8C1359A1
p163
aVSOFZNPK12AC468C02D
p164
aa(lp165
VSOJAERR12A8C13F05E
p166
aVSOXZXKS12A58A7FBF7
p167
aVSOMPYIB12AB018A084
p168
aVSOHJKRU12AB017E58E
p169
aVSOBQPKN12A8C1359CA
p170
aVSOEBEOY12A58A7E0C0
p171
aVSOCECSW12A58A7B6FD
p172
aVSOXPARJ12A6D4F82CB
p173
aa(lp174
VSOQFQZA12AB0185E78
p175
aVSOEPYDK12A8C1430C3
p176
aVSOAPBPV12A8C1318FD
p177
aa(lp178
VSOLTVQF12A8C13170C
p179
aVSOSHVXK12AB0183221
p180
aa(lp181
VSOMBSDQ12A6D4F826F
p182
aVSOHIQOY12D02197AB5
p183
aVSODJNAE12A8C13E94F
p184
aa(lp185
VSOXBRHJ12AB0187AA3
p186
aVSONDUPV12A6D2270F0
p187
aa(lp188
VSOCODYN12AB01886E2
p189
aVSOEUPGM12CF5F88762
p190
aVSORJHCZ12A8C143351
p191
aa(lp192
VSOCRBVQ12A8C1337ED
p193
aVSOCAYNF12A6D4F8F13
p194
aVSOHWDOE12A58A79DD9
p195
aVSOEJSNC12CF5826617
p196
aVSOHIZEN12A8C1428D1
p197
aVSOFYNXN12A6701E71A
p198
aa(lp199
VSOEUKVP12D02193414
p200
aVSONRBVQ12A6310D98F
p201
aa(lp202
VSONMZGV12A8C1345FC
p203
aVSOHXXKA12AB0187136
p204
aa(lp205
VSOZFULT12A8C1331F7
p206
aVSOAZYFB12A58A7B8E2
p207
aa(lp208
VSORYWOD12A6D4FAC6B
p209
aVSOZOBDJ12AC9073140
p210
aa(lp211
VSOINBGK12AB017E8A5
p212
aVSOOXNPG12A6D4FAD3B
p213
aVSOITICP12AAF3B51F0
p214
aVSOFUREG12AB017DAA0
p215
aa(lp216
VSOZACVW12A6D4F7A62
p217
aVSOFZOAB12A6D4FA51A
p218
aa(lp219
VSOQMHRO12A58A7C3D6
p220
aVSOMRECE12A6D4FA51E
p221
aa(lp222
VSOFTVVN12AB0184A00
p223
aVSOYTMPT12A6D4FB545
p224
aVSOKOHAA12A58A7B453
p225
aa(lp226
VSOVKVDO12A6D4F9DDE
p227
aVSOLCCPD12A58A79FC2
p228
aa(lp229
VSOOXZXC12A8C1351A5
p230
aVSOJIIXR12AF72A12A1
p231
aVSOKBKNC12A8151BDB5
p232
aVSOJWBHS12A8C1363E6
p233
aa(lp234
VSOGMNIC12A58A7EC10
p235
aVSOQXDYR12AB018E661
p236
aa(lp237
VSOMNWBH12A8C13F1C9
p238
aVSOCJYLF12A8C139C73
p239
aa(lp240
VSOXUVTM12A6701CE51
p241
aVSOQKBZF12AB018B55C
p242
aa(lp243
VSOJZARS12AB018B19D
p244
aVSOEASGM12A8C137A2A
p245
aVSOOCBPM12A6D4FA376
p246
aVSOHZNDW12AB0181584
p247
aa(lp248
VSOAHGNU12AAFD96E35
p249
aVSOFJCHC12A8C13AA0E
p250
aVSOATTFV12A8C134103
p251
aa(lp252
VSOICZKW12D02195248
p253
aVSOTWYCQ12A8C137B43
p254
aVSOXLOVY12AB018156D
p255
aVSOMJEIY12A8C1338AF
p256
aa(lp257
VSOTXEXP12AB0188DF5
p258
aVSOUFTRV12AB017F242
p259
aVSOLNFGY12A8C133EB2
p260
aa(lp261
VSOHAQXR12A8C134597
p262
aVSOFPBVB12A58A7B113
p263
aa(lp264
VSOOEHXM12A8C13E34B
p265
aVSOKXDWX12AB018A29E
p266
aa(lp267
VSOJUALO12AC468756B
p268
aVSOJRLAX12A6701E0A0
p269
aa(lp270
VSORTFZX12A6D4FE6B3
p271
aVSOYWPMG12A6D4F901A
p272
aa(lp273
VSOGTJEU12A8AE48D56
p274
aVSOPBFNK12AB01863DB
p275
aa(lp276
VSOLVXHL12AB017CE5E
p277
aVSOQFQNA12A6D4F822E
p278
aa(lp279
VSOIHJXX12A6D4FBE70
p280
aVSODUHRA12AB0189B98
p281
aa(lp282
VSOSHERD12AF72ABE91
p283
aVSOHYXEP12A58A7A253
p284
aa(lp285
VSOIQMDF12A8C143684
p286
aVSOONYBD12AB018553B
p287
aVSOAQIVJ12A8C132D29
p288
aa(lp289
VSOBWOWZ12AB01816ED
p290
aVSOCRLBT12AF72A77C5
p291
aa(lp292
VSOBPYKR12AB017DD2F
p293
aVSOBKTKO12AB01857FD
p294
aVSOMUKRE12A8C13CC44
p295
aVSOCCUOV12AB018329B
p296
aa(lp297
VSOBIONY12A6D4F5C2F
p298
aVSOKCDXG12A8AE45D16
p299
aa(lp300
VSOSJLGH128A6A731D4
p301
aVSOQWTCB12D021932D4
p302
aa(lp303
VSOAUWJQ12A8C13ADCF
p304
aVSOFVGQH12A6D4F7E8E
p305
aa(lp306
VSOFVGQH12A6D4F7E8E
p307
aVSOUKOON12AB01824D6
p308
aa(lp309
VSOGIPUW12A8C134D73
p310
aVSOPXLVG12A8C136469
p311
aa(lp312
VSONOVZP12A6310DC22
p313
aVSOICZKW12D02195248
p314
aa(lp315
VSOUICFN12A6D4F7E8F
p316
aVSONKEUY12A8C133870
p317
aa(lp318
VSORVIKE12A6D4FBA83
p319
aVSOJWMLI12A6D4F7CBC
p320
aa(lp321
VSOQREXY12A8C13894B
p322
aVSOKDSHM12AB018BFC5
p323
aa(lp324
VSOVWFWB12A8C1439BE
p325
aVSOXWEEW12A6D4F8D46
p326
aVSODKYON12A6701DF2E
p327
aVSOTSXND12A6701FEF8
p328
aa(lp329
VSOMSZYS12AB0185F64
p330
aVSOBIONY12A6D4F5C2F
p331
aVSOZEANC12A8C14487F
p332
aa(lp333
VSOBXSTW12A8C137288
p334
aVSOYZARX12AB01882E1
p335
aVSOCGLQU12AB018A6C5
p336
aVSOHIQOY12D02197AB5
p337
aa(lp338
VSOZLLTW12AB017F238
p339
aVSOJXYXP12AC9072E56
p340
aa(lp341
VSOAUYSC12A6D4FC5CD
p342
aVSOKLRUZ12AB0189775
p343
aa(lp344
VSOIIPEN12AB017F316
p345
aVSOXLSUI12AB0185F59
p346
aa(lp347
VSOAQGHR12A8C136EB1
p348
aVSOFOZSG12A8C141206
p349
aVSOLOUIR12A6310D7B4
p350
aVSODJCTM12A8C1345B6
p351
aa(lp352
VSOCKQOE12D0219A9A0
p353
aVSOZYUGZ12A8AE472AC
p354
aa(lp355
VSODIDNB12A58A7E9FC
p356
aVSOASLNW12A58A7ABEC
p357
aVSOELQEU12A6D4F62EE
p358
aa(lp359
VSOOMEJL12D0219A295
p360
aVSOFQNWM12AB0186B55
p361
aa(lp362
VSOMMWBA12AB0189FEA
p363
aVSOAWHUJ12AB0181465
p364
aVSOIYQTX12AB017F4A1
p365
aa(lp366
VSOTIILU12A8C133588
p367
aVSOGZFMF12A6D4F8D7B
p368
aVSOJSFYH12AB0187BD0
p369
aVSODJNAE12A8C13E94F
p370
aa(lp371
VSOJIWXC12A6D4F6B9A
p372
aVSOZLLTW12AB017F238
p373
aVSOZPATP12AAFF429EB
p374
aa(lp375
VSOTNZVH12A8C143280
p376
aVSONFOKB12A8C135901
p377
aVSOCRZMQ12A8C141DDE
p378
aVSOMMOJQ12AF72A1D07
p379
aVSOZSXXP12A8C132E02
p380
aVSOJOGKL12A6D4F66FA
p381
aa(lp382
VSOFOGNU12A8C1356F6
p383
aVSOEJOGQ12A6D4F8A90
p384
aVSOHIZEN12A8C1428D1
p385
aVSOOOYWG12AB0184CAA
p386
aVSOXUVTM12A6701CE51
p387
aVSOXBRHJ12AB0187AA3
p388
aVSOGONDC12D02193668
p389
aVSOJAZXW12A8C139C35
p390
aVSOIYQTX12AB017F4A1
p391
aVSOXLXEN12A58A7B0B5
p392
aa(lp393
VSORVCJI12CF5F8909D
p394
aVSOIHKHI12A8C1365C7
p395
aa(lp396
VSODIWFB12A6D4F9328
p397
aVSOFTJHG12A8C13B6B5
p398
aa(lp399
VSOZAOPE12AB017FB87
p400
aVSOKUJYF12AB01899C7
p401
aa(lp402
VSOXZXKS12A58A7FBF7
p403
aVSOKVSXZ12A6D4FDF49
p404
aa(lp405
VSOZRLFJ12A58A79CED
p406
aVSONMDET12A6D4FCB42
p407
aa(lp408
VSOHKWON12AB0182B4F
p409
aVSOSLTPA12AB0185C60
p410
aVSOJGEQK12A8C133180
p411
aa(lp412
VSOESQVE12AB017FD55
p413
aVSOQVLOK12AB017E8BC
p414
aVSOWQRIN12AC4686DBA
p415
aa(lp416
VSOZAOPE12AB017FB87
p417
aVSOINVUY12A8C13E190
p418
aa(lp419
VSOZWUPI12AF72A26E2
p420
aVSOKMAZS12A8C131EC8
p421
aVSOBWPAJ12A6701F92C
p422
aVSOBDCGZ12AB018222F
p423
aVSOBMWXO12A8C132120
p424
aa(lp425
VSOPKWFJ12A8C139D20
p426
aVSOGJOWV12A58A7AF0E
p427
aVSOATOQQ12AAF3B1EBB
p428
aa(lp429
VSOQSTTS12A6701F92B
p430
aVSOKHEDX12A6D4FAC70
p431
aVSOOKEEB12A6D4FA78D
p432
aVSOJRUAF12CF530E600
p433
aVSOCNOXN12A6D4F4CBB
p434
aa(lp435
VSOXOAYG12A58291B30
p436
aVSOISJXU12AB0182513
p437
aa(lp438
VSOHJPLG12AB018011D
p439
aVSOJCTKP12D021933BE
p440
aVSOITBBB12A6D4FB8F6
p441
aa(lp442
VSOEIGMH12AB017E9BD
p443
aVSOVDALN12A8C13707E
p444
aa(lp445
VSOKMAZS12A8C131EC8
p446
aVSOAUPFE12A8C143239
p447
aa(lp448
VSOHIQOY12D02197AB5
p449
aVSOGCGEI12AC468D8D4
p450
aVSOQGVMZ12A8C13C432
p451
aa(lp452
VSOVCJGI12D021979E5
p453
aVSOTFSDM12AB0187948
p454
aVSODBXFD12AB018010F
p455
aa(lp456
VSOGFRBJ12AF72A2747
p457
aVSONSNAS12A58A796A9
p458
aa(lp459
VSOZRVLJ12A8C143303
p460
aVSOOVKSQ12A67ADF3ED
p461
aa(lp462
VSOKOJUC12A6D4F6F6C
p463
aVSONMZGV12A8C1345FC
p464
aVSODIDHX12A8C13C43E
p465
aVSOHKPSL12A8C13AA88
p466
aa(lp467
VSOAOAHU12AF72A2F98
p468
aVSOMJPWW12A8C1340EE
p469
aa(lp470
VSOQVIPD12A8C14384E
p471
aVSODJTZQ12A8C1321FF
p472
aVSOTRHJL12AB017CCB8
p473
aa(lp474
VSOLKFQU12A6D4F9A74
p475
aVSOIHPOJ12AB018D9BA
p476
aVSOEQSQL12A8C137DA1
p477
aa(lp478
VSOOWYLL12AB017DAC4
p479
aVSOTUBVH12AB018D2EC
p480
aa(lp481
VSOMHAEW12AB01897B0
p482
aVSOSKKVC12A58291BFE
p483
aa(lp484
VSOOMKYY12A8C1338AB
p485
aVSOCALIS12D021B3960
p486
aVSOAIJIL12AC46861C4
p487
aVSOYZAFE12A8C131595
p488
aa(lp489
VSOQEDXW12A8C13F875
p490
aVSOICZKW12D02195248
p491
aa(lp492
VSONJXPB12AB0183046
p493
aVSORZUVS12A6D4F9F83
p494
aa(lp495
VSOEKEWV12A8C138963
p496
aVSODJWBD12A8C136AE9
p497
aVSOPGSZT12A58A7BC1A
p498
aa(lp499
VSOZNRGG12A8C144EBC
p500
aVSOGGNKM12A6D4FBF4B
p501
aa(lp502
VSOXFKFQ12D02192F85
p503
aVSOFCRRN12A58A78FC6
p504
aa(lp505
VSOUPEHT12A6D4F8F30
p506
aVSOMBSDQ12A6D4F826F
p507
aVSOSARHS12AB017C53B
p508
aVSOESOCJ12A8C135B00
p509
aa(lp510
VSODYOER12A8C143688
p511
aVSOEIWRF12A6D4F9A78
p512
aa(lp513
VSOGSQWH12A8C14249F
p514
aVSOLAOTV12AB018E1F2
p515
aVSOFYNXN12A6701E71A
p516
aVSOGCDIG12A6D4F892E
p517
aa(lp518
VSOUIVLG12A6D4FAC6D
p519
aVSORPZCT12A6D4F925B
p520
aa(lp521
VSOBQHCC12A8C13B469
p522
aVSOVDLVW12A6701F92F
p523
aa(lp524
VSOHDSLQ12AB0183BAA
p525
aVSOYQOTW12AB0182527
p526
aVSODTRQE12AB017FEAC
p527
aVSOCQLOC12A8C13B0ED
p528
aVSOISVNH12D02197EF0
p529
aVSOGCGEI12AC468D8D4
p530
aVSOKTEUU12CF5F88920
p531
aVSONQXBK12A8C133169
p532
aVSOBYIDW12A8C140116
p533
aVSOBIDQQ12A8C142CF9
p534
aa(lp535
VSOJZCNZ12AB017F121
p536
aVSONHKII12A8C13B8AA
p537
aa(lp538
VSOEIYKX12A8C132BBB
p539
aVSOQDGHY12A6D4F9FD6
p540
aa(lp541
VSOZSXXP12A8C132E02
p542
aVSOLQLOQ12A8C13D444
p543
aa(lp544
VSOVWKKH12A6D4FB7FD
p545
aVSOGQTPB12A8C141440
p546
aVSOSRLIN12A8C130E4A
p547
aa(lp548
VSOTCFNP12A58A79509
p549
aVSOXSVAP12A8C12FC56
p550
aa(lp551
VSOAERVR12B0B80B3EF
p552
aVSOLSLDN12A6D4FB498
p553
aa(lp554
VSOFMFIJ12A8C13225E
p555
aVSOHDSLQ12AB0183BAA
p556
aa(lp557
VSOHJPLG12AB018011D
p558
aVSOEIJEN12AB01886C2
p559
aVSOHNVZZ12A6D4FCEA2
p560
aVSOGAXLL12A6D4F7D94
p561
aVSOJOGKL12A6D4F66FA
p562
aVSOOOYWG12AB0184CAA
p563
aa(lp564
VSOIERRR12AB017F4C2
p565
aVSOIYQTX12AB017F4A1
p566
aa(lp567
VSOJVLWL12CF5F87001
p568
aVSOWTQXT12A8C132A0A
p569
aVSOBZHFB12A58A7B220
p570
aVSORBDKQ12A8C132032
p571
aVSODHKPO12A8C134D7F
p572
aa(lp573
VSODBWKM12A8151AB62
p574
aVSOATRCM12A8C132BBD
p575
aa(lp576
VSOEIVZW12AB0189AB9
p577
aVSOSTFHK12A8C13CB5D
p578
aa(lp579
VSOSERZH12A8C142A38
p580
aVSOQGVMZ12A8C13C432
p581
aa(lp582
VSOTRJTA12AB0180A36
p583
aVSORLFTB12AB0185F7F
p584
aa(lp585
VSOIQMDF12A8C143684
p586
aVSOIDSRS12A6D4F8F1B
p587
aVSOBHQAM12A6D4FC9A6
p588
aa(lp589
VSOWSLXZ12AF72A8241
p590
aVSOEYEYQ12A8C139D68
p591
aVSOFVGFE12A6D4F64E6
p592
aa(lp593
VSOZHARR12A8C133E98
p594
aVSONYOGR12A8C13FAFD
p595
aVSOCPDQN12A58A775A2
p596
aVSOETSGM12A8C13B806
p597
aa(lp598
VSOCRFJO12A6D4F9D80
p599
aVSODBPGL12A58A7C77B
p600
aVSOWZMGC12AB018612C
p601
aVSODQWWW12A6D4F6965
p602
aa(lp603
VSOAQIVJ12A8C132D29
p604
aVSOGCYRH12A6D4F93AF
p605
aa(lp606
VSOHYIFL12A6D4F84D8
p607
aVSOVPXWA12A6D4F8999
p608
aVSOHYTZK12A58A7B641
p609
aa(lp610
VSOFSVLL12A8C1317CB
p611
aVSOXFUSJ12AB017EF71
p612
aVSOZXEVE12A6D4F9B44
p613
aa(lp614
VSOGQLOI12AB01836F8
p615
aVSOEJYBW12A8C134B17
p616
aa(lp617
VSOOFSDV12AC9097267
p618
aVSOQACAA12A6D4F744C
p619
aVSOFFFYA12AB017D23E
p620
aVSOWZYRE12A8C136F0D
p621
aa(lp622
VSOLIMDY12A6D4F4E6F
p623
aVSOIVDEB12CF5CFD6B7
p624
aa(lp625
VSOKBAMP12A6D4F8F22
p626
aVSOSLBVK12A6701E5EC
p627
aVSOPPIGR12AB017E58F
p628
aVSORBURG12A8C131637
p629
aVSOWVELM12A8C13194F
p630
aa(lp631
VSOEMDUN12AB01838BD
p632
aVSOTAQTI12A8C13D04B
p633
aVSOTSWEZ12A6701EF87
p634
aa(lp635
VSOIFNHN12AB018614F
p636
aVSOBVSSA12AB0188E71
p637
aa(lp638
VSOSQSPQ12A6D4FA18D
p639
aVSOERWXU12A8C13A9A6
p640
aVSODJCTM12A8C1345B6
p641
aVSOXLEAY12AB017F678
p642
aa(lp643
VSONSBLZ12A6D4FAD3D
p644
aVSOKEHPL12AAF3B51A5
p645
aa(lp646
VSORBURG12A8C131637
p647
aVSOZOSTH12A6D4FB48E
p648
aa(lp649
VSOLELBW12A8C1386D0
p650
aVSOCUUFO12A58A7A551
p651
aVSOTDKQX12A8C138A3C
p652
aa(lp653
VSOQKWYU12A8C139C55
p654
aVSOXLXEN12A58A7B0B5
p655
aa(lp656
VSOCJJDW12AB017DB68
p657
aVSOLUYLK12A8C137F43
p658
aVSOMMOJQ12AF72A1D07
p659
aa(lp660
VSOVZAGR12A8C13FBDA
p661
aVSOCQNHD12A58A794E9
p662
aVSOKWYIS12A6D4F90BA
p663
aVSOBIDQQ12A8C142CF9
p664
aa(lp665
VSOUNRQU12A6D4F9A2B
p666
aVSORLWFQ12A8159E93E
p667
aVSOABOPU12A58A7D44A
p668
aVSOHNVZZ12A6D4FCEA2
p669
aa(lp670
VSOJAZXW12A8C139C35
p671
aVSOGCGEI12AC468D8D4
p672
aa(lp673
VSOLYIZF12AB017A502
p674
aVSOHZWUD12AF72AAA0C
p675
aa(lp676
VSOKMDMQ12A58A7AAC6
p677
aVSOAOHRU12A8C13412E
p678
aa(lp679
VSORHRLL12AB0187F09
p680
aVSOZOGMK12AB0186173
p681
aVSOMKQLM12A8C13F6BE
p682
aa(lp683
VSOLVXHL12AB017CE5E
p684
aVSOZACVW12A6D4F7A62
p685
aa(lp686
VSOLELBW12A8C1386D0
p687
aVSONMIVJ12A58A76E0B
p688
aVSOJIWXC12A6D4F6B9A
p689
aVSOINEXW12A58A790F1
p690
aa(lp691
VSOIJEKT12AB018CA4E
p692
aVSOGKCGN12AB018385D
p693
aVSOKNVNL12A6D4F8985
p694
aVSOLJDAI12AB0182785
p695
aa(lp696
VSOSDKNR12A8C143A17
p697
aVSOWZRWJ12A8C141D63
p698
aVSOVWDUU12AB01837F7
p699
aa(lp700
VSOYXVVR12A8C133180
p701
aVSOCHGIL12AB01899D6
p702
aa(lp703
VSOCIBOW12A6D4F6E22
p704
aVSOHNODH12A6D4F8C93
p705
aVSOTETIE12A8C1360DF
p706
aVSOLWGVX12AC468C540
p707
aVSONFUPA12A6D4FC52D
p708
aa(lp709
VSOUCPNE12A58A7A253
p710
aVSODENVZ12A8C1430F4
p711
aVSOKPECC12A8C144E4A
p712
aa(lp713
VSORFAUX12B0B8076DC
p714
aVSOSEQCI12A8C13438D
p715
aVSOVVRDZ12A8C140168
p716
aVSOLTQZY12A8C13262F
p717
aa(lp718
VSOWOEKH12A58A7E811
p719
aVSOOFYFP12A6D4F7902
p720
aVSONHAWL12A6310F260
p721
aa(lp722
VSOELTHC12AC46882FD
p723
aVSOZEANC12A8C14487F
p724
aa(lp725
VSOCHPOR12AB017F669
p726
aVSOECHHY12A8C135C17
p727
aa(lp728
VSOBKPLD12D021987E0
p729
aVSOKMVCY12AC3DFAC4B
p730
aVSOCPTSI12A8C139D75
p731
aa(lp732
VSONEQBH12A6D4F8A06
p733
aVSOUFTRV12AB017F242
p734
aa(lp735
VSOWXLET12A8C145945
p736
aVSOMJEIY12A8C1338AF
p737
aVSOSLYGK12AB017D6C0
p738
aa(lp739
VSOLCAUL12A6D4F9078
p740
aVSOQNUDF12A8C1393BE
p741
aa(lp742
VSOXBRHJ12AB0187AA3
p743
aVSOBACAC12A8C13B8A5
p744
aVSOLUYLK12A8C137F43
p745
aVSOXGTYW12A8C133C01
p746
aVSOWNBDK12A6D4F8246
p747
aVSOMMOJQ12AF72A1D07
p748
aVSOMXDPU12A58A7D51C
p749
aVSOBPYKR12AB017DD2F
p750
aVSOALZGH12A8C132F57
p751
aVSOHNVZZ12A6D4FCEA2
p752
aVSOOMEJL12D0219A295
p753
aVSOLMBJT12A8AE488EF
p754
aa(lp755
VSOCJJDW12AB017DB68
p756
aVSONQWBV12A8C139493
p757
aa(lp758
VSOZURKJ12A6D4FC6C0
p759
aVSOXLXEN12A58A7B0B5
p760
aVSOJRUAF12CF530E600
p761
aa(lp762
VSOFYNXN12A6701E71A
p763
aVSOIZDEP12A6D4F8F14
p764
aa(lp765
VSOTWQGI12A6D4F905D
p766
aVSOUAYZJ12AF72A315B
p767
aa(lp768
VSOUAYZJ12AF72A315B
p769
aVSOCHBRE12AB017B38B
p770
aa(lp771
VSOCWZVC12A6D4F92CD
p772
aVSOFVGQH12A6D4F7E8E
p773
aa(lp774
VSOVUURR12AAF3B5322
p775
aVSOCUCJJ12A8C134B16
p776
aa(lp777
VSOXERNT12A58A78DBE
p778
aVSODQPPG12A8AE48559
p779
aVSOSSYMK12A58A78B52
p780
aa(lp781
VSONZPWW12AB01865C9
p782
aVSOBCMMU12AAF3B4AF6
p783
aa(lp784
VSOCLHEG12AB0184EAB
p785
aVSONWUNB12A8C13BAEB
p786
aa(lp787
VSOBXVNA12AAA15FBC7
p788
aVSOHIZEN12A8C1428D1
p789
aVSOLEOKZ12A58A7A038
p790
aVSONDUPV12A6D2270F0
p791
aVSOBIONY12A6D4F5C2F
p792
aVSOEZSVG12AB0184FD0
p793
aa(lp794
VSORGDXR12A8C1436E6
p795
aVSOBETWP12AB0189DB0
p796
aVSOEBEOY12A58A7E0C0
p797
aa(lp798
VSOVWDUU12AB01837F7
p799
aVSOFMFIJ12A8C13225E
p800
aa(lp801
VSOMCRUY12A8C139856
p802
aVSOXYUVR12A67020490
p803
aa(lp804
VSOIYSAO12A6D4F761C
p805
aVSOMLZCR12A8C131B51
p806
aa(lp807
VSOXSRAD12D02193301
p808
aVSOHPGGI12A8C139BAF
p809
aVSOVHIGB12A8AE46CB0
p810
aa(lp811
VSOLDBDO12A8C13F4C5
p812
aVSOROJYH12A6D4F7EA7
p813
aa(lp814
VSODQSZN12AC3DF992C
p815
aVSOKBXMS12AB018E36F
p816
aa(lp817
VSOMWCGL12AC96186CA
p818
aVSOADGIC12AB017CCEA
p819
aa(lp820
VSOIRRPN12A81C21A14
p821
aVSOEZWXL12AB018ADD7
p822
aVSOONWYT12AB017E552
p823
aVSOEOCKL12AB017D5EF
p824
aVSOMBGVM12AB018E372
p825
aa(lp826
VSONFHGW12D021B3CAD
p827
aVSOSLTPA12AB0185C60
p828
aa(lp829
VSOPZQYB12AF72A186C
p830
aVSOMEHEM12A58A7B86D
p831
aa(lp832
VSOIQMDF12A8C143684
p833
aVSOOFSDV12AC9097267
p834
aVSOMWKTI12AB017BCC7
p835
aa(lp836
VSOKRTHJ12A8C13579C
p837
aVSOIJUUG12AB0187EEB
p838
aa(lp839
VSODOSNJ12A8C13921A
p840
aVSOMMOJQ12AF72A1D07
p841
aVSOGJCOF12A6D4F7816
p842
aVSORJHCZ12A8C143351
p843
aa(lp844
VSOUKUEZ12A8C134F72
p845
aVSOYLJCU12A8C133B48
p846
aVSOFVGQH12A6D4F7E8E
p847
aa(lp848
VSOFPKIJ12A6D4F7279
p849
aVSOVSSEQ12A8C146D3F
p850
aa(lp851
VSODRFND12AC9E13919
p852
aVSOPQKNZ12AB017EC62
p853
aVSOSCDKA12A8C13D0CC
p854
aVSONCIKG12AB0185929
p855
aVSOPHQYP12A8C13D0EB
p856
aVSOBSFVW12A58A7DFA4
p857
aVSOVWDUU12AB01837F7
p858
aa(lp859
VSOPFWEK12AB01869F2
p860
aVSOYGNMG12A6D4F8A09
p861
aVSOTSJZQ12A8C141A8E
p862
aa(lp863
VSOOAWCY12A58A809F5
p864
aVSOGCGTL12A8C133899
p865
aVSOUIOGT12A8C13B27B
p866
aVSOUMPQZ12A6D4F96B9
p867
aa(lp868
VSORLFIB12A6701FEF7
p869
aVSOXLJGK12A6D4F5E54
p870
aa(lp871
VSONACBR12AF729D8D4
p872
aVSOENDQX12A8C1319E3
p873
aVSOUKKZB12A8C138A28
p874
aa(lp875
VSOLSLDN12A6D4FB498
p876
aVSOJASIK12A8C130A22
p877
aVSOBIONY12A6D4F5C2F
p878
aVSOVDALN12A8C13707E
p879
aVSOOJPIF12A6701DA9C
p880
aVSOTZHBK12AF729EE32
p881
aa(lp882
VSOCMBEE12A8C131A30
p883
aVSOSATKP12AB0185476
p884
aa(lp885
VSOAPJRE12A58A79153
p886
aVSOOCQHL12A8C133895
p887
aVSOTSEJY12AB0180F56
p888
aVSOWSLXZ12AF72A8241
p889
aVSOMIGUZ12A6D4F8A5F
p890
aVSOPVPAA12A6702085F
p891
aVSOBWCSQ12A8C138F56
p892
aa(lp893
VSOKRFXB12A58A7A585
p894
aVSOATNDP12AF72A4AA3
p895
aVSODJCTM12A8C1345B6
p896
aa(lp897
VSOGUJWE12A81C20BE5
p898
aVSONDAFG12AF72ACEEC
p899
aa(lp900
VSOJYOEX12A6D4F9043
p901
aVSOIYQTX12AB017F4A1
p902
aVSOGCGEI12AC468D8D4
p903
aVSOVKHBC12AF72A5DE7
p904
aVSORQFRB12A58A7860F
p905
aVSOVPKER12A8C13DA60
p906
aVSOIZDEP12A6D4F8F14
p907
aa(lp908
VSOJHQRU12A6310E952
p909
aVSOLCBGF12A8C13A56B
p910
aVSOWAMPQ12A58A7CF2A
p911
aVSOQMXPG12AB018EC7A
p912
aa(lp913
VSOULRZU12A6D4F89C9
p914
aVSOLJQLO12D021B0E5A
p915
aa(lp916
VSONOIJV12AB018438D
p917
aVSOCGLQU12AB018A6C5
p918
aVSOVAAND12A8C13A6C3
p919
aa(lp920
VSOLOJQS12A8C132C27
p921
aVSOMXVVN12AF72A7241
p922
aVSOEKEWV12A8C138963
p923
aa(lp924
VSORRXFE12A8C13C8A1
p925
aVSOFBSAP12AF7366DEA
p926
aa(lp927
VSONTDUZ12D021989FD
p928
aVSOPFWEK12AB01869F2
p929
aa(lp930
VSOWIDXB12AB017B6F0
p931
aVSOMUQXC12A8C139654
p932
aVSOBJFWS12AB01878ED
p933
aVSOSSYMK12A58A78B52
p934
aVSONNMKB12AB0186DD0
p935
aa(lp936
VSOYUJJI12A58A7C405
p937
aVSOMBGTL12A8C133038
p938
aa(lp939
VSODZHVJ12A8C13DB29
p940
aVSOLELBW12A8C1386D0
p941
aa(lp942
VSOMDKBT12A8C134151
p943
aVSOOYTQM12AB018E383
p944
aa(lp945
VSOHNMAJ12A6D4FB3E9
p946
aVSOSVTHY12A8C138779
p947
aVSOJIPLZ12A6D4F6110
p948
aVSOAMRDA12A6D4FDEDB
p949
aa(lp950
VSOGNKOQ12A8C1339AD
p951
aVSOJQTCR12AB017C6AD
p952
aa(lp953
VSOETCSA12A6D4F78A0
p954
aVSOAYCIS12A6D4F608E
p955
aVSOKMFQY12A6D4F904A
p956
aa(lp957
VSOPHOOQ12A8C13A832
p958
aVSOKOGZJ12AB0186ED1
p959
aa(lp960
VSOPONGA12A6D4F8F47
p961
aVSOYUATZ12A58A7BC99
p962
aVSOMQOGL12AB018278A
p963
aVSOWXGNI12AB018A25A
p964
aVSOKBXMS12AB018E36F
p965
aa(lp966
VSOOOYWG12AB0184CAA
p967
aVSOMDBQN12A8C133F9F
p968
aa(lp969
VSOKTNVK12AC468DC45
p970
aVSOKJQGW12A8C133083
p971
aa(lp972
VSOEEYIP12A8C131FFA
p973
aVSOHIQOY12D02197AB5
p974
aa(lp975
VSOWICWC12D0219A92D
p976
aVSOYZAFE12A8C131595
p977
aa(lp978
VSONIHQN12A8C1421A9
p979
aVSOGXILR12A58A7C8AD
p980
aa(lp981
VSOVESEJ12A8C13CE01
p982
aVSOANYDY12A58A7C01A
p983
aa(lp984
VSOIZDEP12A6D4F8F14
p985
aVSOMTDBP12A6D4F8256
p986
aa(lp987
VSOGBFOS12A8C140672
p988
aVSOITDJI12AC392B5B4
p989
aa(lp990
VSOZZNWX12A8C135D39
p991
aVSOZPATP12AAFF429EB
p992
aVSOPCPOD12A8C13409C
p993
aVSOAIYVU12AB018D403
p994
aa(lp995
VSOKAWVH12AB0181738
p996
aVSOSNSQJ12AB018188C
p997
aVSOQKHSB12AC468F60C
p998
aa(lp999
VSOLVAJK12AB0188A13
p1000
aVSOXFPTD12A8C145EF2
p1001
aVSOAVNCD12AB018A92D
p1002
aVSOQYPKP12AB018611A
p1003
aVSOEBGRS12A8C13A632
p1004
aa(lp1005
VSODPLSY12A58A7CF84
p1006
aVSOELFZU12D021B3C87
p1007
aVSOROTWM12A58A79FB2
p1008
aa(lp1009
VSOASIKC12AB018C7B4
p1010
aVSOQYDPF12CF5F871A7
p1011
aVSOAWUET12AB0184BB5
p1012
aVSOCBXXO12A8C134A85
p1013
aa(lp1014
VSOLSLDN12A6D4FB498
p1015
aVSOMYOVY12A6D4FB493
p1016
aa(lp1017
VSOMWKTI12AB017BCC7
p1018
aVSOIGRRL12A58A7A42B
p1019
aa(lp1020
VSOLJQOK12A8C14028B
p1021
aVSOKXYZF12A67021B57
p1022
aVSOEMZOI12AB01823BB
p1023
aa(lp1024
VSOPDWYN12AB018322E
p1025
aVSOATOQQ12AAF3B1EBB
p1026
aVSODDQOY12AB0188ADF
p1027
aVSOCMYDJ12AC4686114
p1028
aVSOSTFHK12A8C13CB5D
p1029
aVSOEOUJO12AC3DF6EC2
p1030
aVSOOBIEC12AB0183D2E
p1031
aa(lp1032
VSOAUNMU12A6D4F8E0D
p1033
aVSOJAZXW12A8C139C35
p1034
aVSOPAFOK12AB017F078
p1035
aVSOEBQIP12A8C137C94
p1036
aVSOZWUPI12AF72A26E2
p1037
aVSOCBXXO12A8C134A85
p1038
aVSOHJPLG12AB018011D
p1039
aVSOTGMRC12AB017F520
p1040
aa(lp1041
VSOSHVXK12AB0183221
p1042
aVSOWFTLL12A8C13264E
p1043
aVSOGCGEI12AC468D8D4
p1044
aVSODXCRW12A8C144D07
p1045
aVSOHDSLQ12AB0183BAA
p1046
aVSOCWRKO12A8C1318BB
p1047
aVSONDUPV12A6D2270F0
p1048
aVSONAGVH12A6701DE0B
p1049
aa(lp1050
VSOVALXP12D021B3DA8
p1051
aVSOXBRHJ12AB0187AA3
p1052
aa(lp1053
VSOJRUAF12CF530E600
p1054
aVSOLUXQK12A8C13E179
p1055
aa(lp1056
VSOMMOJQ12AF72A1D07
p1057
aVSOJOGKL12A6D4F66FA
p1058
aVSOQRPTN12D02193324
p1059
aa(lp1060
VSODJCTM12A8C1345B6
p1061
aVSONGHDO12AAFF4263C
p1062
aa(lp1063
VSOIBBFR12A8C1331B6
p1064
aVSOUAXHQ12AC468619F
p1065
aa(lp1066
VSOTENJV12CF5F87F08
p1067
aVSOPNDNI12A6702080F
p1068
aVSOOPDJT12A8AE48793
p1069
aa(lp1070
VSOZRVLJ12A8C143303
p1071
aVSONAANU12AB017BCE7
p1072
aVSOLEXXM12AB0182A35
p1073
aa(lp1074
VSOHWHCE12A8C133385
p1075
aVSONVOPW12A670208F4
p1076
aa(lp1077
VSOGIFXO12A8C1347EB
p1078
aVSOHKZMB12A8AE47A59
p1079
aa(lp1080
VSONYOGR12A8C13FAFD
p1081
aVSOCSCEL12A8C13804E
p1082
aa(lp1083
VSOJOVBP12A8C142BC8
p1084
aVSOWAETX12AB018611C
p1085
aa(lp1086
VSOSDPRY12A6701F04D
p1087
aVSONDUPV12A6D2270F0
p1088
aa(lp1089
VSORAGFE12AB0189010
p1090
aVSOHNCDC12A6D4F61A4
p1091
aa(lp1092
VSOYLXVU12A8C139194
p1093
aVSOVVFJF12AB01830C1
p1094
aa(lp1095
VSOBBKOJ12D021B2043
p1096
aVSOTIXEM12AB017E35F
p1097
aa(lp1098
VSOWBHYM12A6D4FB212
p1099
aVSOWFXAD12A6D4F7B16
p1100
aVSOCKEGL12AB018385A
p1101
aVSOGDLHC12A6D4FE61B
p1102
aa(lp1103
VSOXFOGP12CF5F88A17
p1104
aVSOHPYOL12A6D4F667A
p1105
aVSOHWMTM12A6702159A
p1106
aVSOIQICK12D02192042
p1107
aa(lp1108
VSOGJCOF12A6D4F7816
p1109
aVSOBONKR12A58A7A7E0
p1110
aVSODHELE12A8C135EEC
p1111
aVSODOSNJ12A8C13921A
p1112
aVSOHGVYI12A6D4F82E0
p1113
aVSOHJHYL12A58A786CA
p1114
aa(lp1115
VSOGXVLR12AB0182D56
p1116
aVSOSYXYJ12A8C13F86D
p1117
aVSOICZKW12D02195248
p1118
aa(lp1119
VSOOQKHB12AB01851F9
p1120
aVSOOYUDJ12AB01843AF
p1121
aVSODKOHP12A8AE46D3D
p1122
aa(lp1123
VSOTEIQI12A8C1352DE
p1124
aVSOFMPJS12AF72ABCA9
p1125
aVSOOFYFP12A6D4F7902
p1126
aa(lp1127
VSOAUKIS12A58A7F424
p1128
aVSOYYGQU12A8C13F10B
p1129
aa(lp1130
VSOFOWJW12A6701DF29
p1131
aVSOYYBWM12A8C134D7D
p1132
aa(lp1133
VSOMMOJQ12AF72A1D07
p1134
aVSOHJBRH12A6D4F9331
p1135
aa(lp1136
VSOFKWLF12A6D4F9344
p1137
aVSOKOOTL12A6D4F7CC4
p1138
aVSOWJSIG12A58A7BB1B
p1139
aa(lp1140
VSORPTCR12A8C13F279
p1141
aVSOJGZNN12A8C145039
p1142
aVSOSPRXV12AB0182623
p1143
aVSOXUVTM12A6701CE51
p1144
aa(lp1145
VSOTZHBK12AF729EE32
p1146
aVSOZSXXP12A8C132E02
p1147
aa(lp1148
VSOOMEJL12D0219A295
p1149
aVSOLUXQK12A8C13E179
p1150
aVSONGZDQ12A6D4F6E16
p1151
aVSOZSXXP12A8C132E02
p1152
aVSOBIONY12A6D4F5C2F
p1153
aVSOCJWCV12A6D4FCBD6
p1154
aa(lp1155
VSOGCGEI12AC468D8D4
p1156
aVSODJNAE12A8C13E94F
p1157
aVSOXBRHJ12AB0187AA3
p1158
aVSOVSMBI12A8C13540E
p1159
aVSOMMOJQ12AF72A1D07
p1160
aa(lp1161
VSOZYVWT12AB0182F67
p1162
aVSOJGNXX12AB01849EC
p1163
aVSOHHDQF12AC468B99D
p1164
aa(lp1165
VSOYHXSV12D021B0A95
p1166
aVSOQIDPH12AB018A96C
p1167
aa(lp1168
VSOKEGGH12AB018AC18
p1169
aVSOUSEGF12A6D4F7268
p1170
aVSOCZHUL12AB018CFFB
p1171
aa(lp1172
VSOBWHCM12A8C142A7A
p1173
aVSOBBHVN12A6702162D
p1174
aa(lp1175
VSOIGHTY12AB017DAA3
p1176
aVSODZTBV12A6D4FB497
p1177
aa(lp1178
VSOEHBXU12AB0186AA2
p1179
aVSOFZJUX12A6D4F8F37
p1180
aVSOANWOX12A8C135ADD
p1181
aa(lp1182
VSOFCURG12A8C144003
p1183
aVSOLFSUV12A8C1334F2
p1184
aa(lp1185
VSOIYQTX12AB017F4A1
p1186
aVSOXLXEN12A58A7B0B5
p1187
aVSOXBRHJ12AB0187AA3
p1188
aVSOQFTXX12AB01825A1
p1189
aVSOOOYWG12AB0184CAA
p1190
aVSONGBOP12AB018524E
p1191
aVSOUFTRV12AB017F242
p1192
aVSONHKPE12A8C139754
p1193
aa(lp1194
VSOGDALU12AB017E8CD
p1195
aVSOYUJUA12AB018B93A
p1196
aa(lp1197
VSOCWRKO12A8C1318BB
p1198
aVSOWUNXY12A6D4F703D
p1199
aVSOFUSQQ12A8C13B851
p1200
aVSOMRUPI12A8C139F99
p1201
aa(lp1202
VSOJGUYO12AB01844BC
p1203
aVSORIBFT12A8C140BF6
p1204
aVSOBOFWR12AB017F469
p1205
aa(lp1206
VSOQYYKG12A58A78F8A
p1207
aVSOPFGAC12AB018916C
p1208
aa(lp1209
VSOLBHAC12D02198DA7
p1210
aVSOSTFHK12A8C13CB5D
p1211
aVSORZUVS12A6D4F9F83
p1212
aa(lp1213
VSONFOKB12A8C135901
p1214
aVSOMXKNW12A8C141932
p1215
aVSOBIWEH12D021B32A4
p1216
aa(lp1217
VSOKRSQT12A8C13F3C5
p1218
aVSOBWUXN12A8C139C88
p1219
aa(lp1220
VSOVAAND12A8C13A6C3
p1221
aVSOHNJJM12A6D4F85BB
p1222
aa(lp1223
VSOKEUPF12A6D4FC854
p1224
aVSOOMEJL12D0219A295
p1225
aa(lp1226
VSOISWLC12A6D4F93C9
p1227
aVSOXBQDJ12A6D4F93CC
p1228
aVSOYUFSH12A6D4F93D5
p1229
aa(lp1230
VSOGTCXI12A6D4FA51B
p1231
aVSOXHCZC12A58A77BEB
p1232
aVSOBJSLW12A6D4F9158
p1233
aVSOIVDEB12CF5CFD6B7
p1234
aVSOAJPXU12A670207AD
p1235
aVSOKGYGF12CF5CFD5D8
p1236
aVSOGIPIT12A58A7DB44
p1237
aVSOZATIV12A67ADADA2
p1238
aVSODWBUH12A58A7AD78
p1239
aVSOZRCEU12A6D4F6F1B
p1240
aa(lp1241
VSOEIZSF12CF5F89381
p1242
aVSOKVTXD12A8C13A552
p1243
aVSOOHXTV12A8C13F7B0
p1244
aVSOLMAIK12A8C13F7B5
p1245
aa(lp1246
VSOUWARZ12A58A7ADB2
p1247
aVSOKTUUN12AB017E5B5
p1248
aa(lp1249
VSOOMTPF12AF729F3B6
p1250
aVSOCEERU12A670215F1
p1251
aVSOYBEUS12AF72A781E
p1252
aa(lp1253
VSOWYYFW12AF72A4EF3
p1254
aVSOUOKED12A8C133871
p1255
aa(lp1256
VSOEGPFM12A8C130EFC
p1257
aVSOCGAQL12A58A7F01E
p1258
aa(lp1259
VSOIERRR12AB017F4C2
p1260
aVSOEIJEN12AB01886C2
p1261
aVSOOMEJL12D0219A295
p1262
aVSOJOGKL12A6D4F66FA
p1263
aVSORLWFQ12A8159E93E
p1264
aVSOMUKRE12A8C13CC44
p1265
aa(lp1266
VSOYIKNE12A6D4F782E
p1267
aVSOFWGIS12AB018C55F
p1268
aVSOLIMDY12A6D4F4E6F
p1269
aa(lp1270
VSODJCTM12A8C1345B6
p1271
aVSOWCGAL12A6D4F9050
p1272
aVSOANSWF12AB018AF87
p1273
aVSOTHQGJ12A8C139774
p1274
aa(lp1275
VSOGHETV12A8C1362FB
p1276
aVSOCBEIJ12A8C1385ED
p1277
aa(lp1278
VSOKHEDX12A6D4FAC70
p1279
aVSOBWPAJ12A6701F92C
p1280
aa(lp1281
VSODIDHX12A8C13C43E
p1282
aVSOMAOGG12A8C137331
p1283
aVSOGZTJI12A6701E100
p1284
aVSOGEERU12A6D223BA9
p1285
aa(lp1286
VSONVPOQ12A6D4F4BC9
p1287
aVSOZLLTW12AB017F238
p1288
aa(lp1289
VSOFRCHU12A8C13F96B
p1290
aVSOBYRNX12A8C132FC3
p1291
aVSOFPLVW12A8C1450DE
p1292
aa(lp1293
VSOIPJJN12A58A7AD4F
p1294
aVSODBWKM12A8151AB62
p1295
aVSONZPWW12AB01865C9
p1296
aa(lp1297
VSOKKGCT12AB017DD2B
p1298
aVSODJMFT12AB018D2E8
p1299
aVSOZMDRO12AB01816D3
p1300
aa(lp1301
VSORMKZT12AB018C3D5
p1302
aVSOODMZF12AB018035D
p1303
aVSOIIQEZ12AB018C3EF
p1304
aVSOMYILU12AF72A1824
p1305
aa(lp1306
VSONOUKG12A6D4FB492
p1307
aVSOFXPPD12AC9075AF6
p1308
aa(lp1309
VSOLSLDN12A6D4FB498
p1310
aVSOXBRHJ12AB0187AA3
p1311
aa(lp1312
VSOCYPET12A8C1363B3
p1313
aVSORFWCQ12AB0181423
p1314
aa(lp1315
VSOMMIQS12A8AE46BA0
p1316
aVSOUKRPC12A8C13E7CE
p1317
aa(lp1318
VSOOSDBW12A58A7CC66
p1319
aVSOXMRSP12AC468635A
p1320
aVSONFOKB12A8C135901
p1321
aa(lp1322
VSOGKLYN12AB017F155
p1323
aVSOAWUET12AB0184BB5
p1324
aa(lp1325
VSOCBXXO12A8C134A85
p1326
aVSODBPGL12A58A7C77B
p1327
aVSOFCTCO12A6D4F84D1
p1328
aa(lp1329
VSOGKPVO12A8C1351B2
p1330
aVSOBNQTU12A58A7B15A
p1331
aa(lp1332
VSOYMAFN12A6D4FA79A
p1333
aVSOUVRDE12AB0184F5B
p1334
aa(lp1335
VSONGKJS12AB0184F42
p1336
aVSOCDNQC12A8C142E9E
p1337
aa(lp1338
VSOURVJI12A58A7F353
p1339
aVSOHZTHP12A6D4FC6E7
p1340
aVSORLTVO12A6D4FD7F7
p1341
aa(lp1342
VSOPTKLI12A6D4F8744
p1343
aVSOALXZS12A8C13EF39
p1344
aVSOGOBKM12A6D4FDABE
p1345
aa(lp1346
VSOTFSAE12A6D4F48E4
p1347
aVSOSOCWZ12AF72A3862
p1348
aa(lp1349
VSOZTDYU12AB0185757
p1350
aVSOBZTGP12A8C133C7B
p1351
aVSOVCZGR12A8A9D81D5
p1352
aVSOHOLUY12A8C1313C3
p1353
aa(lp1354
VSOTSXND12A6701FEF8
p1355
aVSOGDIGT12AB01863D0
p1356
aa(lp1357
VSOZWUPI12AF72A26E2
p1358
aVSOSRJKL12A6D4FBE6B
p1359
aa(lp1360
VSOBIONY12A6D4F5C2F
p1361
aVSOGZFMF12A6D4F8D7B
p1362
aa(lp1363
VSOZSXXP12A8C132E02
p1364
aVSOAXZMR12A8C144D7B
p1365
aVSOZVAUD12A8C14398B
p1366
aa(lp1367
VSORBURG12A8C131637
p1368
aVSOAAXFF12AB017DA80
p1369
aa(lp1370
VSODNYXG12A6D4FAC69
p1371
aVSONSBLZ12A6D4FAD3D
p1372
aa(lp1373
VSOLXRKX12D02198D1F
p1374
aVSOFETOG12A8C13A67B
p1375
aVSOEHGSV12A58A7B188
p1376
aVSOTAVME12A58A79A0E
p1377
aa(lp1378
VSOXGCUN12AB0182757
p1379
aVSOEBEOY12A58A7E0C0
p1380
aVSOCECSW12A58A7B6FD
p1381
aVSOFPEXB12AB01867A7
p1382
aVSOQXJDE12AB018B6DA
p1383
aVSOJVHJV12AB0182276
p1384
aVSOLJHIN12A8C13DE5B
p1385
aa(lp1386
VSOWGQHR12AB0188C39
p1387
aVSOOMEJL12D0219A295
p1388
aa(lp1389
VSODTUIM12A6D4F899C
p1390
aVSOBHMIN12A6D4F5B23
p1391
aVSOQREXY12A8C13894B
p1392
aVSOHZETZ12A6D4F7F28
p1393
aa(lp1394
VSOFUUHJ12A58A7CFE4
p1395
aVSOLOUCH12A6D4F9055
p1396
aVSOZACVW12A6D4F7A62
p1397
aa(lp1398
VSONUDEZ12A6D4F7C97
p1399
aVSOJSZPZ12A8C13D71B
p1400
aa(lp1401
VSOLEOKZ12A58A7A038
p1402
aVSODIDHX12A8C13C43E
p1403
aa(lp1404
VSOWFTLL12A8C13264E
p1405
aVSOBIONY12A6D4F5C2F
p1406
aVSORHVLJ12AB01855C6
p1407
aVSOPIFJW12A6D4F9822
p1408
aa(lp1409
VSOYQOTW12AB0182527
p1410
aVSOVQDJQ12AB0187C34
p1411
aa(lp1412
VSODNZSI12A81C22106
p1413
aVSOHQCGP12A6D4F7536
p1414
aVSOOUOKW12A8C1349BA
p1415
aa(lp1416
VSOVJQEZ12A8C13E57C
p1417
aVSOHZDII12AB018DB73
p1418
aa(lp1419
VSOTEHIH12AB018C562
p1420
aVSOLCAUL12A6D4F9078
p1421
aa(lp1422
VSOZSXXP12A8C132E02
p1423
aVSOEJOGQ12A6D4F8A90
p1424
aVSOLQXBJ12A6D4F8F32
p1425
aVSOJSKCZ12A6D4FB7DA
p1426
aa(lp1427
VSOJXCUD12A6D4F7C73
p1428
aVSONMDET12A6D4FCB42
p1429
aa(lp1430
VSOSKOJP12A8C14073B
p1431
aVSOJHXMS12A8C1430DA
p1432
aVSOJGUYO12AB01844BC
p1433
aa(lp1434
VSOBWWHS12A8C1440F1
p1435
aVSOJSFYH12AB0187BD0
p1436
aVSONUELI12CF5F88CB9
p1437
aa(lp1438
VSODUCVK12A8C13618E
p1439
aVSOYHNUA12A58A77946
p1440
aVSOCASIV12AB0186E64
p1441
aVSOQKWYU12A8C139C55
p1442
aa(lp1443
VSOKFGRR12AB0183534
p1444
aVSOXZXKS12A58A7FBF7
p1445
aa(lp1446
VSODBSDS12A58A7D186
p1447
aVSOGKERM12A8C134B97
p1448
aVSOJQXNK12A8151E942
p1449
aVSOAWUET12AB0184BB5
p1450
aa(lp1451
VSOCONZG12A6D22278F
p1452
aVSOFTZYZ12A6D4F7A24
p1453
aa(lp1454
VSOGKLYN12AB017F155
p1455
aVSODOXXH12AB0187858
p1456
aa(lp1457
VSOTETIE12A8C1360DF
p1458
aVSOALXRG12AC90756A1
p1459
aVSOQSJNQ12A58A8122D
p1460
aa(lp1461
VSOEPCMB12AB017F11E
p1462
aVSOKXKCT12A8C136B5A
p1463
aa(lp1464
VSOUUPCD12A6D4F913B
p1465
aVSORCKRZ12A6D4F9064
p1466
aa(lp1467
VSOEJFRV12A8C132068
p1468
aVSORJJBT12AB0187562
p1469
aa(lp1470
VSOBHMIN12A6D4F5B23
p1471
aVSOFDAKL12A8C133313
p1472
aa(lp1473
VSODJYRG12A8C138C7B
p1474
aVSOBMPUY12A8C14357E
p1475
aa(lp1476
VSOMWNIX12AB0188059
p1477
aVSOFISOG12A58A80CAB
p1478
aa(lp1479
VSOUDEHJ12A8C134E9E
p1480
aVSOATOQQ12AAF3B1EBB
p1481
aa(lp1482
VSOHOWTV12AB01866F3
p1483
aVSOPENSO12AAFF432F3
p1484
aVSODZHVJ12A8C13DB29
p1485
aa(lp1486
VSOKHFTQ12A6D223B9D
p1487
aVSOTWLJL12A58A7DA90
p1488
aVSOFRQKQ12A6D4F8F2E
p1489
aa(lp1490
VSOGSVNW12A6D4F6869
p1491
aVSOEQSQL12A8C137DA1
p1492
aa(lp1493
VSOWECXL12AF72A27D1
p1494
aVSOKLZDI12A8C14028A
p1495
aa(lp1496
VSONTSLF12A8C137835
p1497
aVSOZOSTH12A6D4FB48E
p1498
aa(lp1499
VSOGKWPQ12AB0187DF0
p1500
aVSOVKVKU12AB01880C6
p1501
aVSOXWBXW12AB0187DE6
p1502
aa(lp1503
VSOGYLDO12AB0182EC5
p1504
aVSOWRWYA12AB018B286
p1505
aVSOUTZAA12AB018ABF1
p1506
aa(lp1507
VSOCJRUR12A8C13CB77
p1508
aVSOQIDPH12AB018A96C
p1509
aVSOTOIDR12AB017CA79
p1510
aa(lp1511
VSORZUVS12A6D4F9F83
p1512
aVSOZLLTW12AB017F238
p1513
aa(lp1514
VSOCECSW12A58A7B6FD
p1515
aVSOIERRR12AB017F4C2
p1516
aVSOFYNXN12A6701E71A
p1517
aa(lp1518
VSODZUTB12A58A780F5
p1519
aVSOJXYXP12AC9072E56
p1520
aa(lp1521
VSODFIMK12AB0189343
p1522
aVSOMKPJV12A6D4F89C3
p1523
aVSOVDFAX12A670215E8
p1524
aa(lp1525
VSOWRWYA12AB018B286
p1526
aVSOYPGJZ12A8AE480B1
p1527
aVSOTNZVH12A8C143280
p1528
aa(lp1529
VSOTRGYE12A6D4FB451
p1530
aVSOBWOWZ12AB01816ED
p1531
aa(lp1532
VSOYFQIQ12AB017BEBE
p1533
aVSOANESQ12A58A78603
p1534
aVSOIGRRL12A58A7A42B
p1535
aVSOQGCGL12AB018012F
p1536
aa(lp1537
VSOOIDTX12AAF3B54AA
p1538
aVSOFRCHU12A8C13F96B
p1539
aa(lp1540
VSOORSFW12AB01879CF
p1541
aVSOCCUOV12AB018329B
p1542
aVSOOMEJL12D0219A295
p1543
aa(lp1544
VSOFVYPJ12A8C130210
p1545
aVSOSRVPB12A6D4F7074
p1546
aa(lp1547
VSORRXFE12A8C13C8A1
p1548
aVSOIEJZC12AB0182DAA
p1549
aVSOSTNQK12A8C1393F8
p1550
aa(lp1551
VSOZDITM12D021977E6
p1552
aVSOCQLOC12A8C13B0ED
p1553
aa(lp1554
VSOWRWYA12AB018B286
p1555
aVSOAUPFE12A8C143239
p1556
aVSOHSXXJ12A6D4FB568
p1557
aVSOGHLWK12AB018E49A
p1558
aa(lp1559
VSOMEPWJ12AB018C3E8
p1560
aVSOSOLHX12A67AE0D6D
p1561
aa(lp1562
VSOWVELM12A8C13194F
p1563
aVSOFTKFP12AF7299F4D
p1564
aa(lp1565
VSOBULHD12A8C135CD7
p1566
aVSOHDSLQ12AB0183BAA
p1567
aa(lp1568
VSODREXM12AB017C1E8
p1569
aVSOPDFXF12A58A78782
p1570
aVSOFNJKT12AC468E4AD
p1571
aVSOOIRML12AB01820B0
p1572
aVSODQPPG12A8AE48559
p1573
aa(lp1574
VSOYZJPR12A6D4FB3C6
p1575
aVSONSPGE12A8C145E2F
p1576
aVSODRTCN12D02192E61
p1577
aVSORTFZX12A6D4FE6B3
p1578
aVSORKZUT12A58A79B20
p1579
aVSONGYMA12A6D4F8A32
p1580
aVSOFUYAV12A8C139C09
p1581
aa(lp1582
VSOWZIAM12A6701DF36
p1583
aVSODPSSR12A8C137798
p1584
aa(lp1585
VSOCMBEE12A8C131A30
p1586
aVSOEDFSM12AB0187587
p1587
aVSOSATKP12AB0185476
p1588
aa(lp1589
VSOEZSVG12AB0184FD0
p1590
aVSOORMZJ12A81C22FEC
p1591
aa(lp1592
VSODTRQE12AB017FEAC
p1593
aVSONQXBK12A8C133169
p1594
aa(lp1595
VSOHDSLQ12AB0183BAA
p1596
aVSOGJCOF12A6D4F7816
p1597
aa(lp1598
VSOVDFAX12A670215E8
p1599
aVSOOYRIS12A8C1354BB
p1600
aVSOUKKZB12A8C138A28
p1601
aa(lp1602
VSOVDLVW12A6701F92F
p1603
aVSOMBSDQ12A6D4F826F
p1604
aa(lp1605
VSOYCSYU12AB01849E8
p1606
aVSOUIREG12A8C137B5F
p1607
aVSOEDFSM12AB0187587
p1608
aVSORJJBT12AB0187562
p1609
aa(lp1610
VSOQIHKY12A8C139389
p1611
aVSOPNDNI12A6702080F
p1612
aVSOKXDWX12AB018A29E
p1613
aVSOWZIAM12A6701DF36
p1614
aa(lp1615
VSOGSICU12A67021CE7
p1616
aVSOVAMTC12A8C132585
p1617
aa(lp1618
VSODQPWQ12AF72A24C4
p1619
aVSOFVGQH12A6D4F7E8E
p1620
aa(lp1621
VSOQIYSW12A6701FDB7
p1622
aVSOCECSW12A58A7B6FD
p1623
aa(lp1624
VSOWOSYH12AB01824E6
p1625
aVSOFZNPK12AC468C02D
p1626
aa(lp1627
VSOESJQE12A58A7B703
p1628
aVSOINZOS12A8C1345BE
p1629
aVSOTPABB12A6D4FB3E2
p1630
aa(lp1631
VSOISJIG12AB018053B
p1632
aVSOAJIBR12AB0188B7C
p1633
aa(lp1634
VSOUJZFT12AB018139E
p1635
aVSOJQZGT12AC4684FE4
p1636
aa(lp1637
VSOCJWHV12A58A784EB
p1638
aVSOBFOHG12A6D4F6DC7
p1639
aa(lp1640
VSOOIUOZ12A58A75E02
p1641
aVSOMJPWW12A8C1340EE
p1642
aa(lp1643
VSONXAWX12CF5F86B60
p1644
aVSOLDBDO12A8C13F4C5
p1645
aVSOMFBDM12AB017EA41
p1646
aa(lp1647
VSOFWDQS12A6D4F8F03
p1648
aVSOAAXAK12A8C13C030
p1649
aa(lp1650
VSOJAFSP12AB018B341
p1651
aVSOCTLEL12A8AE4930D
p1652
aa(lp1653
VSOKRWGQ12A6D4F520D
p1654
aVSOBIGKJ12AB017D9F2
p1655
aVSOKONVV12A6D4F6B1C
p1656
aa(lp1657
VSOJUYLS12A6D4F7985
p1658
aVSOYPYHT12A8C144A54
p1659
aa(lp1660
VSOVDFAX12A670215E8
p1661
aVSOURMMK12A6701DAA3
p1662
aVSOYBNDW12A8C1340CE
p1663
aa(lp1664
VSOIHPOJ12AB018D9BA
p1665
aVSOGEERU12A6D223BA9
p1666
aa(lp1667
VSOLSDHR12AB018224B
p1668
aVSOXOMEJ12A8C133606
p1669
aVSOQPMUL12AB017BFC2
p1670
aa(lp1671
VSOQJSUQ12A8C1345A9
p1672
aVSOUMHXR12AB01816D4
p1673
aa(lp1674
VSODGTXY12A8C1365B3
p1675
aVSOOPPHS12A8C138B0B
p1676
aVSOZPZII12A8C1424A7
p1677
aa(lp1678
VSOGXBMB12AC90730FE
p1679
aVSOXDGDM12AB0182845
p1680
aa(lp1681
VSOJWXAS12AB017E560
p1682
aVSOFFQZK12A8C1324AC
p1683
aa(lp1684
VSOFOACW12A58A7B5E7
p1685
aVSOHIQOY12D02197AB5
p1686
aVSOZVCTY12A6D4F7CAF
p1687
aVSOBKPLD12D021987E0
p1688
aVSONFOKB12A8C135901
p1689
aa(lp1690
VSOIAQAR12A58A7AC56
p1691
aVSOIZDEP12A6D4F8F14
p1692
aVSOAWUET12AB0184BB5
p1693
aVSOCECSW12A58A7B6FD
p1694
aVSOSSYMK12A58A78B52
p1695
aVSOXBRHJ12AB0187AA3
p1696
aa(lp1697
VSOHNVZZ12A6D4FCEA2
p1698
aVSOBYUHR12AAFD96E45
p1699
aVSOZSXXP12A8C132E02
p1700
aVSOCJJDW12AB017DB68
p1701
aa(lp1702
VSORSQLK12A67021593
p1703
aVSONTSLF12A8C137835
p1704
aa(lp1705
VSOHIQOY12D02197AB5
p1706
aVSOQOIUJ12A6701DAA7
p1707
aa(lp1708
VSOHTOHV12AB0182141
p1709
aVSOZVCTY12A6D4F7CAF
p1710
aa(lp1711
VSOHSABQ12A8C13D735
p1712
aVSOSYCDH12AB0184252
p1713
aa(lp1714
VSOBNYYM12A8C1386E5
p1715
aVSOGKCGN12AB018385D
p1716
aVSOUQERC12A8C13F693
p1717
aVSOUHKUO12AB017F54D
p1718
aVSOXWJQJ12A8AE49DD8
p1719
aa(lp1720
VSOLSLDN12A6D4FB498
p1721
aVSOSHDZY12D021B1FFA
p1722
aVSOUIVLG12A6D4FAC6D
p1723
aa(lp1724
VSOKREGC12AB0183F34
p1725
aVSOAQIVJ12A8C132D29
p1726
aVSOIVUUU12AAA8C5AA3
p1727
aa(lp1728
VSOOSDBW12A58A7CC66
p1729
aVSOABOPU12A58A7D44A
p1730
aa(lp1731
VSOVUJRJ12D0219A386
p1732
aVSONQWBV12A8C139493
p1733
aa(lp1734
VSOXOMEJ12A8C133606
p1735
aVSOGTAVA12A8C135B19
p1736
aa(lp1737
VSOBCPLJ12A8C1302EF
p1738
aVSOUHKUO12AB017F54D
p1739
aa(lp1740
VSOECJJP12A8C13B3E2
p1741
aVSOGHSPZ12AB0183FBB
p1742
aVSOXBRHJ12AB0187AA3
p1743
aVSOIEZXX12A8C1417DF
p1744
aa(lp1745
VSOSNAVD12A6D4F7579
p1746
aVSOUMERN12D0219436B
p1747
aa(lp1748
VSOYCSYU12AB01849E8
p1749
aVSOWLGPC12AC4687282
p1750
aVSOLTZEN12A8C13901A
p1751
aVSOITQAF12A8C138334
p1752
aVSOZVSZG12D021938F8
p1753
aVSOACKJC12AB0187A3C
p1754
aa(lp1755
VSODSPLJ12A67021611
p1756
aVSOQEDXW12A8C13F875
p1757
aVSOSATKP12AB0185476
p1758
aVSOTFRMG12A8C13BAD9
p1759
aVSOCALIS12D021B3960
p1760
aVSOVXEEY12A6D4F9019
p1761
aa(lp1762
VSOMYOVY12A6D4FB493
p1763
aVSOUXUWL12AB01827AB
p1764
aa(lp1765
VSONGYMA12A6D4F8A32
p1766
aVSOOMEJL12D0219A295
p1767
aa(lp1768
VSODBSUF12A8C141975
p1769
aVSOJOGKL12A6D4F66FA
p1770
aa(lp1771
VSOGJCOF12A6D4F7816
p1772
aVSOWCGAL12A6D4F9050
p1773
aVSOLUXQK12A8C13E179
p1774
aa(lp1775
VSONFOKB12A8C135901
p1776
aVSOTKULP12A8C1373E2
p1777
aa(lp1778
VSOEUPGM12CF5F88762
p1779
aVSOLDBDO12A8C13F4C5
p1780
aVSOAAXFF12AB017DA80
p1781
aa(lp1782
VSONCEHA12D02193468
p1783
aVSODVIQI12A8C136D02
p1784
aa(lp1785
VSOGEXOK12A8C13DACE
p1786
aVSOENAAV12AB018AAC8
p1787
aa(lp1788
VSOIYQTX12AB017F4A1
p1789
aVSOAQZUS12A6D4F636C
p1790
aa(lp1791
VSOOVDHH12A58A7D0EF
p1792
aVSOPNDNI12A6702080F
p1793
aa(lp1794
VSOERWXU12A8C13A9A6
p1795
aVSOHIYVK12AF72AB196
p1796
aVSONTWAN12A58A7DF5A
p1797
aa(lp1798
VSOUZAJC12A8C145D07
p1799
aVSOLDBDO12A8C13F4C5
p1800
aa(lp1801
VSOZDNVT12CF5F88244
p1802
aVSOHSFNN12A81C2327E
p1803
aVSOEVIFS12AF72AA3AB
p1804
aa(lp1805
VSOBNLPP12AB01836FE
p1806
aVSOBBKRO12AB01800F2
p1807
aa(lp1808
VSOQXJDE12AB018B6DA
p1809
aVSOXNMAF12A8C135F21
p1810
aa(lp1811
VSOAXCQO12A8C1433F1
p1812
aVSOPTRXB12A670207FA
p1813
aa(lp1814
VSOKJQGW12A8C133083
p1815
aVSOYSLQC12AB0182C4E
p1816
aVSOOMEJL12D0219A295
p1817
aVSOGCGEI12AC468D8D4
p1818
aVSOQAWXV12AB017ED78
p1819
aVSOGLLDW12A8C1440D1
p1820
aVSOLCAUL12A6D4F9078
p1821
aVSOLOUIR12A6310D7B4
p1822
aa(lp1823
VSOLREUP12AB01848D3
p1824
aVSOMRTUH12AB0185650
p1825
aa(lp1826
VSODHTYK12A58A7C35E
p1827
aVSOSGOKG12AB0180111
p1828
aa(lp1829
VSOOCBSG12AF72A76A0
p1830
aVSOSCZSC12A8C1338B5
p1831
aa(lp1832
VSOTFJLY12A8C13DE12
p1833
aVSODYOER12A8C143688
p1834
aVSOZOAXR12AB018C3B0
p1835
aVSOCKHEW12A8C1424A6
p1836
aa(lp1837
VSOXGGUK12A8C134101
p1838
aVSOIXRWK12A6D4F7904
p1839
aa(lp1840
VSOWVJIK12A8C14138E
p1841
aVSOTRMCY12AB0187F03
p1842
aa(lp1843
VSOHYWAY12A6D4FAE0E
p1844
aVSOAPCQO12A6D4F7B1B
p1845
aa(lp1846
VSORKSVC12A6D4F8F46
p1847
aVSOASIRD12A6D4F90A2
p1848
aVSONTMFV12A8C131160
p1849
aa(lp1850
VSOWEWTZ12A8C134493
p1851
aVSOEBOFD12A8C13A50E
p1852
aa(lp1853
VSOZGSKB12A58A7A3CE
p1854
aVSOVZAGR12A8C13FBDA
p1855
aa(lp1856
VSOJGEQK12A8C133180
p1857
aVSOKMAZS12A8C131EC8
p1858
aVSOHFRJD12AB0188984
p1859
aa(lp1860
VSOMMOJQ12AF72A1D07
p1861
aVSOAKZSZ12A8C134D2B
p1862
aa(lp1863
VSODPAWO12AB0180820
p1864
aVSOGLDCI12A6D4FA511
p1865
aVSOSJUDB12A8C13C83D
p1866
aa(lp1867
VSOFOGNU12A8C1356F6
p1868
aVSONUELI12CF5F88CB9
p1869
aa(lp1870
VSOJSCJS12A6D4F87BC
p1871
aVSOBPYKR12AB017DD2F
p1872
aVSOPHTUV12A8C132CBC
p1873
aa(lp1874
VSOGSICU12A67021CE7
p1875
aVSONVXGB12AB018D367
p1876
aVSOOCQHL12A8C133895
p1877
aVSORBUQH12A8C1395D2
p1878
aVSOHFFKA12A6D4F7B11
p1879
aVSOFDBEI12A6701DF39
p1880
aVSOXMNEL12AB018861D
p1881
aa(lp1882
VSOQHIBP12A6D4F9625
p1883
aVSOACKJC12AB0187A3C
p1884
aa(lp1885
VSOEKUGB12A6D4F83D4
p1886
aVSOVZAGR12A8C13FBDA
p1887
aVSOGREDJ12A58A776C2
p1888
aa(lp1889
VSOGCGEI12AC468D8D4
p1890
aVSOFZNPK12AC468C02D
p1891
aVSOBMZUI12AB017EFDC
p1892
aVSORKSKU12AB01851B3
p1893
aa(lp1894
VSOSRHPX12AB01872D3
p1895
aVSOGUDAO12A8C13B076
p1896
aVSOAASII12A58A7C5E0
p1897
aVSOORSFW12AB01879CF
p1898
aa(lp1899
VSOSCBAY12A6D4F8432
p1900
aVSODNYXG12A6D4FAC69
p1901
aa(lp1902
VSODFDIM12AC960A1E7
p1903
aVSOVAMTC12A8C132585
p1904
aa(lp1905
VSOZGSKB12A58A7A3CE
p1906
aVSOUSZGE12A58A7B306
p1907
aVSOZHARR12A8C133E98
p1908
aa(lp1909
VSOADOUC12A81C22FF7
p1910
aVSOPBSMV12A6D4FBDDB
p1911
aa(lp1912
VSOXBRHJ12AB0187AA3
p1913
aVSODBSDS12A58A7D186
p1914
aVSOXYICA12A8C13221E
p1915
aVSOYCYDC12D021B3C6D
p1916
aa(lp1917
VSOPTREH12D021B0E6D
p1918
aVSOORNTL12A58A79ABD
p1919
aVSOCEERU12A670215F1
p1920
aa(lp1921
VSOAOHRU12A8C13412E
p1922
aVSOGVKVQ12A8C135903
p1923
aa(lp1924
VSOFGTTP12A8C13AAFD
p1925
aVSOCGLQU12AB018A6C5
p1926
aa(lp1927
VSOILYNU12A8C140694
p1928
aVSOXMRSP12AC468635A
p1929
aVSOHKDZH12AB0185478
p1930
aa(lp1931
VSOREBZY12A8C1345BB
p1932
aVSOPVOVM12AB017AEEF
p1933
aa(lp1934
VSOFLKRQ12B0B807B02
p1935
aVSOKDDBE12AF729EAF4
p1936
aa(lp1937
VSOJRXWN12B0B809080
p1938
aVSOVDALN12A8C13707E
p1939
aa(lp1940
VSOAAVTA12A670208D6
p1941
aVSOVOBZT12A8C13FAA6
p1942
aa(lp1943
VSOLCCPD12A58A79FC2
p1944
aVSOJYJKE12A81C23044
p1945
aa(lp1946
VSOGYELC12D021B12AB
p1947
aVSOYWPMG12A6D4F901A
p1948
aVSOCJAFF12AC468CDAF
p1949
aVSOCMLHI12A8C13A878
p1950
aa(lp1951
VSOPOVNL12A6D4F8F26
p1952
aVSOJHUCN12A8C13AFE6
p1953
aa(lp1954
VSOJJFTO12AAF3B1D4C
p1955
aVSONQXBK12A8C133169
p1956
aVSOKUTTO12A8C143995
p1957
aVSOHQRJN12A8C140116
p1958
aVSOUKZDY12A6D22729B
p1959
aVSOMHEVM12A58A80951
p1960
aVSOTZHBK12AF729EE32
p1961
aVSOCSIAS12A81C2303C
p1962
aa(lp1963
VSODCGXH12A6D4F8DFB
p1964
aVSOCGLQU12AB018A6C5
p1965
aVSOBRLBM12AF72A04AF
p1966
aVSOMRTUH12AB0185650
p1967
aa(lp1968
VSOIPMOO12AF729DFCB
p1969
aVSOJWMLI12A6D4F7CBC
p1970
aVSOKHTGU12A6D4F8A33
p1971
aa(lp1972
VSOMJEIY12A8C1338AF
p1973
aVSOMVKKV12A6D4FB3F9
p1974
aa(lp1975
VSODDSZE12A6D4F88C0
p1976
aVSOSDESN12A6D4F92B8
p1977
aa(lp1978
VSOVFCKP12CF5F88F80
p1979
aVSOJQZGT12AC4684FE4
p1980
aa(lp1981
VSOCAYNF12A6D4F8F13
p1982
aVSOSOCJF12A58A79024
p1983
aa(lp1984
VSOJEJLH12A58A78474
p1985
aVSOUFSTI12A6701F924
p1986
aVSOKMQCB12A81C22D42
p1987
aVSOFMVYF12AB018C025
p1988
aVSOPGTSP12A67AD97DB
p1989
aVSOIOTRJ12A8C134BDB
p1990
aa(lp1991
VSOCCXYC12A8C142754
p1992
aVSOZMGGF12D0219A98C
p1993
aa(lp1994
VSOSUBEP12A8C134448
p1995
aVSOGWHJO12A8C13CD13
p1996
aa(lp1997
VSOMBGTL12A8C133038
p1998
aVSOCNJRI12AF72A79E1
p1999
aa(lp2000
VSOLUFHV1288D3E7108
p2001
aVSODKOVT12AB018A6F2
p2002
aa(lp2003
VSOTVCXL12A8C142E30
p2004
aVSOZLLTW12AB017F238
p2005
aVSOFZNPK12AC468C02D
p2006
aa(lp2007
VSODNMOT12AB018209E
p2008
aVSOTJAOP12AB0180132
p2009
aa(lp2010
VSOKRVLP12AB0185CD5
p2011
aVSODBKXC12A8C14186C
p2012
aa(lp2013
VSOYZRAT12AB01815A4
p2014
aVSOPFWEK12AB01869F2
p2015
aVSOIRXAL12A58A79ACB
p2016
aVSOXFGJC12AB0181347
p2017
aVSOGJVPU12AB0185480
p2018
aa(lp2019
VSOMMPHN12AB0183CF6
p2020
aVSOQJSUQ12A8C1345A9
p2021
aVSOYIFNV12AB0183BEE
p2022
aVSOECHHY12A8C135C17
p2023
aa(lp2024
VSOGNFVU12A8C1345BB
p2025
aVSOAQIVJ12A8C132D29
p2026
aVSOGEXOK12A8C13DACE
p2027
aa(lp2028
VSOCHEOT12AB0184ED1
p2029
aVSOGZFMF12A6D4F8D7B
p2030
aa(lp2031
VSOHCFRB12A8C139C22
p2032
aVSOMEBZZ12D02198E40
p2033
aa(lp2034
VSOFIPRJ12A58A7DF3C
p2035
aVSOCECSW12A58A7B6FD
p2036
aVSOFIQHU12A6D4FBD75
p2037
aVSOHPTEY12AAA15FBC9
p2038
aa(lp2039
VSOARVXJ12AB018616E
p2040
aVSOFMDPT12A6D4F8E0B
p2041
aa(lp2042
VSODBSUF12A8C141975
p2043
aVSOEKDJH12A8C13874D
p2044
aVSOIOVTS12A6D4F743F
p2045
aVSOELNFY12A67020441
p2046
aa(lp2047
VSODRTCN12D02192E61
p2048
aVSOBZXVI12A67ADCF1A
p2049
aa(lp2050
VSOSNSQJ12AB018188C
p2051
aVSOPRPXV12A8C132EDA
p2052
aVSOAYMJH12A8C134EE0
p2053
aa(lp2054
VSODGYRF12AB0181052
p2055
aVSOQKHSB12AC468F60C
p2056
aa(lp2057
VSOEOUJO12AC3DF6EC2
p2058
aVSOEBEOY12A58A7E0C0
p2059
aa(lp2060
VSOMRKHG12A8C1316F7
p2061
aVSOFZNPK12AC468C02D
p2062
aVSOCXIBL12A8C142BA9
p2063
aa(lp2064
VSONUELI12CF5F88CB9
p2065
aVSODFMEA12AB018545F
p2066
aa(lp2067
VSOFBFVG12A6D4F61A7
p2068
aVSOVUNVD12A8C138A2E
p2069
aa(lp2070
VSOFTJHG12A8C13B6B5
p2071
aVSOVLFPW12AB01833BF
p2072
aVSOJABKC12A8C13B2BA
p2073
aa(lp2074
VSOSKYCF12A6D4F9A1B
p2075
aVSOTOCLM12A8C1352F2
p2076
aa(lp2077
VSOBNDLO12AF72A254C
p2078
aVSOEUPGM12CF5F88762
p2079
aa(lp2080
VSOEPPRI12A6D4F6F6F
p2081
aVSOQGPMG12A6701E12F
p2082
aa(lp2083
VSOBFBMK12AB018857A
p2084
aVSOQFRQT12AB018903F
p2085
aa(lp2086
VSOWSOYT12AB018CBFB
p2087
aVSODPEUY12A8C12FE9D
p2088
aVSOZSXXP12A8C132E02
p2089
aa(lp2090
VSOXPBGN12AB018902E
p2091
aVSOHEQCK12A8C134435
p2092
aa(lp2093
VSOFXKCZ12A6D4F6996
p2094
aVSOLZNSD12A6D223BA6
p2095
aVSOKIKOU12A6D4F78FB
p2096
aa(lp2097
VSOBIACL12AB018BC6A
p2098
aVSOFOACW12A58A7B5E7
p2099
aa(lp2100
VSOVIUUO12A8C133EBF
p2101
aVSOFPPDU12AC468A4E2
p2102
aa(lp2103
VSOVQPUM12A6D4F8F18
p2104
aVSOPFGAC12AB018916C
p2105
aa(lp2106
VSOCGCVA12AB018BFA7
p2107
aVSOXBRHJ12AB0187AA3
p2108
aa(lp2109
VSOKLALK12AB0180A82
p2110
aVSOWAETX12AB018611C
p2111
aa(lp2112
VSODHHGM12AB017BEE9
p2113
aVSOFYNXN12A6701E71A
p2114
aa(lp2115
VSOGJJUL12A58A7AEA7
p2116
aVSOVDFAX12A670215E8
p2117
aa(lp2118
VSOZABGT12A8C133FBC
p2119
aVSOZEVMY12A58A7E492
p2120
aVSOIZHYT12AB017F157
p2121
aa(lp2122
VSORYNNT12AB0186C3D
p2123
aVSOXLXEN12A58A7B0B5
p2124
aVSOPWKOW12A8C138B80
p2125
aa(lp2126
VSOKTEUU12CF5F88920
p2127
aVSOIQMDF12A8C143684
p2128
aa(lp2129
VSOATOQQ12AAF3B1EBB
p2130
aVSOYLYBC12A8C135F3A
p2131
aa(lp2132
VSOITLAN12AF72A9C10
p2133
aVSOAMAUJ12A6D4F9065
p2134
aa(lp2135
VSOBOAOG12A67020E5C
p2136
aVSORGTNE12D02193408
p2137
aVSORBJMW12AB0187BC4
p2138
aVSOZHIXU12AB018E334
p2139
aa(lp2140
VSOYULOW12AB017F3CA
p2141
aVSOJOTOL12A8C136B55
p2142
aa(lp2143
VSODJWBD12A8C136AE9
p2144
aVSOZVVAU12A8C1387DC
p2145
aVSOXWZTK12D021B2B02
p2146
aVSOVUFTX12A6D4F8A68
p2147
aa(lp2148
VSOZQFQD12A8C13895D
p2149
aVSOJVPMB12A8C13074E
p2150
aVSOKLOCA12A6D4FB3BC
p2151
aVSOKKMIL12A8C13EEEE
p2152
aa(lp2153
VSOKNHMS12AB0181393
p2154
aVSOESHPQ12A8C13B930
p2155
aa(lp2156
VSOACMZE12A8C1430FB
p2157
aVSOQEZLX12A58A7B75D
p2158
aa(lp2159
VSOIXRWK12A6D4F7904
p2160
aVSOGMQPR12A58A7CFEB
p2161
aVSOEEIIE12A6D4FA25E
p2162
aVSOECIFL12A6D4F78FE
p2163
aa(lp2164
VSOJGJQP12A8C14596E
p2165
aVSOOFYFP12A6D4F7902
p2166
aa(lp2167
VSOSCBAY12A6D4F8432
p2168
aVSOPZWAV12AB017CB75
p2169
aVSOWIKQY12A6701DAAB
p2170
aa(lp2171
VSOGXVLR12AB0182D56
p2172
aVSOSYXYJ12A8C13F86D
p2173
aVSOICZKW12D02195248
p2174
aa(lp2175
VSOHKPSL12A8C13AA88
p2176
aVSOAWUET12AB0184BB5
p2177
aVSODBKXC12A8C14186C
p2178
aa(lp2179
VSOHGWSJ12AB01863EC
p2180
aVSOYZLLO12A58A78F91
p2181
aa(lp2182
VSOHIZEN12A8C1428D1
p2183
aVSOCORBY12A6701E155
p2184
aa(lp2185
VSODKSFY12AC9074EFE
p2186
aVSOUSKNL12A8C1343A9
p2187
aa(lp2188
VSOEBEOY12A58A7E0C0
p2189
aVSOCECSW12A58A7B6FD
p2190
aa(lp2191
VSOBJTXG12D02198DC2
p2192
aVSONVOPW12A670208F4
p2193
aa(lp2194
VSOBJTZJ12AB0182967
p2195
aVSOCIHBP12A6D4FAE25
p2196
aa(lp2197
VSOLJWLO12A8C13D787
p2198
aVSOEMIJY12A8C13EB0A
p2199
aVSOYQQHD12AB018347F
p2200
aVSOMTQLT12AB017B212
p2201
aa(lp2202
VSOOEKXM12AB018B698
p2203
aVSOAHNNX12AB0187DC9
p2204
aVSOEVEMP12AB0187DD3
p2205
aVSOLWUED12AB0187DD0
p2206
aa(lp2207
VSOATTFV12A8C134103
p2208
aVSOYIKNE12A6D4F782E
p2209
aa(lp2210
VSOSHPEE12A6D4F8E10
p2211
aVSOBBSJH12A6D4F6D86
p2212
aVSOYOXOB12AC468BB43
p2213
aa(lp2214
VSOPMIID12A58A7BD7D
p2215
aVSOFTJYI12AF72A4A6C
p2216
aVSOBWQZW12A8C1409AF
p2217
aa(lp2218
VSORDDRD12A8AE472DA
p2219
aVSONBOCR12A8C13272F
p2220
aVSOKWLTZ12AB0187B1B
p2221
aVSOBGWVH12A8C13CC2D
p2222
aa(lp2223
VSOAMRDA12A6D4FDEDB
p2224
aVSOBBRAQ12A8C1430ED
p2225
aa(lp2226
VSOQMMCR12AC468AFB4
p2227
aVSOQSWGB12A8C13C5D9
p2228
aa(lp2229
VSODKSFY12AC9074EFE
p2230
aVSOVAETU12A8C144925
p2231
aa(lp2232
VSOBIYMY12AB0187472
p2233
aVSONPEUD12A8C13A191
p2234
aa(lp2235
VSOOVWVD12AB0185B36
p2236
aVSOBXYUR12A6701E15B
p2237
aVSOTWQGI12A6D4F905D
p2238
aa(lp2239
VSOWJICU12AF72A6518
p2240
aVSOEKDJH12A8C13874D
p2241
aVSOXEWMS12AB0182F35
p2242
aVSOESPLJ12A5891D5FB
p2243
aa(lp2244
VSOVOARN12AB0183CDD
p2245
aVSOEHIPY12AB0184AC5
p2246
aVSOOPPHS12A8C138B0B
p2247
aVSOMYFCA12A6D4F6DEF
p2248
aa(lp2249
VSOAKRUQ12A6D4FAD2B
p2250
aVSOCGLQU12AB018A6C5
p2251
aa(lp2252
VSOZLIFH12A58A7C3F3
p2253
aVSOILABI12A8C13554B
p2254
aa(lp2255
VSORTEDS12A8C1426F5
p2256
aVSOAPRGQ12A6D4F8AAD
p2257
aVSOXMWCR12A6D4FA267
p2258
aa(lp2259
VSOBKPWU12B34F1C053
p2260
aVSONGHDO12AAFF4263C
p2261
aVSOHIVPW12A8C131CDE
p2262
aa(lp2263
VSOGCGEI12AC468D8D4
p2264
aVSOUUURA12A8C136341
p2265
aVSOPDLEI12A81C21A22
p2266
aa(lp2267
VSOKGNNC12AB0182F63
p2268
aVSOGUXKE12A8C143ADC
p2269
aVSOIOFJT12AB0179EC3
p2270
aa(lp2271
VSONOVZP12A6310DC22
p2272
aVSOLOUCH12A6D4F9055
p2273
aa(lp2274
VSOGKTFH12CF5F86F5E
p2275
aVSOATNDP12AF72A4AA3
p2276
aa(lp2277
VSOUAYZJ12AF72A315B
p2278
aVSOXLOVY12AB018156D
p2279
aa(lp2280
VSOZMMZA12A8C145B32
p2281
aVSORVCJI12CF5F8909D
p2282
aa(lp2283
VSOBOCHO12A8C134561
p2284
aVSOORBXG12AB017F896
p2285
aa(lp2286
VSOWMMZV12A8C13DD01
p2287
aVSOEKOSS12A8C144D3B
p2288
aVSODNBPK12A58A7D4D6
p2289
aa(lp2290
VSOAAUFG12A6D4FA966
p2291
aVSOETHEK12A8C13D667
p2292
aa(lp2293
VSOVUJRJ12D0219A386
p2294
aVSODJCTM12A8C1345B6
p2295
aa(lp2296
VSOVALXP12D021B3DA8
p2297
aVSOUOHAD12A6D4F8920
p2298
aa(lp2299
VSOFCRRN12A58A78FC6
p2300
aVSOCGLQU12AB018A6C5
p2301
aVSOGNBXG12A8C131630
p2302
aVSOYKXQY12A58A7E938
p2303
aVSONXOEZ12A6D4FD315
p2304
aVSOYIXKD12AB0181E21
p2305
aa(lp2306
VSOMXKNW12A8C141932
p2307
aVSOOHCNF12A8C1452D5
p2308
aVSONNZHU12AB0185F94
p2309
aa(lp2310
VSOODHLO12AF72A1980
p2311
aVSOVAAND12A8C13A6C3
p2312
aa(lp2313
VSOWYASV12AB0189A02
p2314
aVSORSQLK12A67021593
p2315
aa(lp2316
VSOGELYD12A58A7E900
p2317
aVSOTRGYE12A6D4FB451
p2318
aa(lp2319
VSOMPVHZ12AB01824D8
p2320
aVSORDEKF12A58A7B393
p2321
aa(lp2322
VSODUWGJ12A8AE467AD
p2323
aVSODWCMN12A58A7D893
p2324
aVSORSWGY12A8C1358D2
p2325
aa(lp2326
VSOMBGTL12A8C133038
p2327
aVSOJQZGT12AC4684FE4
p2328
aa(lp2329
VSOKHEDX12A6D4FAC70
p2330
aVSOMXQPQ12A81C1FBF7
p2331
aa(lp2332
VSOSKIDH12A6701E13B
p2333
aVSODNYSG12AB017F94D
p2334
aVSOYHXSV12D021B0A95
p2335
aVSOKSLXL12A8C13F0D7
p2336
aVSOOPWOH12A67ADE68A
p2337
aVSOJZCNZ12AB017F121
p2338
aa(lp2339
VSONJBDA12AB0183CFD
p2340
aVSOUTXWI12A6D4F8F21
p2341
aa(lp2342
VSOXGCUN12AB0182757
p2343
aVSOLSAZR12A8C134A6A
p2344
aa(lp2345
VSONHHPH12A58A7AC0B
p2346
aVSOULIKM12A6D4F9A16
p2347
aa(lp2348
VSOLEOKZ12A58A7A038
p2349
aVSOEHFKO12AB0187F15
p2350
aa(lp2351
VSOMBSDQ12A6D4F826F
p2352
aVSOEAEAY12A58A79C4C
p2353
aa(lp2354
VSOCLHEG12AB0184EAB
p2355
aVSOEXCBA12AB0183318
p2356
aa(lp2357
VSOFMCEB12AB0181D85
p2358
aVSOJNLLQ12A8C134579
p2359
aa(lp2360
VSOVAFMY12A6701DF38
p2361
aVSOGEKHF12A8C139CB3
p2362
aa(lp2363
VSOMXVVN12AF72A7241
p2364
aVSOIXEIZ12A8C131602
p2365
aa(lp2366
VSOCKQOE12D0219A9A0
p2367
aVSOXUIBA12AB0185304
p2368
aVSOQHLTM12A58A77928
p2369
aa(lp2370
VSOLSWSG12A8C13894E
p2371
aVSOSQWKZ12A8C13C107
p2372
aVSOTWMUO12AB0186B36
p2373
aa(lp2374
VSOSCBAY12A6D4F8432
p2375
aVSONTVVW12A8C13094F
p2376
aa(lp2377
VSOHLQNY12A8AE48268
p2378
aVSOAXCQO12A8C1433F1
p2379
aVSOKPQEC12CF5F88AC7
p2380
aa(lp2381
VSOHQNZD12A8C13C654
p2382
aVSOCVTNC12A6310F91C
p2383
aVSOHPCHI12A6D4F89E0
p2384
aa(lp2385
VSOETHJA12A6310F21E
p2386
aVSONLJGB12A6D4F6E20
p2387
aVSOLTQZY12A8C13262F
p2388
aVSOPEFAT12A81C23429
p2389
aa(lp2390
VSODWIAC12A6BD56C20
p2391
aVSOSGHUL12A8C13B280
p2392
aVSOSRBZE12AC96187DD
p2393
aa(lp2394
VSOWOZNC12AB0185538
p2395
aVSOTZFJL12AB017A25D
p2396
aVSOYPNBV12A8C13EA13
p2397
aa(lp2398
VSOHFQPR12A8C1410B3
p2399
aVSOYVWSB12A6D4F698E
p2400
aa(lp2401
VSOAIJFI12AB0188387
p2402
aVSOZEANC12A8C14487F
p2403
aa(lp2404
VSOBKYTA12AB017FE92
p2405
aVSOMESIG12AB0180B79
p2406
aVSOXFOGP12CF5F88A17
p2407
aa(lp2408
VSOWOPYC12A6D4F90B8
p2409
aVSOAQYJU12A6D4F9080
p2410
aa(lp2411
VSOBMREZ12AB017CD83
p2412
aVSOUHQRI12A6D4F9E36
p2413
aa(lp2414
VSOOWYLL12AB017DAC4
p2415
aVSOHDXCV12AB017CC84
p2416
aa(lp2417
VSOHXGQI12A8C136E46
p2418
aVSOCRBUH12A6D4F9FC6
p2419
aa(lp2420
VSOPTULU12A6D4F9323
p2421
aVSOEUKVP12D02193414
p2422
aa(lp2423
VSOUJBPV12A8C137796
p2424
aVSOLPZBD12A8C138443
p2425
aa(lp2426
VSOMSXGD12AF72AA082
p2427
aVSOBCJJK12A8C143C9C
p2428
aVSOJPVCB12A8C138914
p2429
aVSOJHQRU12A6310E952
p2430
aa(lp2431
VSONHGGH12A8C142B99
p2432
aVSOHWZAG12A8C13AFB8
p2433
aVSONNDZZ12A8C13BA9D
p2434
aVSOSUBEP12A8C134448
p2435
aa(lp2436
VSOGOFNM12A8AE460BF
p2437
aVSOJZCNZ12AB017F121
p2438
aVSOYRZXF12A8C133963
p2439
aa(lp2440
VSOYQSBM12AB0183BEF
p2441
aVSOHKQGG12A8C146848
p2442
aVSODUHRA12AB0189B98
p2443
aa(lp2444
VSOLTCOF12AB017FDA3
p2445
aVSOFCURG12A8C144003
p2446
aa(lp2447
VSODRDHI12A58A7BD75
p2448
aVSOQZAVR12A81C230F5
p2449
aa(lp2450
VSOBIUGH12A58A7E002
p2451
aVSOQZPLT12AB017B8B5
p2452
aVSOKDBRN12AB0183E56
p2453
aVSOGXVLR12AB0182D56
p2454
aVSOGLKUJ12A8AE46B92
p2455
aa(lp2456
VSOJKGUH12AB017FD62
p2457
aVSOHBHMN12A58A78CC5
p2458
aa(lp2459
VSOXEQEP12A8C140CD0
p2460
aVSOXOJVK12A6D4F869C
p2461
aVSOSLFQW12AB0185B70
p2462
aa(lp2463
VSOLHMBZ12A6D4F8993
p2464
aVSOOSYWT12A6D4FB801
p2465
aa(lp2466
VSOTURQR12A8C13F16C
p2467
aVSOBOOFU12D0219A0F0
p2468
aa(lp2469
VSOFDFBL12CF5F89018
p2470
aVSOHJHZB12A8C142D11
p2471
aa(lp2472
VSOJMUVJ12AB018BC4E
p2473
aVSOZAAJQ12A8C143CF1
p2474
aa(lp2475
VSORCWZU12A6D4FA78B
p2476
aVSONMOVN12A8C13C0C9
p2477
aVSODLKUO12A8C13CA35
p2478
aa(lp2479
VSOTGCAU12A8C134DE5
p2480
aVSOLEGZI12A8C13EAD1
p2481
aa(lp2482
VSOZYUGZ12A8AE472AC
p2483
aVSOMQQDL12AF72A28AF
p2484
aa(lp2485
VSOIVDEB12CF5CFD6B7
p2486
aVSOYNFOT12A58A78434
p2487
aa(lp2488
VSOGTHON12A81C22E21
p2489
aVSODKZCC12A8C1458BA
p2490
aVSORDYVO12A8C141A40
p2491
aa(lp2492
VSONOVZP12A6310DC22
p2493
aVSOKPSQT12AC468D314
p2494
aVSOQJQJB12A8C13A7B7
p2495
aVSOMXKBV12A67021286
p2496
aa(lp2497
VSOJVLWL12CF5F87001
p2498
aVSOPBTRI12A6D4F81DA
p2499
aVSOCJUHY12AC9074E45
p2500
aa(lp2501
VSOMRTPZ12A6D4F92CF
p2502
aVSOQRJEG12A8C133E62
p2503
aa(lp2504
VSOUYBQA12AF72A0DB8
p2505
aVSOCIBOW12A6D4F6E22
p2506
aa(lp2507
VSORSQLK12A67021593
p2508
aVSOXWZTK12D021B2B02
p2509
aVSOMDONO12D021B220C
p2510
aVSOMHRGY12A6D4F5E4F
p2511
aa(lp2512
VSODWONG12A8C1421B3
p2513
aVSOEDFSM12AB0187587
p2514
aa(lp2515
VSOHYBHJ12D021991D6
p2516
aVSOPXMXM12A8C134EF7
p2517
aVSOIOVTS12A6D4F743F
p2518
aVSOCSHDT12A8C137605
p2519
aa(lp2520
VSORFAUX12B0B8076DC
p2521
aVSOLUKKU12A58A7B2C2
p2522
aa(lp2523
VSOAVVYO12A8C134A40
p2524
aVSODQVEJ12AB01824E3
p2525
aa(lp2526
VSOBJFWS12AB01878ED
p2527
aVSOCJJAU12A8C1363EE
p2528
aVSOGUAJF12A6D4F8365
p2529
aVSOTPAJX12AB018E181
p2530
aa(lp2531
VSOUTXWI12A6D4F8F21
p2532
aVSOTCWFW12A8C140F6F
p2533
aa(lp2534
VSOHEQCK12A8C134435
p2535
aVSOSBSYR12A8C140BC9
p2536
aa(lp2537
VSOHTZTD12A8AE469AE
p2538
aVSOQZMLX12A6D4F9A1D
p2539
aa(lp2540
VSOJVPKS12AB018227A
p2541
aVSORAHUH12AB017E809
p2542
aa(lp2543
VSOLWUUT12AB018D331
p2544
aVSOKGNCA12A6D4FB528
p2545
aa(lp2546
VSOIWVSZ12A8C133026
p2547
aVSOQIPZP12A6701FEFE
p2548
aVSOUVUUU12A8C12FA2C
p2549
aVSOVWFAS12A8C13307C
p2550
aa(lp2551
VSODQHFK12A6702080D
p2552
aVSOYZVIA12A8C132C2F
p2553
aVSOUIREG12A8C137B5F
p2554
aVSOGLPRP12AB01824D9
p2555
aVSORLFIB12A6701FEF7
p2556
aa(lp2557
VSOHLQNY12A8AE48268
p2558
aVSOTSXND12A6701FEF8
p2559
aVSOOTNEY12AF72A12D9
p2560
aVSOPNDNI12A6702080F
p2561
aa(lp2562
VSOMOIAQ12A8C13658B
p2563
aVSOJWGLH12A8C134D4F
p2564
aa(lp2565
VSORLFTB12AB0185F7F
p2566
aVSOIDLEZ12A8C131EDC
p2567
aVSOATOQQ12AAF3B1EBB
p2568
aVSOAQTRU12A8C142640
p2569
aa(lp2570
VSOINCUX12AB018158C
p2571
aVSOBPLJL12A8C1350F3
p2572
aa(lp2573
VSOJOGKL12A6D4F66FA
p2574
aVSOYRTIH12A8C13DE14
p2575
aa(lp2576
VSOKNHMS12AB0181393
p2577
aVSOFRNJS12A8A9D5A12
p2578
aa(lp2579
VSOWRWYA12AB018B286
p2580
aVSOJRUAF12CF530E600
p2581
aVSOFYGTK12A6D4FAC8E
p2582
aVSOPDHKT12A6D4F5B49
p2583
aVSOPLFHS12A8AE480D6
p2584
aa(lp2585
VSOIERRR12AB017F4C2
p2586
aVSOQETPC12A58A7C155
p2587
aVSOYHXSV12D021B0A95
p2588
aa(lp2589
VSOPWOJV12A58A7EA68
p2590
aVSOHDFGA12A8C137B56
p2591
aVSOHWAVS12A8C13AF2D
p2592
aa(lp2593
VSOGIPUW12A8C134D73
p2594
aVSOKIADU12A8C139484
p2595
aVSOLYPCF12A8C136E12
p2596
aVSOLSDHR12AB018224B
p2597
aa(lp2598
VSOIPNIY12A8C13EBA4
p2599
aVSOZOSTH12A6D4FB48E
p2600
aVSOJHYTV12A8C1345CD
p2601
aVSOXGGUK12A8C134101
p2602
aVSODJNMU12A8C1320F7
p2603
aa(lp2604
VSOZNZRR12A6701DAAC
p2605
aVSOVALXP12D021B3DA8
p2606
aVSOTMGEV12A8C140A55
p2607
aVSOAISCD12A8C14016E
p2608
aaa(lp2609
g1256
a(lp2610
VSOOYTQM12AB018E383
p2611
aVSOQAEBQ12AB01886A7
p2612
aa(lp2613
VSOQPWUE12CA3EE8F62
p2614
aVSOXEUYD12AB0181B93
p2615
aVSOMXDPU12A58A7D51C
p2616
aag960
ag966
a(lp2617
VSONCBPU12A8C1409A9
p2618
aVSOGLPRP12AB01824D9
p2619
aag832
ag2159
ag2164
ag2167
a(lp2620
VSOHJHYL12A58A786CA
p2621
aVSOGFWPF12A8C132B52
p2622
aa(lp2623
VSOFMRJP12A8C145445
p2624
aVSOZONFM12A58A7B58B
p2625
aa(lp2626
VSOWKPKC12AB017B4C8
p2627
aVSOHYIFL12A6D4F84D8
p2628
aVSOHCFVA12AB017EFC5
p2629
aag1511
ag1514
ag1518
ag1521
ag2357
ag2360
ag2363
ag2366
ag2370
ag1931
ag1934
ag1937
ag1940
ag1943
ag1098
ag1318
ag1322
ag1325
ag1946
ag1175
ag393
ag396
ag1745
ag1748
ag1755
ag154
ag425
ag429
ag2472
ag2475
ag1493
ag1496
a(lp2630
VSOTUPEJ12A58A7E4C1
p2631
aVSOLTQZY12A8C13262F
p2632
aa(lp2633
VSOLUFHV1288D3E7108
p2634
aVSOVOBZT12A8C13FAA6
p2635
aVSOBCGDY12B0B80747F
p2636
aag987
ag990
ag995
ag999
ag1005
ag735
ag739
ag1660
ag399
ag402
ag405
ag408
ag412
ag21
ag24
ag27
ag30
a(lp2637
VSOZSXXP12A8C132E02
p2638
aVSONQGKR12A8C133F46
p2639
aa(lp2640
VSOFOACW12A58A7B5E7
p2641
aVSOKDYZN12AAF3B2EEA
p2642
aVSOWXGNI12AB018A25A
p2643
aag138
ag270
ag2507
ag2512
ag2515
a(lp2644
VSOGHETV12A8C1362FB
p2645
aVSOLSWSG12A8C13894E
p2646
aVSOOMEJL12D0219A295
p2647
aag1574
ag1582
ag1585
ag2126
ag2129
ag1202
ag1206
ag1209
ag1213
ag1217
ag1220
ag1223
ag462
ag467
ag470
a(lp2648
VSOHWAVS12A8C13AF2D
p2649
aVSODJCTM12A8C1345B6
p2650
aVSOBHMIN12A6D4F5B23
p2651
aa(lp2652
VSOCSQHT12A6D4FBA7D
p2653
aVSOMGNLB12A8C140ECF
p2654
aVSOKPLGO12A6D4FA56E
p2655
aVSOEWKBW12AB0187ED7
p2656
aVSOMXVVN12AF72A7241
p2657
aVSOOBVSF12A6D4FAE04
p2658
aVSOPOHFZ12A8AE4724F
p2659
aa(lp2660
VSOIJUUG12AB0187EEB
p2661
aVSOFCURG12A8C144003
p2662
aa(lp2663
VSOMXVVN12AF72A7241
p2664
aVSODDSZE12A6D4F88C0
p2665
aa(lp2666
VSOCSQHT12A6D4FBA7D
p2667
aVSOVKBGW12A58A78211
p2668
aVSOUVMON12A58A7AA7D
p2669
aag2171
ag2293
ag2296
a(lp2670
VSOBUNDH12A6D4F86CE
p2671
aVSOTLWMR12A8C13FD0A
p2672
aa(lp2673
VSOGDNJX12A6D4F85BC
p2674
aVSOERWXU12A8C13A9A6
p2675
aVSOJSGFF12A8C138FD3
p2676
aa(lp2677
VSOMXVVN12AF72A7241
p2678
aVSOBWUXN12A8C139C88
p2679
aag2540
ag2543
ag1194
ag1197
ag1373
ag535
ag538
ag541
ag2191
ag2194
ag2197
a(lp2680
VSOUVTEO12AB018369C
p2681
aVSOHFKFI12A8C1427B2
p2682
aa(lp2683
VSOLUHRQ12AB018D110
p2684
aVSOCNNOR12CF5F8899C
p2685
aVSOPJZNT12AB018E9DC
p2686
aag762
ag2202
ag1537
ag1540
ag1544
ag1547
ag1551
ag419
ag742
ag755
ag758
ag1705
ag120
ag123
ag362
ag366
ag371
a(lp2687
VSODJTZQ12A8C1321FF
p2688
aVSOKBIKT12A8C138A36
p2689
aag1823
ag1826
ag882
a(lp2690
VSOMMPHN12AB0183CF6
p2691
aVSOAUMDH12A8C13F2D4
p2692
aag2329
a(lp2693
VSOEZPRQ12A8C13DDCC
p2694
aVSOQQSYT12A6310F0C7
p2695
aVSOUSZSW12AB01800C2
p2696
aVSOFXDBI12A8AE48DA3
p2697
aa(lp2698
VSOVWFAS12A8C13307C
p2699
aVSOGCLXM12A8C133746
p2700
aVSOACKJC12AB0187A3C
p2701
aVSOUUURA12A8C136341
p2702
aVSOAIJIL12AC46861C4
p2703
aag145
ag149
ag56
ag59
ag65
ag2259
ag2263
ag2267
ag1115
a(lp2704
VSOUFXYI12AC4686E5A
p2705
aVSONCMOH12A6D4F7B17
p2706
aVSONBKOP12AB017CE80
p2707
aag1664
ag101
ag105
ag108
ag1808
ag1589
ag2546
ag2551
ag2557
a(lp2708
VSOMWUZH12A8AE45D1F
p2709
aVSOJBXJY12AF72A167D
p2710
aVSONQXDH12A6D4FB531
p2711
aVSODXRZY12A58A7B450
p2712
aa(lp2713
VSOUCQBZ12A6D4F9A0F
p2714
aVSOPNWXV12AC90718F5
p2715
aa(lp2716
VSOVVRDZ12A8C140168
p2717
aVSOLJQOK12A8C14028B
p2718
aa(lp2719
VSOGRZTS12AB01890DD
p2720
aVSOSJRKQ12CF5826666
p2721
aag127
ag826
ag2140
ag643
ag646
ag1927
ag1148
ag1155
a(lp2722
VSONLJGB12A6D4F6E20
p2723
aVSOFTJHG12A8C13B6B5
p2724
aa(lp2725
VSOMEOAW12A8C13D7C9
p2726
aVSOGRKLL12AF72A54B0
p2727
aVSONCARH12A6D4FD437
p2728
aa(lp2729
VSONBBIG12A6D4FCBC2
p2730
aVSOAPCQO12A6D4F7B1B
p2731
aVSONACBR12AF729D8D4
p2732
aa(lp2733
VSOKGBGM12A8C1338AF
p2734
aVSOTLYMU12A8C1357BE
p2735
aag950
a(lp2736
VSOFCHFK12A8C141F46
p2737
aVSOMXKNW12A8C141932
p2738
aa(lp2739
VSOEMFCM12CF5F86F1E
p2740
aVSOPSQGV12A8C141ADC
p2741
aag801
ag829
ag375
ag382
ag452
ag456
ag2420
ag2423
ag2426
ag2431
ag1145
ag1681
a(lp2742
VSOEBKOY12A6D4F81D2
p2743
aVSONUOCG12A6D4F806D
p2744
aa(lp2745
VSOQXSDV12A8C13DF5B
p2746
aVSODQPWQ12AF72A24C4
p2747
aag1778
ag969
ag579
ag582
ag585
ag257
ag261
ag264
ag181
ag185
ag188
ag192
ag1794
ag1798
ag567
a(lp2748
VSOWFTLL12A8C13264E
p2749
aVSORDDRD12A8AE472DA
p2750
aVSOHJHYL12A58A786CA
p2751
aa(lp2752
VSOEVTBW12AB01827C2
p2753
aVSOUFKUX12A8C13B082
p2754
aa(lp2755
VSOAOAHU12AF72A2F98
p2756
aVSOGINGL12A6D4F9356
p2757
aVSOLEYFX12A8C142B7D
p2758
aVSOLIAQG12A8C134A41
p2759
aVSOVUJRJ12D0219A386
p2760
aVSOOOYWG12AB0184CAA
p2761
aa(lp2762
VSOPZZYA12A6D4F904E
p2763
aVSOWCGAL12A6D4F9050
p2764
aVSORTOVS12A8C130F5F
p2765
aag315
ag318
ag321
ag324
ag1454
ag1457
ag1905
ag1909
ag1912
ag2093
ag2097
ag2100
ag2103
a(lp2766
VSOZSXXP12A8C132E02
p2767
aVSONQGKR12A8C133F46
p2768
aa(lp2769
VSOFOACW12A58A7B5E7
p2770
aVSOKDYZN12AAF3B2EEA
p2771
aVSOWXGNI12AB018A25A
p2772
aag1503
ag1507
ag2118
ag2122
ag953
ag957
ag2531
ag2534
ag2537
ag2440
ag2444
ag2447
ag492
ag1329
ag1332
ag1335
ag1621
ag1624
ag900
ag908
ag1991
ag1994
ag216
ag219
ag2520
ag2523
ag2526
ag252
ag1133
ag1136
ag1140
ag199
ag202
a(lp2773
VSOFZNPK12AC468C02D
p2774
aVSOQKHSB12AC468F60C
p2775
aa(lp2776
VSOIAKED12A6D4F8778
p2777
aVSOCODYN12AB01886E2
p2778
aa(lp2779
VSOBNYYM12A8C1386E5
p2780
aVSONAGVH12A6701DE0B
p2781
aVSODSUGY12A8C135B61
p2782
aVSOXFKFQ12D02192F85
p2783
aa(lp2784
VSODNXWD12A679AE5E9
p2785
aVSOCJJDW12AB017DB68
p2786
aag683
ag205
ag551
ag2153
ag2156
a(lp2787
VSOABOYG12A8C131BE7
p2788
aVSODAXRQ12A6D4FA6B3
p2789
aa(lp2790
VSOHKKFP12A58A7CA9D
p2791
aVSOGNBXG12A8C131630
p2792
aa(lp2793
VSOZVAUD12A8C14398B
p2794
aVSOCKQOE12D0219A9A0
p2795
aa(lp2796
VSOBKPLD12D021987E0
p2797
aVSOERWXU12A8C13A9A6
p2798
aag1647
ag1650
ag1653
ag1657
ag2339
ag1070
ag1074
a(lp2799
VSONUELI12CF5F88CB9
p2800
aVSOAYYJI12A8C132718
p2801
aa(lp2802
VSOBQHCC12A8C13B469
p2803
aVSOQGPMG12A6701E12F
p2804
aVSOODXCT12A8C137B48
p2805
aa(lp2806
VSOWHLOK12D021B0F2C
p2807
aVSOZVCTY12A6D4F7CAF
p2808
aa(lp2809
VSOMKKDO12A6D4F9242
p2810
aVSOPPIGR12AB017E58F
p2811
aa(lp2812
VSOYVLLE12AB0185B81
p2813
aVSOJSGFF12A8C138FD3
p2814
aag2143
ag2148
ag598
ag603
ag606
ag610
ag614
ag1398
ag1401
ag1499
ag92
ag111
ag114
ag117
ag481
ag484
ag489
ag765
ag1349
ag1354
ag1357
ag1286
ag1289
ag1293
ag1297
a(lp2815
VSOUWJUZ12A8C13E925
p2816
aVSOJGGHE12A8C13E92B
p2817
aa(lp2818
VSOYXMZO12A6D4FB1BF
p2819
aVSOQSQBN12A58A7E74B
p2820
aag2390
ag2394
ag2398
ag617
ag622
ag625
ag631
a(lp2821
VSODZAPO12A8C132EE9
p2822
aVSOBPNMC12AB018104C
p2823
aag544
ag548
ag2576
ag2579
ag2585
ag83
ag86
ag89
ag1063
ag1066
ag47
ag50
ag53
ag2310
ag2313
ag329
ag333
ag338
ag341
ag344
ag972
ag975
a(lp2824
VSOQIHLW12AB018E9FB
p2825
aVSOSHEHO12A58A7B0E1
p2826
aVSOLUHRQ12AB018D110
p2827
aVSOOFJYP12A8AE46441
p2828
aa(lp2829
VSOPWXAZ12A8C131BD1
p2830
aVSOJQZGT12AC4684FE4
p2831
aag673
ag676
ag679
ag777
ag781
ag784
ag787
ag794
ag798
a(lp2832
VSOZDNVT12CF5F88244
p2833
aVSOLWCWC12A8C140D00
p2834
aa(lp2835
VSOFXVCR12AB0181F91
p2836
aVSOMALGO12A8C134A27
p2837
aVSOXRRQI12A8C133245
p2838
aa(lp2839
VSONFOKB12A8C135901
p2840
aVSOENDQX12A8C1319E3
p2841
aag2570
ag2573
a(lp2842
VSOAASII12A58A7C5E0
p2843
aVSOHIZEN12A8C1428D1
p2844
aa(lp2845
VSOCQLOC12A8C13B0ED
p2846
aVSOXZNHV12AF72A62EB
p2847
aag927
ag930
ag936
ag924
ag141
ag2218
ag2223
a(lp2848
VSOKHSIN12AB0183626
p2849
aVSOURMMK12A6701DAA3
p2850
aVSOHSQUT12AF72A2BB8
p2851
aag1917
ag1921
ag1924
ag649
ag1360
ag1363
ag1367
ag1370
ag44
ag95
ag2374
ag2188
a(lp2852
VSOGHETV12A8C1362FB
p2853
aVSOAMSIS12A6701FDB8
p2854
aa(lp2855
VSOLNQJJ12A58A78B54
p2856
aVSOHDNRL12A8C142196
p2857
aa(lp2858
VSOZHARR12A8C133E98
p2859
aVSOKHEDX12A6D4FAC70
p2860
aa(lp2861
VSOOPQMR12AB017D9A1
p2862
aVSOILKTU12A8C13483D
p2863
aag282
ag285
ag289
ag728
ag732
a(lp2864
VSODNYXG12A6D4FAC69
p2865
aVSOGQGKU12A6D4FB178
p2866
aa(lp2867
VSOELTHC12AC46882FD
p2868
aVSOZEANC12A8C14487F
p2869
aa(lp2870
VSOCHPOR12AB017F669
p2871
aVSOECHHY12A8C135C17
p2872
aa(lp2873
VSOOACQN12A6310D90F
p2874
aVSOLTOWM12A6D4FAFB4
p2875
aa(lp2876
VSOYNPVX12AB018883B
p2877
aVSOILABI12A8C13554B
p2878
aa(lp2879
VSOATSRA12AC468E338
p2880
aVSOROSCX12A81C2372C
p2881
aa(lp2882
VSOLEOKZ12A58A7A038
p2883
aVSOWZYRE12A8C136F0D
p2884
aa(lp2885
VSOZYDJM12A8C138647
p2886
aVSOIKYBX12A8C13E770
p2887
aa(lp2888
VSOGCIVE12A6D4FB70D
p2889
aVSOGGXHY12AB017F5CF
p2890
aa(lp2891
VSODZUTB12A58A780F5
p2892
aVSOMQFEF12A8C1340D6
p2893
aag713
ag718
a(lp2894
VSOFFWDQ12A8C13B433
p2895
aVSOHRSTQ12A6D4FA23C
p2896
aa(lp2897
VSOUXABP12AF72A449D
p2898
aVSOEOSKT12A6D4F8992
p2899
aVSOYAEPN12A8C14140F
p2900
aVSOXLKNJ12A58A7E09A
p2901
aag1389
ag1394
ag518
ag521
ag524
ag1226
ag1230
ag1241
ag1246
ag70
ag74
ag2132
ag2135
ag2316
ag2319
a(lp2902
VSOXYIPS12A8C1325F7
p2903
aVSOHANBK12A8C13F96C
p2904
aa(lp2905
VSOTRJPW12A8C142D96
p2906
aVSOSXJYF12D021B39D5
p2907
aag1165
ag1168
ag1172
ag2106
ag2109
ag2112
ag2115
ag2401
ag2404
ag2408
ag1829
ag1832
ag1837
a(lp2908
VSOGXVLR12AB0182D56
p2909
aVSOSYXYJ12A8C13F86D
p2910
aVSOICZKW12D02195248
p2911
aa(lp2912
VSOXGCUN12AB0182757
p2913
aVSOSJRWB12AB017D47A
p2914
aVSOAWUET12AB0184BB5
p2915
aVSOZRLFJ12A58A79CED
p2916
aVSOHFKHU12A6D4F7B79
p2917
aVSOXOMEJ12A8C133606
p2918
aVSOOPPHS12A8C138B0B
p2919
aVSOMQOGL12AB018278A
p2920
aVSOZLLTW12AB017F238
p2921
aVSOFKPSL12AB018830A
p2922
aVSOLSAZR12A8C134A6A
p2923
aVSOOMEJL12D0219A295
p2924
aa(lp2925
VSOMGQFZ12AB01858D0
p2926
aVSOJANLJ12A8C13D3A0
p2927
aa(lp2928
VSOSKILY12A8C143A5B
p2929
aVSOECBFX12A8C1340B1
p2930
aVSOSXROH12A8C134A3A
p2931
aa(lp2932
VSOKAJFP12AAF3B459C
p2933
aVSOKBXMS12AB018E36F
p2934
aVSOJWXAS12AB017E560
p2935
aVSOONEYB12AB0186F84
p2936
aa(lp2937
VSOLKBFW12AB0183CEE
p2938
aVSOMVIFR12AC9097CDC
p2939
aag2280
ag2283
a(lp2940
VSOBQPKN12A8C1359CA
p2941
aVSOLYEEU12A8C1359A1
p2942
aa(lp2943
VSOYUHYB12A8C1338F5
p2944
aVSODWCMN12A58A7D893
p2945
aa(lp2946
VSOARVXJ12AB018616E
p2947
aVSOKBAMP12A6D4F8F22
p2948
aa(lp2949
VSOVWDUU12AB01837F7
p2950
aVSOXBRHJ12AB0187AA3
p2951
aa(lp2952
VSOQJSUQ12A8C1345A9
p2953
aVSOZVNUL12A8C1390BD
p2954
aag1874
ag1882
ag1954
ag1963
ag2504
a(lp2955
VSOCDUHF12A67021C6F
p2956
aVSOBOHPP12A6701D0B8
p2957
aVSOCFHNV12A8C13F6E8
p2958
aVSONNVHD12A8C134055
p2959
aa(lp2960
VSOHWDOE12A58A79DD9
p2961
aVSORBURG12A8C131637
p2962
aVSOZOSTH12A6D4FB48E
p2963
aVSOLEXXM12AB0182A35
p2964
aag1130
ag848
ag851
ag859
ag1850
ag1853
ag1889
ag1894
ag1899
ag893
ag897
ag2411
ag2414
ag2417
ag1975
ag1978
a(lp2965
VSOMFIHM12AAFF43625
p2966
aVSOOVOZZ12A6D4F7E5E
p2967
aa(lp2968
VSORFAUX12B0B8076DC
p2969
aVSOSJUAS12AB017EB85
p2970
aa(lp2971
VSOLKQQA12AB0185B27
p2972
aVSOWOEKH12A58A7E811
p2973
aa(lp2974
VSONFOKB12A8C135901
p2975
aVSODJMLM12AAA15E95F
p2976
aVSOJEHFI12AB0180308
p2977
aVSOGZWMJ12AC9097245
p2978
aVSONZPWW12AB01865C9
p2979
aa(lp2980
VSOXVYQP12AF72A2ECA
p2981
aVSOSWFOU12AB0184E67
p2982
aa(lp2983
VSOKIADU12A8C139484
p2984
aVSOLOUCH12A6D4F9055
p2985
aa(lp2986
VSOUICFN12A6D4F7E8F
p2987
aVSOBPIVR12A8C13DF52
p2988
aVSOCRIGS12A8C13CDD0
p2989
aVSOTOGTX12A3F1EB95E
p2990
aag157
ag2000
ag2090
a(lp2991
VSODLFQK12AB0182E43
p2992
aVSOSBMYZ12A6701E46E
p2993
aa(lp2994
VSOQXCYK12AB018308A
p2995
aVSOWAMPQ12A58A7CF2A
p2996
aa(lp2997
VSOYCCIQ12A8AE47A64
p2998
aVSOYEPQO12A8C1329FE
p2999
aa(lp3000
VSOWZPUA12A6D4FB3F8
p3001
aVSOXVYQP12AF72A2ECA
p3002
aVSOVWFAS12A8C13307C
p3003
aa(lp3004
VSOLJIRK12A6D4F7AA0
p3005
aVSONPXHI12A8C141F24
p3006
aag1161
ag2326
ag1902
ag844
a(lp3007
VSOWAXNU12A58A7B32B
p3008
aVSOQJSUQ12A8C1345A9
p3009
aVSOUZMRE12A58A7B70F
p3010
aa(lp3011
VSOVUURR12AAF3B5322
p3012
aVSORZRGJ12AB0184A5E
p3013
aVSONQWWH12AB018A958
p3014
aVSOMSHDM12A8C13573F
p3015
aVSOCSIAS12A81C2303C
p3016
aVSONJBDA12AB0183CFD
p3017
aVSOOKGVW12A6D4FA2BD
p3018
aa(lp3019
VSOIDSRS12A6D4F8F1B
p3020
aVSOZRLFJ12A58A79CED
p3021
aag2436
ag1301
ag1306
ag1077
ag1080
a(lp3022
VSONGRKT12A67020907
p3023
aVSONQFIG12AB017B6EB
p3024
aa(lp3025
VSOXQFJL12A8C1416DD
p3026
aVSOBDOXO12A8C1335A8
p3027
aVSOKWGAH12A6D4FAACC
p3028
aVSOBIONY12A6D4F5C2F
p3029
aVSODABWH12A58A78E68
p3030
aVSOSIYUI12AB01890F7
p3031
aVSOIRZAO12A58A7F340
p3032
aag1127
a(lp3033
VSODSPLJ12A67021611
p3034
aVSOXOPZC12D0219A2D2
p3035
aVSOOVYHV12A8C138EF1
p3036
aa(lp3037
VSOSZJRI12A8C1409AA
p3038
aVSOSNAVD12A6D4F7579
p3039
aa(lp3040
VSOYWPMG12A6D4F901A
p3041
aVSOXHZLF12D0219A282
p3042
aa(lp3043
VSOYAYQL12A6702030D
p3044
aVSOITQAF12A8C138334
p3045
aa(lp3046
VSOMUNGQ12AB0182A7C
p3047
aVSOPNDNI12A6702080F
p3048
aVSORJJBT12AB0187562
p3049
aVSODKPMR12A6D4F9BB9
p3050
aVSOSATKP12AB0185476
p3051
aag1009
ag1014
ag1017
ag1525
ag1529
ag1532
ag1605
ag1610
ag1615
ag1618
ag222
ag226
ag229
ag913
ag916
a(lp3052
VSONIHQN12A8C1421A9
p3053
aVSOGXILR12A58A7C8AD
p3054
aa(lp3055
VSOVESEJ12A8C13CE01
p3056
aVSOANYDY12A58A7C01A
p3057
aa(lp3058
VSOIZDEP12A6D4F8F14
p3059
aVSOMTDBP12A6D4F8256
p3060
aag1782
ag1785
ag1788
ag1791
ag1762
ag2598
ag2604
ag459
a(lp3061
VSOZRVLJ12A8C143303
p3062
aVSOOVKSQ12A67ADF3ED
p3063
aag942
ag686
ag691
ag696
ag2479
ag939
ag2210
ag2214
ag653
ag656
ag660
ag665
ag670
ag292
ag297
ag2042
ag2047
a(lp3064
VSOBLCDA12A8C13D647
p3065
aVSONDAEG12A8C133291
p3066
aa(lp3067
VSOTZSNJ12A58A7A960
p3068
aVSODCTKH12A58A7F8B6
p3069
aag920
a(lp3070
VSOCGLQU12AB018A6C5
p3071
aVSODJNAE12A8C13E94F
p3072
aVSOUFTRV12AB017F242
p3073
aa(lp3074
VSONGZDQ12A6D4F6E16
p3075
aVSOAQGHR12A8C136EB1
p3076
aa(lp3077
VSOZEANC12A8C14487F
p3078
aVSOLWOJO12AB0187F55
p3079
aVSOLUXQK12A8C13E179
p3080
aa(lp3081
VSOEHULO12AB0188B8D
p3082
aVSOZSXXP12A8C132E02
p3083
aa(lp3084
VSOYVAFC12A8C139C19
p3085
aVSOGCGEI12AC468D8D4
p3086
aag2377
ag2381
ag495
ag273
ag276
ag279
ag2562
ag2565
ag1765
ag1768
ag1771
ag1775
a(lp3087
VSOVNOSC12A8C137BD0
p3088
aVSODUUBV12A6D4F8D3B
p3089
aa(lp3090
VSOLCYBM12A8C137BC8
p3091
aVSOMHSXN12A6D4F7A93
p3092
aa(lp3093
VSOJAZRN12A58A758BF
p3094
aVSOYASDW12A58A7A559
p3095
aa(lp3096
VSOVNOSC12A8C137BD0
p3097
aVSOLWDPX12AF729FA47
p3098
aVSOCSQHT12A6D4FBA7D
p3099
aa(lp3100
VSOCMCJJ12A8C13FA1E
p3101
aVSOGDATX12A8C13590C
p3102
aVSORJTJP12A8C134F85
p3103
aVSOLUXQK12A8C13E179
p3104
aag1684
ag1690
ag1697
ag1702
ag347
ag352
ag355
ag359
ag554
ag557
ag564
a(lp3105
VSONOCWP12A8AE460B8
p3106
aVSOMXQPQ12A81C1FBF7
p3107
aVSOUIOGT12A8C13B27B
p3108
aVSOYCSYU12AB01849E8
p3109
aVSORQXPQ12A8AE485F9
p3110
aVSONAUNR12AB0184E4B
p3111
aa(lp3112
VSOOBHVK12A6D4F9898
p3113
aVSONAXGB12A8C13F0CC
p3114
aa(lp3115
VSOCTJPN12D02198E57
p3116
aVSOJQZGT12AC4684FE4
p3117
aVSODARYB12A8C144444
p3118
aag2083
ag2086
ag700
a(lp3119
VSOITLAN12AF72A9C10
p3120
aVSOHYXEP12A58A7A253
p3121
aa(lp3122
VSOGONJS12AB0185B98
p3123
aVSOAAKCW12A8C132800
p3124
aa(lp3125
VSOBQZFC12AB017CE69
p3126
aVSOIQMDF12A8C143684
p3127
aag1083
ag1086
ag1089
ag1092
ag1095
ag2074
ag2077
ag2080
ag2244
ag1840
ag1309
ag1312
ag1315
ag573
ag576
a(lp3128
VSOKFSLE12AB0189F80
p3129
aVSOLCUEO12A8C1418F5
p3130
aag1643
ag2271
ag2274
ag2277
a(lp3131
VSOOIRML12AB01820B0
p3132
aVSOFWKSN12A58A79D55
p3133
aVSOQAEBQ12AB01886A7
p3134
aa(lp3135
VSOQFRQT12AB018903F
p3136
aVSOLGQRW12A6D4F781C
p3137
aa(lp3138
VSOSKIDH12A6701E13B
p3139
aVSOSFVIK12AB00F59BB
p3140
aVSOCLANU12A6D4F8F1A
p3141
aVSOLUHRQ12AB018D110
p3142
aag130
ag134
ag1050
ag1053
ag1056
ag1060
ag1708
ag1711
ag1714
ag1720
ag1724
ag1728
a(lp3143
VSODKPMR12A6D4F9BB9
p3144
aVSOTWYCQ12A8C137B43
p3145
aVSOPENKG12A8C13919C
p3146
aa(lp3147
VSOBBIAO12A8C13BAA5
p3148
aVSORJJBT12AB0187562
p3149
aa(lp3150
VSOXHZLF12D0219A282
p3151
aVSODBSUF12A8C141975
p3152
aag1486
ag1490
ag1416
ag1103
ag1108
a(lp3153
VSOELNFY12A67020441
p3154
aVSOGSERZ12A58A7A688
p3155
aa(lp3156
VSONCBPU12A8C1409A9
p3157
aVSOJRJBC12A8C141FBD
p3158
aa(lp3159
VSOJZYNM12A8C132AFE
p3160
aVSOSKKVC12A58291BFE
p3161
aVSOVHRXT12A8C1421D1
p3162
aVSOUONHO12D02199ECB
p3163
aVSOZKVYR12AF729DAF3
p3164
aag774
a(lp3165
VSONGYMA12A6D4F8A32
p3166
aVSOOVYHV12A8C138EF1
p3167
aVSOFWYND12AF72A4F53
p3168
aa(lp3169
VSOMEHEM12A58A7B86D
p3170
aVSOMUNGQ12AB0182A7C
p3171
aag2342
ag2345
ag2348
ag2351
ag2354
ag2249
ag2252
ag2255
a(lp3172
VSOUIDQD12A8C144F7E
p3173
aVSOHEQCK12A8C134435
p3174
aVSOWPNEY12A58A77877
p3175
aa(lp3176
VSOZOSTH12A6D4FB48E
p3177
aVSOEUKVP12D02193414
p3178
aag1446
a(lp3179
VSOYCSYU12AB01849E8
p3180
aVSOUIREG12A8C137B5F
p3181
aa(lp3182
VSOKXDWX12AB018A29E
p3183
aVSOWZIAM12A6701DF36
p3184
aa(lp3185
VSOGSICU12A67021CE7
p3186
aVSOVAMTC12A8C132585
p3187
aa(lp3188
VSODQPWQ12AF72A24C4
p3189
aVSOFVGQH12A6D4F7E8E
p3190
aa(lp3191
VSOSFIGZ12A8C136EB5
p3192
aVSOISZSQ12A6D4F70C2
p3193
aa(lp3194
VSOJZWQM12A6D4FD108
p3195
aVSOQSEHV12A6310F24B
p3196
aVSOCUVSL12A8C140903
p3197
aa(lp3198
VSOAIKCL12AB018A2A6
p3199
aVSOKVFUH12A6D4FC300
p3200
aa(lp3201
VSOAQKNM12A6310D888
p3202
aVSOLGKBH12A8C13F81E
p3203
aag1422
ag1427
ag2050
ag2054
ag2057
ag2060
ag2064
ag1119
ag1123
ag1981
ag1984
aa(lp3204
g2912
ag2925
ag2928
ag2932
ag2937
ag978
ag981
ag984
ag1493
ag1496
ag1373
ag111
ag114
ag117
ag2042
ag2047
ag1708
ag1711
ag1714
ag1720
ag1724
ag1728
ag1389
ag1394
ag44
ag2620
ag2623
ag2626
ag836
ag839
ag306
ag309
ag312
ag1148
ag1155
ag2799
ag2802
ag2806
ag2809
ag2812
ag774
ag518
ag521
ag524
ag1705
ag762
ag1259
ag1266
ag1270
ag1275
ag2748
ag2752
ag2965
ag2968
ag2971
ag2974
ag1511
ag1514
ag1518
ag1521
ag1346
ag2793
ag2796
ag1103
ag1108
ag1063
ag1066
ag435
ag438
ag442
ag445
ag252
ag154
a(lp3205
VSOOPPHS12A8C138B0B
p3206
aVSODMPSF12A6D4F852E
p3207
aa(lp3208
VSOBYUHR12AAFD96E45
p3209
aVSODDQOY12AB0188ADF
p3210
aag1378
ag1386
ag2083
ag2086
ag2698
ag1349
ag1354
ag1357
ag1525
ag1529
ag1532
ag145
ag149
ag98
ag804
ag807
ag811
ag885
ag2546
ag2551
ag2557
ag2708
ag2232
ag2235
ag2239
ag1946
ag643
ag646
ag1991
ag1994
ag2074
ag2077
ag2080
ag2531
ag2534
ag2537
ag2540
ag2543
ag2815
ag2818
ag703
ag709
ag2997
ag3000
ag3004
ag2249
ag2252
ag2255
ag1416
ag535
ag538
ag541
ag2704
ag2459
ag2463
ag2466
ag2469
ag882
ag742
ag755
ag758
ag2374
a(lp3211
VSOOOYWG12AB0184CAA
p3212
aVSOBJCUQ12A8C132551
p3213
aVSOABUDR12A6D4FE170
p3214
aa(lp3215
VSOSIYUI12AB01890F7
p3216
aVSOVQBYB12CF546324D
p3217
aVSODJNAE12A8C13E94F
p3218
aVSOIDSRS12A6D4F8F1B
p3219
aag1050
ag1053
ag1056
ag1060
ag1486
ag1490
ag257
ag261
ag264
ag2450
ag2456
ag141
ag1745
ag1748
ag1755
ag92
ag375
ag382
ag945
ag1765
ag1768
ag1771
ag1775
ag1537
ag1540
ag1544
ag1547
ag1551
ag2879
ag1664
ag1589
ag3007
ag3011
ag3019
ag362
ag366
ag371
ag3070
ag3074
ag3077
ag3081
ag2357
ag2360
ag2363
ag2366
ag2370
ag2630
ag2633
ag47
ag50
ag53
ag2680
ag2683
ag1643
a(lp3220
VSOUNNAY12A6D4F8A05
p3221
aVSOYODAR12B0B806514
p3222
aa(lp3223
VSOLOPZI12AB018D7C4
p3224
aVSOEOSKT12A6D4F8992
p3225
aa(lp3226
VSOBYSFZ12AB01877AD
p3227
aVSOGEVXS12AB017DACB
p3228
aag2755
ag2762
ag768
ag771
ag222
ag226
ag229
ag3096
ag3100
ag735
ag739
ag1318
ag1322
ag1325
ag1667
ag1671
ag1674
ag1678
ag913
ag916
ag2687
ag2713
ag2716
ag2719
ag1627
ag1631
ag1634
ag3022
ag554
ag557
ag564
ag138
ag2504
ag199
ag202
ag2663
ag2666
ag1637
ag1640
a(lp3229
VSOVZAGR12A8C13FBDA
p3230
aVSOLIMDY12A6D4F4E6F
p3231
aa(lp3232
VSOQORMQ12A8C140C5F
p3233
aVSOHNVZZ12A6D4FCEA2
p3234
aVSOXGTYW12A8C133C01
p3235
aag1823
ag1826
ag1020
ag2093
ag2097
ag2100
ag2103
a(lp3236
VSOIYQTX12AB017F4A1
p3237
aVSOSGHUL12A8C13B280
p3238
aag2390
ag2394
ag2398
ag598
ag603
ag606
ag610
ag614
ag481
ag484
ag489
ag987
ag990
ag995
ag999
ag1005
ag635
ag638
a(lp3239
VSOHGWSJ12AB01863EC
p3240
aVSOURPJK12A6D4FAE15
p3241
aa(lp3242
VSOBZFWH12A8C1377A5
p3243
aVSOUDXUD12A58A76986
p3244
aa(lp3245
VSOUXUWL12AB01827AB
p3246
aVSOKBAMP12A6D4F8F22
p3247
aa(lp3248
VSOSXROH12A8C134A3A
p3249
aVSOLVWRR12A8C13F35B
p3250
aa(lp3251
VSODTEIQ12AB0182158
p3252
aVSOZSUFQ12A8C135709
p3253
aVSOJWXAS12AB017E560
p3254
aa(lp3255
VSOUHKUO12AB017F54D
p3256
aVSOVAYDR12AC9075593
p3257
aVSONTMCW12AC468C789
p3258
aVSOKMPVP12A8C135EAB
p3259
aVSOBUNDH12A6D4F86CE
p3260
aa(lp3261
VSOPUZYK12AB01832AE
p3262
aVSOFJGGV12A58A7C357
p3263
aVSODLVYQ12AB018CE60
p3264
aVSOJOUGD12A6D4FB9DE
p3265
aVSOJFPON12AB017FD3A
p3266
aag2507
ag2512
ag2515
ag1968
ag1972
ag1165
ag1168
ag1172
a(lp3267
VSOJMGLB12AB01880E1
p3268
aVSOEJTBF12AB01880CF
p3269
aVSOZLHIA12AB01880DF
p3270
aa(lp3271
VSOZRDPB12A8C131410
p3272
aVSOJYKNV12AB0187F35
p3273
aVSOZWJPA12AB0187F68
p3274
aa(lp3275
VSOLWOJO12AB0187F55
p3276
aVSOLNNBZ12AB0187F6C
p3277
aVSOIKVUG12AB0187F4A
p3278
aa(lp3279
VSOQKHSB12AC468F60C
p3280
aVSOPCPOD12A8C13409C
p3281
aVSOALEOA12A8C134D5F
p3282
aag2725
ag2729
ag2733
ag814
ag817
ag820
ag329
ag333
ag338
ag341
ag344
ag70
ag74
ag1574
ag1582
ag1585
ag21
ag24
ag27
ag30
ag1130
ag1954
ag1963
ag700
ag2280
ag2283
ag1782
ag1785
ag1788
ag1791
ag1843
ag1846
ag2842
ag2845
ag18
ag1301
ag1306
ag130
ag134
ag347
ag352
ag355
ag359
ag3165
ag3169
ag1476
ag1479
ag1482
ag1360
ag1363
ag1367
ag1370
ag2570
ag2573
ag499
ag502
ag505
ag510
ag513
ag1329
ag1332
ag1335
a(lp3283
VSOCMGNV12A6D4F9A30
p3284
aVSOMYOVY12A6D4FB493
p3285
aVSOASNRP12A6701F927
p3286
aa(lp3287
VSOMXQPQ12A81C1FBF7
p3288
aVSOUIOGT12A8C13B27B
p3289
aa(lp3290
VSOUKKZB12A8C138A28
p3291
aVSONOCWP12A8AE460B8
p3292
aa(lp3293
VSODQHFK12A6702080D
p3294
aVSOCTJPN12D02198E57
p3295
aVSOJQZGT12AC4684FE4
p3296
aVSOURMMK12A6701DAA3
p3297
aVSODARYB12A8C144444
p3298
aag2858
ag2861
ag1194
ag1197
ag1856
ag1860
ag1863
ag1867
ag1870
ag2873
ag2876
ag2339
ag920
ag2411
ag2414
ag2417
ag927
ag930
ag936
ag1592
ag1595
ag1598
ag1602
ag551
ag1778
a(lp3299
VSOGAGDJ12A6D4F9F9F
p3300
aVSOEHGFB12A6D4F89CA
p3301
aa(lp3302
VSOSRJKL12A6D4FBE6B
p3303
aVSOBQJVE12AB018D7BB
p3304
aa(lp3305
VSOJHWTL12AB017B49F
p3306
aVSONTPWJ12A81356D3E
p3307
aVSOBXWJL12A58A7FE1D
p3308
aag589
ag593
ag2617
ag2848
ag2218
ag2223
ag1115
ag2171
ag2821
ag1145
ag3025
ag181
ag185
ag188
ag192
ag713
ag718
ag2829
ag573
ag576
ag2637
ag2640
ag1731
ag1734
ag1737
ag1740
ag267
ag1454
ag1457
ag3061
a(lp3309
VSODBSUF12A8C141975
p3310
aVSOEKDJH12A8C13874D
p3311
aVSOIOVTS12A6D4F743F
p3312
aVSOELNFY12A67020441
p3313
aa(lp3314
VSODRTCN12D02192E61
p3315
aVSOBZXVI12A67ADCF1A
p3316
aag416
ag579
ag582
ag585
ag2159
ag2164
ag2167
ag2342
ag2345
ag2348
ag2351
ag2354
ag2175
ag2179
ag2182
ag2185
ag1794
ag1798
ag1256
ag1499
ag2742
ag2745
ag2299
ag2306
ag972
ag975
ag3105
ag3112
ag3115
ag3119
ag3122
ag3125
ag2293
ag2296
ag617
ag622
ag625
ag631
ag801
ag2000
a(lp3317
VSOCXFNW12A8C145973
p3318
aVSORLFTB12AB0185F7F
p3319
aa(lp3320
VSOHIQOY12D02197AB5
p3321
aVSONSBLZ12A6D4FAD3D
p3322
aVSOZVZEE12A8C1326DE
p3323
aa(lp3324
VSOFSBMX12A6D4F9CA0
p3325
aVSOINAPR12AB0189645
p3326
aa(lp3327
VSOFMXON12A6D4F93D8
p3328
aVSORVXJA12AB0182D5B
p3329
aa(lp3330
VSOHADUV12AB018E5B3
p3331
aVSONAGVH12A6701DE0B
p3332
aa(lp3333
VSOEQSQL12A8C137DA1
p3334
aVSOWVELM12A8C13194F
p3335
aVSOBAPUC12A6310D8E9
p3336
aVSOUXBNY12A8C13BADB
p3337
aVSOIUHJK12A8C13CB31
p3338
aVSOYIKNE12A6D4F782E
p3339
aag2482
ag2485
ag2488
ag1801
ag1805
ag2090
ag120
ag123
ag3153
ag3156
ag3159
ag2690
ag3191
ag3194
ag3198
ag3201
ag2991
ag2994
ag1660
ag1178
ag1182
ag1185
ag1398
ag1401
ag728
ag732
ag2420
ag2423
ag2426
ag2431
ag2326
ag2644
ag1461
ag1464
ag1467
ag1470
ag1473
ag1808
ag1981
ag1984
ag1927
ag2126
ag2129
ag2316
ag2319
ag1077
ag1080
ag2832
ag2835
ag2839
ag292
ag297
ag2943
ag2946
ag2949
ag2952
ag2329
ag832
ag953
ag957
ag2377
ag2381
ag282
ag285
ag289
a(lp3340
VSOAESGK12A8C138488
p3341
aVSOGIABD12A6D4F6F98
p3342
aVSOKPYXT12A8AE47876
p3343
aVSOGUMSO12A8C136A69
p3344
aVSOGHETV12A8C1362FB
p3345
aVSOHWAVS12A8C13AF2D
p3346
aa(lp3347
VSOTWMUO12AB0186B36
p3348
aVSOPLQJC12CF5F88D26
p3349
aa(lp3350
VSOXLOVY12AB018156D
p3351
aVSOSKKVC12A58291BFE
p3352
aag2736
ag2739
ag1070
ag1074
ag848
ag851
ag859
ag686
ag691
ag696
ag1565
ag1568
ag462
ag467
ag470
ag2271
ag2274
ag2277
ag1226
ag1230
ag1241
ag1246
ag1997
ag2492
ag2497
ag2501
ag234
ag237
ag240
ag243
ag248
ag1840
ag1419
ag399
ag402
ag405
ag408
ag412
ag300
ag303
ag893
ag897
ag649
ag2310
ag2313
ag3064
ag3067
ag2670
ag871
ag875
ag79
ag3033
ag3037
ag3040
ag3043
ag3046
ag2322
ag2140
ag1902
ag722
ag725
ag2153
ag2156
ag2244
ag924
ag270
ag2882
ag2885
ag2888
ag2891
ag844
ag1422
ag1427
ag1309
ag1312
ag1315
ag826
ag3
ag8
ag11
ag15
ag2576
ag2579
ag2585
a(lp3353
VSOJICLC12A8C14689E
p3354
aVSOMGQFZ12AB01858D0
p3355
aVSODLXDC12A58A7C6EB
p3356
aVSOWAXNU12A58A7B32B
p3357
aa(lp3358
VSOHPHJQ12A6310D7AE
p3359
aVSONDUPV12A6D2270F0
p3360
aVSOYAEYD12A6D4F8F33
p3361
aVSOSPRXV12AB0182623
p3362
aag1681
ag777
ag781
ag784
ag787
ag794
ag798
ag2440
ag2444
ag2447
ag157
ag495
a(lp3363
VSOTRKZX12A6D4F6E4E
p3364
aVSOWTDBA12A8C13B975
p3365
aa(lp3366
VSOEWKKO12A6D4F9982
p3367
aVSOFXHQK12A8C140D01
p3368
aVSOULJEI12A6D4F9E81
p3369
aag2867
ag2870
ag2955
ag2960
ag419
ag2980
ag2908
ag2610
ag2613
ag161
ag165
ag174
ag178
ag474
ag478
ag683
ag448
ag2188
ag1647
ag1650
ag1653
ag1657
a(lp3370
VSOOUXOW12AB0183993
p3371
aVSOSBWUW12AB018237C
p3372
aVSOJVREK12AB018082D
p3373
aa(lp3374
VSOTBUKP12A8C13F26D
p3375
aVSOJSDHH12AB017AF4B
p3376
aVSOKQAZG12A8C13A0C7
p3377
aVSOLUDRL12AB0186C43
p3378
aag1931
ag1934
ag1937
ag1940
ag1943
ag2787
ag2790
ag1119
ag1123
ag765
ag2050
ag2054
ag2057
ag2060
ag2064
ag2207
ag1430
ag1434
ag1438
ag1443
ag2722
ag829
a(lp3379
VSOJHYTV12A8C1345CD
p3380
aVSOWOGQJ12A8C14183F
p3381
aVSOCAAWX12A6D4F7901
p3382
aa(lp3383
VSOHDPSU12A6D4FC8C0
p3384
aVSOUFSTI12A6701F924
p3385
aag2983
ag2986
a(lp3386
VSOCODKH12A6D4F781A
p3387
aVSOJZCNZ12AB017F121
p3388
aa(lp3389
VSOHIQOY12D02197AB5
p3390
aVSOZPKYI12A8C132412
p3391
aa(lp3392
VSOGQSCZ12A8C139E96
p3393
aVSOTHQBF12A58A78937
p3394
aVSOOSDBW12A58A7CC66
p3395
aa(lp3396
VSOMBBNX12CF5F87C1A
p3397
aVSOYTTBV12CF5F86ED7
p3398
aVSOTZHBK12AF729EE32
p3399
aag95
ag2118
ag2122
ag315
ag318
ag321
ag324
ag1889
ag1894
ag1899
aa(lp3400
g1931
ag1934
ag1937
ag1940
ag1943
ag2329
a(lp3401
VSOGLANM12AB018B07F
p3402
aVSONFOKB12A8C135901
p3403
aVSOBZKEY12A8C13164E
p3404
aVSOXZZKF12A8C136A30
p3405
aVSONIZWA12A8C133E68
p3406
aVSOOYTQM12AB018E383
p3407
aa(lp3408
VSOBCGDY12B0B80747F
p3409
aVSOWOEKH12A58A7E811
p3410
aa(lp3411
VSOXVPIZ12A8C134F41
p3412
aVSOXCUOU12A6D4F851C
p3413
aag814
ag817
ag820
ag1098
ag2504
ag2339
ag2940
ag2824
ag1461
ag1464
ag1467
ag1470
ag1473
ag2879
ag3105
ag3112
ag3115
ag3327
ag3330
ag3333
ag252
ag2067
ag2070
ag1605
ag1610
ag1615
ag1618
ag157
ag181
ag185
ag188
ag192
ag2673
ag2677
ag2637
ag2640
ag273
ag276
ag279
ag3299
ag3302
ag3305
ag222
ag226
ag229
ag1951
ag2482
ag2485
ag2488
ag1975
ag1978
ag416
ag1905
ag1909
ag1912
ag1627
ag1631
ag1634
ag765
ag1178
ag1182
ag1185
ag3283
ag3287
ag3290
ag3293
ag535
ag538
ag541
ag2140
ag3205
ag3208
ag2132
ag2135
a(lp3414
VSOYLCGF12AB0182B5C
p3415
aVSOQHMJH12B0B80C039
p3416
aVSOPMWYP12A6D4F9B49
p3417
aVSOGQTXZ12AB018323A
p3418
aVSOOKLWU12A6D4FA2D0
p3419
aVSOVRJRC12A6D4F97D8
p3420
aag2908
ag2106
ag2109
ag2112
ag2115
ag1430
ag1434
ag1438
ag1443
ag282
ag285
ag289
ag774
ag2766
ag2769
ag1278
ag1281
ag518
ag521
ag524
ag2175
ag2179
ag2182
ag2185
ag1889
ag1894
ag1899
ag972
ag975
ag2188
ag2793
ag2796
ag573
ag576
ag2000
ag234
ag237
ag240
ag243
ag248
ag913
ag916
ag1349
ag1354
ag1357
ag2293
ag2296
ag871
ag875
ag2232
ag2235
ag2239
ag2644
ag2598
ag2604
ag1885
ag1175
ag1373
ag945
ag3022
ag1329
ag1332
ag1335
ag2829
ag2570
ag2573
a(lp3421
VSOYCXGT12AF72A6DAF
p3422
aVSOHLQNY12A8AE48268
p3423
aVSOATNDP12AF72A4AA3
p3424
aVSOAVEVH12A58290FF0
p3425
aVSODQPWQ12AF72A24C4
p3426
aag492
ag3220
ag3223
ag3226
ag686
ag691
ag696
ag435
ag438
ag442
ag445
ag2531
ag2534
ag2537
ag1389
ag1394
ag1782
ag1785
ag1788
ag1791
ag969
ag635
ag638
ag1829
ag1832
ag1837
ag2867
ag2870
ag292
ag297
ag768
ag771
ag2310
ag2313
ag1360
ag1363
ag1367
ag1370
ag2787
ag2790
ag2299
ag2306
ag306
ag309
ag312
ag1843
ag1846
ag2249
ag2252
ag2255
ag362
ag366
ag371
ag3084
ag1148
ag1155
ag1554
ag1559
ag1562
ag1063
ag1066
ag205
ag1731
ag1734
ag1737
ag1740
ag1050
ag1053
ag1056
ag1060
ag1024
ag1032
ag1041
ag1968
ag1972
ag1119
ag1123
ag2450
ag2456
ag18
ag2003
ag2007
ag2010
ag2013
ag2019
ag2024
ag2965
ag2968
ag2971
ag2974
ag120
ag123
ag2912
ag2925
ag2928
ag2932
ag2937
ag643
ag646
ag1070
ag1074
ag2589
ag2593
ag1130
ag2028
ag2031
ag2034
ag2039
ag3239
ag3242
ag3245
ag2492
ag2497
ag2501
ag2736
ag2739
ag3131
ag3135
ag3138
ag1778
ag1705
ag722
ag725
ag3025
ag1256
ag1511
ag1514
ag1518
ag1521
ag579
ag582
ag585
ag832
ag1762
ag2852
ag2855
ag2342
ag2345
ag2348
ag2351
ag2354
ag1194
ag1197
ag2630
ag2633
ag2722
ag939
ag2507
ag2512
ag2515
ag3317
ag3320
ag3324
ag3279
ag98
ag2271
ag2274
ag2277
ag960
ag966
ag393
ag396
ag199
ag202
ag1808
ag375
ag382
ag1997
ag2207
ag3215
ag3386
ag3389
ag3392
ag3396
ag3379
ag3383
ag742
ag755
ag758
ag3052
ag3055
ag3058
ag863
ag868
ag33
ag36
ag39
ag2617
ag2540
ag2543
ag978
ag981
ag984
ag127
ag3033
ag3037
ag3040
ag3043
ag3046
ag882
ag2873
ag2876
ag1664
ag987
ag990
ag995
ag999
ag1005
ag2143
ag2148
ag3211
ag804
ag807
ag811
ag2401
ag2404
ag2408
ag1981
ag1984
ag2704
ag267
ag589
ag593
ag777
ag781
ag784
ag787
ag794
ag798
ag2708
ag3340
ag3347
ag3350
ag1133
ag1136
ag1140
ag2943
ag2946
ag2949
ag2952
ag735
ag739
ag900
ag908
ag673
ag676
ag679
ag3179
ag3182
ag3185
ag3188
ag56
ag59
ag65
ag1286
ag1289
ag1293
ag1297
ag1249
ag1253
ag2980
ag138
ag3363
ag3366
ag257
ag261
ag264
ag2479
ag1476
ag1479
ag1482
ag2322
ag44
ag1811
ag1814
ag21
ag24
ag27
ag30
ag2042
ag2047
ag3128
ag1009
ag1014
ag1017
ag270
ag1145
ag1592
ag1595
ag1598
ag1602
ag1202
ag1206
ag1209
ag1213
ag1217
ag1220
ag1223
ag70
ag74
ag1856
ag1860
ag1863
ag1867
ag1870
ag2670
ag2159
ag2164
ag2167
ag2520
ag2523
ag2526
ag216
ag219
ag3087
ag3090
ag3093
ag1020
ag2546
ag2551
ag2557
ag1451
ag551
ag1574
ag1582
ag1585
ag3064
ag3067
ag2210
ag2214
ag1801
ag1805
ag2332
ag544
ag548
ag2848
ag2562
ag2565
ag2050
ag2054
ag2057
ag2060
ag2064
ag3061
ag3007
ag3011
ag3019
ag2882
ag2885
ag2888
ag2891
ag683
ag3143
ag3147
ag3150
ag1927
ag2725
ag2729
ag2733
ag2074
ag2077
ag2080
ag1493
ag1496
ag399
ag402
ag405
ag408
ag412
ag3165
ag3169
ag3
ag8
ag11
ag15
ag1404
ag1409
ag1412
ag3096
ag3100
ag2991
ag2994
ag2390
ag2394
ag2398
ag3353
ag3358
ag1991
ag1994
ag161
ag165
ag174
ag178
ag924
ag1165
ag1168
ag1172
ag2316
ag2319
ag1161
ag1681
ag2773
ag2776
ag2779
ag2784
ag885
ag3172
ag3176
ag2226
ag2229
ag2713
ag2716
ag2719
ag2955
ag2960
ag347
ag352
ag355
ag359
ag893
ag897
ag1103
ag1108
ag1565
ag1568
ag1946
ag1765
ag1768
ag1771
ag1775
ag829
ag3191
ag3194
ag3198
ag3201
ag2385
ag2459
ag2463
ag2466
ag2469
ag111
ag114
ag117
ag2799
ag2802
ag2806
ag2809
ag2812
ag79
ag459
ag2259
ag2263
ag2267
ag1226
ag1230
ag1241
ag1246
ag2698
ag649
ag1446
ag95
ag3309
ag3314
ag2090
ag1840
ag1954
ag1963
ag713
ag718
ag329
ag333
ag338
ag341
ag344
ag2610
ag2613
ag2742
ag2745
ag1708
ag1711
ag1714
ag1720
ag1724
ag1728
ag2171
ag2748
ag2752
ag1416
ag2191
ag2194
ag2197
ag1419
ag950
ag2997
ag3000
ag3004
ag2832
ag2835
ag2839
ag2126
ag2129
ag554
ag557
ag564
ag1318
ag1322
ag1325
ag1486
ag1490
ag1643
ag1589
ag2420
ag2423
ag2426
ag2431
ag2693
ag1115
ag2357
ag2360
ag2363
ag2366
ag2370
ag3070
ag3074
ag3077
ag3081
ag2218
ag2223
ag942
ag953
ag957
ag474
ag478
ag3153
ag3156
ag3159
aa(lp3427
g2520
ag2523
ag2526
ag2171
ag2894
ag2897
ag1931
ag1934
ag1937
ag1940
ag1943
ag768
ag771
ag1398
ag1401
ag920
ag2280
ag2283
ag885
ag2339
ag728
ag732
ag3033
ag3037
ag3040
ag3043
ag3046
ag1850
ag1853
ag1070
ag1074
ag3064
ag3067
ag924
ag1349
ag1354
ag1357
ag3267
ag3271
ag3275
ag1430
ag1434
ag1438
ag1443
ag1309
ag1312
ag1315
ag2598
ag2604
ag2713
ag2716
ag2719
ag273
ag276
ag279
ag2118
ag2122
ag2704
ag205
ag499
ag502
ag505
ag510
ag513
ag2271
ag2274
ag2277
ag1574
ag1582
ag1585
ag234
ag237
ag240
ag243
ag248
ag1762
ag1346
ag1637
ag1640
ag969
ag2644
ag3353
ag3358
ag2540
ag2543
ag3087
ag3090
ag3093
ag598
ag603
ag606
ag610
ag614
ag1905
ag1909
ag1912
ag2630
ag2633
ag2991
ag2994
ag1874
ag1882
ag2852
ag2855
ag2401
ag2404
ag2408
ag1823
ag1826
ag452
ag456
ag3414
ag2742
ag2745
ag1975
ag1978
ag2479
ag635
ag638
ag2848
ag2226
ag2229
ag2829
ag2492
ag2497
ag2501
ag375
ag382
ag1259
ag1266
ag1270
ag1275
ag1605
ag1610
ag1615
ag1618
ag2329
ag2867
ag2870
ag2003
ag2007
ag2010
ag2013
ag2019
ag2024
ag2955
ag2960
ag2153
ag2156
ag1077
ag1080
ag2093
ag2097
ag2100
ag2103
ag1194
ag1197
ag1997
ag2680
ag2683
ag3061
ag181
ag185
ag188
ag192
ag3317
ag3320
ag3324
ag267
ag157
ag978
ag981
ag984
ag2821
ag425
ag429
ag2637
ag2640
ag1098
ag2766
ag2769
ag2842
ag2845
ag1063
ag1066
ag1178
ag1182
ag1185
ag92
ag292
ag297
ag1165
ag1168
ag1172
ag2997
ag3000
ag3004
ag2232
ag2235
ag2239
ag829
ag722
ag725
ag3084
ag98
ag1843
ag1846
ag1708
ag1711
ag1714
ag1720
ag1724
ag1728
ag2436
ag1592
ag1595
ag1598
ag1602
ag481
ag484
ag489
ag2708
ag459
ag1621
ag1624
ag844
ag1660
ag848
ag851
ag859
ag362
ag366
ag371
ag2385
ag2693
ag972
ag975
ag1486
ag1490
ag3379
ag3383
ag2864
ag617
ag622
ag625
ag631
ag2589
ag2593
ag2736
ag2739
ag2202
ag1885
ag1765
ag1768
ag1771
ag1775
ag567
ag1360
ag1363
ag1367
ag1370
ag1389
ag1394
ag161
ag165
ag174
ag178
ag2687
ag1446
ag2188
ag700
ag544
ag548
ag3119
ag3122
ag3125
ag1745
ag1748
ag1755
ag2126
ag2129
ag154
ag1338
ag1342
ag2244
ag2690
ag79
ag2562
ag2565
ag462
ag467
ag470
ag2882
ag2885
ag2888
ag2891
ag1525
ag1529
ag1532
ag2507
ag2512
ag2515
ag3363
ag3366
ag3022
ag448
ag1499
ag1378
ag1386
ag1808
ag3143
ag3147
ag3150
ag2983
ag2986
ag1537
ag1540
ag1544
ag1547
ag1551
ag1794
ag1798
ag777
ag781
ag784
ag787
ag794
ag798
ag673
ag676
ag679
ag2132
ag2135
ag2755
ag2762
ag47
ag50
ag53
ag3211
ag3
ag8
ag11
ag15
ag1778
ag1161
ag2648
ag2652
ag2660
ag21
ag24
ag27
ag30
ag2050
ag2054
ag2057
ag2060
ag2064
ag1020
ag1148
ag1155
ag882
ag1840
ag649
ag3309
ag3314
ag2902
ag2905
ag3096
ag3100
ag3128
ag1554
ag1559
ag1562
ag2042
ag2047
ag1226
ag1230
ag1241
ag1246
ag1511
ag1514
ag1518
ag1521
ag3340
ag3347
ag3350
ag1981
ag1984
ag2140
ag2332
ag2390
ag2394
ag2398
ag686
ag691
ag696
ag1422
ag1427
ag2663
ag2666
ag1133
ag1136
ag1140
ag2249
ag2252
ag2255
ag282
ag285
ag289
ag2980
ag2377
ag2381
ag1083
ag1086
ag1089
ag1092
ag1095
ag3299
ag3302
ag3305
ag2143
ag2148
ag2259
ag2263
ag2267
ag222
ag226
ag229
ag2504
ag2342
ag2345
ag2348
ag2351
ag2354
ag44
ag2787
ag2790
ag2218
ag2223
ag2000
ag1024
ag1032
ag1041
ag950
ag1664
ag1801
ag1805
ag2028
ag2031
ag2034
ag2039
ag2698
ag1050
ag1053
ag1056
ag1060
ag1811
ag1814
ag801
ag416
ag492
ag1493
ag1496
ag435
ag438
ag442
ag445
ag2908
ag2159
ag2164
ag2167
ag33
ag36
ag39
ag252
ag306
ag309
ag312
ag535
ag538
ag541
ag3105
ag3112
ag3115
ag3421
ag199
ag202
ag2326
ag1119
ag1123
ag2673
ag2677
ag742
ag755
ag758
ag315
ag318
ag321
ag324
ag573
ag576
ag1991
ag1994
ag863
ag868
ag551
ag1130
ag945
ag3025
ag765
ag2815
ag2818
ag141
ag1705
ag2210
ag2214
ag987
ag990
ag995
ag999
ag1005
ag2374
ag2725
ag2729
ag2733
ag18
ag2420
ag2423
ag2426
ag2431
ag3052
ag3055
ag3058
ag2617
ag3283
ag3287
ag3290
ag3293
ag300
ag303
ag2106
ag2109
ag2112
ag2115
ag1373
ag3279
ag2411
ag2414
ag2417
ag1627
ag1631
ag1634
ag1503
ag1507
ag1684
ag1690
ag1697
ag1702
ag3179
ag3182
ag3185
ag3188
ag1856
ag1860
ag1863
ag1867
ag1870
ag893
ag897
ag1329
ag1332
ag1335
ag871
ag875
ag1927
ag95
ag347
ag352
ag355
ag359
ag2858
ag2861
ag101
ag105
ag108
ag2067
ag2070
ag1249
ag1253
ag1256
ag145
ag149
ag942
ag393
ag396
ag713
ag718
ag836
ag839
ag2940
ag643
ag646
ag1009
ag1014
ag1017
ag1667
ag1671
ag1674
ag1678
ag474
ag478
ag735
ag739
ag2450
ag2456
ag1917
ag1921
ag1924
ag774
ag3327
ag3330
ag3333
ag1731
ag1734
ag1737
ag1740
ag3191
ag3194
ag3198
ag3201
ag3153
ag3156
ag3159
ag2440
ag2444
ag2447
ag1889
ag1894
ag1899
ag1419
ag127
ag2083
ag2086
ag762
ag832
ag1902
ag1416
ag1647
ag1650
ag1653
ag1657
ag1115
ag1681
ag2299
ag2306
ag1318
ag1322
ag1325
ag1461
ag1464
ag1467
ag1470
ag1473
aa(lp3428
g1664
ag1309
ag1312
ag1315
ag300
ag303
ag2171
ag120
ag123
ag2693
ag2773
ag2776
ag2779
ag2784
ag554
ag557
ag564
ag2293
ag2296
ag1778
ag2083
ag2086
ag2271
ag2274
ag2277
ag713
ag718
ag2540
ag2543
ag3211
ag1278
ag1281
ag2997
ag3000
ag3004
ag836
ag839
ag2965
ag2968
ag2971
ag2974
ag2589
ag2593
ag1148
ag1155
ag1398
ag1401
ag2713
ag2716
ag2719
ag3327
ag3330
ag3333
ag703
ag709
ag1731
ag1734
ag1737
ag1740
ag452
ag456
ag1338
ag1342
ag2852
ag2855
ag972
ag975
ag1098
ag1905
ag1909
ag1912
ag2576
ag2579
ag2585
ag3025
ag1794
ag1798
ag1681
ag1373
ag2722
ag3220
ag3223
ag3226
ag3070
ag3074
ag3077
ag3081
ag1981
ag1984
ag425
ag429
ag3033
ag3037
ag3040
ag3043
ag3046
ag598
ag603
ag606
ag610
ag614
ag1077
ag1080
ag199
ag202
ag292
ag297
ag1667
ag1671
ag1674
ag1678
ag863
ag868
ag3386
ag3389
ag3392
ag3396
ag1499
ag2482
ag2485
ag2488
ag551
ag2507
ag2512
ag2515
ag2736
ag2739
ag2704
ag1165
ag1168
ag1172
ag459
ag222
ag226
ag229
ag2357
ag2360
ag2363
ag2366
ag2370
ag673
ag676
ag679
ag544
ag548
ag315
ag318
ag321
ag324
ag2882
ag2885
ag2888
ag2891
ag2472
ag2475
ag2286
ag2290
ag2153
ag2156
ag1349
ag1354
ag1357
ag2210
ag2214
ag2202
ag2620
ag2623
ag2626
ag2411
ag2414
ag2417
ag1451
ag3153
ag3156
ag3159
ag686
ag691
ag696
ag1592
ag1595
ag1598
ag1602
ag2864
ag2249
ag2252
ag2255
ag111
ag114
ag117
ag635
ag638
ag950
ag3267
ag3271
ag3275
ag1997
ag3165
ag3169
ag3317
ag3320
ag3324
ag2725
ag2729
ag2733
ag3248
ag3251
ag3255
ag3261
ag953
ag957
ag1119
ag1123
ag683
ag1782
ag1785
ag1788
ag1791
ag742
ag755
ag758
ag804
ag807
ag811
ag617
ag622
ag625
ag631
ag1389
ag1394
ag2531
ag2534
ag2537
ag735
ag739
ag1430
ag1434
ag1438
ag1443
ag2436
ag1419
ag181
ag185
ag188
ag192
ag2159
ag2164
ag2167
ag2003
ag2007
ag2010
ag2013
ag2019
ag2024
ag3064
ag3067
ag1329
ag1332
ag1335
ag3179
ag3182
ag3185
ag3188
ag495
ag1130
ag127
ag3414
ag1178
ag1182
ag1185
ag2637
ag2640
ag3215
ag774
ag1946
ag1708
ag1711
ag1714
ag1720
ag1724
ag1728
ag3363
ag3366
ag2067
ag2070
ag2520
ag2523
ag2526
ag777
ag781
ag784
ag787
ag794
ag798
ag2420
ag2423
ag2426
ag2431
ag1378
ag1386
ag2188
ag1745
ag1748
ag1755
ag44
ag567
ag3143
ag3147
ag3150
ag2943
ag2946
ag2949
ag2952
ag18
ag3370
ag3374
ag814
ag817
ag820
ag1850
ag1853
ag3283
ag3287
ag3290
ag3293
ag2244
ag3022
ag643
ag646
ag2050
ag2054
ag2057
ag2060
ag2064
ag3379
ag3383
ag2955
ag2960
ag871
ag875
ag2742
ag2745
ag2401
ag2404
ag2408
ag2377
ag2381
ag216
ag219
ag157
ag1762
ag2842
ag2845
ag282
ag285
ag289
ag1808
ag205
ag56
ag59
ag65
ag1765
ag1768
ag1771
ag1775
ag987
ag990
ag995
ag999
ag1005
ag1493
ag1496
ag939
ag535
ag538
ag541
ag942
ag375
ag382
ag1454
ag1457
ag893
ag897
ag1840
ag481
ag484
ag489
ag492
ag3
ag8
ag11
ag15
ag154
ag2492
ag2497
ag2501
ag1360
ag1363
ag1367
ag1370
ag2617
ag2000
ag95
ag3299
ag3302
ag3305
ag1511
ag1514
ag1518
ag1521
ag573
ag576
ag1422
ag1427
ag141
ag518
ag521
ag524
ag3105
ag3112
ag3115
ag1856
ag1860
ag1863
ag1867
ag1870
ag1115
ag1301
ag1306
ag2226
ag2229
ag2570
ag2573
ag1063
ag1066
ag1133
ag1136
ag1140
ag399
ag402
ag405
ag408
ag412
ag3172
ag3176
ag2118
ag2122
ag2342
ag2345
ag2348
ag2351
ag2354
ag2630
ag2633
ag1009
ag1014
ag1017
ag3087
ag3090
ag3093
ag1127
ag2940
ag138
ag267
ag2090
ag2687
ag2074
ag2077
ag2080
ag2479
ag2339
ag2980
ag3239
ag3242
ag3245
ag1145
ag3119
ag3122
ag3125
ag3007
ag3011
ag3019
ag649
ag1811
ag1814
ag98
ag2093
ag2097
ag2100
ag2103
ag3061
ag273
ag276
ag279
ag83
ag86
ag89
ag882
ag2902
ag2905
ag2322
ag2766
ag2769
ag33
ag36
ag39
ag329
ag333
ag338
ag341
ag344
ag722
ag725
ag579
ag582
ag585
ag257
ag261
ag264
ag945
ag2440
ag2444
ag2447
ag3309
ag3314
ag499
ag502
ag505
ag510
ag513
ag79
ag270
ag130
ag134
ag2648
ag2652
ag2660
ag435
ag438
ag442
ag445
ag2894
ag2897
ag2824
ag416
ag2680
ag2683
ag1020
ag1927
ag2912
ag2925
ag2928
ag2932
ag2937
ag2374
ag47
ag50
ag53
ag1256
ag2232
ag2235
ag2239
ag2908
ag1889
ag1894
ag1899
ag306
ag309
ag312
ag1621
ag1624
ag2218
ag2223
ag2673
ag2677
ag2644
ag1643
ag3421
ag2326
ag1476
ag1479
ag1482
ag832
ag653
ag656
ag660
ag665
ag670
ag1525
ag1529
ag1532
ag1565
ag1568
ag2280
ag2283
ag1161
ag1968
ag1972
ag2698
ag3229
ag3232
ag1991
ag1994
ag1202
ag1206
ag1209
ag1213
ag1217
ag1220
ag1223
ag1951
ag1404
ag1409
ag1412
ag2106
ag2109
ag2112
ag2115
ag762
ag2867
ag2870
ag765
ag2450
ag2456
ag2670
ag2873
ag2876
ag1346
ag700
ag21
ag24
ag27
ag30
ag2126
ag2129
ag161
ag165
ag174
ag178
ag589
ag593
ag1103
ag1108
ag960
ag966
ag1318
ag1322
ag1325
ag2310
ag2313
ag3191
ag3194
ag3198
ag3201
ag1627
ag1631
ag1634
ag2610
ag2613
ag829
ag1874
ag1882
ag978
ag981
ag984
ag362
ag366
ag371
ag101
ag105
ag108
ag1637
ag1640
ag1931
ag1934
ag1937
ag1940
ag1943
ag1605
ag1610
ag1615
ag1618
ag1259
ag1266
ag1270
ag1275
ag2858
ag2861
ag728
ag732
ag1823
ag1826
ag1070
ag1074
aa(lp3429
g2824
ag2322
ag2955
ag2960
ag2118
ag2122
ag643
ag646
ag1968
ag1972
ag1589
ag2232
ag2235
ag2239
ag554
ag557
ag564
ag1931
ag1934
ag1937
ag1940
ag1943
ag1902
ag1259
ag1266
ag1270
ag1275
ag3248
ag3251
ag3255
ag3261
ag3215
ag742
ag755
ag758
ag765
ag252
ag2704
ag2459
ag2463
ag2466
ag2469
ag598
ag603
ag606
ag610
ag614
ag1499
ag3022
ag21
ag24
ag27
ag30
ag2440
ag2444
ag2447
ag154
ag2271
ag2274
ag2277
ag2504
ag1373
ag1278
ag1281
ag3379
ag3383
ag871
ag875
ag1378
ag1386
ag1975
ag1978
ag927
ag930
ag936
ag3007
ag3011
ag3019
ag1493
ag1496
ag2143
ag2148
ag735
ag739
ag2357
ag2360
ag2363
ag2366
ag2370
ag2965
ag2968
ag2971
ag2974
ag2766
ag2769
ag1349
ag1354
ag1357
ag1301
ag1306
ag2106
ag2109
ag2112
ag2115
ag1130
ag673
ag676
ag679
ag3052
ag3055
ag3058
ag267
ag844
ag2708
ag2943
ag2946
ag2949
ag2952
ag2637
ag2640
ag2090
ag270
ag2000
ag826
ag3220
ag3223
ag3226
ag3
ag8
ag11
ag15
ag848
ag851
ag859
ag1389
ag1394
ag141
ag44
ag2698
ag2991
ag2994
ag315
ag318
ag321
ag324
ag804
ag807
ag811
ag2218
ag2223
ag2159
ag2164
ag2167
ag945
ag3299
ag3302
ag3305
ag3363
ag3366
ag257
ag261
ag264
ag3353
ag3358
ag3128
ag1416
ag416
ag3370
ag3374
ag2450
ag2456
ag1525
ag1529
ag1532
ag1681
ag2310
ag2313
ag2093
ag2097
ag2100
ag2103
ag2210
ag2214
ag98
ag2589
ag2593
ag2482
ag2485
ag2488
ag3267
ag3271
ag3275
ag2202
ag703
ag709
ag1127
ag3070
ag3074
ag3077
ag3081
ag120
ag123
ag1811
ag1814
ag2663
ag2666
ag2067
ag2070
ag3283
ag3287
ag3290
ag3293
ag1256
ag1309
ag1312
ag1315
ag199
ag202
ag1454
ag1457
ag2546
ag2551
ag2557
ag1850
ag1853
ag2848
ag2773
ag2776
ag2779
ag2784
ag3279
ag649
ag913
ag916
ag2852
ag2855
ag2693
ag635
ag638
ag1145
ag33
ag36
ag39
ag1404
ag1409
ag1412
ag95
ag978
ag981
ag984
ag1178
ag1182
ag1185
ag1476
ag1479
ag1482
ag2755
ag2762
ag2940
ag2873
ag2876
ag2644
ag2050
ag2054
ag2057
ag2060
ag2064
ag2385
ag79
ag1731
ag1734
ag1737
ag1740
ag2280
ag2283
ag801
ag2126
ag2129
ag1009
ag1014
ag1017
ag3033
ag3037
ag3040
ag3043
ag3046
ag2617
ag1063
ag1066
ag1446
ag1782
ag1785
ag1788
ag1791
ag2787
ag2790
ag2299
ag2306
ag2864
ag1318
ag1322
ag1325
ag551
ag1684
ag1690
ag1697
ag1702
ag1430
ag1434
ag1438
ag1443
ag2793
ag2796
ag1808
ag617
ag622
ag625
ag631
ag2980
ag2411
ag2414
ag2417
ag939
ag2531
ag2534
ag2537
ag3165
ag3169
ag2997
ag3000
ag3004
ag92
ag653
ag656
ag660
ag665
ag670
ag282
ag285
ag289
ag1165
ag1168
ag1172
ag70
ag74
ag347
ag352
ag355
ag359
ag462
ag467
ag470
ag1161
ag1194
ag1197
ag1537
ag1540
ag1544
ag1547
ag1551
ag2673
ag2677
ag101
ag105
ag108
ag987
ag990
ag995
ag999
ag1005
ag1856
ag1860
ag1863
ag1867
ag1870
ag1419
ag700
ag1778
ag2908
ag1946
ag1574
ag1582
ag1585
ag762
ag3025
ag481
ag484
ag489
ag1627
ag1631
ag1634
ag3191
ag3194
ag3198
ag3201
ag1226
ag1230
ag1241
ag1246
ag2377
ag2381
ag3084
ag2520
ag2523
ag2526
ag2003
ag2007
ag2010
ag2013
ag2019
ag2024
ag1024
ag1032
ag1041
ag130
ag134
ag3064
ag3067
ag2259
ag2263
ag2267
ag3386
ag3389
ag3392
ag3396
ag920
ag300
ag303
ag1077
ag1080
ag1991
ag1994
ag474
ag478
ag1745
ag1748
ag1755
ag960
ag966
ag950
ag499
ag502
ag505
ag510
ag513
ag2983
ag2986
ag1020
ag273
ag276
ag279
ag2316
ag2319
ag375
ag382
ag1794
ag1798
ag589
ag593
ag2630
ag2633
ag47
ag50
ag53
ag205
ag1667
ag1671
ag1674
ag1678
ag2687
ag127
ag2226
ag2229
ag2479
ag1503
ag1507
ag683
ag2042
ag2047
ag2742
ag2745
ag1885
ag2083
ag2086
ag2680
ag2683
ag1050
ag1053
ag1056
ag1060
ag2153
ag2156
ag2858
ag2861
ag1565
ag1568
ag3309
ag3314
ag2390
ag2394
ag2398
ag863
ag868
ag2175
ag2179
ag2182
ag2185
ag2293
ag2296
ag544
ag548
ag3414
ag1398
ag1401
ag2576
ag2579
ag2585
ag2912
ag2925
ag2928
ag2932
ag2937
ag2610
ag2613
ag972
ag975
ag1148
ag1155
ag885
ag2867
ag2870
ag3179
ag3182
ag3185
ag3188
ag579
ag582
ag585
ag2436
ag2332
ag2286
ag2290
ag2829
ag1133
ag1136
ag1140
ag2902
ag2905
ag1451
ag3205
ag3208
ag900
ag908
ag1981
ag1984
ag3236
ag832
ag56
ag59
ag65
ag1070
ag1074
ag1338
ag1342
ag2244
ag2648
ag2652
ag2660
ag292
ag297
ag829
ag2540
ag2543
ag2725
ag2729
ag2733
ag1554
ag1559
ag1562
ag2326
ag1119
ag1123
ag2329
ag728
ag732
ag2799
ag2802
ag2806
ag2809
ag2812
ag1643
ag2670
ag1954
ag1963
ag774
ag2472
ag2475
ag1592
ag1595
ag1598
ag1602
ag362
ag366
ag371
ag145
ag149
ag573
ag576
ag3172
ag3176
ag2188
ag2882
ag2885
ag2888
ag2891
ag924
ag492
ag1346
ag111
ag114
ag117
ag138
ag329
ag333
ag338
ag341
ag344
ag882
ag1951
ag1840
ag942
ag1660
ag1801
ag1805
ag459
ag1422
ag1427
ag3239
ag3242
ag3245
ag3340
ag3347
ag3350
ag1765
ag1768
ag1771
ag1775
ag1647
ag1650
ag1653
ag1657
ag435
ag438
ag442
ag445
ag777
ag781
ag784
ag787
ag794
ag798
ag1621
ag1624
ag222
ag226
ag229
aa(lp3430
g2725
ag2729
ag2733
ag3033
ag3037
ag3040
ag3043
ag3046
ag1378
ag1386
ag1024
ag1032
ag1041
ag1416
ag2316
ag2319
ag1329
ag1332
ag1335
ag273
ag276
ag279
ag1902
ag292
ag297
ag2864
ag1511
ag1514
ag1518
ag1521
ag950
ag2589
ag2593
ag474
ag478
ag1927
ag306
ag309
ag312
ag1503
ag1507
ag2357
ag2360
ag2363
ag2366
ag2370
ag774
ag2374
ag3363
ag3366
ag2244
ag649
ag234
ag237
ag240
ag243
ag248
ag1349
ag1354
ag1357
ag462
ag467
ag470
ag2680
ag2683
ag703
ag709
ag2690
ag1621
ag1624
ag2106
ag2109
ag2112
ag2115
ag1103
ag1108
ag3153
ag3156
ag3159
ag1589
ag2420
ag2423
ag2426
ag2431
ag3236
ag939
ag3128
ag3143
ag3147
ag3150
ag3353
ag3358
ag2140
ag969
ag768
ag771
ag2090
ag1684
ag1690
ag1697
ag1702
ag3007
ag3011
ag3019
ag2226
ag2229
ag92
ag1070
ag1074
ag2570
ag2573
ag814
ag817
ag820
ag257
ag261
ag264
ag3248
ag3251
ag3255
ag3261
ag1850
ag1853
ag2401
ag2404
ag2408
ag1856
ag1860
ag1863
ag1867
ag1870
ag1889
ag1894
ag1899
ag205
ag2232
ag2235
ag2239
ag347
ag352
ag355
ag359
ag3215
ag208
ag211
ag2894
ag2897
ag2286
ag2290
ag1811
ag1814
ag2546
ag2551
ag2557
ag1145
ag920
ag2202
ag2175
ag2179
ag2182
ag2185
ag282
ag285
ag289
ag1637
ag1640
ag3205
ag3208
ag2766
ag2769
ag2390
ag2394
ag2398
ag1148
ag1155
ag3179
ag3182
ag3185
ag3188
ag419
ag927
ag930
ag936
ag2873
ag2876
ag2067
ag2070
ag315
ag318
ag321
ag324
ag127
ag3096
ag3100
ag1554
ag1559
ag1562
ag3191
ag3194
ag3198
ag3201
ag1946
ag1997
ag1077
ag1080
ag3279
ag2620
ag2623
ag2626
ag3414
ag2829
ag1165
ag1168
ag1172
ag2492
ag2497
ag2501
ag945
ag960
ag966
ag1705
ag459
ag3421
ag2908
ag2773
ag2776
ag2779
ag2784
ag535
ag538
ag541
ag1664
ag742
ag755
ag758
ag157
ag2450
ag2456
ag2648
ag2652
ag2660
ag1778
ag3084
ag1286
ag1289
ag1293
ag1297
ag2722
ag1843
ag1846
ag21
ag24
ag27
ag30
ag1133
ag1136
ag1140
ag492
ag579
ag582
ag585
ag1745
ag1748
ag1755
ag56
ag59
ag65
ag1660
ag2171
ag913
ag916
ag1309
ag1312
ag1315
ag635
ag638
ag1194
ag1197
ag2188
ag1981
ag1984
ag713
ag718
ag3401
ag3408
ag3411
ag1430
ag1434
ag1438
ag1443
ag1115
ag2299
ag2306
ag1256
ag1951
ag3211
ag2249
ag2252
ag2255
ag2983
ag2986
ag2742
ag2745
ag2644
ag863
ag868
ag1975
ag1978
ag2153
ag2156
ag435
ag438
ag442
ag445
ag2848
ag2882
ag2885
ag2888
ag2891
ag2576
ag2579
ag2585
ag3064
ag3067
ag987
ag990
ag995
ag999
ag1005
ag3165
ag3169
ag2436
ag2259
ag2263
ag2267
ag653
ag656
ag660
ag665
ag670
ag2708
ag416
ag1178
ag1182
ag1185
ag762
ag1525
ag1529
ag1532
ag3131
ag3135
ag3138
ag1226
ag1230
ag1241
ag1246
ag2050
ag2054
ag2057
ag2060
ag2064
ag1681
ag829
ag1605
ag1610
ag1615
ag1618
ag3220
ag3223
ag3226
ag832
ag2670
ag1119
ag1123
ag138
ag3327
ag3330
ag3333
ag1020
ag2210
ag2214
ag900
ag908
ag2858
ag2861
ag2342
ag2345
ag2348
ag2351
ag2354
ag2293
ag2296
ag1301
ag1306
ag2787
ag2790
ag826
ag885
ag300
ag303
ag1931
ag1934
ag1937
ag1940
ag1943
ag728
ag732
ag2815
ag2818
ag871
ag875
ag3025
ag2562
ag2565
ag598
ag603
ag606
ag610
ag614
ag2459
ag2463
ag2466
ag2469
ag362
ag366
ag371
ag1419
ag2824
ag2329
ag2736
ag2739
ag267
ag1461
ag1464
ag1467
ag1470
ag1473
ag777
ag781
ag784
ag787
ag794
ag798
ag953
ag957
ag495
ag1874
ag1882
ag1398
ag1401
ag2991
ag2994
ag1829
ag1832
ag1837
ag2842
ag2845
ag2482
ag2485
ag2488
ag95
ag2630
ag2633
ag1009
ag1014
ag1017
ag425
ag429
ag2280
ag2283
ag3105
ag3112
ag3115
ag1905
ag1909
ag1912
ag2093
ag2097
ag2100
ag2103
ag79
ag3087
ag3090
ag3093
ag3283
ag3287
ag3290
ag3293
ag2955
ag2960
ag567
ag2000
ag399
ag402
ag405
ag408
ag412
ag2980
ag1175
ag554
ag557
ag564
ag1389
ag1394
ag2610
ag2613
ag33
ag36
ag39
ag1161
ag3070
ag3074
ag3077
ag3081
ag2083
ag2086
ag2799
ag2802
ag2806
ag2809
ag2812
ag1083
ag1086
ag1089
ag1092
ag1095
ag2028
ag2031
ag2034
ag2039
ag2943
ag2946
ag2949
ag2952
ag2332
ag1259
ag1266
ag1270
ag1275
ag375
ag382
ag2540
ag2543
ag589
ag593
ag2159
ag2164
ag2167
ag1476
ag1479
ag1482
ag1794
ag1798
ag2821
ag1338
ag1342
ag101
ag105
ag108
ag252
ag3386
ag3389
ag3392
ag3396
ag452
ag456
ag2997
ag3000
ag3004
ag3317
ag3320
ag3324
ag893
ag897
ag836
ag839
ag181
ag185
ag188
ag192
ag2902
ag2905
ag2704
ag1667
ag1671
ag1674
ag1678
ag3229
ag3232
ag2472
ag2475
ag1278
ag1281
ag551
ag1499
ag1731
ag1734
ag1737
ag1740
ag83
ag86
ag89
ag544
ag548
ag1708
ag1711
ag1714
ag1720
ag1724
ag1728
ag3172
ag3176
ag1422
ag1427
ag765
ag2207
ag1537
ag1540
ag1544
ag1547
ag1551
ag573
ag576
ag882
ag1991
ag1994
ag2637
ag2640
ag329
ag333
ag338
ag341
ag344
ag3239
ag3242
ag3245
ag683
ag700
ag1592
ag1595
ag1598
ag1602
ag2118
ag2122
ag481
ag484
ag489
ag2793
ag2796
ag1318
ag1322
ag1325
ag161
ag165
ag174
ag178
ag2385
ag804
ag807
ag811
ag1627
ag1631
ag1634
ag686
ag691
ag696
ag2663
ag2666
ag2003
ag2007
ag2010
ag2013
ag2019
ag2024
ag2042
ag2047
ag2531
ag2534
ag2537
ag1346
ag1968
ag1972
ag2479
ag2074
ag2077
ag2080
ag1451
ag518
ag521
ag524
ag848
ag851
ag859
aa(lp3431
g969
ag44
ag1664
ag1643
ag2673
ag2677
ag649
ag399
ag402
ag405
ag408
ag412
ag728
ag732
ag1525
ag1529
ag1532
ag2882
ag2885
ag2888
ag2891
ag3131
ag3135
ag3138
ag1874
ag1882
ag1130
ag2980
ag1024
ag1032
ag1041
ag567
ag2864
ag145
ag149
ag1808
ag1801
ag1805
ag826
ag3084
ag1430
ag1434
ag1438
ag1443
ag2385
ag2570
ag2573
ag3239
ag3242
ag3245
ag1954
ag1963
ag2450
ag2456
ag120
ag123
ag2286
ag2290
ag1278
ag1281
ag2983
ag2986
ag2698
ag1148
ag1155
ag1309
ag1312
ag1315
ag801
ag2191
ag2194
ag2197
ag2748
ag2752
ag3317
ag3320
ag3324
ag2799
ag2802
ag2806
ag2809
ag2812
ag939
ag416
ag1249
ag1253
ag2332
ag643
ag646
ag848
ag851
ag859
ag2093
ag2097
ag2100
ag2103
ag222
ag226
ag229
ag1850
ag1853
ag2226
ag2229
ag765
ag3070
ag3074
ag3077
ag3081
ag2472
ag2475
ag282
ag285
ag289
ag2377
ag2381
ag2821
ag481
ag484
ag489
ag3025
ag111
ag114
ag117
ag589
ag593
ag2955
ag2960
ag2357
ag2360
ag2363
ag2366
ag2370
ag2322
ag2540
ag2543
ag2132
ag2135
ag2339
ag452
ag456
ag2687
ag1419
ag836
ag839
ag2736
ag2739
ag3007
ag3011
ag3019
ag1119
ag1123
ag3096
ag3100
ag3414
ag1476
ag1479
ag1482
ag459
ag2067
ag2070
ag435
ag438
ag442
ag445
ag1461
ag1464
ag1467
ag1470
ag1473
ag1451
ag2143
ag2148
ag3
ag8
ag11
ag15
ag1145
ag2531
ag2534
ag2537
ag375
ag382
ag1486
ag1490
ag1338
ag1342
ag154
ag1843
ag1846
ag2848
ag1175
ag257
ag261
ag264
ag3205
ag3208
ag3022
ag2175
ag2179
ag2182
ag2185
ag18
ag1446
ag2436
ag1946
ag3421
ag2908
ag829
ag2663
ag2666
ag2617
ag2492
ag2497
ag2501
ag3386
ag3389
ag3392
ag3396
ag2140
ag832
ag2637
ag2640
ag683
ag2479
ag2232
ag2235
ag2239
ag127
ag1256
ag972
ag975
ag978
ag981
ag984
ag2693
ag2171
ag141
ag2725
ag2729
ag2733
ag2766
ag2769
ag2902
ag2905
ag3340
ag3347
ag3350
ag329
ag333
ag338
ag341
ag344
ag2722
ag1794
ag1798
ag2411
ag2414
ag2417
ag33
ag36
ag39
ag2852
ag2855
ag3119
ag3122
ag3125
ag2326
ag518
ag521
ag524
ag653
ag656
ag660
ag665
ag670
ag3283
ag3287
ag3290
ag3293
ag871
ag875
ag2293
ag2296
ag1574
ag1582
ag1585
ag2576
ag2579
ag2585
ag3279
ag844
ag2401
ag2404
ag2408
ag1968
ag1972
ag1637
ag1640
ag2787
ag2790
ag70
ag74
ag3248
ag3251
ag3255
ag3261
ag2690
ag79
ag2997
ag3000
ag3004
ag2106
ag2109
ag2112
ag2115
ag2280
ag2283
ag1554
ag1559
ag1562
ag863
ag868
ag700
ag1745
ag1748
ag1755
ag2342
ag2345
ag2348
ag2351
ag2354
ag2207
ag945
ag3153
ag3156
ag3159
ag1454
ag1457
ag157
ag1627
ag1631
ag1634
ag1259
ag1266
ag1270
ag1275
ag2374
ag1902
ag2704
ag2520
ag2523
ag2526
ag814
ag817
ag820
ag2244
ag3211
ag205
ag2879
ag2824
ag1647
ag1650
ag1653
ag1657
ag1605
ag1610
ag1615
ag1618
ag1178
ag1182
ag1185
ag1660
ag2773
ag2776
ag2779
ag2784
ag292
ag297
ag1389
ag1394
ag1020
ag2755
ag2762
ag1070
ag1074
ag1063
ag1066
ag2858
ag2861
ag2074
ag2077
ag2080
ag1346
ag3061
ag2118
ag2122
ag306
ag309
ag312
ag2259
ag2263
ag2267
ag1762
ag1373
ag1681
ag1416
ag768
ag771
ag1050
ag1053
ag1056
ag1060
ag1840
ag893
ag897
ag2482
ag2485
ag2488
ag448
ag2815
ag2818
ag2249
ag2252
ag2255
ag2390
ag2394
ag2398
ag1349
ag1354
ag1357
ag3052
ag3055
ag3058
ag2003
ag2007
ag2010
ag2013
ag2019
ag2024
ag3087
ag3090
ag3093
ag2965
ag2968
ag2971
ag2974
ag21
ag24
ag27
ag30
ag1765
ag1768
ag1771
ag1775
ag2210
ag2214
ag1318
ag1322
ag1325
ag774
ag3353
ag3358
ag3172
ag3176
ag1083
ag1086
ag1089
ag1092
ag1095
ag2829
ag208
ag211
ag1829
ag1832
ag1837
ag777
ag781
ag784
ag787
ag794
ag798
ag2153
ag2156
ag3064
ag3067
ag2546
ag2551
ag2557
ag1226
ag1230
ag1241
ag1246
ag2562
ag2565
ag735
ag739
ag393
ag396
ag2912
ag2925
ag2928
ag2932
ag2937
ag2420
ag2423
ag2426
ag2431
ag2713
ag2716
ag2719
ag1778
ag953
ag957
ag1103
ag1108
ag1009
ag1014
ag1017
ag3327
ag3330
ag3333
ag551
ag2218
ag2223
ag1398
ag1401
ag713
ag718
ag2940
ag161
ag165
ag174
ag178
ag987
ag990
ag995
ag999
ag1005
ag2670
ag300
ag303
ag1811
ag1814
ag1098
ag2459
ag2463
ag2466
ag2469
ag1378
ag1386
ag2000
ag1133
ag1136
ag1140
ag2316
ag2319
ag267
ag1592
ag1595
ag1598
ag1602
ag362
ag366
ag371
ag3401
ag3408
ag3411
ag3229
ag3232
ag1422
ag1427
ag3179
ag3182
ag3185
ag3188
ag1565
ag1568
ag2299
ag2306
ag92
ag2329
ag573
ag576
ag1885
ag1537
ag1540
ag1544
ag1547
ag1551
ag554
ag557
ag564
ag462
ag467
ag470
ag3363
ag3366
ag3220
ag3223
ag3226
ag1708
ag1711
ag1714
ag1720
ag1724
ag1728
ag95
ag2310
ag2313
ag138
ag1782
ag1785
ag1788
ag1791
ag2742
ag2745
ag1981
ag1984
ag2610
ag2613
ag2126
ag2129
ag1301
ag1306
ag2894
ag2897
ag492
ag2598
ag2604
ag2271
ag2274
ag2277
ag617
ag622
ag625
ag631
ag673
ag676
ag679
ag882
ag419
ag920
ag2159
ag2164
ag2167
ag544
ag548
ag1493
ag1496
ag1503
ag1507
ag2680
ag2683
ag1856
ag1860
ag1863
ag1867
ag1870
ag804
ag807
ag811
ag950
aa(lp3432
g3
ag8
ag11
ag15
ag499
ag502
ag505
ag510
ag513
ag1416
ag44
ag1968
ag1972
ag1885
ag913
ag916
ag2867
ag2870
ag306
ag309
ag312
ag101
ag105
ag108
ag257
ag261
ag264
ag2576
ag2579
ag2585
ag2983
ag2986
ag1145
ag1931
ag1934
ag1937
ag1940
ag1943
ag844
ag927
ag930
ag936
ag2873
ag2876
ag3172
ag3176
ag1843
ag1846
ag2879
ag2520
ag2523
ag2526
ag1461
ag1464
ag1467
ag1470
ag1473
ag617
ag622
ag625
ag631
ag111
ag114
ag117
ag3279
ag2436
ag1130
ag1077
ag1080
ag1902
ag2140
ag653
ag656
ag660
ag665
ag670
ag2894
ag2897
ag216
ag219
ag3143
ag3147
ag3150
ag2824
ag1605
ag1610
ag1615
ag1618
ag2042
ag2047
ag762
ag2722
ag92
ag2459
ag2463
ag2466
ag2469
ag3007
ag3011
ag3019
ag3229
ag3232
ag1554
ag1559
ag1562
ag495
ag1765
ag1768
ag1771
ag1775
ag2249
ag2252
ag2255
ag18
ag832
ag3084
ag2663
ag2666
ag1178
ag1182
ag1185
ag1684
ag1690
ag1697
ag1702
ag713
ag718
ag154
ag1997
ag252
ag2773
ag2776
ag2779
ag2784
ag2842
ag2845
ag208
ag211
ag2787
ag2790
ag474
ag478
ag448
ag1476
ag1479
ag1482
ag1621
ag1624
ag2492
ag2497
ag2501
ag2028
ag2031
ag2034
ag2039
ag2997
ag3000
ag3004
ag703
ag709
ag120
ag123
ag1454
ag1457
ag329
ag333
ag338
ag341
ag344
ag1829
ag1832
ag1837
ag347
ag352
ag355
ag359
ag2687
ag3105
ag3112
ag3115
ag2991
ag2994
ag2244
ag2232
ag2235
ag2239
ag765
ag1148
ag1155
ag2902
ag2905
ag3421
ag871
ag875
ag1782
ag1785
ag1788
ag1791
ag2293
ag2296
ag2504
ag551
ag1127
ag3239
ag3242
ag3245
ag2322
ag1278
ag1281
ag2766
ag2769
ag2118
ag2122
ag138
ag2153
ag2156
ag673
ag676
ag679
ag1537
ag1540
ag1544
ag1547
ag1551
ag2450
ag2456
ag1202
ag1206
ag1209
ag1213
ag1217
ag1220
ag1223
ag942
ag83
ag86
ag89
ag1525
ag1529
ag1532
ag882
ag683
ag1660
ag282
ag285
ag289
ag267
ag2630
ag2633
ag3215
ag481
ag484
ag489
ag399
ag402
ag405
ag408
ag412
ag2316
ag2319
ag2207
ag1103
ag1108
ag1249
ag1253
ag300
ag303
ag1430
ag1434
ag1438
ag1443
ag3414
ag2326
ag3386
ag3389
ag3392
ag3396
ag2401
ag2404
ag2408
ag1161
ag181
ag185
ag188
ag192
ag2090
ag3327
ag3330
ag3333
ag2329
ag2680
ag2683
ag579
ag582
ag585
ag2074
ag2077
ag2080
ag829
ag649
ag127
ag1349
ag1354
ag1357
ag1975
ag1978
ag1009
ag1014
ag1017
ag2546
ag2551
ag2557
ag2126
ag2129
ag1256
ag3248
ag3251
ag3255
ag3261
ag2357
ag2360
ag2363
ag2366
ag2370
ag2310
ag2313
ag1664
ag222
ag226
ag229
ag836
ag839
ag893
ag897
ag1398
ag1401
ag2852
ag2855
ag3070
ag3074
ag3077
ag3081
ag3096
ag3100
ag700
ag544
ag548
ag1318
ag1322
ag1325
ag47
ag50
ag53
ag814
ag817
ag820
ag1451
ag362
ag366
ag371
ag2821
ag1905
ag1909
ag1912
ag2943
ag2946
ag2949
ag2952
ag56
ag59
ag65
ag774
ag1070
ag1074
ag635
ag638
ag1801
ag1805
ag33
ag36
ag39
ag2411
ag2414
ag2417
ag920
ag2000
ag459
ag2132
ag2135
ag3205
ag3208
ag945
ag3401
ag3408
ag3411
ag728
ag732
ag1647
ag1650
ag1653
ag1657
ag950
ag1574
ag1582
ag1585
ag2673
ag2677
ag2390
ag2394
ag2398
ag1499
ag1165
ag1168
ag1172
ag2188
ag3317
ag3320
ag3324
ag270
ag375
ag382
ag1422
ag1427
ag1301
ag1306
ag735
ag739
ag1338
ag1342
ag2708
ag1446
ag425
ag429
ag393
ag396
ag1373
ag2736
ag2739
ag2106
ag2109
ag2112
ag2115
ag2848
ag1991
ag1994
ag1856
ag1860
ag1863
ag1867
ag1870
ag2648
ag2652
ag2660
ag2003
ag2007
ag2010
ag2013
ag2019
ag2024
ag1024
ag1032
ag1041
ag1840
ag1667
ag1671
ag1674
ag1678
ag3267
ag3271
ag3275
ag2610
ag2613
ag960
ag966
ag157
ag1486
ag1490
ag292
ag297
ag1874
ag1882
ag1954
ag1963
ag315
ag318
ag321
ag324
ag3025
ag3370
ag3374
ag3211
ag826
ag3363
ag3366
ag3131
ag3135
ag3138
ag1565
ag1568
ag848
ag851
ag859
ag3309
ag3314
ag1794
ag1798
ag2339
ag1981
ag1984
ag3283
ag3287
ag3290
ag3293
ag435
ag438
ag442
ag445
ag3061
ag885
ag1404
ag1409
ag1412
ag686
ag691
ag696
ag2226
ag2229
ag2259
ag2263
ag2267
ag900
ag908
ag2050
ag2054
ag2057
ag2060
ag2064
ag3033
ag3037
ag3040
ag3043
ag3046
ag98
ag2704
ag1360
ag1363
ag1367
ag1370
ag3153
ag3156
ag3159
ag804
ag807
ag811
ag643
ag646
ag2286
ag2290
ag2725
ag2729
ag2733
ag2280
ag2283
ag3299
ag3302
ag3305
ag3236
ag2965
ag2968
ag2971
ag2974
ag1589
ag1811
ag1814
ag2472
ag2475
ag3087
ag3090
ag3093
ag2698
ag416
ag492
ag1063
ag1066
ag3340
ag3347
ag3350
ag2507
ag2512
ag2515
ag1133
ag1136
ag1140
ag2690
ag1503
ag1507
ag2742
ag2745
ag969
ag3179
ag3182
ag3185
ag3188
ag1511
ag1514
ag1518
ag1521
ag2713
ag2716
ag2719
ag573
ag576
ag1194
ag1197
ag1493
ag1496
ag1808
ag1083
ag1086
ag1089
ag1092
ag1095
ag535
ag538
ag541
ag161
ag165
ag174
ag178
ag1329
ag1332
ag1335
ag3191
ag3194
ag3198
ag3201
ag1119
ag1123
ag801
ag95
ag452
ag456
ag199
ag202
ag79
ag419
ag1745
ag1748
ag1755
ag2067
ag2070
ag2143
ag2148
ag3165
ag3169
ag1309
ag1312
ag1315
ag2191
ag2194
ag2197
ag1346
ag924
ag462
ag467
ag470
ag2799
ag2802
ag2806
ag2809
ag2812
ag1927
ag141
ag2829
ag205
aa.