(lp1
(lp2
(lp3
VSOUCJGA12A6701E790
p4
aVSOTLLIN12A679C806B
p5
aa(lp6
VSOQTFFM12AB0182E73
p7
aVSODNGXW12A6D4F793E
p8
aVSOCNHKC12A8C13F3CA
p9
aVSOHMXCP12AB0181DD3
p10
aa(lp11
VSOPSVIR12A8C138BB5
p12
aVSOVBCKQ12A6D4FBAC9
p13
aVSOCPMIK12A6701E96D
p14
aa(lp15
VSOFSQUC12A58A7DE35
p16
aVSOWLBBQ12A6D4F7DFC
p17
aVSOQESNU12A58A7C73A
p18
aa(lp19
VSOSFVMG12A6D4F7D4E
p20
aVSOMBUIP12AF72A5F84
p21
aa(lp22
VSOJATTI12A6D4FA2DA
p23
aVSOLEYRS12AB01819BF
p24
aa(lp25
VSONTVVW12A8C13094F
p26
aVSOXCDZA12CF58273A7
p27
aa(lp28
VSOTKRQZ12A670214A2
p29
aVSOSDVQI12A8C13CD81
p30
aa(lp31
VSODNUTE12A8C13E2E4
p32
aVSONOYTE12A6D4F8697
p33
aa(lp34
VSOQAJZE12A670208E1
p35
aVSOXFZIO12A8AE46D93
p36
aa(lp37
VSOEUKVP12D02193414
p38
aVSOBKTKO12AB01857FD
p39
aa(lp40
VSOWCCMA12A8AE45315
p41
aVSOGBYUP12A8C1390B1
p42
aVSOVATDT12A8AE47CAA
p43
aVSONOYTE12A6D4F8697
p44
aa(lp45
VSOIVNMX12D02191EE5
p46
aVSOZZBDO12B0B80C5BA
p47
aa(lp48
VSOVSSYI12A6D4F8A08
p49
aVSOUBYCC12A8AE463A2
p50
aVSOXNIEL12A6701F52C
p51
aa(lp52
VSOBZEGR12A6701F6A8
p53
aVSODVSFY12AB017F8ED
p54
aa(lp55
VSOHLHKM12A6310E267
p56
aVSOMNULF12A8C135F65
p57
aVSOZHJKI12A81C2248F
p58
aVSONNZYM12A6D4F9832
p59
aVSOPCDRW12AB017F61A
p60
aVSOJCRUY12A67ADA4C2
p61
aVSOBNLES12A679C8053
p62
aa(lp63
VSOSOKWQ12A6D4F8D2E
p64
aVSOUBCFE12A8C143005
p65
aVSOEXHUD12A6D4F72D5
p66
aVSOFFOIF12A6310D90E
p67
aa(lp68
VSOBTFWO12AB01875D5
p69
aVSOGXMFL12A8C145C0E
p70
aa(lp71
VSOIYDAP12A6D4F63FB
p72
aVSONNVDX12A6D4FB509
p73
aa(lp74
VSOERWIY12AB018B4E2
p75
aVSONOYTE12A6D4F8697
p76
aa(lp77
VSOERCEI12A81C22BA3
p78
aVSOAMWSY12AB0181CFE
p79
aVSORGUAW12A8C13F712
p80
aa(lp81
VSOLCERD12A58A7E890
p82
aVSOLTKXV12A8C1333F4
p83
aa(lp84
VSOXUOTR12A58A7A269
p85
aVSOUHPXO12A6D4F6DFB
p86
aa(lp87
VSOGDFVB12A58A7D28D
p88
aVSOXYRKL12A58A797BC
p89
aa(lp90
VSOEIYRR12A6701F2D6
p91
aVSOJQZGT12AC4684FE4
p92
aa(lp93
VSOHXMNE12A6701D1F3
p94
aVSOKATIZ12A8C138697
p95
aa(lp96
VSOBGJTA12A6D4F8A06
p97
aVSORZOXP12CF582754C
p98
aa(lp99
VSOELUAT12A58A79A0E
p100
aVSOMGJAQ12A8AE47594
p101
aa(lp102
VSOYCHZJ12AF72A119D
p103
aVSOBRGHA12A8C13E2D9
p104
aa(lp105
VSOCAXNF12A81356D4D
p106
aVSOTLMCB12AB01886EA
p107
aa(lp108
VSOTMZHD12A67ADAF31
p109
aVSORQFRB12A58A7860F
p110
aa(lp111
VSOFOPFT12A8C131D05
p112
aVSOJEZWL12A58A7FEC7
p113
aa(lp114
VSOFPMBD12AB018B4EF
p115
aVSOMOCLQ12AB0181772
p116
aa(lp117
VSOUGJVR12AB017F07F
p118
aVSOQHSFP12A8C13E2DC
p119
aa(lp120
VSOCLIFT12AB0181FBF
p121
aVSOLMDGY12AB0182BC3
p122
aa(lp123
VSOHIAVJ12A8C141A6F
p124
aVSOLWTQD12AB0186EEF
p125
aa(lp126
VSOHQJNE12A6310ED0F
p127
aVSOGIPRD12AB0182259
p128
aVSONDVSD12A8C13F7F9
p129
aa(lp130
VSOPCDRW12AB017F61A
p131
aVSOIVYWK12A6310DBE1
p132
aVSOQUIFE12AB01854ED
p133
aVSOTOZJS12A8C13BDC3
p134
aVSOXXTFW12AB017CFF3
p135
aa(lp136
VSOSAYIM12A8C139F74
p137
aVSOFKNXT12AB0183D8B
p138
aa(lp139
VSONNYRJ12A8C1369B1
p140
aVSOQFXDQ12AF72AD0EE
p141
aVSOWTGXC12A8C14107E
p142
aa(lp143
VSOZNNVY12A8C130365
p144
aVSOVIFGE12A6701D618
p145
aa(lp146
VSOUZIQK12AB01873CF
p147
aVSOLJHGZ12A8C1428A6
p148
aa(lp149
VSOBEJWD12A6701F231
p150
aVSOCJWZY12A67021D18
p151
aa(lp152
VSOIYDAP12A6D4F63FB
p153
aVSOKZHVF12AF72A77E7
p154
aa(lp155
VSOWTGSN12A6D4F8BB1
p156
aVSOOCKPO12A67021D10
p157
aa(lp158
VSOKYLQF12A8C13BBF4
p159
aVSOYKZEB12A8C132273
p160
aa(lp161
VSOHEFMX12A6D4F8BB3
p162
aVSOZYKYG12A8C142387
p163
aa(lp164
VSOPLIEC12A6D4F7E78
p165
aVSOSCBAY12A6D4F8432
p166
aa(lp167
VSOGBYUP12A8C1390B1
p168
aVSOQAHAV12A58A7DA85
p169
aVSODSETW12A6D4F8849
p170
aVSOINZQQ12A58A78918
p171
aVSODJQUS12A6701D1D3
p172
aVSOJAEVT12CF5827482
p173
aVSOLWJRK12A8C134B47
p174
aa(lp175
VSOCINDT12AB01878A4
p176
aVSOIVNMX12D02191EE5
p177
aVSOUGJVR12AB017F07F
p178
aa(lp179
VSOLTWRO12A8AE461E5
p180
aVSOBUXNB12AB0182BF3
p181
aa(lp182
VSOPBBVN12A8C142E7A
p183
aVSOBVQTB12AB01852E0
p184
aa(lp185
VSOZXYCR12B0B806649
p186
aVSOLYVAV12A58A7F9B6
p187
aVSODGEXW12A6D4FA952
p188
aa(lp189
VSOTBNBZ12AB0186101
p190
aVSOAVJZP12A81C2334B
p191
aa(lp192
VSODWGBE12A6D4F7E43
p193
aVSORNHFZ12A6D4FA1CC
p194
aa(lp195
VSOCTYKT12A58A7B088
p196
aVSONTUCI12AB018A036
p197
aVSODGBTS12A8C137FBE
p198
aVSOJLUAN12AB018C4D1
p199
aa(lp200
VSOFGHFG12A8C12FE3B
p201
aVSOVSPCM12A67ADE7A8
p202
aa(lp203
VSOCXEKQ12AAF3B5490
p204
aVSOOTUUK12CF5F873E5
p205
aVSOTKRQZ12A670214A2
p206
aa(lp207
VSOCHEGQ12A8AE47C51
p208
aVSOPHVJG12AB0186A32
p209
aa(lp210
VSORMCQU12A6701E3CD
p211
aVSOMLKZO12AB017F4AE
p212
aa(lp213
VSOMZSHY12A8C1343B0
p214
aVSOWIBZY12A8C139662
p215
aa(lp216
VSOZXBRT12A58A7A0B1
p217
aVSOBRVWP12A6D4F7C53
p218
aa(lp219
VSOCSIAS12A81C2303C
p220
aVSOXCUOU12A6D4F851C
p221
aa(lp222
VSONPAEN12A8AE473A9
p223
aVSOMHHKG12A8C133C3B
p224
aa(lp225
VSODLZDX12A8C13F002
p226
aVSONQYNT12A6D4F9DC0
p227
aa(lp228
VSOMYGDY12A6310F1C3
p229
aVSOSDDWG12A67AD9E9F
p230
aa(lp231
VSOIZMZT12AB01806FA
p232
aVSOYKZEB12A8C132273
p233
aa(lp234
VSOGQYIS12A8C1424F2
p235
aVSOUXAEY12A58A79EB5
p236
aa(lp237
VSOBLQPC12B0B807B1D
p238
aVSONDVSD12A8C13F7F9
p239
aa(lp240
VSONUFQJ12A6D4FAB72
p241
aVSOJEOJK12A8C13FA28
p242
aVSOOCKPO12A67021D10
p243
aa(lp244
VSODNCUS12AC468A0AC
p245
aVSOBKTKO12AB01857FD
p246
aa(lp247
VSOXHVUE12A58A7A27C
p248
aVSOYVMKT12A6D4F8F4B
p249
aa(lp250
VSOFXBSF12A58A79270
p251
aVSOQXOSS12AB0183A19
p252
aa(lp253
VSOWTGSN12A6D4F8BB1
p254
aVSOCLRQS12A8C132ECE
p255
aa(lp256
VSOVJYXY12AC468A93E
p257
aVSOPSVIR12A8C138BB5
p258
aVSOWAEGA12A8C132F55
p259
aa(lp260
VSOXNIEL12A6701F52C
p261
aVSODGCXS12A8C13C84B
p262
aa(lp263
VSOLBQVP12A8C13DE33
p264
aVSOBJSLW12A6D4F9158
p265
aVSOEVMJC12A6D4FAED1
p266
aVSODLTBT12A670208E0
p267
aa(lp268
VSOBOMJI12A8C13E40F
p269
aVSOEUKVP12D02193414
p270
aa(lp271
VSOFVFIG12AB0182647
p272
aVSONDSPF12AB0188BBC
p273
aa(lp274
VSOQAJZE12A670208E1
p275
aVSOVPQLB12AB017D058
p276
aa(lp277
VSOHNYQT12A8C13F284
p278
aVSOXCDZA12CF58273A7
p279
aVSOVDOSY12A6D4F92DC
p280
aa(lp281
VSOMJZLT12A8C140186
p282
aVSOSOKWQ12A6D4F8D2E
p283
aVSONRAVT12A8C13EBA0
p284
aVSOCPMIK12A6701E96D
p285
aVSOLRPJX12A58A79808
p286
aa(lp287
VSOXMDUL12AB018CF9E
p288
aVSOUCTJG12A67ADE388
p289
aVSOKXDQH12AC4687FB7
p290
aVSOXEXKP12AB0181912
p291
aa(lp292
VSOMJZLT12A8C140186
p293
aVSORPLBP12A8C145D6C
p294
aVSOJIKUN12AF729E6E2
p295
aa(lp296
VSOVUXGN12A8C137F36
p297
aVSOKZIQU12A8C13DBE7
p298
aVSOINZQQ12A58A78918
p299
aVSONHKIJ12AB0182778
p300
aa(lp301
VSOZEVSX12AC3DFA012
p302
aVSOKBBXO12A6701DEA0
p303
aa(lp304
VSOGYQAR12A6D4F747B
p305
aVSOOFTQI12AB018520F
p306
aa(lp307
VSOLZNSD12A6D223BA6
p308
aVSOHNYQT12A8C13F284
p309
aa(lp310
VSOQHBCM12A8C13D672
p311
aVSOWHUFA12AB0189E4C
p312
aVSOXNIEL12A6701F52C
p313
aVSONZSEA12AF72A0F28
p314
aa(lp315
VSOMDJRE12AF72A7325
p316
aVSORSQNT12D0219324C
p317
aVSOJKMVE12A8C13CA8F
p318
aVSOKABWZ12A58A79A73
p319
aa(lp320
VSOOQQXE12A6701E3C9
p321
aVSOIAQRV12A8C139D49
p322
aa(lp323
VSOLLGWL12A81C20B82
p324
aVSOWTGSN12A6D4F8BB1
p325
aa(lp326
VSOGWLYF12A58A7CC03
p327
aVSONOYTE12A6D4F8697
p328
aa(lp329
VSOGXMFL12A8C145C0E
p330
aVSOOTQZY12A58A7E754
p331
aa(lp332
VSOXCHUK12A6D227173
p333
aVSOHNYQT12A8C13F284
p334
aa(lp335
VSOJCGCT12A67AD9E9D
p336
aVSOILPVY12AB0182E1C
p337
aa(lp338
VSOFMAHL12A58A80E37
p339
aVSOWQZFM12B0B806C13
p340
aVSOZZSUU12AB018550E
p341
aVSOZXYCR12B0B806649
p342
aa(lp343
VSOQAZWT12AB018D704
p344
aVSOONKAK12A8C140357
p345
aVSODGCXS12A8C13C84B
p346
aa(lp347
VSOXSRVN12A6701F2E5
p348
aVSOOSDRU12A6D4F9359
p349
aa(lp350
VSOVCSRH12A8C143608
p351
aVSOOPOCS12A6D4F92A3
p352
aa(lp353
VSOUHPXO12A6D4F6DFB
p354
aVSOIZMZT12AB01806FA
p355
aVSOGNCHO12AF72AA70B
p356
aVSORSQNT12D0219324C
p357
aVSOZCARM12A8C132331
p358
aVSOHNYQT12A8C13F284
p359
aa(lp360
VSOXSXZQ12AB0180B04
p361
aVSONRIBF12A582A2169
p362
aVSOPMSPX12A6D4F5134
p363
aVSOFTVSI12AB0185957
p364
aVSOCKJZJ12A8C130C20
p365
aVSODKZCO12AF729E2A3
p366
aa(lp367
VSOXDYPI12A6D4F8982
p368
aVSOHWUEC12B0B80C1C6
p369
aVSOTRFBH12A6D4F8D96
p370
aa(lp371
VSODZVEJ12B35049000
p372
aVSOXBVCS12A6701C7FE
p373
aVSOFGQUN12AF72A3268
p374
aVSOJKMVE12A8C13CA8F
p375
aa(lp376
VSOERWME12A81C21DB1
p377
aVSOEVEME12A58A7DA69
p378
aVSOTKRQZ12A670214A2
p379
aa(lp380
VSOMYGDY12A6310F1C3
p381
aVSOHFHUF12AB017FFC3
p382
aa(lp383
VSODUMKR12AB0186A11
p384
aVSOZXALM12AC95F0249
p385
aa(lp386
VSOYIBFQ12A6701C628
p387
aVSOBBLUA12AB0185498
p388
aVSOFVTSM12A67020729
p389
aa(lp390
VSOCNHKC12A8C13F3CA
p391
aVSOEYBJZ12AF729C4E3
p392
aa(lp393
VSOQEFZB12A58A785AD
p394
aVSOEFVPG12A8C13221B
p395
aa(lp396
VSOOCKPO12A67021D10
p397
aVSOAHVQH12A8C139F18
p398
aa(lp399
VSOLCPTP12AB0189E33
p400
aVSOVQZYD12A58A788F6
p401
aa(lp402
VSOMJRHK12AB0181A00
p403
aVSOJLYBS12AB018195A
p404
aa(lp405
VSOXBPPY12A8AE47671
p406
aVSOVFYFW12A8C131F0D
p407
aVSOVOVSC12A6701C5A0
p408
aa(lp409
VSOLHMJV12A6D4F74C1
p410
aVSOCFQFA12A8C13EB2F
p411
aa(lp412
VSORQIEA12A8C137B5B
p413
aVSOLCNJN12A6D4F7740
p414
aa(lp415
VSOSFVMG12A6D4F7D4E
p416
aVSOTQPLW12A6D4FAAFB
p417
aa(lp418
VSOMKOPC12AF72A8AE3
p419
aVSOFLPPL12A6701F759
p420
aa(lp421
VSOIWAAB12A6310E03A
p422
aVSODZQPF12A6D4F971A
p423
aVSOEYEOG12A6D4FD103
p424
aVSOWYZNJ12A8C13E359
p425
aVSOTBRKC12A8C140BDF
p426
aa(lp427
VSOCAGTG12A8C137067
p428
aVSOZWANW12AB018550E
p429
aa(lp430
VSONHJUD12A6701E5D0
p431
aVSOWTBMA12A8C135C60
p432
aVSOBTRCD12A6701E976
p433
aa(lp434
VSOFKODD12AB017E6CC
p435
aVSOPVVAW12A8C14698A
p436
aa(lp437
VSOVFEOQ12A8AE4648F
p438
aVSOLXAXN12AB0187E0E
p439
aa(lp440
VSOJBLTR12AB018611D
p441
aVSOQXQTW12AB0185647
p442
aa(lp443
VSOUGJVR12AB017F07F
p444
aVSOBVKPG12A8C13B674
p445
aa(lp446
VSOAUBBN12A6D4F85C2
p447
aVSOXRMXY12A6D4F89FB
p448
aa(lp449
VSODNYJI12AB018902B
p450
aVSOSIVHS12CF5826670
p451
aa(lp452
VSOCIVWE12AB018EA6E
p453
aVSOHUYSI12AB018450C
p454
aVSOVATDT12A8AE47CAA
p455
aa(lp456
VSOGIXWL12A58A76C5A
p457
aVSOGBYUP12A8C1390B1
p458
aVSORRBWL12A8C13CE09
p459
aa(lp460
VSOHBYYB12A6D4FBDBA
p461
aVSOEFCXI12A8C13D670
p462
aVSOMDFFA12AB018844A
p463
aVSONSNPL12A8C1300FF
p464
aa(lp465
VSOVPRID12A8C145270
p466
aVSOYKZEB12A8C132273
p467
aa(lp468
VSOPIADQ12A8C13C9C9
p469
aVSOCXEKQ12AAF3B5490
p470
aVSOURUJK12A8C13A1F9
p471
aa(lp472
VSOMCTXE12A8C134DBE
p473
aVSOBDAQH12A8C136C22
p474
aVSOYKARC12A6310DA04
p475
aVSOCQPNK12A58A7841E
p476
aVSOOCKPO12A67021D10
p477
aa(lp478
VSOZOZQP12AB018A919
p479
aVSOFJMTS12A6702010E
p480
aVSOFSLOC12A8C13F8BD
p481
aa(lp482
VSOOYZJG12AB0189B76
p483
aVSOOYWHS12A8C136375
p484
aa(lp485
VSOLTXDL12AF72A0DD3
p486
aVSOAWOYR12A8C13D67D
p487
aa(lp488
VSOBUVJA12AB0188CCE
p489
aVSOTPAXV12A8C139939
p490
aVSOVVNLI12A8C13CFFC
p491
aVSOWHUPN12A6D4F7D50
p492
aVSOVAJLT12A8C1427C3
p493
aVSOKZIXL12AB0187E57
p494
aa(lp495
VSOITKRJ12A58A7F04F
p496
aVSOXSMPE12A6D4F7EB8
p497
aVSOZZBDO12B0B80C5BA
p498
aa(lp499
VSODLZDX12A8C13F002
p500
aVSONOYTE12A6D4F8697
p501
aa(lp502
VSOTKRQZ12A670214A2
p503
aVSOLBRCR12A6D4F8A12
p504
aa(lp505
VSOQOTGH12A8C13E40E
p506
aVSOQNOIE12A8C13B682
p507
aa(lp508
VSOHFFLX12A8C134685
p509
aVSOBJSLW12A6D4F9158
p510
aa(lp511
VSOLCUNF12A8C13C6B1
p512
aVSOVATLF12A6310F440
p513
aVSOVVMOP12A8C1348D2
p514
aVSORVLIX12A8C13E467
p515
aa(lp516
VSOVSFSV12A58A7B88F
p517
aVSOERZCE12A8C145542
p518
aa(lp519
VSOVWYXA12A6D4F8A10
p520
aVSOGYQAR12A6D4F747B
p521
aVSOWXGVU12A6D4F5098
p522
aa(lp523
VSOAUBBN12A6D4F85C2
p524
aVSOLRETK12A679D8B00
p525
aa(lp526
VSOETARB12A8C13B676
p527
aVSOIYULY12D02192F70
p528
aa(lp529
VSOVUGGV12A6310E038
p530
aVSONBPXS12AB01858C9
p531
aVSOOHUBU12A8AE48C6E
p532
aa(lp533
VSOEWOKL12A6D4FC4D8
p534
aVSOXLKNM12AAFF40745
p535
aa(lp536
VSOSTUKE12A6D4F966B
p537
aVSOWBRIG12A6701E18C
p538
aa(lp539
VSOMWTBB12A8C140F37
p540
aVSOZBDKF12A8C141665
p541
aa(lp542
VSOLVCNL12A6D4F6809
p543
aVSOAIFFW12A58A7E117
p544
aa(lp545
VSORWJHX12AB01878BA
p546
aVSOHUZUQ12A6D4F67CD
p547
aa(lp548
VSOATBRI12A8C131F7C
p549
aVSOGMTWJ12A58A7A831
p550
aa(lp551
VSOPUARH12AB0180E23
p552
aVSOYKHTF12A6D4F667D
p553
aVSOITDXJ12A8C13FFD1
p554
aa(lp555
VSOATTFV12A8C134103
p556
aVSOVUFIV12A8C1349F3
p557
aVSOJQZGT12AC4684FE4
p558
aa(lp559
VSOOLHMR12A6D4F84A8
p560
aVSOXJRZS12A8C13A414
p561
aVSOZVFEP12A6D4F86C1
p562
aa(lp563
VSOTNYCM12A8C13449D
p564
aVSOKXDQH12AC4687FB7
p565
aVSOJUKHT12AC3DF9E25
p566
aa(lp567
VSOGVSWM12AB01868CB
p568
aVSOTENJV12CF5F87F08
p569
aVSODPNQZ12A6D4F6AA3
p570
aa(lp571
VSONDVSD12A8C13F7F9
p572
aVSOLHMJV12A6D4F74C1
p573
aVSOQKYNS12CF530E4D7
p574
aa(lp575
VSOWRCXQ12AB0183DDB
p576
aVSOGSZXZ12A6701F16F
p577
aVSOZPUZZ12AAF3B1EE3
p578
aVSOFOPFT12A8C131D05
p579
aa(lp580
VSOIJKUD12AF72A39E8
p581
aVSONHLTP12A8C139E7F
p582
aa(lp583
VSOPWWWR12AAF3B20BD
p584
aVSORHXLN12AB018364C
p585
aa(lp586
VSOSIHOV12A67020A18
p587
aVSOBQJNM12A8C1424C9
p588
aVSOLVWUR12CF5F89053
p589
aa(lp590
VSOEXHUD12A6D4F72D5
p591
aVSORDYVO12A8C141A40
p592
aa(lp593
VSONKIEY12A8C13F853
p594
aVSONZVPW12A8C141086
p595
aVSOXIKFY12AB0184035
p596
aVSONBYTB12A67021676
p597
aa(lp598
VSOLMMSU12A6D4F9D87
p599
aVSOVATLF12A6310F440
p600
aVSOXONYW12A8C136D7A
p601
aVSOYLUOK12AF72AA67F
p602
aa(lp603
VSOAVHXG12A6D4F6517
p604
aVSOHBYOK12AB017B42A
p605
aa(lp606
VSODZEQX12AB0181E8E
p607
aVSOGZLKQ12D021976A1
p608
aVSOEXHUD12A6D4F72D5
p609
aa(lp610
VSOAUYUI12A679CF21E
p611
aVSOCCVVH12A679C8038
p612
aa(lp613
VSOCSRZE12A6D4F9DC9
p614
aVSOKMTBP12A8C139FD0
p615
aVSOPBBFZ12AB018B92C
p616
aVSOTLVNZ12A670200FB
p617
aVSOMBGTL12A8C133038
p618
aVSOEKKHY12D021B55E7
p619
aa(lp620
VSOFGCVB12AAF3B22BD
p621
aVSOJEOJK12A8C13FA28
p622
aVSOCCQPG12A6D4F65AE
p623
aa(lp624
VSOUQXVX12A8C138178
p625
aVSOUDGEV12A8C135FC9
p626
aa(lp627
VSOVXDMM12AB018E786
p628
aVSOGZLKQ12D021976A1
p629
aa(lp630
VSOSOKWQ12A6D4F8D2E
p631
aVSOYNMUI12AB0186BE0
p632
aVSONTVVW12A8C13094F
p633
aa(lp634
VSOYKZEB12A8C132273
p635
aVSOYVCIE12A8C1346A2
p636
aa(lp637
VSODZVEJ12B35049000
p638
aVSONCELS12A58A7D2A7
p639
aa(lp640
VSODKTNH12A6701E0D2
p641
aVSOIYULG12AB017F25B
p642
aa(lp643
VSOOFTQI12AB018520F
p644
aVSOMDJRE12AF72A7325
p645
aVSOLRPJX12A58A79808
p646
aVSOZZBDO12B0B80C5BA
p647
aa(lp648
VSOXMCEI12A8C132688
p649
aVSONOYTE12A6D4F8697
p650
aVSOUBYCC12A8AE463A2
p651
aa(lp652
VSOKFOFA12A6D4FB1FF
p653
aVSOPMATN12CF530E530
p654
aa(lp655
VSOWSWUE12A6D4F32C5
p656
aVSONNYRJ12A8C1369B1
p657
aa(lp658
VSOMWTBB12A8C140F37
p659
aVSODGCXS12A8C13C84B
p660
aa(lp661
VSOVATLF12A6310F440
p662
aVSODLTBT12A670208E0
p663
aa(lp664
VSOVOGKA12A58A7CC89
p665
aVSOPIYOX12AB0180249
p666
aVSOKUBRA12A8C13F33B
p667
aa(lp668
VSOCNAPQ12AAA15EE26
p669
aVSOCAXNF12A81356D4D
p670
aa(lp671
VSOFKSFK12A58A7EF44
p672
aVSOSBNUV12A58A7DB10
p673
aa(lp674
VSONTBHE12AC9097F08
p675
aVSOCPMIK12A6701E96D
p676
aVSOVFYFW12A8C131F0D
p677
aa(lp678
VSODZVEJ12B35049000
p679
aVSOVTHDJ12A6D4F8984
p680
aVSONBELP12A8C13ACBD
p681
aa(lp682
VSOHNYQT12A8C13F284
p683
aVSOVCSRH12A8C143608
p684
aVSOCPMIK12A6701E96D
p685
aa(lp686
VSOZXBRT12A58A7A0B1
p687
aVSOVDOSY12A6D4F92DC
p688
aa(lp689
VSOEXXAJ12A8C13AD79
p690
aVSOBJSLW12A6D4F9158
p691
aa(lp692
VSORPOLB12A58A7D8D6
p693
aVSOOHPYN12A67020C87
p694
aa(lp695
VSOIDHHO12AB017CFCB
p696
aVSOAHVQH12A8C139F18
p697
aa(lp698
VSOAABLG12A6D4F73D2
p699
aVSOEAKGE12A6D4FAED6
p700
aa(lp701
VSOQZAUN12A67AD97B6
p702
aVSOSWKTY12A58A79A8B
p703
aVSOCFEEI12AB018B808
p704
aa(lp705
VSOQRJUT12A8AE46A1C
p706
aVSOBRRFD12A81C1FDF2
p707
aVSORIFDU12A6D4FC3F0
p708
aVSOMSHQV12AB018A528
p709
aa(lp710
VSOSBNUV12A58A7DB10
p711
aVSODDLBD12B35058D27
p712
aa(lp713
VSOGDOQY12A8C134E59
p714
aVSOGFFGN12A670208BD
p715
aVSOFKNVA12A6D4FA879
p716
aa(lp717
VSOITDXJ12A8C13FFD1
p718
aVSOQKVJJ12A8C138F0E
p719
aa(lp720
VSOFHDWS12AB0189908
p721
aVSORUBPK12AB0187B8C
p722
aVSOUYEJH12A679D8AFE
p723
aa(lp724
VSOAWOYR12A8C13D67D
p725
aVSOFNROM12AB018AFBF
p726
aVSOCMBPO12A8C13CF6F
p727
aa(lp728
VSOJKUNO12A8C13A3F9
p729
aVSOHZSML12AAF3B47BC
p730
aVSOPAIDZ12AB0186DD7
p731
aVSOZZELE12A8C13DFD1
p732
aa(lp733
VSOXSMPE12A6D4F7EB8
p734
aVSOTZGNT12D021B3E40
p735
aVSOJRUAF12CF530E600
p736
aa(lp737
VSOCFWYR12A58A7A3A2
p738
aVSOADQHJ12AF729D75C
p739
aVSOSHPEE12A6D4F8E10
p740
aa(lp741
VSOBNLES12A679C8053
p742
aVSOAKMDU12A8C1346A9
p743
aVSORLPYW12CF5F89041
p744
aVSOESTZQ12A67021556
p745
aa(lp746
VSOVVWRB12A8C1328F9
p747
aVSOBKTKO12AB01857FD
p748
aa(lp749
VSONRAVT12A8C13EBA0
p750
aVSOGXMFL12A8C145C0E
p751
aa(lp752
VSOPDQEF12A8C13E62A
p753
aVSONIQVG12A8C13A46F
p754
aa(lp755
VSOPKSJC12A58A7EC25
p756
aVSOUSCOX12AB017C8D6
p757
aVSOYECMQ12AB017D4AB
p758
aVSOFONOE12A58A7C14A
p759
aVSOKYXAE12AB017B89F
p760
aa(lp761
VSOUHJCR12D021B23A2
p762
aVSOQDYMB12A6D4F7B23
p763
aVSOUARNP12AC4689AF4
p764
aVSOERFWA12A6D4F4183
p765
aa(lp766
VSOJUKHT12AC3DF9E25
p767
aVSOIVNMX12D02191EE5
p768
aa(lp769
VSOSFTMT12AB01866B3
p770
aVSORMJLR12AB01842AE
p771
aa(lp772
VSOKVESS12A81C20D36
p773
aVSOOJKGV12A6D4F7741
p774
aVSOYIDET12AB01815BB
p775
aa(lp776
VSOYKZEB12A8C132273
p777
aVSOTBJRI12A8C13BBA4
p778
aVSOUPBMT12AB018086C
p779
aVSOXGWCM12A8C13BBBF
p780
aa(lp781
VSORVXJA12AB0182D5B
p782
aVSOVWPKS12A8C138624
p783
aVSODXRJF12A8C13B1B5
p784
aVSOMDWFH12A6D4FD1EE
p785
aVSOAVGNP12A6D4F9B11
p786
aa(lp787
VSOLCOMN12A67020DEC
p788
aVSOFGQUN12AF72A3268
p789
aVSOMWKTI12AB017BCC7
p790
aa(lp791
VSOXYUVR12A67020490
p792
aVSOGREDJ12A58A776C2
p793
aa(lp794
VSOCTDLU12A8C14065C
p795
aVSOJEOJK12A8C13FA28
p796
aa(lp797
VSOTQLED12A8AE45084
p798
aVSOTSWOE12B34F26261
p799
aa(lp800
VSOFFDIM12A67021CB4
p801
aVSOYKARC12A6310DA04
p802
aa(lp803
VSODJLWD12A8C133338
p804
aVSOLBRCR12A6D4F8A12
p805
aVSORSQNT12D0219324C
p806
aa(lp807
VSOTIIJX12A6D4F719E
p808
aVSOCLJZY12A8C13F7A0
p809
aa(lp810
VSOGIPUW12A8C134D73
p811
aVSOGFHBN12AB01819D5
p812
aVSONLSEV12A6702077A
p813
aVSOLVXAE12A6D4F750D
p814
aa(lp815
VSOJPKJK12A6D4F91C9
p816
aVSOGWWHJ12A8AE47011
p817
aa(lp818
VSOTENJV12CF5F87F08
p819
aVSOSCZJE12A6310DA03
p820
aa(lp821
VSOSERZH12A8C142A38
p822
aVSOIDHVC12AF72A389E
p823
aa(lp824
VSODOLOQ12A8C131435
p825
aVSOGSESD12A58A7731F
p826
aa(lp827
VSONHGGH12A8C142B99
p828
aVSOMLYJD12A58A7B155
p829
aVSOLOUIR12A6310D7B4
p830
aa(lp831
VSOASIDK12A81C207C1
p832
aVSONWKJV12A81356263
p833
aa(lp834
VSOMDFFA12AB018844A
p835
aVSOUBYCC12A8AE463A2
p836
aa(lp837
VSOPRJWO12AB0184777
p838
aVSODXXDU12A58A7ACCD
p839
aVSOGLLDW12A8C1440D1
p840
aVSOERMTN12AF72A3B18
p841
aa(lp842
VSONYLLV12A6701F3FC
p843
aVSOCATDA12AB0186E15
p844
aa(lp845
VSONEWRI12A813565C9
p846
aVSOLMWNQ12AB0187324
p847
aa(lp848
VSOXRBNT12A8C1377FC
p849
aVSOXBEYM12AC4689A64
p850
aa(lp851
VSOESTZQ12A67021556
p852
aVSOJQZGT12AC4684FE4
p853
aVSOTTTOP12A58A7B8AD
p854
aa(lp855
VSOTOZJS12A8C13BDC3
p856
aVSOQDOOA12AB0184629
p857
aa(lp858
VSOQCCOM12A8C14363C
p859
aVSOUGTOK12A58A7C139
p860
aa(lp861
VSOPCUXO12A8C143664
p862
aVSORVUVD12A8C1446AB
p863
aa(lp864
VSOTWPPZ12AB018DF27
p865
aVSOPUARH12AB0180E23
p866
aa(lp867
VSOWQZFM12B0B806C13
p868
aVSOOYOST12AF72A3BE1
p869
aa(lp870
VSOKVESS12A81C20D36
p871
aVSOOAARF12AB01806CE
p872
aa(lp873
VSOXRTNZ12AB0182268
p874
aVSOGBMCW12A8C137948
p875
aVSOURNIV12A679D7E88
p876
aVSODZVEJ12B35049000
p877
aa(lp878
VSOWBVZD12AF72A0237
p879
aVSOYPIXE12A58A7CF02
p880
aa(lp881
VSORMJLR12AB01842AE
p882
aVSOBXKKE12A6D4FB1B4
p883
aVSOAELPJ12A67AD9E9C
p884
aa(lp885
VSOEUVSM12A6D4F95ED
p886
aVSOTQOSW12A679D8AFD
p887
aVSOSJIHL12AB0180844
p888
aa(lp889
VSOSOKWQ12A6D4F8D2E
p890
aVSOUXAEY12A58A79EB5
p891
aa(lp892
VSOYFORQ12A8C1457B3
p893
aVSOGHAQU12A6D4FA2DB
p894
aVSOLUWYQ12A6D4FD0F8
p895
aVSOEGXYE12AF729D9FF
p896
aa(lp897
VSOGZNQE12A6D4F708D
p898
aVSOATFZL12A58A7C899
p899
aVSOGRKPG12A58A7ADF7
p900
aa(lp901
VSOCLHSF12A8C13D1F8
p902
aVSOBFWDV12D0544AC42
p903
aVSOGRMZA12A670206FC
p904
aVSOUIDMZ12A8C13E43D
p905
aVSOKCUER12AF729F510
p906
aa(lp907
VSOUJRHB12A8C13BB04
p908
aVSOZGLNL12A8C13BBB0
p909
aa(lp910
VSOTZZVA12AB0188B91
p911
aVSOHNYQT12A8C13F284
p912
aa(lp913
VSOUWIDB12A6D4F817B
p914
aVSOTRGPR12A8C1315C0
p915
aa(lp916
VSOBPDPQ12AF72A45D5
p917
aVSOFSSEQ12AB0181280
p918
aa(lp919
VSOESTZQ12A67021556
p920
aVSOJQZGT12AC4684FE4
p921
aVSOMNXCC12AB0187BE7
p922
aa(lp923
VSOYVCNF12CF530E5AA
p924
aVSOPGEUB12A8C13DBA1
p925
aVSORSQNT12D0219324C
p926
aa(lp927
VSOIMRFE12D021B3D23
p928
aVSOQWWOQ12AAF3B22EA
p929
aVSOLZVFP12D021907D6
p930
aa(lp931
VSOIDHHO12AB017CFCB
p932
aVSOAHVQH12A8C139F18
p933
aa(lp934
VSOVDOSY12A6D4F92DC
p935
aVSONNKSP12A8C141F7E
p936
aa(lp937
VSOEXHUD12A6D4F72D5
p938
aVSONWNPE12CF58289B8
p939
aVSOFRKIW12AB017DC8B
p940
aVSODZEQX12AB0181E8E
p941
aa(lp942
VSOFBGYH12A6701F0CB
p943
aVSORAIWH12A6310F2BE
p944
aa(lp945
VSOXBVCS12A6701C7FE
p946
aVSOMDJRE12AF72A7325
p947
aa(lp948
VSOFGQUN12AF72A3268
p949
aVSOSBPIQ12A6D4F81ED
p950
aa(lp951
VSOCMHSX12A58A7BF36
p952
aVSOOFTQI12AB018520F
p953
aVSOYUCZF12AF729C6CE
p954
aa(lp955
VSONZIVI12A8C137F0B
p956
aVSOEVSXE12A6310D900
p957
aa(lp958
VSOWTCTI12A8C138C61
p959
aVSOEQZKN12AF72ACFF7
p960
aVSOFJIVD12A58A79C1B
p961
aVSOLDCXV12A58A78B9B
p962
aa(lp963
VSOIVNMX12D02191EE5
p964
aVSOPDBQE12A6D4F7DC8
p965
aVSOTRGUV12A6310F2F8
p966
aa(lp967
VSONWKJV12A81356263
p968
aVSOJXIDV12A58A7A1AD
p969
aVSODWWSM12A8C13B3FE
p970
aa(lp971
VSOTLMCB12AB01886EA
p972
aVSOSSVHO12AC9097D82
p973
aa(lp974
VSORLSDL12A8C13A978
p975
aVSOCTEOO12A8C13B873
p976
aa(lp977
VSOKVCQC12A8C13EAF3
p978
aVSOKPOUZ12A8C140A57
p979
aa(lp980
VSOGCQFP12A8AE45FBE
p981
aVSONCJKP12A8151CB34
p982
aVSOFHYOK12AF72A5656
p983
aa(lp984
VSOTQOSW12A679D8AFD
p985
aVSOGBYUP12A8C1390B1
p986
aa(lp987
VSODGCZF12AB0182593
p988
aVSOPHTVO12A6BD4D594
p989
aa(lp990
VSOEUKVP12D02193414
p991
aVSOPCMVB12D02191153
p992
aVSOFBFRP12A81C22D05
p993
aa(lp994
VSOGQBSM12A8C1449BB
p995
aVSOMJZLT12A8C140186
p996
aa(lp997
VSOZJTOL12A81C21AA8
p998
aVSONNFRG12A8C13C63E
p999
aa(lp1000
VSOPGYTA12A8C13C80D
p1001
aVSOBOJBX12AB01860B3
p1002
aVSODCOSI12A8C13D778
p1003
aa(lp1004
VSOHPIJM12AB018319C
p1005
aVSOZAVUW12AF729D2D4
p1006
aa(lp1007
VSONHLTP12A8C139E7F
p1008
aVSOCJWZY12A67021D18
p1009
aVSOBTRCD12A6701E976
p1010
aa(lp1011
VSOKQLTX12A6D4F9EF8
p1012
aVSOZGLNL12A8C13BBB0
p1013
aa(lp1014
VSOZBJJD12A6D4F7184
p1015
aVSOIYUMO12A67AE0E1B
p1016
aa(lp1017
VSOEVEME12A58A7DA69
p1018
aVSOSZPUK12A6701CD77
p1019
aa(lp1020
VSOLTKXV12A8C1333F4
p1021
aVSODWUUH12A6D4FD046
p1022
aVSONRCPS12AF72A02E6
p1023
aa(lp1024
VSOPMJGR12AB017E321
p1025
aVSOUHPXO12A6D4F6DFB
p1026
aVSOLRPJX12A58A79808
p1027
aVSOLZXUJ12A58A7DF59
p1028
aVSOUANJU12A8C14278B
p1029
aVSOCTKYL12AB01896E4
p1030
aa(lp1031
VSOCVMYM12D021B3AF9
p1032
aVSOJCGCT12A67AD9E9D
p1033
aa(lp1034
VSOWRWYA12AB018B286
p1035
aVSOJQZGT12AC4684FE4
p1036
aa(lp1037
VSOOFTQI12AB018520F
p1038
aVSOTKRQZ12A670214A2
p1039
aa(lp1040
VSOMDJRE12AF72A7325
p1041
aVSONCELS12A58A7D2A7
p1042
aa(lp1043
VSOFGNZM12A81C22D19
p1044
aVSOMYGDY12A6310F1C3
p1045
aa(lp1046
VSONZZTV12A8C139C92
p1047
aVSOHNYQT12A8C13F284
p1048
aa(lp1049
VSOYASDW12A58A7A559
p1050
aVSOJZBTU12A58A7B348
p1051
aVSOUDGEV12A8C135FC9
p1052
aa(lp1053
VSOSUBGH12A6D4FCE72
p1054
aVSOVKXFZ12A6D4F593C
p1055
aa(lp1056
VSOTQPLW12A6D4FAAFB
p1057
aVSOPFHBE12A8C130C53
p1058
aVSOATTFV12A8C134103
p1059
aVSOFTVSI12AB0185957
p1060
aa(lp1061
VSOTDYBB12A8C135B8E
p1062
aVSOANUPL12AC9072671
p1063
aVSOTCBIH12A8C13A13C
p1064
aVSOXNIEL12A6701F52C
p1065
aVSOPXCCR12A8C13DB4B
p1066
aa(lp1067
VSOGNCHO12AF72AA70B
p1068
aVSOIZMZT12AB01806FA
p1069
aVSOYIDET12AB01815BB
p1070
aa(lp1071
VSOIVNMX12D02191EE5
p1072
aVSOGJSAB12AB01815CF
p1073
aVSOERWME12A81C21DB1
p1074
aa(lp1075
VSONZZYO12A6D4F6494
p1076
aVSOXYJJQ12B0B807ABD
p1077
aa(lp1078
VSOFVCCI12AB0186814
p1079
aVSOTIZFE12AB0186835
p1080
aa(lp1081
VSONRDDT12A6D4F8414
p1082
aVSOUQQQL12A6D4F8419
p1083
aVSOUWQFL12A6D4F841A
p1084
aVSODKBBZ12A6D4F841B
p1085
aa(lp1086
VSOMYWMO12A6D4F7215
p1087
aVSOGCESP12A6D4F721C
p1088
aa(lp1089
VSOHKFSB12A6D4F9A70
p1090
aVSOVQJJV12A6D4F8EC5
p1091
aa(lp1092
VSOXNIEL12A6701F52C
p1093
aVSOSBNUV12A58A7DB10
p1094
aVSOBACKH12A8C14079F
p1095
aVSONOYTE12A6D4F8697
p1096
aVSOIVNMX12D02191EE5
p1097
aVSOAFENP12A8C132524
p1098
aVSOJRLAX12A6701E0A0
p1099
aVSOLFNJP12A58A78574
p1100
aa(lp1101
VSOPSBWY12A8C142BFC
p1102
aVSOKZIXL12AB0187E57
p1103
aa(lp1104
VSOTBRKC12A8C140BDF
p1105
aVSONJFGX12A58A7FE14
p1106
aa(lp1107
VSOHBHMN12A58A78CC5
p1108
aVSOJXEBA12AB0185443
p1109
aa(lp1110
VSOGQALC12AB018B2C6
p1111
aVSOFWKXK12AB017CBCA
p1112
aVSOTQUGX12A8C13FD2A
p1113
aa(lp1114
VSOXUVOR12AB0185B7F
p1115
aVSOKEUJR12AC468A530
p1116
aa(lp1117
VSOWOPGL12A6D4F7405
p1118
aVSOZOHDS12A6D4F873A
p1119
aVSOJLIDL12A6D4F6F85
p1120
aa(lp1121
VSOOWBTW12A8C1358DA
p1122
aVSOADBYV12A8C145005
p1123
aVSOFZLRI12A8C1433C8
p1124
aa(lp1125
VSOGBYUP12A8C1390B1
p1126
aVSOVOVSC12A6701C5A0
p1127
aa(lp1128
VSOVVMOP12A8C1348D2
p1129
aVSOLSRYV12D021939FF
p1130
aa(lp1131
VSOYLJPP12A81C1FC7E
p1132
aVSOBJSLW12A6D4F9158
p1133
aVSODGLMM12A8C1430BC
p1134
aVSOMJZLT12A8C140186
p1135
aVSOKYYQU12A8AE46E26
p1136
aa(lp1137
VSOCDZQB12A8C137E5B
p1138
aVSONHLTP12A8C139E7F
p1139
aa(lp1140
VSODJQUS12A6701D1D3
p1141
aVSOILDTD12AB0185052
p1142
aa(lp1143
VSOSOZKR12AB017FF52
p1144
aVSORDYVO12A8C141A40
p1145
aa(lp1146
VSOIVNMX12D02191EE5
p1147
aVSONHLTP12A8C139E7F
p1148
aa(lp1149
VSOXYJJQ12B0B807ABD
p1150
aVSOKYLQF12A8C13BBF4
p1151
aa(lp1152
VSOXUVOR12AB0185B7F
p1153
aVSOKEUJR12AC468A530
p1154
aa(lp1155
VSOMTQOW12A6D4F7A40
p1156
aVSOLSXHI12A8C137F59
p1157
aVSOWTGSN12A6D4F8BB1
p1158
aVSOQLCGD12A58A7BD96
p1159
aa(lp1160
VSOLNDXN1280EC900A1
p1161
aVSOJRDXS12A8C13EAB4
p1162
aVSOKABWZ12A58A79A73
p1163
aVSOEOCXE12B0B807476
p1164
aVSONCELS12A58A7D2A7
p1165
aVSOIIJSG12AB0182E67
p1166
aVSOOCKPO12A67021D10
p1167
aa(lp1168
VSOPGEWM12B0B809EFA
p1169
aVSORUQPU12AF729D964
p1170
aa(lp1171
VSOMHJZA12A8C143161
p1172
aVSOKWZXF12A6D4FBDF4
p1173
aa(lp1174
VSOYIHIF12A8C132858
p1175
aVSOWTGSN12A6D4F8BB1
p1176
aa(lp1177
VSOYKZEB12A8C132273
p1178
aVSOOLNQC12A6D4F6CEB
p1179
aa(lp1180
VSOLCUCJ12AB01815D6
p1181
aVSOGNCHO12AF72AA70B
p1182
aa(lp1183
VSOQMOWZ12A67ADFA48
p1184
aVSOZRGHB12A8C13CAC4
p1185
aa(lp1186
VSOXWVUV12A6D4F8C99
p1187
aVSOUTXWI12A6D4F8F21
p1188
aVSOJTIWD12AB018401A
p1189
aa(lp1190
VSOYIHIF12A8C132858
p1191
aVSOSOKWQ12A6D4F8D2E
p1192
aa(lp1193
VSOIEGAW12AB0184DAB
p1194
aVSOGIXWL12A58A76C5A
p1195
aa(lp1196
VSODLZYG12AB0187E6A
p1197
aVSOFTSFA12A8AE485EC
p1198
aa(lp1199
VSOMDJRE12AF72A7325
p1200
aVSOXMCWP12A8C133A7C
p1201
aVSOBDAQH12A8C136C22
p1202
aVSOYXFEW12A6D4F80AF
p1203
aa(lp1204
VSOBOMJI12A8C13E40F
p1205
aVSOVFYFW12A8C131F0D
p1206
aa(lp1207
VSOXBVCS12A6701C7FE
p1208
aVSOCVMYM12D021B3AF9
p1209
aVSOLNDXN1280EC900A1
p1210
aa(lp1211
VSOJEOJK12A8C13FA28
p1212
aVSORSQNT12D0219324C
p1213
aa(lp1214
VSOMDJRE12AF72A7325
p1215
aVSOIBTIP12A6D4F5E91
p1216
aa(lp1217
VSOCKNLS12A6D4F8C97
p1218
aVSOMZQUJ12A8C135AB3
p1219
aa(lp1220
VSOABBFJ12A6701F307
p1221
aVSOEQXDI12A8C138428
p1222
aVSOZXYCR12B0B806649
p1223
aa(lp1224
VSOUGJVR12AB017F07F
p1225
aVSOFAUQC12A8C130F41
p1226
aVSOBHBIF12A8C141BF9
p1227
aa(lp1228
VSORVBFN12AB0188134
p1229
aVSOTTDDG12A6701F403
p1230
aa(lp1231
VSOSZPUK12A6701CD77
p1232
aVSONCELS12A58A7D2A7
p1233
aa(lp1234
VSOKNUPD12AC9097CD4
p1235
aVSOTQSIR12A8C132401
p1236
aa(lp1237
VSOSFFXW12A6D4F7265
p1238
aVSOYUCZF12AF729C6CE
p1239
aa(lp1240
VSOTQWLL12A6310E036
p1241
aVSOXEJSI12A81C2376E
p1242
aa(lp1243
VSOWMNIK12A8C144C6E
p1244
aVSOXJYPV12A8AE482E7
p1245
aa(lp1246
VSOBVPFU12A6D4FB176
p1247
aVSODWNZJ12A58A79D96
p1248
aa(lp1249
VSOVATLF12A6310F440
p1250
aVSOYCHDB12A8C13F2C8
p1251
aVSOGFEOL12A6D4F937C
p1252
aa(lp1253
VSOUEYAQ12AC4688AD4
p1254
aVSOCLJZY12A8C13F7A0
p1255
aVSOBVDHY12A6D4F824E
p1256
aa(lp1257
VSOFVKSO12A6D4FB858
p1258
aVSOWHUFA12AB0189E4C
p1259
aVSOKQLTX12A6D4F9EF8
p1260
aa(lp1261
VSOSOCUK12AB0180E18
p1262
aVSOPFURM12A67020D2A
p1263
aVSOVSKKK12A8C13E0AD
p1264
aa(lp1265
VSOJTHXE12AF72A571B
p1266
aVSOKVESS12A81C20D36
p1267
aa(lp1268
VSOOJKGV12A6D4F7741
p1269
aVSORSRWT12A58A7A973
p1270
aa(lp1271
VSOFBGYH12A6701F0CB
p1272
aVSONZSEA12AF72A0F28
p1273
aVSOOGLCI12A6701C5A6
p1274
aa(lp1275
VSOLIAQG12A8C134A41
p1276
aVSOTZZVA12AB0188B91
p1277
aa(lp1278
VSOQBLNO12A6701F0BB
p1279
aVSOELQRA12D02193CA3
p1280
aa(lp1281
VSOILKCD12A81C22C06
p1282
aVSOIZMZT12AB01806FA
p1283
aa(lp1284
VSOIQMCE12A6D4FAB21
p1285
aVSOVWPKS12A8C138624
p1286
aa(lp1287
VSOEWQBG12AB018102A
p1288
aVSOPCLMW12AB017FF1B
p1289
aa(lp1290
VSOEUKVP12D02193414
p1291
aVSOCVMYM12D021B3AF9
p1292
aa(lp1293
VSOVRPJN12A8C1399AE
p1294
aVSOMKOPC12AF72A8AE3
p1295
aa(lp1296
VSOYHHEW12A58A78691
p1297
aVSOMZSHY12A8C1343B0
p1298
aa(lp1299
VSOCPMIK12A6701E96D
p1300
aVSOOCKPO12A67021D10
p1301
aa(lp1302
VSODDLBD12B35058D27
p1303
aVSOAYVUP12D02199E41
p1304
aa(lp1305
VSORZAZH12AF72A5FBE
p1306
aVSOLQOJU12A8C139E03
p1307
aVSOPWUJM12A8C134FD4
p1308
aVSOQUXKG12A8C139478
p1309
aVSOYOFHW12A8C134613
p1310
aa(lp1311
VSOJQGFN12A8C140695
p1312
aVSOEXHUD12A6D4F72D5
p1313
aVSOLCPTP12AB0189E33
p1314
aa(lp1315
VSOTMHJC12A8C13BFA1
p1316
aVSOBLUHM12A58A7BD99
p1317
aa(lp1318
VSOZXYCR12B0B806649
p1319
aVSOGQOXE12A679D8B09
p1320
aa(lp1321
VSOWZWHL12A6D4F6A0B
p1322
aVSOTKRQZ12A670214A2
p1323
aa(lp1324
VSOFVOZI12A8C13DE42
p1325
aVSOMKOPC12AF72A8AE3
p1326
aa(lp1327
VSOTEGNR12A8C131CD8
p1328
aVSOHXLSX12A58A7D8B9
p1329
aa(lp1330
VSOPUDMO12AB0189C32
p1331
aVSOHQAKK12A8C13BBDE
p1332
aa(lp1333
VSOBZOFT12A8C13BBFE
p1334
aVSOGQPOC12A6D4F5938
p1335
aa(lp1336
VSOUFAON12A8C13BBE7
p1337
aVSONRCPS12AF72A02E6
p1338
aa(lp1339
VSOHNYQT12A8C13F284
p1340
aVSOBGJGO12A8C130948
p1341
aa(lp1342
VSOLPIDR12AB018AD8C
p1343
aVSOVHESP12A81C215E3
p1344
aVSOUNCRP12AB017B11D
p1345
aa(lp1346
VSOPVVAW12A8C14698A
p1347
aVSOUJZAL12A8C140564
p1348
aVSONSDID12AB018AD38
p1349
aa(lp1350
VSOJJZJD12A8C13ED06
p1351
aVSOKESRD12A6701E91C
p1352
aVSOYCHDB12A8C13F2C8
p1353
aa(lp1354
VSOCFEEI12AB018B808
p1355
aVSODPFNT12A58A7A694
p1356
aa(lp1357
VSOVJUAH12AB0184B95
p1358
aVSOCXCDV12A81C20495
p1359
aa(lp1360
VSOXQBGK12A8AE45B2F
p1361
aVSOCVOFW12A6D4F3C17
p1362
aVSODYIOV12A6701FD17
p1363
aVSODIBRA12A81C204C2
p1364
aVSOZKCHR12A81C204B7
p1365
aVSOFKWAW12A81C1F790
p1366
aa(lp1367
VSOJJBNR12A58A79BCB
p1368
aVSOWTGSN12A6D4F8BB1
p1369
aVSOTHAWB12A8C142B2E
p1370
aa(lp1371
VSOVNVEV12AB018BCA5
p1372
aVSOYKZEB12A8C132273
p1373
aVSOGFDKM12AB0187725
p1374
aVSOQSFDE12A8C13C54D
p1375
aa(lp1376
VSOAWGYN12AB017AA84
p1377
aVSORXWLB12AC468BBB0
p1378
aa(lp1379
VSOBKTKO12AB01857FD
p1380
aVSOKZAHV12A8C131191
p1381
aa(lp1382
VSOATTFV12A8C134103
p1383
aVSOIPTJV12A6D4FE977
p1384
aa(lp1385
VSOJQZGT12AC4684FE4
p1386
aVSOEFCXI12A8C13D670
p1387
aa(lp1388
VSOVOVSC12A6701C5A0
p1389
aVSORVXJA12AB0182D5B
p1390
aa(lp1391
VSOBTUEZ12A6701F2FB
p1392
aVSOCPNGO12AB017FD4C
p1393
aa(lp1394
VSOLBFTJ12A6D4F97C2
p1395
aVSOFYUUH12A8C134C6D
p1396
aa(lp1397
VSOZITAX12A6310DA13
p1398
aVSOIOKJW12AB017F47D
p1399
aVSOGCDIG12A6D4F892E
p1400
aVSOMWBGT12A6D4F9F3A
p1401
aa(lp1402
VSOHMWZZ12AB017DD1B
p1403
aVSOAHVQH12A8C139F18
p1404
aa(lp1405
VSONTVVW12A8C13094F
p1406
aVSOJVOXV12AB0185FAB
p1407
aa(lp1408
VSORRBWL12A8C13CE09
p1409
aVSOIVNMX12D02191EE5
p1410
aVSOCDRDK12A8C13522E
p1411
aVSOGBYUP12A8C1390B1
p1412
aVSOLUNRF12A58A76E20
p1413
aVSOLHMJV12A6D4F74C1
p1414
aa(lp1415
VSOHVYRP12AB018719D
p1416
aVSOGBMCW12A8C137948
p1417
aVSOXMCEI12A8C132688
p1418
aa(lp1419
VSOPFURM12A67020D2A
p1420
aVSOPUDMO12AB0189C32
p1421
aa(lp1422
VSOGFEOL12A6D4F937C
p1423
aVSORWJHX12AB01878BA
p1424
aa(lp1425
VSODXFAS12A58A7B24B
p1426
aVSOISGRN12A8AE459E3
p1427
aa(lp1428
VSOGPVRX12A8C138882
p1429
aVSOQDVJW12A8C132FF2
p1430
aa(lp1431
VSOTXJDX12A8C14442C
p1432
aVSOSFTMT12AB01866B3
p1433
aa(lp1434
VSOXRMXY12A6D4F89FB
p1435
aVSOKSUGV12A67ADE290
p1436
aa(lp1437
VSOVKXFZ12A6D4F593C
p1438
aVSOTQLED12A8AE45084
p1439
aa(lp1440
VSOEEXMX12A67021677
p1441
aVSOIWVTH12AB017C5EF
p1442
aa(lp1443
VSOUSTNJ12A6D4F9201
p1444
aVSOCONXJ12A6D4F8244
p1445
aVSONTDUZ12D021989FD
p1446
aa(lp1447
VSOIOQLK12AAF3B43F0
p1448
aVSOXHNRF12A6D4F82E6
p1449
aa(lp1450
VSOXSSWD12AB0184B80
p1451
aVSOCPBMU12AB01898CB
p1452
aa(lp1453
VSORXVVB12A6D4F6BF5
p1454
aVSORIWBR12A6D4F7022
p1455
aVSOLEVIY12A8C132759
p1456
aVSOMGMLF12A6701E366
p1457
aa(lp1458
VSOZYOQD12A67021B8C
p1459
aVSOEIUBH12AAF3B50A0
p1460
aVSOJUKHT12AC3DF9E25
p1461
aVSOQLCGD12A58A7BD96
p1462
aa(lp1463
VSOVITAC12A8C13BDFA
p1464
aVSOEUKVP12D02193414
p1465
aa(lp1466
VSOQMRLJ12AB01817D2
p1467
aVSOKBBXO12A6701DEA0
p1468
aa(lp1469
VSODJLWD12A8C133338
p1470
aVSOHKQXJ12A8C13801D
p1471
aa(lp1472
VSOLPURH12A8151D3F7
p1473
aVSOFXGKC12A8C1345D9
p1474
aVSOUNQVS12A8C13D521
p1475
aa(lp1476
VSOIWMUZ12A67ADCF56
p1477
aVSOZKTKV12A8C138062
p1478
aa(lp1479
VSOQMMAA12A8C133883
p1480
aVSOIDHHO12AB017CFCB
p1481
aa(lp1482
VSOPWHGG12A8C141CAA
p1483
aVSOPDJIO12A8C13F58F
p1484
aa(lp1485
VSOTXPIE12AF72AB7E3
p1486
aVSORSVLR12AB017B6B1
p1487
aa(lp1488
VSOJQZGT12AC4684FE4
p1489
aVSOZXSEC12A67020AB5
p1490
aa(lp1491
VSOSDVQI12A8C13CD81
p1492
aVSONABSS12A8C131DB3
p1493
aa(lp1494
VSOUDZHL12A81C237F9
p1495
aVSOCTJNC12AB0181A12
p1496
aVSONQYNT12A6D4F9DC0
p1497
aVSOJXELP12A6D4F75CF
p1498
aa(lp1499
VSOKKANC12A8C13E5DD
p1500
aVSONMDEB12AAA8C7659
p1501
aVSOBJSLW12A6D4F9158
p1502
aVSOYKHRH12AAF3B5091
p1503
aa(lp1504
VSOCUSEN12A81C20BB7
p1505
aVSODZVEJ12B35049000
p1506
aa(lp1507
VSORDYVO12A8C141A40
p1508
aVSOYHXSV12D021B0A95
p1509
aa(lp1510
VSOTPAXV12A8C139939
p1511
aVSOAKRNF12A58A793E7
p1512
aa(lp1513
VSOMIXHK12AB0188742
p1514
aVSOHTGZY12AB01820F3
p1515
aa(lp1516
VSOHKZSM12A8C13E5D5
p1517
aVSOPTAQJ12A6D4FA8BC
p1518
aVSOCWBPM12AB0189349
p1519
aa(lp1520
VSOKRYRC12A8C14343D
p1521
aVSOHOFIR12AB0182927
p1522
aa(lp1523
VSONWKJV12A81356263
p1524
aVSONMHGS12A8C1450CF
p1525
aa(lp1526
VSOWAFYF12A58A7D308
p1527
aVSOLUPMJ12AB01813F9
p1528
aa(lp1529
VSOURUJK12A8C13A1F9
p1530
aVSOJCGCT12A67AD9E9D
p1531
aa(lp1532
VSOYKZEB12A8C132273
p1533
aVSOZZBDO12B0B80C5BA
p1534
aVSOFSGLT12AB018007B
p1535
aVSOTENJV12CF5F87F08
p1536
aVSOLFYMR12A8C1412E8
p1537
aa(lp1538
VSONCBGG12AB0183F8E
p1539
aVSONTVVW12A8C13094F
p1540
aa(lp1541
VSOQBLNO12A6701F0BB
p1542
aVSOSOKWQ12A6D4F8D2E
p1543
aa(lp1544
VSOUXAEY12A58A79EB5
p1545
aVSOAUBBN12A6D4F85C2
p1546
aVSOKZNMQ12A679D8B01
p1547
aVSOSOKWQ12A6D4F8D2E
p1548
aa(lp1549
VSOKYYQU12A8AE46E26
p1550
aVSOIPTJV12A6D4FE977
p1551
aVSORSOAF12AB018362E
p1552
aa(lp1553
VSOWVYKE12A8C1351FB
p1554
aVSOTCLPA127CF890425
p1555
aVSONZRDF12AB0190240
p1556
aVSOAYUUX12AB018A323
p1557
aVSOQFEDT12A6D4F80F7
p1558
aVSOUYNOK12A8C13CD39
p1559
aa(lp1560
VSOAIKCL12AB018A2A6
p1561
aVSOLHZQD12CF5CFC3A5
p1562
aVSOCIMVO12A6D4F8AB6
p1563
aa(lp1564
VSOKGERN12A6D4F8195
p1565
aVSOEQCAO12AC3DF4D07
p1566
aVSOGEMRX12AB01846A5
p1567
aVSOKIXSY12A58A7BEEA
p1568
aa(lp1569
VSOUDDMN12D02191AFE
p1570
aVSORPUEC12AF72A17A6
p1571
aa(lp1572
VSOHGZVP12A8C137DBE
p1573
aVSOFIMUW12A6D4FCE6A
p1574
aa(lp1575
VSOGQYHK12AB017EFCB
p1576
aVSOVVEUD12A58A7A859
p1577
aa(lp1578
VSOBNLES12A679C8053
p1579
aVSOBJSLW12A6D4F9158
p1580
aa(lp1581
VSOFAUQC12A8C130F41
p1582
aVSOQUYFX12A6D4F7382
p1583
aa(lp1584
VSOBCNUQ12CF5CFD5B6
p1585
aVSORDKQF12A8C13D407
p1586
aa(lp1587
VSOADQHJ12AF729D75C
p1588
aVSONOYTE12A6D4F8697
p1589
aVSOUNRHI12A6D4F8CA4
p1590
aa(lp1591
VSOLUUNH12A8C1311FF
p1592
aVSONDVSD12A8C13F7F9
p1593
aVSOEVJQB12AB018A6CD
p1594
aa(lp1595
VSONZSEA12AF72A0F28
p1596
aVSOZZBDO12B0B80C5BA
p1597
aa(lp1598
VSOCXBJW12AB017F9B1
p1599
aVSOPEUDN12AB01805EC
p1600
aa(lp1601
VSOSZPUK12A6701CD77
p1602
aVSOZCARM12A8C132331
p1603
aa(lp1604
VSOILKTU12A8C13483D
p1605
aVSOMEHEM12A58A7B86D
p1606
aa(lp1607
VSOIZMZT12AB01806FA
p1608
aVSOMLKZO12AB017F4AE
p1609
aVSOLRPJX12A58A79808
p1610
aVSOCXEKQ12AAF3B5490
p1611
aa(lp1612
VSONCELS12A58A7D2A7
p1613
aVSOQBLNO12A6701F0BB
p1614
aa(lp1615
VSOOCKPO12A67021D10
p1616
aVSOZXKZH12A8C13CD25
p1617
aa(lp1618
VSOZBYZS12A6D4F96F4
p1619
aVSOXZNHV12AF72A62EB
p1620
aVSOPSBWY12A8C142BFC
p1621
aVSOQXDUU12A6310E836
p1622
aVSOFXBUV12AB0187A06
p1623
aVSORSQMM12AB01874EA
p1624
aa(lp1625
VSOGYMNN12A8C13AA3E
p1626
aVSOMYGDY12A6310F1C3
p1627
aa(lp1628
VSOQLYNG12A6D4F5CF2
p1629
aVSOJBKRF12AB0189277
p1630
aVSORSVLR12AB017B6B1
p1631
aa(lp1632
VSONOYTE12A6D4F8697
p1633
aVSOLPSXH12A8C13AEED
p1634
aa(lp1635
VSOHNYQT12A8C13F284
p1636
aVSOBGJGO12A8C130948
p1637
aa(lp1638
VSOEQZKN12AF72ACFF7
p1639
aVSOWTCTI12A8C138C61
p1640
aVSORESCE12A8C13E2F3
p1641
aa(lp1642
VSOVUXGN12A8C137F36
p1643
aVSOVRXSG12A58A7E66D
p1644
aVSOUMXMD12A6D4F80CD
p1645
aa(lp1646
VSOLDOCV12A813557C0
p1647
aVSOXNFZV12A6D4F957C
p1648
aa(lp1649
VSOSZPUK12A6701CD77
p1650
aVSOEFCXI12A8C13D670
p1651
aa(lp1652
VSOBGJTA12A6D4F8A06
p1653
aVSOOHPYN12A67020C87
p1654
aa(lp1655
VSONPNLK12AB017F078
p1656
aVSOAVXOY12A6D4F666E
p1657
aVSORRKAC12A6701D0E1
p1658
aa(lp1659
VSOBQKRH12A6D4F8402
p1660
aVSOTYQXC12A6D4F8CB5
p1661
aVSOXMCWP12A8C133A7C
p1662
aa(lp1663
VSOMDJRE12AF72A7325
p1664
aVSOVXUBX12A58A782FD
p1665
aa(lp1666
VSOWTGSN12A6D4F8BB1
p1667
aVSOGFHBN12AB01819D5
p1668
aa(lp1669
VSOGIXWL12A58A76C5A
p1670
aVSOHNYQT12A8C13F284
p1671
aa(lp1672
VSOGBYUP12A8C1390B1
p1673
aVSOJBKRF12AB0189277
p1674
aVSOSHYJW12AB01827C0
p1675
aa(lp1676
VSOINZQQ12A58A78918
p1677
aVSORUBPK12AB0187B8C
p1678
aa(lp1679
VSOHJQNJ12A8C14176D
p1680
aVSOGHARS12D021B33AC
p1681
aa(lp1682
VSOHNGYM12AB0186148
p1683
aVSOMNWYK12D021930A1
p1684
aVSOTEZFR12AB0185B8F
p1685
aVSOVRGFL12AC4687488
p1686
aa(lp1687
VSOLRISV12A8AE48DDC
p1688
aVSONHJUD12A6701E5D0
p1689
aa(lp1690
VSORSIJZ12A5891D6E8
p1691
aVSOFTAAQ12AB017EDA5
p1692
aa(lp1693
VSODLWYP12A6701E0AE
p1694
aVSOOCKPO12A67021D10
p1695
aVSOJCGCT12A67AD9E9D
p1696
aVSOAUBBN12A6D4F85C2
p1697
aa(lp1698
VSOINZFS12AB0184D0F
p1699
aVSOGWLYF12A58A7CC03
p1700
aa(lp1701
VSOVASMV12A8C13E9BC
p1702
aVSOSZPUK12A6701CD77
p1703
aVSOCPMIK12A6701E96D
p1704
aa(lp1705
VSONDVSD12A8C13F7F9
p1706
aVSOXRMXY12A6D4F89FB
p1707
aa(lp1708
VSOBKTKO12AB01857FD
p1709
aVSOUZYXR12A8C1411F9
p1710
aa(lp1711
VSOHFKZY12D021B2218
p1712
aVSOVWYXA12A6D4F8A10
p1713
aa(lp1714
VSOEZUKU12AB0180A40
p1715
aVSONZSEA12AF72A0F28
p1716
aa(lp1717
VSOUCTJG12A67ADE388
p1718
aVSORRVDD12A8C13E2ED
p1719
aa(lp1720
VSOBKTKO12AB01857FD
p1721
aVSOBOJBX12AB01860B3
p1722
aa(lp1723
VSOYCHZJ12AF72A119D
p1724
aVSOXHNRF12A6D4F82E6
p1725
aVSOHHWOA12A8C143063
p1726
aa(lp1727
VSOYKKQO12A58A7E11A
p1728
aVSOFKNVA12A6D4FA879
p1729
aVSOCPMIK12A6701E96D
p1730
aa(lp1731
VSOZXBRT12A58A7A0B1
p1732
aVSOCIVWE12AB018EA6E
p1733
aVSOTOSXS12A6D4F9970
p1734
aa(lp1735
VSOZOZQP12AB018A919
p1736
aVSODJQUS12A6701D1D3
p1737
aa(lp1738
VSOSUQYU12AB0184632
p1739
aVSODSNJG12A8C1335BD
p1740
aa(lp1741
VSONNYRJ12A8C1369B1
p1742
aVSOIVYWK12A6310DBE1
p1743
aa(lp1744
VSOMWUSF12A6D4F67C1
p1745
aVSOHNYQT12A8C13F284
p1746
aa(lp1747
VSOEXHUD12A6D4F72D5
p1748
aVSOYNMUI12AB0186BE0
p1749
aVSOVQZYD12A58A788F6
p1750
aa(lp1751
VSORRBWL12A8C13CE09
p1752
aVSOWOSOE12A58A7A171
p1753
aa(lp1754
VSOQMRLJ12AB01817D2
p1755
aVSODLWYP12A6701E0AE
p1756
aa(lp1757
VSORAJUT12A8C1337B1
p1758
aVSOOUMCQ12AB0186436
p1759
aVSOKYQKU12A6701F6AA
p1760
aa(lp1761
VSOYKZEB12A8C132273
p1762
aVSOKVESS12A81C20D36
p1763
aa(lp1764
VSOHMWZZ12AB017DD1B
p1765
aVSOZWXZK12A58A79A8E
p1766
aa(lp1767
VSOGVDVP12A8C134B22
p1768
aVSOZXSEC12A67020AB5
p1769
aa(lp1770
VSOUSTNJ12A6D4F9201
p1771
aVSOOPBXN12AB018E735
p1772
aVSOHOYDE12A6701D668
p1773
aVSOZYOQD12A67021B8C
p1774
aa(lp1775
VSORSVLR12AB017B6B1
p1776
aVSOBDAQH12A8C136C22
p1777
aa(lp1778
VSOCNGSS12A6D4F765D
p1779
aVSOGADGN12A6D4FA7D1
p1780
aVSONWMAT12AF72A963F
p1781
aa(lp1782
VSOVRISG12AF72A04C8
p1783
aVSORQXAF12A6D4F93CE
p1784
aa(lp1785
VSORGGRP12A8C13DBDD
p1786
aVSOHMMFV12A6D4F7598
p1787
aa(lp1788
VSODFFHG12A6D4F6744
p1789
aVSOESTZQ12A67021556
p1790
aa(lp1791
VSOBBKGF12A8C1311EE
p1792
aVSOOMEJL12D0219A295
p1793
aa(lp1794
VSOFQWHD12A58A7C5AC
p1795
aVSOKDUDO12AB018130A
p1796
aVSOQUIFE12AB01854ED
p1797
aa(lp1798
VSOJQZGT12AC4684FE4
p1799
aVSOUEXOI12A6D4FA123
p1800
aa(lp1801
VSORWJHX12AB01878BA
p1802
aVSOLIAQG12A8C134A41
p1803
aa(lp1804
VSOLRPJX12A58A79808
p1805
aVSORYFDI12AB0187D3D
p1806
aVSOILZZS12AB018A8E6
p1807
aa(lp1808
VSOWRWYA12AB018B286
p1809
aVSOPJVDP12A8C1377B7
p1810
aa(lp1811
VSOFEZMY12AB0185C21
p1812
aVSOLSXHI12A8C137F59
p1813
aa(lp1814
VSOWVSJR12A6701F4B7
p1815
aVSOGVSWM12AB01868CB
p1816
aa(lp1817
VSOQXOSS12AB0183A19
p1818
aVSODGLMM12A8C1430BC
p1819
aa(lp1820
VSOFHGHP12A6D4F6B13
p1821
aVSODZDMA12A6D4F75B6
p1822
aa(lp1823
VSOUAVJN12D021B1566
p1824
aVSOCUSEN12A81C20BB7
p1825
aa(lp1826
VSOKXYCE12A8C13228A
p1827
aVSOHGMUP12A6D4FA2C9
p1828
aa(lp1829
VSOVRHSO12A6701E35E
p1830
aVSOFWFAA12A6701E9E6
p1831
aa(lp1832
VSORSVLR12AB017B6B1
p1833
aVSOVYLFF12A6310DF96
p1834
aa(lp1835
VSONZSEA12AF72A0F28
p1836
aVSOLHMJV12A6D4F74C1
p1837
aa(lp1838
VSOMDFFA12AB018844A
p1839
aVSOWVSJR12A6701F4B7
p1840
aa(lp1841
VSOBJSLW12A6D4F9158
p1842
aVSOCPMIK12A6701E96D
p1843
aa(lp1844
VSOJRLAX12A6701E0A0
p1845
aVSONOYTE12A6D4F8697
p1846
aa(lp1847
VSOEEQLA12AB0183E31
p1848
aVSOUGJVR12AB017F07F
p1849
aa(lp1850
VSORZOXP12CF582754C
p1851
aVSOCFRWP12A6D4F8F7A
p1852
aa(lp1853
VSOEUKVP12D02193414
p1854
aVSOBJSLW12A6D4F9158
p1855
aVSORDYVO12A8C141A40
p1856
aa(lp1857
VSORXKDP12AB018606B
p1858
aVSONOYTE12A6D4F8697
p1859
aVSOUQDLL12A670202A0
p1860
aa(lp1861
VSOFLJES12AC4686AD8
p1862
aVSOHOSZY12A58A7ED8B
p1863
aa(lp1864
VSOKREGC12AB0183F34
p1865
aVSORSLHI12AB0186FDB
p1866
aVSOMSLFD12A6D4F921E
p1867
aVSOIJSID12AC907583C
p1868
aVSORUPMI12A8C136EE9
p1869
aVSOMDVHA12CF5F8818E
p1870
aVSOQRPTN12D02193324
p1871
aVSOVXMAA12AC468BDD1
p1872
aa(lp1873
VSOPYTXE12A8C134A11
p1874
aVSOXWDGC12A6D4F9C9E
p1875
aVSOVAQEG12A8C137437
p1876
aVSOIQOQS12A8C1363D9
p1877
aa(lp1878
VSOUZXYJ12A8C142C7E
p1879
aVSOHDPSU12A6D4FC8C0
p1880
aa(lp1881
VSORMCQU12A6701E3CD
p1882
aVSOOUPTT12A8AE46A82
p1883
aVSOGVWCC12A8C132F0A
p1884
aa(lp1885
VSOOJKGV12A6D4F7741
p1886
aVSOXBVCS12A6701C7FE
p1887
aVSOKVESS12A81C20D36
p1888
aa(lp1889
VSOMKOPC12AF72A8AE3
p1890
aVSOQBLLX12A582A2BE0
p1891
aVSOFFDIM12A67021CB4
p1892
aa(lp1893
VSOCPMIK12A6701E96D
p1894
aVSODWKEV12AC4689A02
p1895
aa(lp1896
VSOKWZXF12A6D4FBDF4
p1897
aVSOUGJVR12AB017F07F
p1898
aa(lp1899
VSOADCVC12A8C137BDD
p1900
aVSOZNLBZ12A6D4F639E
p1901
aa(lp1902
VSOTGCFS12A6701F3B1
p1903
aVSOYXSKZ12AB018B207
p1904
aVSOPQTLX12A8C13BF28
p1905
aa(lp1906
VSOJUOYC12AB017F6A7
p1907
aVSOKYWSI12A6701E979
p1908
aVSOBDGQD12A58A7C5DF
p1909
aVSOTDYBB12A8C135B8E
p1910
aa(lp1911
VSOTGUPV12CF5F88023
p1912
aVSOTVYTQ12A8C14461B
p1913
aVSOJQGWQ12A8C131D63
p1914
aa(lp1915
VSOCJWZY12A67021D18
p1916
aVSOJQZGT12AC4684FE4
p1917
aa(lp1918
VSOFPMBD12AB018B4EF
p1919
aVSOVVMOP12A8C1348D2
p1920
aa(lp1921
VSODXFAS12A58A7B24B
p1922
aVSOAHVQH12A8C139F18
p1923
aVSOQAYXP12A6701F7AC
p1924
aa(lp1925
VSOQZJMU12A6D4F9363
p1926
aVSOPDPKY12AB017D012
p1927
aa(lp1928
VSOMJZLT12A8C140186
p1929
aVSOEXHUD12A6D4F72D5
p1930
aVSOTENJV12CF5F87F08
p1931
aa(lp1932
VSOPFURM12A67020D2A
p1933
aVSOCPXLW12A8AE475AB
p1934
aa(lp1935
VSOJQZGT12AC4684FE4
p1936
aVSOHUYSI12AB018450C
p1937
aVSONOYTE12A6D4F8697
p1938
aVSOAVXOY12A6D4F666E
p1939
aVSOHXMNE12A6701D1F3
p1940
aa(lp1941
VSOAWDYR12AC90725D3
p1942
aVSOHQZTB12A58A7DAC8
p1943
aVSOCAXNF12A81356D4D
p1944
aa(lp1945
VSOCQFCF12A6D4F3F56
p1946
aVSOUZOBP12A58A7BC6D
p1947
aa(lp1948
VSOBAMNR12A6D4F9370
p1949
aVSOHNVID12A6D4F7ED7
p1950
aa(lp1951
VSOJIPRD12A58A7A451
p1952
aVSONSEKM12A58A7CCDE
p1953
aa(lp1954
VSOQMRLJ12AB01817D2
p1955
aVSOYGZKG12A8C13FC74
p1956
aVSORRVDD12A8C13E2ED
p1957
aa(lp1958
VSOCPMIK12A6701E96D
p1959
aVSORCQRX12AF72AC4CC
p1960
aa(lp1961
VSOGRCBF12A8C13233B
p1962
aVSOMJZLT12A8C140186
p1963
aVSOLOIRJ12A6D4F7F1E
p1964
aa(lp1965
VSOFLXEV12AB018A34A
p1966
aVSOQNOKS12A6D4F9825
p1967
aVSOCPMIK12A6701E96D
p1968
aa(lp1969
VSONGPHH12AB0180EA5
p1970
aVSOHXVOJ12A58A7CF0B
p1971
aa(lp1972
VSOBGXWY12A58A7E794
p1973
aVSODQBXH12A8C1375CD
p1974
aVSOYVZWV12D02191A79
p1975
aVSONSTMR12D021B40A3
p1976
aVSOMUKRE12A8C13CC44
p1977
aVSODFGUC12AB0184AF7
p1978
aVSOKDUDO12AB018130A
p1979
aa(lp1980
VSOJPVCB12A8C138914
p1981
aVSOIWEYE12D02191C75
p1982
aVSORLUWH12A8C135E7F
p1983
aVSOTFATQ12D021B3D6D
p1984
aVSOEJYBW12A8C134B17
p1985
aVSOLZVFP12D021907D6
p1986
aa(lp1987
VSOMJZLT12A8C140186
p1988
aVSOSBNUV12A58A7DB10
p1989
aa(lp1990
VSOSZPUK12A6701CD77
p1991
aVSOXCDZA12CF58273A7
p1992
aa(lp1993
VSODGCXS12A8C13C84B
p1994
aVSOBGJTA12A6D4F8A06
p1995
aa(lp1996
VSOCLKGS12A6D4F99C7
p1997
aVSOVSSYI12A6D4F8A08
p1998
aa(lp1999
VSOBAMCN12A8AE46D8C
p2000
aVSONNYRJ12A8C1369B1
p2001
aVSOEFCXI12A8C13D670
p2002
aa(lp2003
VSOHXMNE12A6701D1F3
p2004
aVSOYMEDQ12A67020E0C
p2005
aa(lp2006
VSOQFUUS12A8C136419
p2007
aVSOPUARH12AB0180E23
p2008
aa(lp2009
VSOZHORD12AF72A73CF
p2010
aVSOMHHKG12A8C133C3B
p2011
aa(lp2012
VSOBTRCD12A6701E976
p2013
aVSOEBNYF12D02198918
p2014
aa(lp2015
VSODQHYZ12AB0182BDD
p2016
aVSOVFYFW12A8C131F0D
p2017
aa(lp2018
VSOYMSZG12A8C133069
p2019
aVSONOYTE12A6D4F8697
p2020
aa(lp2021
VSOYSAYH12A81C21ACE
p2022
aVSOVVWRB12A8C1328F9
p2023
aa(lp2024
VSORQZLY12A58A7F8DC
p2025
aVSOMHHKG12A8C133C3B
p2026
aa(lp2027
VSOMONRQ12A8AE46DDF
p2028
aVSOOSQBY12A6D4F7476
p2029
aa(lp2030
VSOJTHXE12AF72A571B
p2031
aVSOLUYBX12A6310DBD5
p2032
aVSOKDRQU12A8C13C044
p2033
aa(lp2034
VSOIYUMO12A67AE0E1B
p2035
aVSOOCKPO12A67021D10
p2036
aa(lp2037
VSOPCPOL12CF5F87CCC
p2038
aVSOWTXBR12AB017CA8D
p2039
aVSOSNZTN12A8C12FCA6
p2040
aVSOLAIOO12A8C143872
p2041
aVSOOAAGD12AB017BCDA
p2042
aVSOPJQBF12A8C140194
p2043
aa(lp2044
VSOSSMZG12AB0186687
p2045
aVSOBDVUZ12A8C13B6DE
p2046
aa(lp2047
VSOGFDKM12AB0187725
p2048
aVSOZBIVL12A8C13DB46
p2049
aVSORTVKO12A8AE49784
p2050
aVSOMTTAS12AB017F099
p2051
aVSOIBMJD12AB017E8EE
p2052
aa(lp2053
VSOFVVOI12D02191E96
p2054
aVSOBAKOT12A67021B3D
p2055
aVSONYCOW12A8C137493
p2056
aa(lp2057
VSOKJGMF12A8C143863
p2058
aVSOURUJK12A8C13A1F9
p2059
aVSOSIUNB12A81C20D4D
p2060
aa(lp2061
VSOKVESS12A81C20D36
p2062
aVSOYIHIF12A8C132858
p2063
aVSOSIUNB12A81C20D4D
p2064
aa(lp2065
VSOUGHEV12A8C136A9A
p2066
aVSOEGGYG12CF5CFC537
p2067
aVSOJMJSG12A6D4F7A31
p2068
aa(lp2069
VSOVBVCM12A8C138CDC
p2070
aVSOMDKBT12A8C134151
p2071
aVSOBAKOT12A67021B3D
p2072
aVSOPHOAT12CF5CFD5DF
p2073
aVSOBXDQP12A58A78C47
p2074
aVSOFOAIA12A8C136186
p2075
aa(lp2076
VSOALDUQ12AF72A6B32
p2077
aVSOSCBAY12A6D4F8432
p2078
aa(lp2079
VSOEAVRY12A6D4F71A6
p2080
aVSOGSMFF12A8C13F5F9
p2081
aa(lp2082
VSOOURJG12A8C13A9F3
p2083
aVSOEYBCI12AB01820BF
p2084
aVSOLKNOZ12A6D4FC4DC
p2085
aVSOFRJKQ12AF72A2140
p2086
aVSOZJPYS12A8AE47582
p2087
aa(lp2088
VSONMKGV12A8C1319AD
p2089
aVSOYNBNG12A6D4F8A7F
p2090
aa(lp2091
VSONNUST12A6701D6C3
p2092
aVSOTVTNR12AB017AC94
p2093
aa(lp2094
VSOVOVSC12A6701C5A0
p2095
aVSOFLPPL12A6701F759
p2096
aVSOBYHPO12A8C13F056
p2097
aa(lp2098
VSODLZDX12A8C13F002
p2099
aVSOHGZVP12A8C137DBE
p2100
aa(lp2101
VSOHEFMX12A6D4F8BB3
p2102
aVSOGIXWL12A58A76C5A
p2103
aa(lp2104
VSOMKOPC12AF72A8AE3
p2105
aVSOLCUCJ12AB01815D6
p2106
aa(lp2107
VSOSGLEZ12A8C13A758
p2108
aVSOSLHGV12A8C13D6F3
p2109
aVSOLFGYE12A58A781EF
p2110
aa(lp2111
VSOXXPHY12AF72A02E1
p2112
aVSOGVWCC12A8C132F0A
p2113
aa(lp2114
VSOLDRPQ12A8C1390F8
p2115
aVSOWPUXT12A8C13C6B9
p2116
aa(lp2117
VSOQDAAL12A8159E871
p2118
aVSOWHSHA12D0219A1C9
p2119
aa(lp2120
VSOEVEME12A58A7DA69
p2121
aVSOUHPXO12A6D4F6DFB
p2122
aa(lp2123
VSOHMGWJ12A6D4FB114
p2124
aVSOZEVSX12AC3DFA012
p2125
aVSONCELS12A58A7D2A7
p2126
aa(lp2127
VSOXBVCS12A6701C7FE
p2128
aVSOARTSG12AB017FB86
p2129
aVSOSLWPW12A81C22513
p2130
aVSOLLGWL12A81C20B82
p2131
aVSORSRWT12A58A7A973
p2132
aa(lp2133
VSOOSJTL12AB0183582
p2134
aVSOYLUOK12AF72AA67F
p2135
aa(lp2136
VSOIBTIP12A6D4F5E91
p2137
aVSONWVZM12A8C13D2CA
p2138
aa(lp2139
VSOZHORD12AF72A73CF
p2140
aVSOHNYQT12A8C13F284
p2141
aa(lp2142
VSONRMRN12D02192FBC
p2143
aVSOXYJJQ12B0B807ABD
p2144
aa(lp2145
VSOWMGUY12AB018569E
p2146
aVSOYVQCF12AB0180F37
p2147
aVSOHGZVP12A8C137DBE
p2148
aa(lp2149
VSOCVQMC12A6D4F801E
p2150
aVSOHCLNC12A8C144262
p2151
aVSOVCDIB12A8C141C38
p2152
aVSOPDBQE12A6D4F7DC8
p2153
aa(lp2154
VSOESVVP12CF5F8799A
p2155
aVSOPUDMO12AB0189C32
p2156
aVSOAHCIJ12A8C13965E
p2157
aa(lp2158
VSOSLAGT12A6D4F79E1
p2159
aVSOYNMUI12AB0186BE0
p2160
aa(lp2161
VSOCQPNK12A58A7841E
p2162
aVSOSFNHO12A8C135AF0
p2163
aVSOOCKPO12A67021D10
p2164
aVSOAHVQH12A8C139F18
p2165
aVSOHMWZZ12AB017DD1B
p2166
aVSOTZXYV12A8C143510
p2167
aVSOCCRVM12A6310E239
p2168
aa(lp2169
VSOCFINS12A6D4FB56B
p2170
aVSORXKDP12AB018606B
p2171
aa(lp2172
VSOEXHUD12A6D4F72D5
p2173
aVSOBAMNR12A6D4F9370
p2174
aa(lp2175
VSOWVSJR12A6701F4B7
p2176
aVSOBCSAM12A6D4F65E6
p2177
aa(lp2178
VSOEXHUD12A6D4F72D5
p2179
aVSOLDCXV12A58A78B9B
p2180
aa(lp2181
VSOGSZXZ12A6701F16F
p2182
aVSONHLTP12A8C139E7F
p2183
aa(lp2184
VSOTEOIP12A6D4F5CE7
p2185
aVSONMDEB12AAA8C7659
p2186
aa(lp2187
VSOEXHUD12A6D4F72D5
p2188
aVSORDYVO12A8C141A40
p2189
aVSOOMOYY12A8C1338B9
p2190
aa(lp2191
VSOVYRXD12CF5F89062
p2192
aVSOQBQQI12A6310E02F
p2193
aVSOKQBKL12A6D4FB416
p2194
aVSOHTEJN12A58A783FF
p2195
aa(lp2196
VSOCQWPP12AB01883EB
p2197
aVSOZKCCH12A81C20E3B
p2198
aVSOYOFST12D0219B4BA
p2199
aVSOQMBYN12AB017F3B7
p2200
aa(lp2201
VSOFHGYD12A8C13AB84
p2202
aVSOFSLOC12A8C13F8BD
p2203
aVSOUHYIF12A8C140296
p2204
aVSOGBNCS12A58A79B0C
p2205
aa(lp2206
VSODUMKR12AB0186A11
p2207
aVSOTALPC12A6D4F9392
p2208
aa(lp2209
VSOCINDT12AB01878A4
p2210
aVSOAITOL12A6D4FA792
p2211
aVSOCLJZY12A8C13F7A0
p2212
aa(lp2213
VSONTVVW12A8C13094F
p2214
aVSOYKZEB12A8C132273
p2215
aVSOXBVCS12A6701C7FE
p2216
aa(lp2217
VSOWWCAN12A67020F97
p2218
aVSOOUHUQ12AB01868B8
p2219
aa(lp2220
VSOHVKBJ12A58A7BB76
p2221
aVSONFAIU12AB0184A90
p2222
aa(lp2223
VSOWLLFO12AB01844FC
p2224
aVSOHFFLX12A8C134685
p2225
aa(lp2226
VSOLXNER12A8C134FB0
p2227
aVSOHUZUQ12A6D4F67CD
p2228
aa(lp2229
VSOBYGYM12A8C13AF67
p2230
aVSOFGHFG12A8C12FE3B
p2231
aa(lp2232
VSONTAIJ12CF5F8735F
p2233
aVSONZSEA12AF72A0F28
p2234
aa(lp2235
VSONBZRF12A67AD977D
p2236
aVSOVSPCM12A67ADE7A8
p2237
aa(lp2238
VSOLBCQU12A6D4FBDF6
p2239
aVSOMYGDY12A6310F1C3
p2240
aVSOLDRPQ12A8C1390F8
p2241
aa(lp2242
VSOLIAQG12A8C134A41
p2243
aVSOJQZGT12AC4684FE4
p2244
aa(lp2245
VSONCBGG12AB0183F8E
p2246
aVSOURUJK12A8C13A1F9
p2247
aVSOVOVSC12A6701C5A0
p2248
aVSOYIHIF12A8C132858
p2249
aa(lp2250
VSOCTEOO12A8C13B873
p2251
aVSOXDZVV12A6D4F82FA
p2252
aa(lp2253
VSOESUIS12A8C13AB7C
p2254
aVSOFOPFT12A8C131D05
p2255
aa(lp2256
VSOEVEME12A58A7DA69
p2257
aVSOVVWRB12A8C1328F9
p2258
aVSOTENJV12CF5F87F08
p2259
aa(lp2260
VSOWMHWB12A8C1353CD
p2261
aVSOQAHII12A6D4F97C8
p2262
aVSOHHWOA12A8C143063
p2263
aa(lp2264
VSOQFUUS12A8C136419
p2265
aVSOPUARH12AB0180E23
p2266
aa(lp2267
VSOLXAXN12AB0187E0E
p2268
aVSOWMHWB12A8C1353CD
p2269
aVSOCCQPG12A6D4F65AE
p2270
aa(lp2271
VSONRCPS12AF72A02E6
p2272
aVSOXOTOL12AB01894D0
p2273
aa(lp2274
VSOSORMF12AAF3B4D75
p2275
aVSOFKTUX12A6D4F9956
p2276
aa(lp2277
VSONAGVH12A6701DE0B
p2278
aVSOMEMEH12A8C140160
p2279
aVSOGOSYS12AB018832A
p2280
aa(lp2281
VSOADQHJ12AF729D75C
p2282
aVSOUGJVR12AB017F07F
p2283
aVSOCAESF12A6D4F9C13
p2284
aa(lp2285
VSOMPCHB12A8C13475B
p2286
aVSOEVMJC12A6D4FAED1
p2287
aVSOVRDIM12A8C140461
p2288
aVSOXDURW12AC4686547
p2289
aa(lp2290
VSOQFUUS12A8C136419
p2291
aVSOJTHXE12AF72A571B
p2292
aa(lp2293
VSOJQVFF12A8C137737
p2294
aVSOQKSGV12AC468DAC4
p2295
aVSOYUCZF12AF729C6CE
p2296
aa(lp2297
VSOTLYHP12A81C237F1
p2298
aVSOONGKW12A8C133482
p2299
aVSOBJDLY12A8C13B2A6
p2300
aaa(lp2301
g1190
ag1193
ag1246
a(lp2302
VSOGBYUP12A8C1390B1
p2303
aVSOIWEYE12D02191C75
p2304
aa(lp2305
VSOIQRRV12A8C13C6C3
p2306
aVSOJJUFV12AB01834D1
p2307
aVSOQFQKY12A8C137DA4
p2308
aag1723
ag1727
ag1666
ag1553
ag1560
ag1564
ag1757
ag3
ag6
ag11
ag1357
ag1360
ag1951
ag1155
ag1160
ag1168
ag1240
ag1243
a(lp2309
VSODKUIR12AC3A4DF13
p2310
aVSOUVYVC12D0219A019
p2311
aa(lp2312
VSOGOSPA12A6D4F48E2
p2313
aVSOLBIXQ12AB0185A44
p2314
aag1893
ag228
ag1327
ag2297
ag446
a(lp2315
VSOEUUMS12A58A76B3B
p2316
aVSOMDJRE12AF72A7325
p2317
aa(lp2318
VSOLFEMS12A8C140C66
p2319
aVSODWVPR12A8C1343A2
p2320
aVSONCELS12A58A7D2A7
p2321
aVSORDYVO12A8C141A40
p2322
aa(lp2323
VSOIQFGB12AF729E568
p2324
aVSOQOVHB12A8C139769
p2325
aa(lp2326
VSOFOAIA12A8C136186
p2327
aVSOKLBJA12A58A7C877
p2328
aa(lp2329
VSOWTGSN12A6D4F8BB1
p2330
aVSOSFNHO12A8C135AF0
p2331
aVSOGSZXZ12A6701F16F
p2332
aVSOHMWZZ12AB017DD1B
p2333
aag482
a(lp2334
VSOHNYQT12A8C13F284
p2335
aVSOEXITZ12A8C144E3A
p2336
aa(lp2337
VSOEZXCS12A8C13F6BD
p2338
aVSOMJZLT12A8C140186
p2339
aag1881
a(lp2340
VSOANRDO12A81C21E36
p2341
aVSOCNGSS12A6D4F765D
p2342
aVSOSFNHO12A8C135AF0
p2343
aa(lp2344
VSORZOXP12CF582754C
p2345
aVSOMFIHM12AAFF43625
p2346
aa(lp2347
VSODQCQD12A8151ABFC
p2348
aVSOZPUIW12A8AE46A43
p2349
aag698
ag701
a(lp2350
VSONSNPL12A8C1300FF
p2351
aVSOWOSOE12A58A7A171
p2352
aag1861
ag1864
ag1873
ag1878
ag353
ag913
ag916
ag831
ag834
ag907
ag910
a(lp2353
VSOCTKYL12AB01896E4
p2354
aVSOAHVQH12A8C139F18
p2355
aa(lp2356
VSOZLGZO12D0219A6E5
p2357
aVSONKOFE12AB0187002
p2358
aag2003
ag2006
ag508
ag511
ag1841
a(lp2359
VSONTVVW12A8C13094F
p2360
aVSOPFURM12A67020D2A
p2361
aVSOYKZEB12A8C132273
p2362
aa(lp2363
VSOXCDZA12CF58273A7
p2364
aVSOAUBBN12A6D4F85C2
p2365
aVSOFVOZI12A8C13DE42
p2366
aag1228
ag1231
ag1601
ag2098
ag2101
ag437
ag440
ag2274
ag630
ag634
ag637
ag2061
ag1043
ag945
ag948
ag951
ag1857
ag664
ag919
ag923
ag927
ag885
ag1249
ag1253
ag1257
a(lp2367
VSOYPGJZ12A8AE480B1
p2368
aVSOCWMNR12A58A7E4F3
p2369
aa(lp2370
VSOQMRLJ12AB01817D2
p2371
aVSOBXDQP12A58A78C47
p2372
aa(lp2373
VSOMJZLT12A8C140186
p2374
aVSONEQBH12A6D4F8A06
p2375
aVSOVDVZP12AB01828F7
p2376
aa(lp2377
VSOERFWA12A6D4F4183
p2378
aVSOONUXP12A6D4F8160
p2379
aa(lp2380
VSOOUHUQ12AB01868B8
p2381
aVSOHODZX12A6701F067
p2382
aa(lp2383
VSOWTWTH12A8C13E2CD
p2384
aVSOWARIL12A8C133CA0
p2385
aVSOGVSWM12AB01868CB
p2386
aag627
ag396
ag1397
ag1679
ag1682
ag1687
ag1669
ag383
a(lp2387
VSONCBGG12AB0183F8E
p2388
aVSOKBBXO12A6701DEA0
p2389
aag19
ag2018
ag2021
ag1089
ag1092
ag102
ag105
ag108
ag1431
ag1391
ag1394
ag149
ag152
ag347
ag350
ag1110
ag1114
ag1117
ag1121
ag1053
ag1447
ag1450
ag1453
ag271
ag274
a(lp2390
VSOGIXWL12A58A76C5A
p2391
aVSOONKAK12A8C140357
p2392
aa(lp2393
VSOPUSKW12AC468DBB1
p2394
aVSOCPMIK12A6701E96D
p2395
aVSOKMPJK12A8C13E07E
p2396
aVSOSZPUK12A6701CD77
p2397
aag1575
ag1578
ag1581
ag1584
a(lp2398
VSOPSMKR12AF72A841C
p2399
aVSOKPQMI12A81C210C6
p2400
aa(lp2401
VSOUGJVR12AB017F07F
p2402
aVSORDYVO12A8C141A40
p2403
aag1425
ag1004
ag1476
ag1479
ag1125
ag1128
ag1131
ag1137
ag386
ag390
a(lp2404
VSOOCKPO12A67021D10
p2405
aVSOLUNRF12A58A76E20
p2406
aa(lp2407
VSOMDJRE12AF72A7325
p2408
aVSOBEVGX12A6D4F4599
p2409
aa(lp2410
VSOKNUPD12AC9097CD4
p2411
aVSONVTNI12AB0183390
p2412
aag216
ag219
ag222
ag225
ag1078
ag1081
ag1086
a(lp2413
VSOTEHWI12A6D4F8EAB
p2414
aVSOISDBH12A6D4F8EAD
p2415
aa(lp2416
VSOVXODO12A6D4F95E4
p2417
aVSODYGWP12A679D8AC5
p2418
aag1067
ag1071
ag1075
ag686
ag640
ag643
ag648
ag1850
ag1853
ag1569
a(lp2419
VSOOSQBY12A6D4F7476
p2420
aVSOPQCVK12A8C138D2E
p2421
aVSOBISZU12A6701EB16
p2422
aVSOZSWRJ12A6D4FC3AB
p2423
aag761
a(lp2424
VSOFWMPP12D02193ABD
p2425
aVSOMNULF12A8C135F65
p2426
aVSOVWBYM12A6D4F8A22
p2427
aVSOIAEJI12AF72A1A3A
p2428
aVSOPFHBE12A8C130C53
p2429
aVSOVLKDH12A8C13B128
p2430
aVSOFQJCV12D0219BFB3
p2431
aVSOYKMWL12A8C13D4D3
p2432
aa(lp2433
VSOOUPTT12A8AE46A82
p2434
aVSOMDJRE12AF72A7325
p2435
aVSOJKMVE12A8C13CA8F
p2436
aVSOVDEBT12A6701F7A5
p2437
aVSOMYDUA12AB018B510
p2438
aVSOJTJWC12A8C13BB5C
p2439
aVSODTRKW12A6D4F9A51
p2440
aVSOEVGQZ12A6D4FC5B2
p2441
aa(lp2442
VSOQKIRP12A8C142D05
p2443
aVSOFLGMJ12AB01885F6
p2444
aag45
ag48
ag326
ag329
ag971
ag974
a(lp2445
VSOEYUJN12A6701D97A
p2446
aVSOAQKDM12A67020E0D
p2447
aa(lp2448
VSOSFNHO12A8C135AF0
p2449
aVSOWHSBZ12A6D4FA110
p2450
aVSONSJQD12AB017F65E
p2451
aVSOONMPH12A6D4F680B
p2452
aa(lp2453
VSOJQZGT12AC4684FE4
p2454
aVSOSTUKE12A6D4F966B
p2455
aVSOYCHXH12A6D4F46AA
p2456
aVSOAQKDM12A67020E0D
p2457
aa(lp2458
VSOATTFV12A8C134103
p2459
aVSORZOXP12CF582754C
p2460
aag1311
ag1315
ag1318
a(lp2461
VSOEXXAJ12A8C13AD79
p2462
aVSOXGWCM12A8C13BBBF
p2463
aa(lp2464
VSOPKLGA12AB0188235
p2465
aVSOIVNMX12D02191EE5
p2466
aag434
ag1835
ag1838
a(lp2467
VSOTIYNM12AB017EC36
p2468
aVSOJGZDC12A8C13625F
p2469
aag1207
a(lp2470
VSOSHYJW12AB01827C0
p2471
aVSOEUKVP12D02193414
p2472
aag1885
ag1889
ag443
ag247
ag250
ag652
ag810
ag815
ag818
a(lp2473
VSOSVHCK12A8C13F8B8
p2474
aVSOEXHUD12A6D4F72D5
p2475
aag1945
ag260
ag263
ag268
a(lp2476
VSONPNLK12AB017F078
p2477
aVSOEEQYI12A8C133E56
p2478
aVSOSICNK12AB01876BB
p2479
aa(lp2480
VSOJMQRQ12AB01848A5
p2481
aVSOQSFDE12A8C13C54D
p2482
aa(lp2483
VSOKAJRX12A58A7C01D
p2484
aVSOKABWZ12A58A79A73
p2485
aVSOOAARF12AB01806CE
p2486
aVSOCTHCT12AB017F38E
p2487
aag1339
ag1302
ag1305
ag393
ag1690
ag1402
ag1405
ag555
ag559
ag563
ag2260
ag1693
ag1698
ag1523
ag1526
ag1529
ag1652
ag1655
ag1659
a(lp2488
VSOQBLTZ12AAFF43937
p2489
aVSODXFAS12A58A7B24B
p2490
aVSOCLBXM12A6701D225
p2491
aag1177
ag1180
ag548
ag931
ag315
ag320
ag323
ag2175
ag2178
ag1408
ag1415
ag1419
a(lp2492
VSOYKZEB12A8C132273
p2493
aVSOPQRLE12AB018BC01
p2494
aVSOXYJJQ12B0B807ABD
p2495
aVSOYYYYD12AB0186471
p2496
aa(lp2497
VSOLCUCJ12AB01815D6
p2498
aVSOXMCWP12A8C133A7C
p2499
aag1458
ag1463
ag2154
ag2158
a(lp2500
VSOREFCV12A8C14047F
p2501
aVSOGGCPY12AB0181E29
p2502
aag1037
ag1040
a(lp2503
VSOTYGYR12A8C13DC8B
p2504
aVSONZSEA12AF72A0F28
p2505
aag22
ag997
ag234
ag237
ag678
ag682
ag63
ag68
ag695
ag405
ag409
ag551
ag1741
a(lp2506
VSOXOUMN12AF72A01F5
p2507
aVSOPZWLT12AB0183922
p2508
aVSOJTGQJ12A8AE48D4A
p2509
aVSOTMZHD12A67ADAF31
p2510
aa(lp2511
VSOBUAKZ12A6701CB70
p2512
aVSOPYTWV12A6D4F69C0
p2513
aa(lp2514
VSORSVLR12AB017B6B1
p2515
aVSOLHMJV12A6D4F74C1
p2516
aag1544
ag1549
ag766
ag769
ag164
ag167
ag2104
ag2142
ag505
ag380
ag15
ag472
ag478
ag668
ag671
ag674
ag1152
a(lp2517
VSOKQSAG12AF72A8A60
p2518
aVSOAKFOL12D02191F37
p2519
aag1217
ag1220
ag603
ag606
ag610
ag1146
ag1149
ag870
ag873
ag878
ag1296
ag1299
ag529
ag533
ag583
ag1782
ag1785
ag1701
ag1705
ag1804
ag1422
ag1711
a(lp2520
VSODVEIW12A8C13A4EC
p2521
aVSODVJMQ12A8C13A189
p2522
aag519
ag523
ag1140
ag1143
ag253
ag689
ag1932
ag1935
ag1941
ag1717
ag1720
a(lp2523
VSOHTHBB12AB018E6A8
p2524
aVSOGBYUP12A8C1390B1
p2525
aVSOZZBDO12B0B80C5BA
p2526
aa(lp2527
VSOZCMJY12D0219A3B4
p2528
aVSOZGCGH12AF729FEBD
p2529
aVSOUAJRF12A8C133B0A
p2530
aVSOOPAAW12A6D4F918E
p2531
aVSOWRFDF12A6D4F6F6D
p2532
aa(lp2533
VSOUANJU12A8C14278B
p2534
aVSOUQLDR12A6D4F7EFC
p2535
aa(lp2536
VSOODAIS12AB017C66B
p2537
aVSOFDJTD12A8C13548F
p2538
aa(lp2539
VSOGZYUA12A6D4F7882
p2540
aVSOCWIEW12A6D4FB515
p2541
aVSOLRETK12A679D8B00
p2542
aa(lp2543
VSORGDAW12A8C1357CE
p2544
aVSODTWQE12A6D4FAFA4
p2545
aa(lp2546
VSOJJBNR12A58A79BCB
p2547
aVSOMOKLF12C106D1940
p2548
aag845
ag848
ag851
ag781
ag787
ag791
ag1676
ag1635
a(lp2549
VSOSZPUK12A6701CD77
p2550
aVSOSBNUV12A58A7DB10
p2551
aag1708
ag2191
ag2196
ag2079
ag2082
ag2088
ag2091
ag1638
ag1642
ag1646
ag2145
ag2149
a(lp2552
VSOFHGHP12A6D4F6B13
p2553
aVSODJQUS12A6701D1D3
p2554
aag468
ag81
ag84
ag87
ag90
ag1972
ag1980
ag96
ag99
ag733
ag737
ag741
ag746
a(lp2555
VSORZEEA12A6D4FA109
p2556
aVSOXFEZW12A8C134FE1
p2557
aa(lp2558
VSOTGKQE12AB018B4CC
p2559
aVSOEJDFP12A8BEEEEA1
p2560
aa(lp2561
VSOIKTWI12AB017DB72
p2562
aVSOUZNZR12A8C136012
p2563
aag2107
ag2111
ag2114
ag2117
ag2120
ag2123
ag2127
ag1350
a(lp2564
VSOLSOPR12A6D4F5418
p2565
aVSOHXGOL12A8C13808C
p2566
aVSOCYMNQ12A8159E971
p2567
aVSORUQPU12AF729D964
p2568
aag2256
a(lp2569
VSOEMLTL12A8C13BC89
p2570
aVSOMXVNU12A58A79D14
p2571
aVSOXYWOW12AB018AFAF
p2572
aVSODUMKR12AB0186A11
p2573
aag2009
ag2012
ag2015
ag1376
ag1379
ag1382
ag1385
ag338
ag343
ag502
ag360
ag367
ag772
ag776
a(lp2574
VSORRVDD12A8C13E2ED
p2575
aVSOTQOSW12A679D8AFD
p2576
aa(lp2577
VSOFZODE12A6D4F744F
p2578
aVSOGXMFL12A8C145C0E
p2579
aVSOGBYUP12A8C1390B1
p2580
aa(lp2581
VSORJPGW12A8C13A5FD
p2582
aVSODLDJT12AC468DCE3
p2583
aag755
ag749
ag456
ag460
ag1485
ag1488
ag1491
ag195
ag200
ag203
ag207
ag210
ag213
ag1293
ag821
ag824
ag827
ag1999
a(lp2584
VSOICDVF12A8AE47C4F
p2585
aVSOCXRKN12AB018125F
p2586
aag692
ag1271
ag1275
a(lp2587
VSOBAKOT12A67021B3D
p2588
aVSOXPHTY12A8C144D90
p2589
aa(lp2590
VSONHLTP12A8C139E7F
p2591
aVSOUJRHB12A8C13BB04
p2592
aag1513
ag1516
ag1520
ag977
ag980
a(lp2593
VSOWYOCZ12A6D4FAB00
p2594
aVSONBELP12A8C13ACBD
p2595
aa(lp2596
VSOMDFFA12AB018844A
p2597
aVSONDVSD12A8C13F7F9
p2598
aag855
ag858
ag861
ag1031
ag1034
a(lp2599
VSOHCZJM12A6D4F680A
p2600
aVSOWTGSN12A6D4F8BB1
p2601
aVSOIMSKQ12A8C13D82E
p2602
aa(lp2603
VSOLXFBP12AB017EEFD
p2604
aVSOPDZDY12AB01866C0
p2605
aVSOIHEDR12AB01859AB
p2606
aa(lp2607
VSOKVESS12A81C20D36
p2608
aVSOMKOPC12AF72A8AE3
p2609
aag934
ag937
ag1204
ag1731
ag1735
ag1738
ag1017
ag1020
ag1024
ag2161
a(lp2610
VSOSBLRF12D021B3CF3
p2611
aVSODXURS12A58A7DB60
p2612
aVSOQMTML12A58A7A909
p2613
aa(lp2614
VSOKZIXL12AB0187E57
p2615
aVSOPPIFM12A8C1352CB
p2616
aa(lp2617
VSOSPWRB12A6701E8BA
p2618
aVSOQISXS12AF72A0C12
p2619
aa(lp2620
VSOHCFVA12AB017EFC5
p2621
aVSONTXKV12AB01885C0
p2622
aa(lp2623
VSOCCVNC12D02198F0F
p2624
aVSOWOOQO12A6701FDDD
p2625
aag2213
ag2217
ag2220
a(lp2626
VSOJMAXF12A8AE4766F
p2627
aVSOOJKGV12A6D4F7741
p2628
aVSOEFGTM12A8C134727
p2629
aa(lp2630
VSOSKJVW12AB0187708
p2631
aVSOECSSQ12A6701E0D3
p2632
aag1612
ag1615
ag114
ag117
ag120
a(lp2633
VSOAEPVF12A8C13722D
p2634
aVSOEOQUY12AB0187444
p2635
aa(lp2636
VSOIKTWI12AB017DB72
p2637
aVSOUGJVR12AB017F07F
p2638
aag1443
ag1321
ag1324
ag465
ag1000
ag1278
ag1281
ag93
ag2245
ag2094
a(lp2639
VSOPNOUQ12A8C13D3F4
p2640
aVSOLFYMR12A8C1412E8
p2641
aag31
ag34
ag37
ag1925
ag942
a(lp2642
VSOECEVV12A8C1371ED
p2643
aVSOIDRKR12A58A7A93F
p2644
aa(lp2645
VSOLSKJC12A8AE44E8E
p2646
aVSOQAJZE12A670208E1
p2647
aag1778
a(lp2648
VSOYUCZF12AF729C6CE
p2649
aVSOLRNLL12AB0181D52
p2650
aa(lp2651
VSOZKPKS12A8AE488A3
p2652
aVSOYSTSG12A58A7C837
p2653
aa(lp2654
VSOFRNVN12A58A78E07
p2655
aVSODHASR12A8C13F34E
p2656
aag2277
ag2281
ag2285
a(lp2657
VSOMIZAQ12AB018D8D8
p2658
aVSOPUARH12AB0180E23
p2659
aa(lp2660
VSOCVGHH12A6D4FBA07
p2661
aVSOTEHWI12A6D4F8EAB
p2662
aa(lp2663
VSOWZXGL12A6701F194
p2664
aVSOSZPUK12A6701CD77
p2665
aa(lp2666
VSOVOVSC12A6701C5A0
p2667
aVSOSBNUV12A58A7DB10
p2668
aVSOHJBRH12A6D4F9331
p2669
aa(lp2670
VSOHIZGC12A6D4F680C
p2671
aVSODOQKZ12A8C13FFBC
p2672
aVSOZTOIW12A81C221DD
p2673
aVSOFFOIF12A6310D90E
p2674
aVSOEFCXI12A8C13D670
p2675
aVSORXKDP12AB018606B
p2676
aa(lp2677
VSOBXDQP12A58A78C47
p2678
aVSONZSEA12AF72A0F28
p2679
aa(lp2680
VSOVVWRB12A8C1328F9
p2681
aVSOPSVIR12A8C138BB5
p2682
aa(lp2683
VSOPGLTT12A67020D4D
p2684
aVSOYSBPX12A6D4F79B3
p2685
aa(lp2686
VSOXMDUL12AB018CF9E
p2687
aVSOCFEEI12AB018B808
p2688
aVSORXWLB12AC468BBB0
p2689
aag1388
ag412
ag415
ag418
a(lp2690
VSOGSZXZ12A6701F16F
p2691
aVSOSLWPW12A81C22513
p2692
aa(lp2693
VSOAITMV12A81C223BF
p2694
aVSOARTSG12AB017FB86
p2695
aa(lp2696
VSOWNMQF12A8C139CB4
p2697
aVSOCTDLU12A8C14065C
p2698
aa(lp2699
VSOXOPLI12A6D4F93FD
p2700
aVSODGLMM12A8C1430BC
p2701
aa(lp2702
VSODGCXS12A8C13C84B
p2703
aVSOMWUSF12A6D4F67C1
p2704
aa(lp2705
VSONZSEA12AF72A0F28
p2706
aVSOVQZYD12A58A788F6
p2707
aVSOEPYKO12A8C133E38
p2708
aVSOAYVUP12D02199E41
p2709
aa(lp2710
VSORSVLR12AB017B6B1
p2711
aVSOHDADV12A8C13B8EB
p2712
aa(lp2713
VSOBTFWO12AB01875D5
p2714
aVSODMOVX12A58A7807A
p2715
aag179
ag182
ag539
ag542
ag545
a(lp2716
VSOBGJTA12A6D4F8A06
p2717
aVSORQIEA12A8C137B5B
p2718
aa(lp2719
VSOSZPUK12A6701CD77
p2720
aVSOEUVSM12A6D4F95ED
p2721
aVSOCPMIK12A6701E96D
p2722
aag1268
ag277
ag281
ag2024
ag2027
ag2030
a(lp2723
VSOVSDKP12A58A79A96
p2724
aVSOZTOIW12A81C221DD
p2725
aa(lp2726
VSONOYTE12A6D4F8697
p2727
aVSOJJLAW12A6701F458
p2728
aa(lp2729
VSOVDEBT12A6701F7A5
p2730
aVSOMDJRE12AF72A7325
p2731
aVSOXMDUL12AB018CF9E
p2732
aag794
ag797
ag800
ag803
ag1649
ag526
a(lp2733
VSOEUESM12AB01871A3
p2734
aVSOEBOWM12AB017F279
p2735
aa(lp2736
VSOBAKOT12A67021B3D
p2737
aVSOXTEQW12A6D4F9F18
p2738
aVSOVUJRJ12D0219A386
p2739
aVSOHEJZA12AB018AB99
p2740
aa(lp2741
VSOJYHZD12A6701CFBB
p2742
aVSOAPRAA12A6D4F7C5F
p2743
aVSOSSMZG12AB0186687
p2744
aa(lp2745
VSOUGBCP12A58A7B8F3
p2746
aVSOXRMXY12A6D4F89FB
p2747
aVSOGZHHW12AAF3B2A96
p2748
aag1948
ag1056
ag1061
a(lp2749
VSOVDOSY12A6D4F92DC
p2750
aVSOPGKRV12A6D4F7764
p2751
aa(lp2752
VSOFRKIW12AB017DC8B
p2753
aVSORLHNG12A8C13F776
p2754
aa(lp2755
VSORPTMB12A6D4F9901
p2756
aVSONGWNF12A67FFB330
p2757
aag593
ag598
ag1007
ag2181
ag1183
ag1186
a(lp2758
VSORUBPK12AB0187B8C
p2759
aVSOFAPRZ12AB018695C
p2760
aag332
ag1714
ag130
ag136
ag139
a(lp2761
VSOSBNUV12A58A7DB10
p2762
aVSOUGTOK12A58A7C139
p2763
aag613
ag620
ag624
ag143
ag146
ag1011
ag2226
a(lp2764
VSOFPMBD12AB018B4EF
p2765
aVSONTQPO12AB01889BE
p2766
aag1744
ag1747
ag1751
ag1754
a(lp2767
VSOOMEJL12D0219A295
p2768
aVSOFPKHH12A6701F837
p2769
aVSOBIWEH12D021B32A4
p2770
aVSOFXZPR12AB01858C2
p2771
aVSONTPXM12A8C13F5E2
p2772
aVSOTXHTN12A6D4F87DB
p2773
aVSOZSFWF12A6D4F93D5
p2774
aa(lp2775
VSOPQJKW12A58A7AB38
p2776
aVSOIGYME12AB0186C4D
p2777
aag1607
ag240
ag244
a(lp2778
VSOLXFBP12AB017EEFD
p2779
aVSOTQLED12A8AE45084
p2780
aag1367
ag1371
ag1899
ag1902
a(lp2781
VSOOXVDP12A8C13A769
p2782
aVSOPGLTT12A67020D4D
p2783
aVSOITDXJ12A8C13FFD1
p2784
aVSOJQZGT12AC4684FE4
p2785
aVSOPFURM12A67020D2A
p2786
aa(lp2787
VSOSOCUK12AB0180E18
p2788
aVSOJTHXE12AF72A571B
p2789
aag25
ag28
ag307
ag310
a(lp2790
VSOWHSHA12D0219A1C9
p2791
aVSOSVWLE12A8C13B71D
p2792
aa(lp2793
VSONTUCI12AB018A036
p2794
aVSOYVBWC12A8AE4851C
p2795
aag1014
ag1428
a(lp2796
VSOQMRLJ12AB01817D2
p2797
aVSOCPMIK12A6701E96D
p2798
aVSORCQRX12AF72AC4CC
p2799
aa(lp2800
VSOVOTED12A81C22529
p2801
aVSOMJZLT12A8C140186
p2802
aa(lp2803
VSOSBNUV12A58A7DB10
p2804
aVSONCELS12A58A7D2A7
p2805
aag2169
ag2172
ag1174
ag1234
ag1237
ag1224
ag1770
ag1775
a(lp2806
VSOIRIDR12A8151CE74
p2807
aVSOCIVWE12AB018EA6E
p2808
aag1844
ag1847
ag1284
ag1287
ag1290
ag1987
ag1990
a(lp2809
VSOVGRDT12A6D4F74F0
p2810
aVSONVUHM12A6D4F65D9
p2811
aag1494
ag1499
ag1504
ag1507
ag1969
ag1261
ag1265
ag892
ag897
ag901
ag752
ag287
ag292
ag296
ag1587
ag1591
ag1482
a(lp2812
VSORRBWL12A8C13CE09
p2813
aVSOPWHZF12A8C1395F7
p2814
aVSOKAFYS12A8C142C4F
p2815
aag2223
aa(lp2816
(lp2817
VSOEIYRR12A6701F2D6
p2818
aVSONWGAV12A8C1394E1
p2819
aa(lp2820
VSOGDFVB12A58A7D28D
p2821
aVSOIBTIP12A6D4F5E91
p2822
aag1906
ag1911
ag2758
ag689
ag794
ag797
ag800
ag803
ag2574
ag2577
ag2581
ag1190
ag1193
ag1672
a(lp2823
VSOXYJJQ12B0B807ABD
p2824
aVSODUYWC12AC4689E9E
p2825
aa(lp2826
VSOIVNMX12D02191EE5
p2827
aVSOGJSAB12AB01815CF
p2828
aag2065
ag2069
ag2076
ag1458
ag1463
ag1321
ag1324
ag942
ag96
ag99
ag2648
ag2651
ag2654
ag1618
ag1625
ag2107
ag2111
ag2114
ag2117
ag2120
ag2123
ag2127
ag102
ag105
ag108
ag260
ag263
ag268
ag315
ag320
ag323
ag752
ag955
ag958
ag963
ag967
ag2467
ag1690
a(lp2829
VSOBCMKG12A8C135E4B
p2830
aVSODZFXZ12AB018643E
p2831
aag781
ag787
ag791
ag52
ag55
ag2448
ag2453
ag2458
ag1861
ag1864
ag1873
ag1878
ag710
ag713
ag717
ag720
ag526
ag1782
ag1785
ag2442
ag2398
ag2401
ag1177
ag1180
a(lp2832
VSOGJWFL12A58A7A209
p2833
aVSOBGJTA12A6D4F8A06
p2834
aa(lp2835
VSOHERLD12A6D4FD6FF
p2836
aVSOHVYRP12AB018719D
p2837
aag1987
ag1990
a(lp2838
VSOWFOWZ12A8C13BBF9
p2839
aVSOLSXHI12A8C137F59
p2840
aag383
ag755
ag749
ag1612
ag1615
ag2309
ag2312
ag1007
ag179
ag182
a(lp2841
VSOCSRZE12A6D4F9DC9
p2842
aVSOULWKW12A42806250
p2843
aVSODKTNH12A6701E0D2
p2844
aag603
ag606
ag610
ag71
ag74
ag77
ag1425
ag1893
ag761
ag837
ag842
ag399
ag402
ag1428
ag2223
ag2663
ag2666
ag2670
ag1224
ag2229
ag2232
ag2235
ag2238
ag2009
ag2012
ag2015
ag1544
ag1549
ag1354
ag2549
ag1945
ag63
ag68
ag472
ag478
ag2473
ag2599
ag2603
ag2607
ag1881
ag519
ag523
ag1915
ag1918
ag1921
ag2057
ag1067
ag1071
ag1075
ag1595
ag1598
ag2596
ag1431
ag1046
ag1049
ag2506
a(lp2845
VSOYVMKT12A6D4F8F4B
p2846
aVSOHNVID12A6D4F7ED7
p2847
aag2445
ag2245
ag2761
ag2593
ag353
ag2226
a(lp2848
VSOVZQAD12A8C13398E
p2849
aVSOVYLFF12A6310DF96
p2850
aVSOCJWPI12A8C13D357
p2851
aag505
ag277
ag281
ag2764
ag919
ag923
ag927
ag1196
ag1199
ag1302
ag1305
ag907
ag910
ag1993
ag1996
ag2175
ag2178
ag2018
ag2021
ag2587
ag2590
ag93
ag1017
ag1020
ag1024
ag2523
ag2527
ag1635
ag1397
ag1011
ag2264
ag2267
ag2503
ag2353
ag2260
a(lp2852
VSOSDSAF127CF8DEAD9
p2853
aVSONHLTP12A8C139E7F
p2854
aVSOMBMGT12A8C136A39
p2855
aa(lp2856
VSONYVJF12A8C13F7D3
p2857
aVSOWGSWQ12AF72A659D
p2858
aa(lp2859
VSOBNLES12A679C8053
p2860
aVSOBJSLW12A6D4F9158
p2861
aag864
ag867
ag845
ag848
ag851
ag508
ag511
ag19
ag2404
ag2407
ag2410
ag2340
ag2344
ag2347
ag2201
ag2206
ag2209
ag2483
ag347
ag350
ag1701
ag1705
a(lp2862
VSOPVOPR12AB017F082
p2863
aVSOYVKTU12A8C13769B
p2864
aag692
ag1663
ag1140
ag1143
ag831
ag834
ag456
ag460
a(lp2865
VSORZEEA12A6D4FA109
p2866
aVSOEEXMX12A67021677
p2867
aag733
ag737
ag741
ag746
ag231
ag810
ag815
ag818
ag984
ag987
ag990
ag994
ag1037
ag1040
ag766
ag769
ag1125
ag1128
ag1131
ag1137
ag2290
ag2293
ag1666
ag1808
ag1811
ag446
ag2520
ag155
ag158
ag161
ag2790
ag2793
ag1948
ag686
ag1857
ag567
ag22
ag1466
ag1469
ag881
ag2812
ag1402
ag1405
ag2024
ag2027
ag2030
ag234
ag237
ag396
ag256
ag2136
ag2139
ag1761
ag1764
ag1767
ag371
ag376
ag2191
ag2196
ag870
ag873
ag878
ag934
ag937
ag997
ag977
ag980
ag1954
ag1958
ag1961
ag2377
ag1607
ag2723
ag2726
ag2729
a(lp2868
VSOLTAUK12A8AE4611F
p2869
aVSONRCPS12AF72A02E6
p2870
aa(lp2871
VSOBNQIO12A8C131F55
p2872
aVSOECKVE12A6D4F9305
p2873
aVSOFRKIW12AB017DC8B
p2874
aVSOLKVKN12AC468A54F
p2875
aVSOUVUUA12A58A77835
p2876
aag1652
ag1655
ag1659
ag1204
ag1388
ag2569
ag335
ag1014
ag1925
ag2079
ag2082
ag2088
ag2091
ag301
ag304
ag1422
ag386
ag390
ag2561
ag2733
ag2736
ag2741
ag143
ag146
ag502
ag31
ag34
ag37
ag1249
ag1253
ag1257
ag2380
ag2383
ag2145
ag2149
ag2461
ag2464
a(lp2877
VSOBEXYT12A6D4F9568
p2878
aVSODZQPF12A6D4F971A
p2879
aa(lp2880
VSOUMXMD12A6D4F80CD
p2881
aVSOOTYSC12AB0183830
p2882
aa(lp2883
VSOJJDDT12A8C136226
p2884
aVSOIHOLH12AB017EBE4
p2885
aVSOSIVHS12CF5826670
p2886
aag892
ag897
ag901
ag1367
ag1371
ag1723
ag1727
ag2610
ag2614
ag2617
ag2620
ag2623
ag2367
ag2370
ag2373
ag945
ag948
ag951
ag1171
ag1110
ag1114
ag1117
ag1121
ag1271
ag1275
ag2253
ag1932
ag1935
ag1941
ag1844
ag1847
ag889
ag1228
ag1231
ag1004
ag2533
ag2536
ag2539
ag1575
ag1578
ag1581
ag1584
ag536
ag2142
ag247
ag250
ag1669
ag2806
ag772
ag776
ag1778
ag2492
ag2497
ag1676
ag2413
ag2416
ag2480
a(lp2887
VSODCOSI12A8C13D778
p2888
aVSOFFUWC12A58A805EF
p2889
aag465
ag2242
ag1999
ag332
ag1679
ag1682
ag1687
ag240
ag244
ag1434
ag1437
ag482
ag1757
ag228
ag2169
ag2172
ag2161
ag2181
ag1770
ag1775
ag807
ag338
ag343
ag2250
ag640
ag643
ag648
a(lp2890
VSOFAOHH12AB0186C07
p2891
aVSOKIVON12A6701FBB5
p2892
aVSOBVEBE12A8C1434A9
p2893
aVSOXBEYM12AC4689A64
p2894
aVSOVRDIM12A8C140461
p2895
aVSODJWIH12A58A81BC8
p2896
aVSOLTVDG12A8C14454A
p2897
aVSOHWDOE12A58A79DD9
p2898
aVSOATDHT12AAF3B26D7
p2899
aag630
ag634
ag637
a(lp2900
VSOUPTDN12A6D4F9BCE
p2901
aVSOBJSLW12A6D4F9158
p2902
aVSOHNYQT12A8C13F284
p2903
aVSOWRWYA12AB018B286
p2904
aVSOKEEBC12A6701F656
p2905
aVSORIAUM12A6D4FC87C
p2906
aVSOWTGSN12A6D4F8BB1
p2907
aag1714
ag1408
ag1415
ag1419
ag1532
ag1538
ag1541
ag1896
ag1744
ag1747
ag1751
ag1754
ag2657
ag287
ag292
ag296
ag2778
ag931
ag25
ag28
ag1587
ag1591
ag1628
ag1632
ag1234
ag1237
ag1817
ag1820
ag1823
ag1391
ag1394
ag81
ag84
ag87
ag90
ag2690
ag2693
ag2696
ag2555
ag2558
ag126
ag1826
ag1829
ag1832
ag1268
ag913
ag916
ag1342
ag1346
ag586
ag590
ag2003
ag2006
ag1885
ag1889
ag2256
ag1972
ag1980
ag724
ag728
ag2796
ag271
ag274
ag1553
ag1560
ag1564
ag2564
a(lp2908
VSOOYOST12AF72A3BE1
p2909
aVSOVGRDT12A6D4F74F0
p2910
aa(lp2911
VSOXBFLZ12AB0180D6D
p2912
aVSONKRUM12A8C1357D6
p2913
aag2094
a(lp2914
VSOUJRHB12A8C13BB04
p2915
aVSOLRRBW12A8C13B5D5
p2916
aVSOBPDPQ12AF72A45D5
p2917
aa(lp2918
VSOMKAHP12A67020F99
p2919
aVSONCELS12A58A7D2A7
p2920
aag2184
ag2187
ag195
ag200
ag203
ag207
ag210
ag213
ag1350
ag1899
ag1902
ag1835
ag1838
ag2419
ag149
ag152
ag2154
ag2158
ag1043
ag2642
ag2645
ag2517
ag2660
ag1472
ag1183
ag1186
a(lp2921
VSOFBAZD12A6702184D
p2922
aVSODMOVX12A58A7807A
p2923
aa(lp2924
VSOYFWAI12A6D4F509C
p2925
aVSOBHBIF12A8C141BF9
p2926
aa(lp2927
VSOEUUMS12A58A76B3B
p2928
aVSOUJHQG12AF729BE1D
p2929
aag1711
ag485
ag40
ag1928
ag1101
ag1104
ag1107
ag652
ag393
ag2699
ag2702
ag2705
ag2710
ag2713
ag2476
ag2716
ag2719
ag437
ag440
ag2034
ag2037
ag2044
ag2047
ag2053
ag360
ag367
ag555
ag559
ag563
ag1523
ag1526
ag1529
ag114
ag117
ag120
ag1211
ag1214
ag695
ag1155
ag1160
ag1168
ag1841
ag2274
ag1284
ag1287
ag1290
ag1327
ag2277
ag2281
ag2285
ag2334
ag2337
a(lp2930
VSOMDJRE12AF72A7325
p2931
aVSOMZSHY12A8C1343B0
p2932
aag2626
ag2630
ag443
ag216
ag219
ag222
ag225
ag655
ag658
ag661
ag855
ag858
ag861
ag1717
ag1720
ag2543
ag2546
ag1293
ag1443
ag2390
ag2393
ag307
ag310
ag2297
ag2061
a(lp2933
VSOIKTWI12AB017DB72
p2934
aVSOAITOL12A6D4FA792
p2935
aVSOPESCU12A58A7C5F8
p2936
aVSODTHUS12AF72A1D16
p2937
aag1494
ag1499
ag1504
ag1507
ag1053
ag2500
ag1638
ag1642
ag1646
ag1569
ag1246
ag1440
ag253
aa(lp2938
g1999
ag1969
ag1339
ag526
ag231
ag1190
ag1193
ag1284
ag1287
ag1290
ag2260
ag1925
ag1302
ag1305
ag2277
ag2281
ag2285
ag1741
ag1246
ag1857
ag1321
ag1324
ag315
ag320
ag323
ag1788
ag1791
ag1794
ag1798
ag1801
ag2334
ag2337
ag1234
ag1237
ag1701
ag1705
a(lp2939
VSOZRYST12812D07C72
p2940
aVSOCDNPL12A8C13C222
p2941
aVSOEFAZV12AB0185AC3
p2942
aVSODVSFY12AB017F8ED
p2943
aa(lp2944
VSOJZBTU12A58A7B348
p2945
aVSOTUCYL12A8C14487F
p2946
aVSOYCTSV12A6D4FB43C
p2947
aVSOQQRXS12AF72A186D
p2948
aVSOCRHFJ12A67021D74
p2949
aag1397
ag2433
ag2862
ag1110
ag1114
ag1117
ag1121
ag2520
ag19
ag2094
ag1987
ag1990
ag1443
ag1841
ag1972
ag1980
ag2543
ag2546
ag1296
ag1299
ag2390
ag2393
ag307
ag310
ag1367
ag1371
ag1101
ag1104
ag1107
ag2250
ag93
ag1440
ag253
ag2877
ag2880
ag2883
ag247
ag250
ag1899
ag1902
ag567
ag2256
ag1652
ag1655
ag1659
ag301
ag304
ag984
ag987
ag990
ag994
ag2377
ag2018
ag2021
ag1744
ag1747
ag1751
ag1754
ag2511
ag2514
ag686
ag761
ag287
ag292
ag296
ag485
ag2264
ag2267
ag724
ag728
ag2413
ag2416
ag1826
ag1829
ag1832
ag2350
ag2483
ag1431
ag1311
ag1315
ag1318
ag2340
ag2344
ag2347
ag1211
ag1214
ag2136
ag2139
a(lp2950
VSOAVFSJ12A8AE4708E
p2951
aVSOQKIRP12A8C142D05
p2952
aVSOPAZXI12AF72A19EB
p2953
aa(lp2954
VSOXHVUE12A58A7A27C
p2955
aVSOYOVVI12A6D4F6E20
p2956
aVSOYBANP12A6701E936
p2957
aVSONNKSP12A8C141F7E
p2958
aa(lp2959
VSOOHPYN12A67020C87
p2960
aVSOGZSWY12A8C135883
p2961
aag2593
ag945
ag948
ag951
ag1046
ag1049
ag1906
ag1911
ag40
ag2065
ag2069
ag2076
ag1004
ag2253
a(lp2962
VSOAUNOJ12A6310E1F1
p2963
aVSOCVMYM12D021B3AF9
p2964
aa(lp2965
VSOYLEZD12AB018C236
p2966
aVSOGIXWL12A58A76C5A
p2967
aVSOLFYMR12A8C1412E8
p2968
aa(lp2969
VSOWTGSN12A6D4F8BB1
p2970
aVSOYVCIE12A8C1346A2
p2971
aVSOXBVCS12A6701C7FE
p2972
aag1676
ag2790
ag2793
ag2626
ag2630
ag2642
ag2645
ag2921
ag2924
ag2927
ag705
ag695
ag2480
ag2817
ag2820
ag1434
ag1437
ag2900
ag934
ag937
ag889
ag2569
ag2832
ag2835
ag102
ag105
ag108
ag1711
ag2223
ag1601
ag2823
ag2826
ag1152
ag2908
ag907
ag910
ag335
ag2057
ag3
ag6
ag11
ag1532
ag1538
ag1541
ag1376
ag1379
ag1382
ag1385
ag536
ag664
ag2503
ag1523
ag1526
ag1529
ag260
ag263
ag268
ag2098
ag2101
ag1217
ag1220
ag443
ag855
ag858
ag861
ag1607
ag583
ag1293
ag1575
ag1578
ag1581
ag1584
ag1472
ag1885
ag1889
ag2781
ag2787
ag271
ag274
ag2809
ag2442
ag678
ag682
ag2868
ag2871
ag1595
ag1598
ag1717
ag1720
ag1649
ag821
ag824
ag827
ag1618
ag1625
ag1587
ag1591
ag2841
ag2315
ag2318
ag2323
ag2229
ag2232
ag2235
ag2238
ag2470
ag1844
ag1847
ag971
ag974
ag2555
ag2558
ag371
ag376
ag2648
ag2651
ag2654
ag1007
ag1330
ag1333
ag1336
ag71
ag74
ag77
ag1951
ag1817
ag1820
ag1823
ag772
ag776
ag2552
ag1125
ag1128
ag1131
ag1137
ag25
ag28
ag508
ag511
ag1174
ag1240
ag1243
ag1669
ag2290
ag2293
ag2914
ag2918
ag2009
ag2012
ag2015
ag195
ag200
ag203
ag207
ag210
ag213
ag1155
ag1160
ag1168
ag2181
ag1402
ag1405
ag749
ag2533
ag2536
ag2539
ag2003
ag2006
ag2061
ag338
ag343
ag437
ag440
ag399
ag402
ag781
ag787
ag791
ag1031
ag1034
ag752
ag1804
ag913
ag916
ag2911
ag383
ag185
ag189
ag192
ag2852
ag2856
ag2859
ag1761
ag1764
ag1767
ag2154
ag2158
ag2677
ag2680
ag2683
ag2686
ag2191
ag2196
ag2424
a(lp2973
VSOJJUFV12AB01834D1
p2974
aVSONWMAT12AF72A963F
p2975
aag2448
ag2453
ag2458
ag2829
ag2500
ag149
ag152
ag465
ag885
ag837
ag842
ag2398
ag2401
ag2890
ag810
ag815
ag818
ag1572
ag2104
ag1850
ag1853
ag2848
ag2657
ag405
ag409
ag881
ag1714
ag1965
ag1078
ag1081
ag1086
ag1350
ag2887
ag1089
ag1092
ag353
ag488
ag495
ag499
ag755
ag1814
ag114
ag117
ag120
ag519
ag523
ag421
ag427
ag430
ag1422
ag2034
ag2037
ag2044
ag2047
ag2053
ag326
ag329
ag2745
ag539
ag542
ag545
ag627
ag81
ag84
ag87
ag90
ag155
ag158
ag161
ag1458
ag1463
ag2169
ag2172
ag1569
ag551
ag586
ag590
ag603
ag606
ag610
ag2845
ag1278
ag1281
ag2690
ag2693
ag2696
ag2778
ag2297
ag766
ag769
ag468
a(lp2976
VSOJJUFV12AB01834D1
p2977
aVSOYEZQN12AB017E42D
p2978
aa(lp2979
VSOSFNHO12A8C135AF0
p2980
aVSOYCHZJ12AF72A119D
p2981
aag1482
ag1612
ag1615
ag1037
ag1040
ag2476
ag347
ag350
ag1327
ag2380
ag2383
ag2523
ag2527
ag2610
ag2614
ag2617
ag2620
ag2623
ag2356
ag1948
ag2838
ag45
ag48
ag1146
ag1149
ag2933
ag2587
ag2590
ag2309
ag2312
ag548
ag2767
ag2775
ag1723
ag1727
ag555
ag559
ag563
ag1171
ag2930
ag613
ag620
ag624
ag1466
ag1469
ag143
ag146
ag234
ag237
ag2584
ag1693
ag1698
ag2184
ag2187
ag1428
ag2806
ag1485
ag1488
ag1491
ag1357
ag1360
ag482
ag22
ag2242
ag1808
ag1811
ag1679
ag1682
ag1687
ag15
ag179
ag182
ag710
ag713
ag717
ag720
ag1604
ag668
ag671
ag674
ag1249
ag1253
ag1257
ag516
ag472
ag478
ag1140
ag1143
ag942
ag256
ag63
ag68
ag2107
ag2111
ag2114
ag2117
ag2120
ag2123
ag2127
ag1204
ag2796
ag655
ag658
ag661
a(lp2982
VSOMDJRE12AF72A7325
p2983
aVSOJKMVE12A8C13CA8F
p2984
aa(lp2985
VSOZCARM12A8C132331
p2986
aVSOVVMOP12A8C1348D2
p2987
aag2564
ag1183
ag1186
ag52
ag55
ag412
ag415
ag418
ag2367
ag2370
ag2373
ag449
ag452
ag689
ag2761
ag1425
ag1553
ag1560
ag1564
ag997
ag2716
ag2719
ag931
ag1011
ag2639
ag1666
ag1896
ag2217
ag2220
ag2733
ag2736
ag2741
ag1053
ag396
ag1993
ag1996
ag2274
ag1043
ag1954
ag1958
ag1961
ag1915
ag1918
ag1921
ag2245
ag2404
ag2407
ag2410
ag332
ag698
ag701
ag2633
ag2636
ag2549
ag1000
ag2326
ag2329
ag640
ag643
ag648
ag529
ag533
ag733
ag737
ag741
ag746
ag1835
ag1838
ag892
ag897
ag901
ag2133
ag1342
ag1346
ag794
ag797
ag800
ag803
aa(lp2988
g307
ag310
ag1440
ag2648
ag2651
ag2654
ag2642
ag2645
ag1043
ag781
ag787
ag791
ag505
ag1744
ag1747
ag1751
ag1754
ag2500
ag1663
ag114
ag117
ag120
ag231
ag603
ag606
ag610
ag845
ag848
ag851
ag2796
ag1532
ag1538
ag1541
ag2104
ag2018
ag2021
ag2223
ag761
ag1993
ag1996
ag1354
ag1669
ag640
ag643
ag648
ag705
ag1284
ag1287
ag1290
ag1965
ag2264
ag2267
ag2350
ag1572
ag2865
ag1408
ag1415
ag1419
ag2764
ag1014
ag2790
ag2793
ag2973
ag1011
ag2492
ag2497
ag2271
ag2003
ag2006
ag434
ag1485
ag1488
ag1491
ag22
ag175
ag2950
ag2954
ag2959
ag301
ag304
ag2461
ag2464
ag1701
ag1705
ag1339
ag710
ag713
ag717
ag720
ag2817
ag2820
ag655
ag658
ag661
ag2809
ag195
ag200
ag203
ag207
ag210
ag213
ag1510
ag52
ag55
ag1078
ag1081
ag1086
ag1932
ag1935
ag1941
ag1948
ag2229
ag2232
ag2235
ag2238
ag1434
ag1437
ag380
ag2503
ag405
ag409
ag383
ag934
ag937
ag2800
ag2803
ag253
ag2523
ag2527
ag2848
ag1000
ag2242
ag668
ag671
ag674
ag2593
ag1835
ag1838
ag2467
ag1928
ag1428
ag870
ag873
ag878
ag692
ag1391
ag1394
ag1575
ag1578
ag1581
ag1584
ag1954
ag1958
ag1961
ag2213
ag2424
ag977
ag980
ag1850
ag1853
ag613
ag620
ag624
ag347
ag350
ag2334
ag2337
ag2433
ag1604
ag2201
ag2206
ag2209
ag1638
ag1642
ag1646
ag1458
ag1463
ag2761
ag1067
ag1071
ag1075
ag2413
ag2416
ag2868
ag2871
ag2900
ag271
ag274
ag955
ag958
ag963
ag967
ag1717
ag1720
ag2398
ag2401
ag2962
ag2965
ag2969
ag1896
ag1388
ag1174
ag2142
ag1544
ag1549
ag2555
ag2558
ag555
ag559
ag563
ag1607
ag2245
ag1101
ag1104
ag1107
ag1741
ag1969
ag2154
ag2158
ag2387
ag228
ag1635
ag63
ag68
ag1804
ag2543
ag2546
ag2862
ag1972
ag1980
ag1397
ag40
ag698
ag701
ag749
ag468
ag2982
ag2985
ag2483
ag892
ag897
ag901
ag1899
ag1902
ag516
ag45
ag48
ag2587
ag2590
ag2939
ag2944
ag2145
ag2149
ag247
ag250
ag1302
ag1305
ag421
ag427
ag430
ag2297
ag586
ag590
ag164
ag167
ag1826
ag1829
ag1832
ag2094
ag855
ag858
ag861
ag1443
ag2877
ag2880
ag2883
ag919
ag923
ag927
ag1757
ag1999
ag2841
ag1217
ag1220
ag1885
ag1889
ag1649
ag508
ag511
ag2933
ag2574
ag2577
ag2581
ag1893
ag126
ag456
ag460
ag93
ag931
ag2290
ag2293
ag1152
ag885
ag326
ag329
ag1466
ag1469
ag1271
ag1275
ag2404
ag2407
ag2410
ag3
ag6
ag11
ag2445
ag1808
ag1811
ag2356
ag2657
ag1679
ag1682
ag1687
ag1569
ag1110
ag1114
ag1117
ag1121
ag1523
ag1526
ag1529
ag1425
ag1357
ag1360
ag2829
ag1618
ag1625
ag2838
ag1857
ag260
ag263
ag268
ag1037
ag1040
ag1601
ag2663
ag2666
ag2670
ag1761
ag1764
ag1767
ag1690
ag1177
ag1180
ag2260
ag1240
ag1243
ag1513
ag1516
ag1520
ag2733
ag2736
ag2741
ag485
ag2887
ag2476
ag2079
ag2082
ag2088
ag2091
ag2367
ag2370
ag2373
ag2806
ag256
ag488
ag495
ag499
ag2480
ag551
ag536
ag2812
ag2723
ag2726
ag2729
ag571
ag575
ag580
ag1708
ag1861
ag1864
ag1873
ag1878
ag1422
ag465
ag472
ag478
ag31
ag34
ag37
ag529
ag533
ag1906
ag1911
ag502
ag2250
ag2326
ag2329
ag2911
ag19
ag185
ag189
ag192
ag1234
ag1237
ag997
ag1268
ag15
ag1056
ag1061
ag2832
ag2835
ag567
ag942
ag143
ag146
ag1330
ag1333
ag1336
ag1925
a(lp2989
VSOOTCUO12A6D4F8BC3
p2990
aVSOJTJWC12A8C13BB5C
p2991
aVSORSOAF12AB018362E
p2992
aag1731
ag1735
ag1738
ag2716
ag2719
ag2181
ag755
ag2277
ag2281
ag2285
ag2473
ag2274
ag1146
ag1149
ag2034
ag2037
ag2044
ag2047
ag2053
ag2448
ag2453
ag2458
ag984
ag987
ag990
ag994
ag1652
ag1655
ag1659
ag393
ag2169
ag2172
ag111
ag1046
ag1049
ag1367
ag1371
ag2561
ag2749
ag2752
ag2755
ag1183
ag1186
ag2353
ag1431
ag2564
ag1031
ag1034
ag1350
ag2549
ag1196
ag1199
ag1321
ag1324
ag2442
ag216
ag219
ag222
ag225
ag2660
ag2921
ag2924
ag2927
ag752
ag526
ag2852
ag2856
ag2859
ag772
ag776
ag733
ag737
ag741
ag746
ag2690
ag2693
ag2696
ag881
ag2161
ag686
ag102
ag105
ag108
ag664
ag2419
ag724
ag728
ag287
ag292
ag296
ag2107
ag2111
ag2114
ag2117
ag2120
ag2123
ag2127
ag1881
ag2584
ag1987
ag1990
ag2009
ag2012
ag2015
ag1402
ag1405
ag837
ag842
ag630
ag634
ag637
ag2390
ag2393
ag2506
ag1155
ag1160
ag1168
ag2309
ag2312
ag652
ag2380
ag2383
ag234
ag237
ag2610
ag2614
ag2617
ag2620
ag2623
ag2253
ag2470
ag1676
ag2908
ag179
ag182
ag277
ag281
ag1249
ag1253
ag1257
ag482
ag360
ag367
ag1228
ag1231
ag2256
ag1951
ag2136
ag2139
ag1190
ag1193
ag2024
ag2027
ag2030
ag443
ag386
ag390
ag2488
ag1476
ag1479
ag1693
ag1698
ag695
ag96
ag99
ag1261
ag1265
ag794
ag797
ag800
ag803
ag2552
ag1017
ag1020
ag1024
ag1841
ag2914
ag2918
ag1782
ag1785
ag2823
ag2826
ag2639
ag1788
ag1791
ag1794
ag1798
ag1801
ag1376
ag1379
ag1382
ag1385
ag1171
aa(lp2993
g2473
ag2555
ag2558
ag627
ag2242
ag240
ag244
ag2290
ag2293
ag2908
ag456
ag460
ag2302
ag2305
ag508
ag511
ag2181
ag228
ag1899
ag1902
ag130
ag136
ag139
ag2930
ag1053
ag1711
ag971
ag974
ag185
ag189
ag192
ag1782
ag1785
ag2767
ag2775
ag2832
ag2835
ag2533
ag2536
ag2539
ag2226
ag1808
ag1811
ag781
ag787
ag791
ag810
ag815
ag818
ag1485
ag1488
ag1491
ag1723
ag1727
ag583
ag126
ag529
ag533
ag2250
ag1544
ag1549
ag571
ag575
ag580
ag749
ag1788
ag1791
ag1794
ag1798
ag1801
ag1835
ag1838
ag405
ag409
ag2315
ag2318
ag2323
ag2356
ag1125
ag1128
ag1131
ag1137
ag2480
ag686
ag2758
ag710
ag713
ag717
ag720
ag421
ag427
ag430
ag195
ag200
ag203
ag207
ag210
ag213
ag2841
ag613
ag620
ag624
ag2778
ag2989
ag2642
ag2645
ag1844
ag1847
ag1234
ag1237
ag2677
ag2680
ag2683
ag2686
ag1011
ag807
ag1056
ag1061
ag678
ag682
ag1638
ag1642
ag1646
ag347
ag350
ag1690
ag114
ag117
ag120
ag2367
ag2370
ag2373
ag2593
ag1101
ag1104
ag1107
ag15
ag2419
ag551
ag1714
ag1906
ag1911
ag2800
ag2803
ag315
ag320
ag323
ag485
ag22
ag52
ag55
ag2723
ag2726
ag2729
ag695
ag2939
ag2944
ag1339
ag2034
ag2037
ag2044
ag2047
ag2053
ag25
ag28
ag630
ag634
ag637
ag955
ag958
ag963
ag967
ag2596
ag1618
ag1625
ag1327
ag2271
ag260
ag263
ag268
ag1717
ag1720
ag1770
ag1775
ag1778
ag446
ag2716
ag2719
ag772
ag776
ag1110
ag1114
ag1117
ag1121
ag1945
ag2245
ag1321
ag1324
ag2445
ag2136
ag2139
ag1422
ag652
ag2470
ag752
ag396
ag2424
ag2887
ag1174
ag1078
ag1081
ag1086
ag2962
ag2965
ag2969
ag1841
ag1037
ag1040
ag1669
ag2829
ag1146
ag1149
ag2911
ag1431
ag1249
ag1253
ag1257
ag2862
ag1211
ag1214
ag1190
ag1193
ag548
ag383
ag1932
ag1935
ag1941
ag2467
ag472
ag478
ag19
ag1350
ag1428
ag1155
ag1160
ag1168
ag2380
ag2383
ag326
ag329
ag2145
ag2149
ag692
ag2517
ag2657
ag821
ag824
ag827
ag63
ag68
ag1311
ag1315
ag1318
ag1948
ag1293
ag1067
ag1071
ag1075
ag1217
ag1220
ag2900
ag2256
ag2845
ag934
ag937
ag179
ag182
ag2169
ag2172
ag1472
ag1757
ag234
ag237
ag755
ag1171
ag1261
ag1265
ag2223
ag2950
ag2954
ag2959
ag705
ag1376
ag1379
ag1382
ag1385
ag1391
ag1394
ag2018
ag2021
ag2161
ag567
ag1604
ag1354
ag155
ag158
ag161
ag837
ag842
ag766
ag769
ag1458
ag1463
ag2868
ag2871
ag2982
ag2985
ag1207
ag2260
ag2309
ag2312
ag1987
ag1990
ag482
ag2277
ag2281
ag2285
ag253
ag465
ag40
ag640
ag643
ag648
ag1679
ag1682
ag1687
ag919
ag923
ag927
ag1649
ag2492
ag2497
ag1296
ag1299
ag1183
ag1186
ag1861
ag1864
ag1873
ag1878
ag1434
ag1437
ag2398
ag2401
ag864
ag867
ag1954
ag1958
ag1961
ag1532
ag1538
ag1541
ag1951
ag2191
ag2196
ag1140
ag1143
ag2390
ag2393
ag2699
ag2702
ag2705
ag2710
ag2713
ag2865
ag2781
ag2787
ag380
ag539
ag542
ag545
ag997
ag1494
ag1499
ag1504
ag1507
ag307
ag310
ag1666
ag2523
ag2527
ag1575
ag1578
ag1581
ag1584
ag1224
ag1447
ag1450
ag1453
ag123
ag2564
ag907
ag910
ag1476
ag1479
ag2552
ag1397
ag2852
ag2856
ag2859
ag2133
ag2823
ag2826
ag81
ag84
ag87
ag90
ag2599
ag2603
ag2607
ag1046
ag1049
ag149
ag152
ag2817
ag2820
ag2761
ag1595
ag1598
ag2104
ag913
ag916
ag1330
ag1333
ag1336
ag1896
ag2506
ag2061
ag794
ag797
ag800
ag803
ag71
ag74
ag77
ag885
ag1635
ag1663
ag1885
ag1889
ag881
ag2587
ag2590
ag434
ag45
ag48
ag386
ag390
ag1408
ag1415
ag1419
ag2461
ag2464
ag1972
ag1980
ag2413
ag2416
ag2184
ag2187
ag1228
ag1231
ag2877
ag2880
ag2883
ag449
ag452
ag519
ag523
ag1367
ag1371
ag2065
ag2069
ag2076
ag2745
ag2359
ag2363
ag1268
ag1993
ag1996
ag93
ag3
ag6
ag11
ag1089
ag1092
ag1553
ag1560
ag1564
ag1817
ag1820
ag1823
ag2404
ag2407
ag2410
ag845
ag848
ag851
ag1893
ag277
ag281
ag412
ag415
ag418
ag1482
ag942
ag2142
ag1925
ag2610
ag2614
ag2617
ag2620
ag2623
ag516
ag1587
ag1591
ag338
ag343
ag1017
ag1020
ag1024
ag271
ag274
ag2520
ag2511
ag2514
ag1388
ag1607
ag2488
ag353
ag2229
ag2232
ag2235
ag2238
ag1744
ag1747
ag1751
ag1754
ag2848
ag175
ag2569
ag2812
ag2933
ag1572
ag2890
ag399
ag402
ag2639
ag2264
ag2267
ag301
ag304
ag1000
ag2483
ag2201
ag2206
ag2209
ag1513
ag1516
ag1520
ag1612
ag1615
ag1826
ag1829
ag1832
ag2326
ag2329
ag1284
ag1287
ag1290
ag2660
ag505
ag231
ag287
ag292
ag296
ag1969
ag1569
ag2009
ag2012
ag2015
ag2973
ag1240
ag1243
ag2154
ag2158
ag437
ag440
ag371
ag376
ag889
ag2626
ag2630
ag2749
ag2752
ag2755
ag2543
ag2546
ag1007
ag1652
ag1655
ag1659
ag1014
ag1246
ag2633
ag2636
ag831
ag834
ag2217
ag2220
ag2175
ag2178
ag2476
ag2353
ag1196
ag1199
ag1999
aa(lp2994
g2657
ag2733
ag2736
ag2741
ag2817
ag2820
ag2079
ag2082
ag2088
ag2091
ag1494
ag1499
ag1504
ag1507
ag794
ag797
ag800
ag803
ag81
ag84
ag87
ag90
ag2136
ag2139
ag945
ag948
ag951
ag175
ag613
ag620
ag624
ag2404
ag2407
ag2410
ag668
ag671
ag674
ag2387
ag1885
ag1889
ag539
ag542
ag545
ag465
ag338
ag343
ag2914
ag2918
ag1782
ag1785
ag2398
ag2401
ag1761
ag1764
ag1767
ag2419
ag1217
ag1220
ag555
ag559
ag563
ag505
ag155
ag158
ag161
ag881
ag705
ag2764
ag2223
ag1788
ag1791
ag1794
ag1798
ag1801
ag1993
ag1996
ag2778
ag2226
ag1861
ag1864
ag1873
ag1878
ag2260
ag2781
ag2787
ag2865
ag2812
ag93
ag2648
ag2651
ag2654
ag3
ag6
ag11
ag529
ag533
ag1190
ag1193
ag332
ag1915
ag1918
ag1921
ag1814
ag326
ag329
ag1350
ag1896
ag686
ag185
ag189
ag192
ag1293
ag2829
ag1011
ag1778
ag1391
ag1394
ag2133
ag437
ag440
ag2930
ag1278
ag1281
ag630
ag634
ag637
ag301
ag304
ag2003
ag2006
ag2250
ag2094
ag652
ag1296
ag1299
ag2809
ag1183
ag1186
ag2584
ag2024
ag2027
ag2030
ag2900
ag1652
ag1655
ag1659
ag1679
ag1682
ag1687
ag1649
ag1741
ag1067
ag1071
ag1075
ag2921
ag2924
ag2927
ag1146
ag1149
ag1207
ag516
ag2034
ag2037
ag2044
ag2047
ag2053
ag1152
ag126
ag889
ag664
ag1906
ag1911
ag1569
ag2483
ag1425
ag2723
ag2726
ag2729
ag2506
ag1367
ag1371
ag1140
ag1143
ag2488
ag593
ag598
ag1246
ag1327
ag502
ag2433
ag934
ag937
ag1388
ag1089
ag1092
ag1635
ag2838
ag1513
ag1516
ag1520
ag1835
ag1838
ag386
ag390
ag1268
ag1004
ag2549
ag2758
ag2503
ag761
ag1932
ag1935
ag1941
ag508
ag511
ag2962
ag2965
ag2969
ag885
ag2610
ag2614
ag2617
ag2620
ag2623
ag1817
ag1820
ag1823
ag2253
ag1604
ag2470
ag1607
ag1999
ag724
ag728
ag971
ag974
ag25
ag28
ag931
ag1228
ag1231
ag807
ag1523
ag1526
ag1529
ag1302
ag1305
ag1000
ag2098
ag2101
ag102
ag105
ag108
ag2599
ag2603
ag2607
ag1951
ag1284
ag1287
ag1290
ag2533
ag2536
ag2539
ag2264
ag2267
ag111
ag2277
ag2281
ag2285
ag2245
ag1472
ag2213
ag1628
ag1632
ag1663
ag2639
ag536
ag1575
ag1578
ag1581
ag1584
ag277
ag281
ag1177
ag1180
ag234
ag237
ag2315
ag2318
ag2323
ag468
ag942
ag955
ag958
ag963
ag967
ag1826
ag1829
ag1832
ag1899
ag1902
ag2191
ag2196
ag655
ag658
ag661
ag2448
ag2453
ag2458
ag2424
ag2500
ag2933
ag2596
ag1770
ag1775
ag2862
ag831
ag834
ag31
ag34
ag37
ag1271
ag1275
ag1434
ag1437
ag2745
ag640
ag643
ag648
ag2461
ag2464
ag1261
ag1265
ag695
ag1443
ag114
ag117
ag120
ag1850
ag1853
ag1017
ag1020
ag1024
ag347
ag350
ag2356
ag1532
ag1538
ag1541
ag130
ag136
ag139
ag1945
ag1723
ag1727
ag2887
ag1948
ag1693
ag1698
ag1408
ag1415
ag1419
ag2973
ag1638
ag1642
ag1646
ag548
ag1972
ag1980
ag749
ag2061
ag1342
ag1346
ag449
ag452
ag2574
ag2577
ag2581
ag1731
ag1735
ag1738
ag1857
ag845
ag848
ag851
ag2677
ag2680
ag2683
ag2686
ag1969
ag472
ag478
ag2587
ag2590
ag2154
ag2158
ag216
ag219
ag222
ag225
ag96
ag99
ag2982
ag2985
ag864
ag867
ag2633
ag2636
ag755
ag870
ag873
ag878
ag1666
ag2390
ag2393
ag45
ag48
ag1553
ag1560
ag1564
ag821
ag824
ag827
ag526
ag1174
ag567
ag1046
ag1049
ag396
ag1669
ag1007
ag2309
ag2312
ag1037
ag1040
ag456
ag460
ag913
ag916
ag1101
ag1104
ag1107
ag2161
ag977
ag980
ag1757
ag2561
ag2890
ag2413
ag2416
ag1211
ag1214
ag240
ag244
ag123
ag412
ag415
ag418
ag2852
ag2856
ag2859
ag22
ag2367
ag2370
ag2373
ag2480
ag2939
ag2944
ag2976
ag2979
ag2169
ag2172
ag2796
ag1510
ag603
ag606
ag610
ag179
ag182
ag2767
ag2775
ag2552
ag1321
ag1324
ag2065
ag2069
ag2076
ag256
ag571
ag575
ag580
ag149
ag152
ag997
ag1595
ag1598
ag2823
ag2826
ag485
ag40
ag315
ag320
ag323
ag1249
ag1253
ag1257
ag2009
ag2012
ag2015
ag2848
ag307
ag310
ag2274
ag1376
ag1379
ag1382
ag1385
ag71
ag74
ag77
ag1031
ag1034
ag2018
ag2021
ag195
ag200
ag203
ag207
ag210
ag213
ag1618
ag1625
ag1330
ag1333
ag1336
ag1925
ag443
ag2569
ag335
ag1690
ag551
ag383
ag1714
ag2517
ag2242
ag434
ag1402
ag1405
ag371
ag376
ag247
ag250
ag586
ag590
ag1612
ag1615
ag2181
ag1110
ag1114
ag1117
ag1121
ag1466
ag1469
ag2492
ag2497
ag2699
ag2702
ag2705
ag2710
ag2713
ag2057
ag2832
ag2835
ag692
ag399
ag402
ag488
ag495
ag499
ag2761
ag1711
ag1224
ag1987
ag1990
ag919
ag923
ag927
ag2145
ag2149
ag1672
ag2359
ag2363
ag2642
ag2645
ag1572
ag752
ag380
ag1125
ag1128
ag1131
ag1137
ag2911
ag678
ag682
ag1339
ag231
ag1357
ag1360
ag2256
ag1928
ag1043
ag1844
ag1847
ag2184
ag2187
ag2175
ag2178
ag1171
ag855
ag858
ag861
ag2716
ag2719
ag1311
ag1315
ag1318
aa(lp2995
g1443
ag2398
ag2401
ag2169
ag2172
ag1101
ag1104
ag1107
ag2419
ag1397
ag2242
ag1999
ag698
ag701
ag353
ag1031
ag1034
ag1676
ag807
ag2543
ag2546
ag536
ag1327
ag468
ag831
ag834
ag526
ag2229
ag2232
ag2235
ag2238
ag2639
ag652
ag2976
ag2979
ag386
ag390
ag405
ag409
ag2723
ag2726
ag2729
ag143
ag146
ag1649
ag1635
ag1925
ag2908
ag2142
ag586
ag590
ag2309
ag2312
ag2470
ag1782
ag1785
ag175
ag96
ag99
ag2677
ag2680
ag2683
ag2686
ag1268
ag2767
ag2775
ag2500
ag668
ag671
ag674
ag2520
ag2302
ag2305
ag1004
ag22
ag984
ag987
ag990
ag994
ag1388
ag1717
ag1720
ag1896
ag516
ag907
ag910
ag1601
ag2900
ag1207
ag1056
ag1061
ag1140
ag1143
ag519
ag523
ag2290
ag2293
ag1513
ag1516
ag1520
ag1240
ag1243
ag2271
ag1155
ag1160
ag1168
ag2761
ag2939
ag2944
ag2745
ag1190
ag1193
ag810
ag815
ag818
ag2145
ag2149
ag1757
ag2445
ag1293
ag31
ag34
ag37
ag1844
ag1847
ag253
ag1125
ag1128
ag1131
ag1137
ag548
ag1945
ag434
ag2716
ag2719
ag2584
ag2340
ag2344
ag2347
ag1177
ag1180
ag2380
ag2383
ag126
ag2256
ag977
ag980
ag2511
ag2514
ag678
ag682
ag710
ag713
ag717
ag720
ag2569
ag485
ag2549
ag1458
ag1463
ag25
ag28
ag19
ag326
ag329
ag1261
ag1265
ag2315
ag2318
ag2323
ag2326
ag2329
ag2887
ag761
ag2253
ag752
ag2660
ag2154
ag2158
ag371
ag376
ag1078
ag1081
ag1086
ag2506
ag2297
ag855
ag858
ag861
ag2104
ag1007
ag2930
ag2533
ag2536
ag2539
ag1693
ag1698
ag1037
ag1040
ag2796
ag1476
ag1479
ag1494
ag1499
ag1504
ag1507
ag2473
ag2467
ag971
ag974
ag449
ag452
ag2223
ag2483
ag2806
ag2003
ag2006
ag1000
ag1575
ag1578
ag1581
ag1584
ag1778
ag630
ag634
ag637
ag315
ag320
ag323
ag1881
ag2989
ag114
ag117
ag120
ag2877
ag2880
ag2883
ag1171
ag781
ag787
ag791
ag1857
ag1146
ag1149
ag1425
ag2911
ag1391
ag1394
ag164
ag167
ag1861
ag1864
ag1873
ag1878
ag1284
ag1287
ag1290
ag2593
ag307
ag310
ag2561
ag2461
ag2464
ag1434
ag1437
ag1228
ag1231
ag2829
ag1271
ag1275
ag1788
ag1791
ag1794
ag1798
ag1801
ag1350
ag755
ag2758
ag1899
ag1902
ag942
ag1196
ag1199
ag1152
ag2065
ag2069
ag2076
ag383
ag301
ag304
ag2367
ag2370
ag2373
ag1046
ag1049
ag2448
ag2453
ag2458
ag2353
ag1814
ag2749
ag2752
ag2755
ag1246
ag1761
ag1764
ag1767
ag571
ag575
ag580
ag2890
ag1808
ag1811
ag1663
ag583
ag689
ag2424
ag1017
ag1020
ag1024
ag2387
ag1948
ag1422
ag1278
ag1281
ag2057
ag705
ag2921
ag2924
ag2927
ag465
ag1607
ag2094
ag130
ag136
ag139
ag692
ag482
ag1638
ag1642
ag1646
ag2838
ag1089
ag1092
ag1183
ag1186
ag1841
ag695
ag1741
ag931
ag2181
ag1893
ag2642
ag2645
ag1211
ag1214
ag1612
ag1615
ag277
ag281
ag234
ag237
ag421
ag427
ag430
ag837
ag842
ag2250
ag749
ag185
ag189
ag192
ag919
ag923
ag927
ag2107
ag2111
ag2114
ag2117
ag2120
ag2123
ag2127
ag2350
ag2848
ag2226
ag1354
ag2503
ag2790
ag2793
ag2865
ag2817
ag2820
ag864
ag867
ag335
ag216
ag219
ag222
ag225
ag2982
ag2985
ag228
ag2781
ag2787
ag1472
ag2764
ag1628
ag1632
ag1544
ag1549
ag1067
ag1071
ag1075
ag2079
ag2082
ag2088
ag2091
ag2136
ag2139
ag733
ag737
ag741
ag746
ag505
ag1296
ag1299
ag393
ag1569
ag2950
ag2954
ag2959
ag2800
ag2803
ag2832
ag2835
ag2841
ag2488
ag472
ag478
ag443
ag870
ag873
ag878
ag766
ag769
ag2823
ag2826
ag260
ag263
ag268
ag1669
ag1928
ag2098
ag2101
ag40
ag195
ag200
ag203
ag207
ag210
ag213
ag287
ag292
ag296
ag15
ag2690
ag2693
ag2696
ag1482
ag1553
ag1560
ag1564
ag2433
ag539
ag542
ag545
ag1817
ag1820
ag1823
ag1053
ag2633
ag2636
ag889
ag256
ag1701
ag1705
ag1572
ag2009
ag2012
ag2015
ag1342
ag1346
ag1723
ag1727
ag360
ag367
ag1330
ag1333
ag1336
ag724
ag728
ag1804
ag1357
ag1360
ag396
ag2587
ag2590
ag2191
ag2196
ag2852
ag2856
ag2859
ag945
ag948
ag951
ag555
ag559
ag563
ag1224
ag2175
ag2178
ag2517
ag1850
ag1853
ag2245
ag664
ag2599
ag2603
ag2607
ag1993
ag1996
ag2377
ag2390
ag2393
ag627
ag63
ag68
ag2476
ag1367
ag1371
ag2018
ag2021
ag231
ag1826
ag1829
ag1832
ag2610
ag2614
ag2617
ag2620
ag2623
ag821
ag824
ag827
ag2663
ag2666
ag2670
ag1204
ag2024
ag2027
ag2030
ag1402
ag1405
ag567
ag347
ag350
ag934
ag937
ag2274
ag640
ag643
ag648
ag613
ag620
ag624
ag2973
ag2264
ag2267
ag655
ag658
ag661
ag1447
ag1450
ag1453
ag2845
ag1972
ag1980
ag3
ag6
ag11
ag2334
ag2337
ag2213
ag446
ag2564
ag1466
ag1469
ag149
ag152
ag271
ag274
ag1043
ag332
ag2962
ag2965
ag2969
ag2523
ag2527
aa(lp2996
g1513
ag1516
ag1520
ag399
ag402
ag1915
ag1918
ag1921
ag1757
ag2098
ag2101
ag2136
ag2139
ag130
ag136
ag139
ag1284
ag1287
ag1290
ag2890
ag1067
ag1071
ag1075
ag1701
ag1705
ag15
ag855
ag858
ag861
ag2642
ag2645
ag710
ag713
ag717
ag720
ag2442
ag19
ag1443
ag1447
ag1450
ag1453
ag2561
ag1714
ag2593
ag81
ag84
ag87
ag90
ag1965
ag2413
ag2416
ag583
ag2260
ag749
ag1043
ag536
ag2079
ag2082
ag2088
ag2091
ag1969
ag2315
ag2318
ag2323
ag2445
ag2387
ag2302
ag2305
ag63
ag68
ag2461
ag2464
ag2511
ag2514
ag2745
ag1723
ag1727
ag2492
ag2497
ag2764
ag1628
ag1632
ag2584
ag2657
ag1604
ag1342
ag1346
ag2841
ag2823
ag2826
ag1693
ag1698
ag724
ag728
ag913
ag916
ag1572
ag1037
ag1040
ag2154
ag2158
ag2433
ag529
ag533
ag1388
ag2517
ag2862
ag315
ag320
ag323
ag2309
ag2312
ag1782
ag1785
ag1485
ag1488
ag1491
ag508
ag511
ag123
ag1954
ag1958
ag1961
ag664
ag1761
ag1764
ag1767
ag2480
ag2933
ag155
ag158
ag161
ag277
ag281
ag253
ag1357
ag1360
ag2334
ag2337
ag2506
ag2390
ag2393
ag2003
ag2006
ag1204
ag2812
ag1945
ag2107
ag2111
ag2114
ag2117
ag2120
ag2123
ag2127
ag1152
ag468
ag1711
ag195
ag200
ag203
ag207
ag210
ag213
ag1948
ag794
ag797
ag800
ag803
ag216
ag219
ag222
ag225
ag1841
ag2377
ag567
ag1031
ag1034
ag2201
ag2206
ag2209
ag889
ag1125
ag1128
ag1131
ag1137
ag2806
ag613
ag620
ag624
ag71
ag74
ag77
ag3
ag6
ag11
ag2543
ag2546
ag2175
ag2178
ag2790
ag2793
ag781
ag787
ag791
ag22
ag1246
ag2723
ag2726
ag2729
ag1857
ag307
ag310
ag640
ag643
ag648
ag1278
ag1281
ag2473
ag1174
ag353
ag2781
ag2787
ag1607
ag2065
ag2069
ag2076
ag1553
ag1560
ag1564
ag231
ag831
ag834
ag2848
ag2223
ag1881
ag2340
ag2344
ag2347
ag1140
ag1143
ag1327
ag2161
ag326
ag329
ag2061
ag655
ag658
ag661
ag234
ag237
ag1155
ag1160
ag1168
ag864
ag867
ag1183
ag1186
ag2809
ag2677
ag2680
ag2683
ag2686
ag1744
ag1747
ag1751
ag1754
ag1814
ag2184
ag2187
ag1422
ag421
ag427
ag430
ag1817
ag1820
ag1823
ag1228
ag1231
ag2796
ag2877
ag2880
ag2883
ag942
ag2555
ag2558
ag2976
ag2979
ag247
ag250
ag1354
ag2865
ag1635
ag111
ag2914
ag2918
ag2018
ag2021
ag2398
ag2401
ag1053
ag2356
ag1778
ag1240
ag1243
ag2887
ag2424
ag1666
ag347
ag350
ag1440
ag2448
ag2453
ag2458
ag1663
ag2574
ag2577
ag2581
ag1458
ag1463
ag412
ag415
ag418
ag1932
ag1935
ag1941
ag2838
ag1190
ag1193
ag881
ag810
ag815
ag818
ag456
ag460
ag143
ag146
ag2832
ag2835
ag1217
ag1220
ag360
ag367
ag1234
ag1237
ag1672
ag2962
ag2965
ag2969
ag1569
ag1770
ag1775
ag1476
ag1479
ag2778
ag2633
ag2636
ag931
ag1425
ag548
ag2245
ag945
ag948
ag951
ag2104
ag2908
ag179
ag182
ag505
ag371
ag376
ag1004
ag1885
ag1889
ag695
ag1826
ag1829
ag1832
ag586
ag590
ag1850
ag1853
ag2404
ag2407
ag2410
ag668
ag671
ag674
ag2663
ag2666
ag2670
ag45
ag48
ag2596
ag2973
ag1249
ag1253
ag1257
ag40
ag335
ag2716
ag2719
ag185
ag189
ag192
ag919
ag923
ag927
ag1808
ag1811
ag1302
ag1305
ag603
ag606
ag610
ag2749
ag2752
ag2755
ag1014
ag2648
ag2651
ag2654
ag31
ag34
ag37
ag2057
ag1649
ag175
ag686
ag393
ag1261
ag1265
ag1046
ag1049
ag2758
ag1844
ag1847
ag396
ag984
ag987
ag990
ag994
ag2264
ag2267
ag2900
ag2930
ag1402
ag1405
ag1835
ag1838
ag2034
ag2037
ag2044
ag2047
ag2053
ag2569
ag678
ag682
ag2009
ag2012
ag2015
ag1612
ag1615
ag2253
ag2326
ag2329
ag1311
ag1315
ag1318
ag1434
ag1437
ag1972
ag1980
ag1007
ag1925
ag482
ag2845
ag2564
ag437
ag440
ag1638
ag1642
ag1646
ag821
ag824
ag827
ag1532
ag1538
ag1541
ag1408
ag1415
ag1419
ag977
ag980
ag1000
ag2767
ag2775
ag386
ag390
ag934
ag937
ag260
ag263
ag268
ag301
ag304
ag2297
ag772
ag776
ag2142
ag2367
ag2370
ag2373
ag2733
ag2736
ag2741
ag2488
ag907
ag910
ag807
ag2419
ag2242
ag1089
ag1092
ag383
ag955
ag958
ag963
ag967
ag2476
ag593
ag598
ag555
ag559
ag563
ag2145
ag2149
ag93
ag2274
ag240
ag244
ag2911
ag526
ag1397
ag539
ag542
ag545
ag434
ag2868
ag2871
ag1987
ag1990
ag1296
ag1299
ag2549
ag465
ag2690
ag2693
ag2696
ag630
ag634
ag637
ag1482
ag689
ag1472
ag997
ag2626
ag2630
ag2094
ag449
ag452
ag114
ag117
ag120
ag2213
ag2817
ag2820
ag1999
ag1676
ag1391
ag1394
ag485
ag870
ag873
ag878
ag2610
ag2614
ag2617
ag2620
ag2623
ag102
ag105
ag108
ag1428
ag1575
ag1578
ag1581
ag1584
ag2353
ag1101
ag1104
ag1107
ag332
ag971
ag974
ag1523
ag1526
ag1529
ag2271
ag1330
ag1333
ag1336
ag2500
ag885
ag1207
ag766
ag769
ag338
ag343
ag1896
ag733
ag737
ag741
ag746
ag2217
ag2220
ag2800
ag2803
aa(lp2997
g126
ag2169
ag2172
ag405
ag409
ag2806
ag231
ag2500
ag1011
ag2677
ag2680
ag2683
ag2686
ag2761
ag2107
ag2111
ag2114
ag2117
ag2120
ag2123
ag2127
ag2574
ag2577
ag2581
ag1321
ag1324
ag2161
ag1972
ag1980
ag2890
ag555
ag559
ag563
ag1714
ag1782
ag1785
ag772
ag776
ag81
ag84
ag87
ag90
ag1679
ag1682
ag1687
ag2733
ag2736
ag2741
ag256
ag1125
ag1128
ag1131
ag1137
ag2480
ag2648
ag2651
ag2654
ag396
ag155
ag158
ag161
ag371
ag376
ag2404
ag2407
ag2410
ag1037
ag1040
ag2057
ag519
ag523
ag1053
ag2982
ag2985
ag1261
ag1265
ag516
ag1885
ag1889
ag1402
ag1405
ag1339
ag271
ag274
ag1604
ag2841
ag2353
ag2145
ag2149
ag1948
ag332
ag1676
ag2315
ag2318
ag2323
ag1965
ag1278
ag1281
ag548
ag1183
ag1186
ag2445
ag1067
ag1071
ag1075
ag2398
ag2401
ag2253
ag1899
ag1902
ag2473
ag1458
ag1463
ag710
ag713
ag717
ag720
ag1532
ag1538
ag1541
ag807
ag2175
ag2178
ag668
ag671
ag674
ag1196
ag1199
ag2226
ag63
ag68
ag1523
ag1526
ag1529
ag2488
ag2796
ag837
ag842
ag2584
ag2800
ag2803
ag1638
ag1642
ag1646
ag102
ag105
ag108
ag1428
ag1663
ag2716
ag2719
ag1211
ag1214
ag1110
ag1114
ag1117
ag1121
ag2976
ag2979
ag913
ag916
ag2271
ag488
ag495
ag499
ag2433
ag652
ag892
ag897
ag901
ag71
ag74
ag77
ag2264
ag2267
ag52
ag55
ag1146
ag1149
ag539
ag542
ag545
ag2184
ag2187
ag1701
ag1705
ag399
ag402
ag456
ag460
ag472
ag478
ag1649
ag22
ag1672
ag1510
ag2663
ag2666
ag2670
ag845
ag848
ag851
ag1342
ag1346
ag1089
ag1092
ag301
ag304
ag1987
ag1990
ag228
ag2380
ag2383
ag2989
ag831
ag834
ag412
ag415
ag418
ag934
ag937
ag96
ag99
ag1271
ag1275
ag2274
ag1268
ag2245
ag583
ag2838
ag885
ag2533
ag2536
ag2539
ag1928
ag468
ag1293
ag1612
ag1615
ag1447
ag1450
ag1453
ag855
ag858
ag861
ag2154
ag2158
ag2832
ag2835
ag2555
ag2558
ag810
ag815
ag818
ag175
ag1999
ag2213
ag1770
ag1775
ag2790
ag2793
ag2549
ag1190
ag1193
ag1302
ag1305
ag1056
ag1061
ag1234
ag1237
ag2136
ag2139
ag2506
ag1575
ag1578
ag1581
ag1584
ag287
ag292
ag296
ag1240
ag1243
ag123
ag2848
ag247
ag250
ag1397
ag2390
ag2393
ag1844
ag1847
ag2079
ag2082
ag2088
ag2091
ag1817
ag1820
ag1823
ag1951
ag2812
ag335
ag752
ag593
ag598
ag1046
ag1049
ag2309
ag2312
ag2939
ag2944
ag2809
ag1246
ag1330
ag1333
ag1336
ag1101
ag1104
ag1107
ag1152
ag482
ag1635
ag2610
ag2614
ag2617
ag2620
ag2623
ag1472
ag1761
ag1764
ag1767
ag1376
ag1379
ag1382
ag1385
ag2911
ag2359
ag2363
ag2852
ag2856
ag2859
ag2181
ag536
ag1993
ag1996
ag919
ag923
ag927
ag2242
ag1906
ag1911
ag931
ag864
ag867
ag2587
ag2590
ag1932
ag1935
ag1941
ag2660
ag2950
ag2954
ag2959
ag1408
ag1415
ag1419
ag2419
ag2745
ag2900
ag380
ag1544
ag1549
ag2865
ag3
ag6
ag11
ag1224
ag2778
ag1841
ag2277
ag2281
ag2285
ag1171
ag2302
ag2305
ag2377
ag421
ag427
ag430
ag526
ag45
ag48
ag1969
ag1004
ag437
ag440
ag997
ag130
ag136
ag139
ag664
ag766
ag769
ag2543
ag2546
ag1388
ag1587
ag1591
ag2250
ag2817
ag2820
ag1327
ag613
ag620
ag624
ag2657
ag1893
ag1466
ag1469
ag2569
ag686
ag1014
ag143
ag146
ag749
ag984
ag987
ag990
ag994
ag1569
ag2229
ag2232
ag2235
ag2238
ag2829
ag1513
ag1516
ag1520
ag386
ag390
ag1078
ag1081
ag1086
ag1476
ag1479
ag508
ag511
ag383
ag434
ag1354
ag881
ag240
ag244
ag2564
ag1723
ag1727
ag449
ag452
ag2034
ag2037
ag2044
ag2047
ag2053
ag1422
ag2297
ag2223
ag25
ag28
ag1204
ag2334
ag2337
ag761
ag2350
ag2596
ag1666
ag1155
ag1160
ag1168
ag2862
ag678
ag682
ag2921
ag2924
ag2927
ag870
ag873
ag878
ag2326
ag2329
ag2290
ag2293
ag2018
ag2021
ag2626
ag2630
ag2201
ag2206
ag2209
ag1652
ag1655
ag1659
ag1690
ag2599
ag2603
ag2607
ag1857
ag326
ag329
ag2561
ag794
ag797
ag800
ag803
ag2191
ag2196
ag1925
ag195
ag200
ag203
ag207
ag210
ag213
ag733
ag737
ag741
ag746
ag1017
ag1020
ag1024
ag505
ag2065
ag2069
ag2076
ag1808
ag1811
ag2413
ag2416
ag1788
ag1791
ag1794
ag1798
ag1801
ag315
ag320
ag323
ag40
ag692
ag2690
ag2693
ag2696
ag1367
ag1371
ag1007
ag1595
ag1598
ag2009
ag2012
ag2015
ag2914
ag2918
ag1431
ag2823
ag2826
ag640
ag643
ag648
ag821
ag824
ag827
ag2470
ag1618
ag1625
ag114
ag117
ag120
ag2887
ag1778
ag2845
ag2424
ag1217
ag1220
ag2642
ag2645
ag1228
ag1231
ag2133
ag1826
ag1829
ag1832
ag955
ag958
ag963
ag967
ag2356
ag2483
ag698
ag701
ag2217
ag2220
ag185
ag189
ag192
ag1896
ag2367
ag2370
ag2373
ag1031
ag1034
ag277
ag281
ag2933
ag1861
ag1864
ag1873
ag1878
ag1717
ag1720
ag2552
ag234
ag237
ag2003
ag2006
ag2467
ag1140
ag1143
ag571
ag575
ag580
ag2973
ag1945
ag1043
ag2699
ag2702
ag2705
ag2710
ag2713
ag529
ag533
ag1443
aa.