(lp1
(lp2
(lp3
VSOOTKAC12A6D4F92E6
p4
aVSOAJXJU12A6D228293
p5
aVSONQCFX12A8C1319E7
p6
aa(lp7
VSOGXLUQ12B0B808F5D
p8
aVSOCRCNK12A8C133AA7
p9
aa(lp10
VSOFYJVT12A8C1414F7
p11
aVSONPOVB12D02190B36
p12
aVSOTFABB12AF72A7ACE
p13
aa(lp14
VSOTZLPX12A58A7A702
p15
aVSOWFPNV12AB017C143
p16
aVSOHJRGO12A58A79584
p17
aVSOGDRYS12AB0181D94
p18
aVSODLCVS12A58A7ABE7
p19
aa(lp20
VSOTSNDR12A8AE47599
p21
aVSOQPTMI12A81358257
p22
aVSOIYLMC12A6D4FA1BD
p23
aa(lp24
VSOPVPWE12A8C13794F
p25
aVSOKHWRN12A6D4F2E9D
p26
aVSOENSFP12AC9072A9D
p27
aa(lp28
VSOTCDVB12AB018D3FA
p29
aVSOTJOTY12A8C135C55
p30
aVSOMAPRO12A8C13DFDC
p31
aa(lp32
VSOSIPFF12AB01853C6
p33
aVSOZOWZK12AB018D6E8
p34
aa(lp35
VSOVWBYM12A6D4F8A22
p36
aVSOEWYLX12A6D4F8E5F
p37
aa(lp38
VSOCJMUH12A8C137E88
p39
aVSOSEJSI12AB0184F55
p40
aVSOYEQML12A6D4FA64F
p41
aa(lp42
VSOMQUYZ12AB018219C
p43
aVSOQWSCJ12A8AE46F1C
p44
aVSONSGAC12AB0185301
p45
aa(lp46
VSOVVYBK12A8C13BEC6
p47
aVSORANSK12AC4689CB0
p48
aa(lp49
VSOAOKJX12A58A7F338
p50
aVSOWCBTG12A8C13D532
p51
aVSOAKLMK12AB01872D3
p52
aa(lp53
VSOXSTGA12AB0180180
p54
aVSOOJQDC12AB0184DAD
p55
aa(lp56
VSOYXIGE12A8C13FA3F
p57
aVSOQSYWI12AB018D78D
p58
aVSORGQSR12A8C139549
p59
aVSOVORVO12A58A7B7CB
p60
aVSOGRCBF12A8C13233B
p61
aa(lp62
VSOIYHAZ12A6D4F6D30
p63
aVSOIEUDQ12AC468B5B7
p64
aVSOKYVMY12AB017F0CD
p65
aa(lp66
VSODUFUJ12A6D4F7015
p67
aVSOASYSL12A6310D898
p68
aa(lp69
VSOVDVPD12A6D4F64F6
p70
aVSOJGKFP12B0B80CB08
p71
aa(lp72
VSOEOWNS12A6701ED15
p73
aVSOHLGKC12CF5F889C1
p74
aVSOZKQNC12A6310E336
p75
aa(lp76
VSOKDXZL12AB01830BF
p77
aVSOAUFID12A8C13AF6C
p78
aVSOUKPYI12A8C1349EB
p79
aVSOCCFCA12D0219028D
p80
aa(lp81
VSOXRAYH12A8C13A967
p82
aVSOSTBLT12A6310F992
p83
aVSOKOXWU12AF72AD1BC
p84
aa(lp85
VSOCXIHZ12A8C134D4B
p86
aVSODYLZO12A6D4F8F28
p87
aa(lp88
VSOXGAOF12A8AE48685
p89
aVSODICLT12AF72A5D7E
p90
aa(lp91
VSOKZVWU12A67AD8250
p92
aVSOXIXRI12AB017F1A7
p93
aVSOFMHKW12A6D4F4F8B
p94
aVSOWEZPT12A6701D1EB
p95
aa(lp96
VSOFTAWI12A6D4F93BD
p97
aVSOITJIQ12A8C13A291
p98
aa(lp99
VSOVWWLK12AB018159E
p100
aVSOWGLHP12A8C13CAEE
p101
aa(lp102
VSOTSNDR12A8AE47599
p103
aVSOTNOXQ12A6D4FC79C
p104
aa(lp105
VSOAPFWY12AB0181DBB
p106
aVSOJZNLD12AB018D5A1
p107
aVSOZOCCG12A6D4F7D21
p108
aVSOSURZQ12AB0185AB8
p109
aVSOHXMTT12A8C13A8DE
p110
aa(lp111
VSOHNUDR12A8C1357CF
p112
aVSOBFMHC12A6D4F9401
p113
aa(lp114
VSOAYDRS12AB018B50A
p115
aVSOCASSI12AC3DF98D6
p116
aVSODRJHN12A67AE0D39
p117
aVSOOSADY12A6701F119
p118
aa(lp119
VSOEXJAL12A8C133E0F
p120
aVSOPRGUO12AB01889C7
p121
aVSOSISXJ12AB017F6CD
p122
aa(lp123
VSOXXUWB12A8BED748E
p124
aVSOJEDOL12AB018F5DE
p125
aa(lp126
VSORVRMR12A8C134606
p127
aVSOUIHHP12D0219A2F0
p128
aVSOKQIHY12A58A7BE6E
p129
aa(lp130
VSOVDXOX12A8C136B86
p131
aVSOAPRAA12A6D4F7C5F
p132
aa(lp133
VSOJWQPW12B0B80B7FC
p134
aVSOZKLNX12AB017D0B4
p135
aa(lp136
VSOJOJAW12A6D4F8529
p137
aVSOVNTHF12A6D4F7786
p138
aa(lp139
VSOJAVTO12A8C131738
p140
aVSOFAPID12A6D4FD880
p141
aa(lp142
VSONQRZO12A8AE47F69
p143
aVSOPVPWE12A8C13794F
p144
aVSOVVLKV12A8AE49992
p145
aVSOQHXDZ12A8C1324DA
p146
aVSOKJUBL12AB0185020
p147
aVSOTUOBF12A8AE4543E
p148
aVSOBGPBB12A8C138549
p149
aVSOMAPRO12A8C13DFDC
p150
aa(lp151
VSOHGKPB12A8C142BFD
p152
aVSOIFIDI12A8C13D9EC
p153
aVSOBNSME12A6701E2FD
p154
aa(lp155
VSOSTAOM12A81C23410
p156
aVSOFGGXF12A8C1413C0
p157
aVSOSSPBJ12A6D4F5814
p158
aa(lp159
VSOYJVKL12A8C134F81
p160
aVSOHTHML12A8C13BE30
p161
aVSONIULK12A8C140C70
p162
aa(lp163
VSOSJCUF12AB0180EBB
p164
aVSODFTHP12A58A7AA9F
p165
aVSORKZEH12A67ADF4E9
p166
aVSOEWYLX12A6D4F8E5F
p167
aVSOXCAWY12AAF3B486E
p168
aVSOTODIH12A6D4F69A4
p169
aVSORDKQF12A8C13D407
p170
aVSOMKIYE12A6701F863
p171
aVSOEXZQB12D021B2493
p172
aVSOQNXBA12A8C143B11
p173
aa(lp174
VSOTLQLG12A6D4F8833
p175
aVSOWCEQC12AF72A2B64
p176
aa(lp177
VSOWYRRB12A8C13ADFA
p178
aVSOAQKDM12A67020E0D
p179
aVSOGFCEQ12A8C1351AF
p180
aa(lp181
VSOQCNCF12A6D4F81B1
p182
aVSOIAEJI12AF72A1A3A
p183
aVSOJSWGE12AF72A6DA7
p184
aa(lp185
VSOHBIEQ12A8C13710F
p186
aVSOGQUIN12A6701F2C4
p187
aa(lp188
VSODLVDX12A6310DF22
p189
aVSOEUORE12A8C13953D
p190
aa(lp191
VSODOQUU12AAF3B33DF
p192
aVSOVCOYG12AF72A065D
p193
aa(lp194
VSOBOKMK12A8C138712
p195
aVSOTXXBT12A6D4F6B25
p196
aVSONFJXY12AB0183BF1
p197
aVSOWROBO12A8C132CA4
p198
aVSOTYPGH12A8C1326C8
p199
aa(lp200
VSOETKZI12A8C1374A0
p201
aVSODZAWB12A8C1421B2
p202
aVSOLGLII12AB0183978
p203
aVSOOGOQH12A8C1415D7
p204
aVSOVWFAS12A8C13307C
p205
aVSOATNDP12AF72A4AA3
p206
aa(lp207
VSONKKFD12A6D4F9678
p208
aVSOPPDZH12AF72A283A
p209
aa(lp210
VSOJGRMU12A6701ED14
p211
aVSOYUZWB12B0B80AEA6
p212
aVSODMYDD12B0B80AEB0
p213
aa(lp214
VSOBDJMW12A8C137318
p215
aVSOOBDRI12A8C132391
p216
aVSOUVSTM12A8AE48BC8
p217
aVSOXRAYH12A8C13A967
p218
aa(lp219
VSODACXX12A8C135277
p220
aVSOKPSGM12A8C1381DE
p221
aa(lp222
VSOAYVYB12A58A7917A
p223
aVSOMSVWU12AB0187600
p224
aa(lp225
VSOARNUY12A8C136DA5
p226
aVSOPFTHK12A679D7E20
p227
aVSOSBYGW12A6D4F95F1
p228
aa(lp229
VSOOLPDT12A8C13BF53
p230
aVSOOMZRZ12AB0183851
p231
aVSOXJENQ12A8C13C59D
p232
aa(lp233
VSOXGJAX12A58A7BA10
p234
aVSOSJGAD12AB0181146
p235
aVSOGPNLG12A8C142A90
p236
aa(lp237
VSOHFQNI12AF72A081D
p238
aVSOHIFUY12A8C13F1BD
p239
aa(lp240
VSOZJOVX12AF72A7295
p241
aVSOIGFPD12A8C138F40
p242
aVSONAKLI12A6D4F8A1B
p243
aa(lp244
VSOENPOI12A6D4FA2EC
p245
aVSOSANEH12AB018054E
p246
aa(lp247
VSOUZGQR12A6D4F7FA8
p248
aVSOAXVBU12A6D4F7A3F
p249
aVSODMAOP12A8C143254
p250
aVSOEGJNM12A6D4F804D
p251
aVSOACHPF12A6D4FA64D
p252
aa(lp253
VSOMRUSP12A6D4F7768
p254
aVSOGIWRI12AC3DFB187
p255
aa(lp256
VSOFGSPL12A6D4F755A
p257
aVSOBPOZJ12D02194DDC
p258
aVSOYKUEO12A8C133A32
p259
aa(lp260
VSOWUKUH12AB017AF42
p261
aVSOZNSLO12AB017C8DC
p262
aa(lp263
VSOBVSSK12A8C13C64D
p264
aVSORRYXU12A8C1436CC
p265
aa(lp266
VSOYVVJO12CF530E4EA
p267
aVSOHJRGO12A58A79584
p268
aVSOYZYYY12A6701C432
p269
aa(lp270
VSODACXX12A8C135277
p271
aVSOVVUTN12A8AE48D05
p272
aVSOINALL12D021B3D41
p273
aVSODLCVS12A58A7ABE7
p274
aVSOBOKMK12A8C138712
p275
aVSOMHKZJ12AB0180BBE
p276
aa(lp277
VSOAMBEM12A6701F3D4
p278
aVSOAZPPR12A6D4F89C6
p279
aa(lp280
VSOOYJAG12A8C13E49D
p281
aVSOKAAGA12A8C142367
p282
aa(lp283
VSOIAEJI12AF72A1A3A
p284
aVSOWSCMF12A8AE456BB
p285
aa(lp286
VSOHRGZX12AB0182E6F
p287
aVSOLYRUQ12AB0183E4C
p288
aVSONVPVP12AF72A6851
p289
aVSONYCOW12A8C137493
p290
aVSOWQJMP12A58A79AD3
p291
aVSORBTBB12A6D4F7B82
p292
aa(lp293
VSOUWHDP12A8151AACF
p294
aVSOAEAPQ12A8AE4633A
p295
aVSODENMQ12A6D4F8D48
p296
aVSOIPYGD12A6701CD87
p297
aa(lp298
VSOHXMNE12A6701D1F3
p299
aVSORLZNS12A6D4FA5B5
p300
aa(lp301
VSOFSVLQ12A8C141D94
p302
aVSOZKLVA12A6D4F6B10
p303
aVSOPERLI129F0824AA5
p304
aVSOWDFNK12A8C132658
p305
aa(lp306
VSOKNWRZ12A8C13BF62
p307
aVSOVOYJR12A8C130C30
p308
aVSONKHIU12A6D4F9BC6
p309
aa(lp310
VSOAFTRR12AF72A8D4D
p311
aVSOTENEO12A6701F28F
p312
aa(lp313
VSOBEJLG12A6701D939
p314
aVSOWIZLX12AB018A1F9
p315
aa(lp316
VSOPXVXL12A58A7EDF3
p317
aVSOILPCB12A6D4F8D30
p318
aa(lp319
VSOJBNPE12A8AE47B59
p320
aVSOIWZGN12AB017C70B
p321
aa(lp322
VSOEAUUU12A8C1387B0
p323
aVSOLKLGN12AB0180AC9
p324
aVSOXANLW12A8C133DBC
p325
aVSOMJRNY12A6D4FA03E
p326
aVSOZKLHS12AB018018F
p327
aVSOUVOAR12A8C13ACF0
p328
aa(lp329
VSOTIHNY12AB0184742
p330
aVSOLUZWP12AB0186629
p331
aa(lp332
VSOAOUSJ12A58A77E61
p333
aVSOBCNUQ12CF5CFD5B6
p334
aVSONWODQ12AC3DFB57B
p335
aVSOUJMOE12A8C138654
p336
aa(lp337
VSOWDFGG12A6D4F9863
p338
aVSOUQJDY12A6701D2EF
p339
aVSOTEZJI12A8C13FF9E
p340
aVSOPGEUB12A8C13DBA1
p341
aVSOBSICO12A67020895
p342
aVSOCZGWX12A8C1446E0
p343
aVSOANPSM12A6D4FAB4C
p344
aVSOTXDUV12A8C1465D8
p345
aVSOJFQIA12A8C136251
p346
aVSOGVBPZ12A8C13747D
p347
aa(lp348
VSOBUYST12A67AD84FE
p349
aVSOZAKXU12A6D4F6893
p350
aVSOZBVTL12A6D4F9D22
p351
aa(lp352
VSOEZYKT12A8C13B68A
p353
aVSOFSTXF12AB0181BE9
p354
aVSOEPFXK12A8C13ADE1
p355
aVSOHROSI12A6D4F9603
p356
aVSODLBLS12A6D4F7940
p357
aa(lp358
VSOXFFPU12A8C134F17
p359
aVSOBZWLA12D021B0FAF
p360
aa(lp361
VSOBDYWT12AF729BEB0
p362
aVSODQLAE12A8AE4636C
p363
aVSOKAQBY12AB0185614
p364
aVSOKTLWI12AC3DF8512
p365
aVSOJIBZC12A6D4F6679
p366
aVSOBBDOX12A670208E0
p367
aa(lp368
VSOROGUL12A8C141CDC
p369
aVSOWLKGF12AB017E647
p370
aa(lp371
VSOQMQND12AB018AAD7
p372
aVSOGFBVF12A679D7E24
p373
aVSOTUCYL12A8C14487F
p374
aVSOINALL12D021B3D41
p375
aa(lp376
VSOGLCIP12A8C13754A
p377
aVSOIUEHF12A8C145B8C
p378
aVSOCJWPI12A8C13D357
p379
aVSOVMGXI12AF72A80B0
p380
aa(lp381
VSOBJBLO12AAF3B48B5
p382
aVSOUCEFH12AB018413A
p383
aVSOUSZSW12AB01800C2
p384
aVSOQCNCF12A6D4F81B1
p385
aa(lp386
VSOONYSQ12A8AE46098
p387
aVSOZXHRK12AB0183F11
p388
aa(lp389
VSOSAGSN12AB018B723
p390
aVSOOECXL12A6310F24D
p391
aa(lp392
VSOYJSCA12A8C13267E
p393
aVSOBZRTV12AB01879CE
p394
aa(lp395
VSOFAGDP12A8C13D138
p396
aVSOQCSOZ12A8C13F695
p397
aVSOROLGJ12AB0189760
p398
aa(lp399
VSOWLENA12AB01845C6
p400
aVSOUPNFG12A8C136DC6
p401
aa(lp402
VSOXZUAV12A6310F21A
p403
aVSOTBSKO12A8C13B62E
p404
aa(lp405
VSOFAGDP12A8C13D138
p406
aVSOFLOBQ12AAF3B1ADD
p407
aa(lp408
VSOEDPOU12A67ADE2E9
p409
aVSOBGSTM12A8C1368A2
p410
aVSOKNWUI12AB0185B54
p411
aa(lp412
VSOBUYST12A67AD84FE
p413
aVSOMOXDT12A8AE46BAF
p414
aVSOOZOEW12A8C1438C6
p415
aa(lp416
VSOMNGMO12A6702187E
p417
aVSOZAKXU12A6D4F6893
p418
aVSOKPASY12A8C14135F
p419
aa(lp420
VSOOFLDY12A6D4F9805
p421
aVSOUIFKL12A6701C51C
p422
aVSOBFGLR12A8C13F7F6
p423
aa(lp424
VSOEVCPD12AF72A3232
p425
aVSOGKCUW12A8C141F3C
p426
aa(lp427
VSORFVGD12A58A79EBF
p428
aVSOINQNL12A8C13ADD1
p429
aVSONAPWP12D0219A283
p430
aVSOMWZYC12AB017CF57
p431
aa(lp432
VSOMTNZA12A6D4F6BEA
p433
aVSOGYBEW12D021B3D9A
p434
aVSOTAWNJ12A8C13FEFC
p435
aa(lp436
VSOVKQFF12A6D4FAB5A
p437
aVSOYKPDC12AB018354F
p438
aVSOESBWM12A58A7D8D3
p439
aVSOSGPVW12A58A76A36
p440
aVSOTCHHG12AAF3B3E1C
p441
aVSOQZWFE12A6D4FAEF1
p442
aVSOIMLSA12AB018772D
p443
aa(lp444
VSOAASUT12A8C13E8CD
p445
aVSOUMKOJ12A8C134A11
p446
aVSOOBQZS12A58A7B9CB
p447
aVSORZYGT12A6701E302
p448
aa(lp449
VSOUAGYF12A8C13B982
p450
aVSOKTLWI12AC3DF8512
p451
aVSOIZHTI12A6D4F67C5
p452
aVSOJUVYA12AB01860BA
p453
aa(lp454
VSOJUXQJ12A8C1405A5
p455
aVSOVGLKC12AC95F017E
p456
aVSOKURNG12AB01895AB
p457
aVSOINKKL12A6D22824F
p458
aa(lp459
VSOLJZEL12AB018D3B4
p460
aVSOIQHPL12A6701F061
p461
aa(lp462
VSOUXPDA12AB0182E46
p463
aVSOLVDLH12AB0185F06
p464
aa(lp465
VSOOGRXA12A8C135755
p466
aVSOEDAHC12A8C133DFE
p467
aa(lp468
VSOXSMGP12A6310DFA6
p469
aVSOLMSGA12A8C143091
p470
aVSODJRJZ12A58A76AC4
p471
aVSOMFAEO12AF72A3265
p472
aa(lp473
VSOUIUIW12A8C134F47
p474
aVSOAFTRR12AF72A8D4D
p475
aVSOEAEEA12A8AE465C9
p476
aVSOMOVIW12A63110846
p477
aVSOJUVXX12AB017CD86
p478
aVSORDKQF12A8C13D407
p479
aVSOGDRYS12AB0181D94
p480
aa(lp481
VSOFEOUD12D021B1FC4
p482
aVSOFIDGN12A6D4F8917
p483
aVSODXGRZ12A8C1425F6
p484
aVSOIFLAU12AF72A38F3
p485
aVSOZAHBR12A67ADA28C
p486
aVSOJMJDE12CF58265F4
p487
aVSOAXEPS12AF729E550
p488
aVSOPLUOT12A6D4F7AC3
p489
aa(lp490
VSOKNLRS12A6D4F88C6
p491
aVSOHVXLL12AB017E726
p492
aa(lp493
VSOYWOYL12AB018CB2E
p494
aVSOHBHLC12A6D4F992C
p495
aa(lp496
VSOGFCEQ12A8C1351AF
p497
aVSOFGXUF12AAFF44225
p498
aa(lp499
VSOWNSZY12AB0180BCF
p500
aVSOAQCAC12AB01829D2
p501
aVSOIRTDK12A6D4F4BCE
p502
aVSOZGWME12A8C13F107
p503
aVSOYQIKD12AF72AA359
p504
aVSOZYYIC12A8C137180
p505
aa(lp506
VSOOLXBD12A8AE485CB
p507
aVSOGXQBC12A8C136D69
p508
aa(lp509
VSOKPIPM12A6D4F3B65
p510
aVSORMLJU12A8C13EEEE
p511
aa(lp512
VSOXYWQM12A6D4F970A
p513
aVSOINTXZ12AF729FB66
p514
aVSOIMCDE12A6D4F8383
p515
aVSOUFOBC12AB0185331
p516
aa(lp517
VSONWLLL12A6310D7F9
p518
aVSOLSDRW12A6D4FACC4
p519
aVSOIQHPL12A6701F061
p520
aVSODDGTV12AB0181222
p521
aa(lp522
VSOHOZBI12A8C132E3C
p523
aVSOMXGXR12A8C142378
p524
aVSOETTMX12A6D4F64E2
p525
aa(lp526
VSODWUCN12A6701D259
p527
aVSOFRVXS12A6D4F8ECE
p528
aVSOUOVKY12A67ADF9FA
p529
aVSORSVLR12AB017B6B1
p530
aa(lp531
VSOWRHLC12AF72A2BD7
p532
aVSOMLGFY12AB01852F9
p533
aa(lp534
VSODMGSB12A81C21DAA
p535
aVSOGLWVQ12AF72A671A
p536
aa(lp537
VSODGXQS12A8C13F124
p538
aVSOOQQTA12A8C1433EA
p539
aVSOELBHD12AB0187A2F
p540
aVSOIWTEJ12AB0181EA6
p541
aa(lp542
VSOZJSAD12A6310F322
p543
aVSOOQASH12A8C1353D8
p544
aa(lp545
VSOLLJFF12A8C13C1B3
p546
aVSOJYYAN12A58A790B1
p547
aa(lp548
VSOIJUQO12A58A7E987
p549
aVSONOTQA12A6D4F7A48
p550
aa(lp551
VSOQTGDO12AB0188C24
p552
aVSOVZAQD12A6D4FA818
p553
aVSODYHPO12A8C13A839
p554
aVSOWFPNV12AB017C143
p555
aa(lp556
VSOYZPBJ12AB0188D88
p557
aVSOJKVMM12A8C13C5FE
p558
aa(lp559
VSOFZJJB12D02198D39
p560
aVSOPMJMF12A6D4F9EFD
p561
aa(lp562
VSOWCNDE12A6D4F7D25
p563
aVSOCCSKJ12A8C133BDE
p564
aVSOAUEVN12A6D4F8B79
p565
aa(lp566
VSORLZUQ12A81C228E3
p567
aVSODLUFQ12A8C141D03
p568
aa(lp569
VSOQZXVS12AB017DDCD
p570
aVSOOVIFA12AB017ECE8
p571
aVSOSYEMQ12A58A7878E
p572
aa(lp573
VSODJQQQ12A8C134922
p574
aVSOUYYAK12AB01891BF
p575
aa(lp576
VSOFJAMK12AB018CCD9
p577
aVSOMJWIV12AC468A5A0
p578
aVSOXVMGL12A8AE47AE9
p579
aa(lp580
VSOEOSMU12A8C13B3AE
p581
aVSONKSBZ12AB01826BF
p582
aa(lp583
VSOLUTWE12A8C134598
p584
aVSOPNYTL12A6D4F7BE6
p585
aVSOUBQWU12A8AE46AB7
p586
aVSODUUOO12A6310F353
p587
aVSOPCYWJ12AB017F7C9
p588
aa(lp589
VSOWKSBH12A67020DEB
p590
aVSOONHVN12A8C138C37
p591
aVSOLAVAG12AB017CC98
p592
aVSOGMPJO12A8C13F7ED
p593
aVSOYSPDK12A6D4F7D27
p594
aa(lp595
VSOJLWGO12A670201D0
p596
aVSOVNKJI12A8C13CB0D
p597
aa(lp598
VSOCVMHO12A6D4F9C77
p599
aVSOHMJIL12AB01816F9
p600
aVSOJUPPU12AB0185388
p601
aa(lp602
VSOUINFV12A6D4F7DEB
p603
aVSOPHBMA12A6D4F7FC9
p604
aVSONSXTU12A6D4F930F
p605
aa(lp606
VSOFSGBJ12A8AE4645B
p607
aVSOSXICZ12A8AE461DE
p608
aa(lp609
VSOKZIGS12A81C238C9
p610
aVSOVVLKV12A8AE49992
p611
aa(lp612
VSOJOHWW12AB017F489
p613
aVSORTJYH12AB01805FC
p614
aa(lp615
VSOAGMOX12A8C1399D1
p616
aVSOWVWNZ12AB018A45A
p617
aVSOSZILM12AB018A01C
p618
aVSOBKHCX12A8C142794
p619
aVSONIJLQ12A6D4F7D51
p620
aVSOHSAYJ12A8AE48A05
p621
aVSOJLQEL12A6310E2F1
p622
aa(lp623
VSOUOBLC12AB0186146
p624
aVSORTJYH12AB01805FC
p625
aa(lp626
VSOGHGNU12A8C1433AE
p627
aVSOMRJHN12A8C1408E0
p628
aa(lp629
VSOQCNCF12A6D4F81B1
p630
aVSOLQBZC12A8C1336B6
p631
aa(lp632
VSOBSTHO12A8C142818
p633
aVSOSJCUF12AB0180EBB
p634
aa(lp635
VSORXCYP12A6D4F96F6
p636
aVSOXZMMV12AB0188F6B
p637
aVSOXANLW12A8C133DBC
p638
aVSOCADHU12A8C1419A5
p639
aa(lp640
VSOBYCGK12AB0180D47
p641
aVSOWWAUI12A6D4FB4F5
p642
aVSOAZNCA12AB0185D96
p643
aa(lp644
VSOHWDWP12AB018D44C
p645
aVSOYUCBC12A8C139A87
p646
aVSORUHLZ12A8159E8F9
p647
aa(lp648
VSOGPSGT12A8C139BD9
p649
aVSOZAMIQ12A3F1EBE9C
p650
aa(lp651
VSOZZDUG12A8C130EA7
p652
aVSOAXVBU12A6D4F7A3F
p653
aa(lp654
VSOYLXXY12AB018686F
p655
aVSOQAXQT12A8AE46AF6
p656
aa(lp657
VSOEKIPK12A6702077B
p658
aVSOFXPZA12A8C13DD8A
p659
aVSOXKOBC12A8C13F842
p660
aa(lp661
VSOJPARD12A8C13A5F4
p662
aVSOTMWUB12A8C144BDC
p663
aa(lp664
VSOAGJZX12AB01891C0
p665
aVSOVEDYQ12A8C13A514
p666
aVSOOQASH12A8C1353D8
p667
aa(lp668
VSOOMCMK12AF72A43AB
p669
aVSOWGIBQ12AB017F5CE
p670
aVSOEXBRE12A6D4F7005
p671
aVSOJILUX12A81C202FD
p672
aVSOZWOXT12AB018A5FE
p673
aVSODIZTD12A58A76BE7
p674
aVSOTWPPZ12AB018DF27
p675
aVSOUUTBA12A6D4F9940
p676
aa(lp677
VSOFKCWS12A8C134911
p678
aVSOMPTZY12A5891ED3F
p679
aVSOPEPDC12A6D4F7599
p680
aVSOGUIDL12AB017ECB0
p681
aVSOCHBAR12AB0187BA9
p682
aa(lp683
VSOBNGPM12A8C13B691
p684
aVSOOUEDD12A8C14425B
p685
aa(lp686
VSOEZPRQ12A8C13DDCC
p687
aVSOBAIKW12A6310FF58
p688
aa(lp689
VSOFCHDP12A8C13A5DA
p690
aVSOYCZGE12A6D4FA361
p691
aa(lp692
VSOQPOBG12A67AE024A
p693
aVSOHHJYE12A8AE47599
p694
aa(lp695
VSOOWKCQ12A8C13BC9A
p696
aVSOAMNGZ12A6D4F8702
p697
aVSOQLIZI12A8AE471C6
p698
aa(lp699
VSOYJGSR12A6D4FA7EC
p700
aVSOGZVTK12A6701BE5B
p701
aa(lp702
VSORGJTW12AB0183A57
p703
aVSORLJAU12AB0189031
p704
aa(lp705
VSORDJEF12A6D4FCECC
p706
aVSOLWSNI12A58A7FEED
p707
aa(lp708
VSOHHBRK12A6D4F7AFA
p709
aVSOUYLKE12AB0186F79
p710
aVSOPKDUF12A8C13F15E
p711
aa(lp712
VSOBZWLA12D021B0FAF
p713
aVSOXFFPU12A8C134F17
p714
aVSOBUYST12A67AD84FE
p715
aa(lp716
VSOXDDBS12A8C13B494
p717
aVSOFSTXF12AB0181BE9
p718
aa(lp719
VSOWEXTT12A6BD55A9F
p720
aVSOEZYKT12A8C13B68A
p721
aVSOTCUVX12A81C2358A
p722
aVSOZAKXU12A6D4F6893
p723
aVSOHROSI12A6D4F9603
p724
aVSOIXHXB12A67020693
p725
aa(lp726
VSOKMLJC12A6D4F550F
p727
aVSOGUIDL12AB017ECB0
p728
aVSOZAKXU12A6D4F6893
p729
aVSOBJALT12A6D4F71E3
p730
aa(lp731
VSOTHJXM12A8C142C8A
p732
aVSOJMJFV12AB018F853
p733
aa(lp734
VSOPNPLM12AB017F4EB
p735
aVSOALCOJ12AB0189FAB
p736
aVSOUNIQB12A6D4F7E3A
p737
aa(lp738
VSOCAJGD12A8C141186
p739
aVSOSHJHV12A8C143319
p740
aa(lp741
VSOWUBXC12A8C132682
p742
aVSOQBFKR12AB01835FC
p743
aVSOSMWOQ12A8C13A5C4
p744
aa(lp745
VSOBGPBB12A8C138549
p746
aVSODZIBG12A8C13F4F3
p747
aa(lp748
VSOAVITW12AB0189F98
p749
aVSOIYPLX12AB0189CA2
p750
aa(lp751
VSOWKHIK12A6D4FAF41
p752
aVSORFAOX12B0B8079DA
p753
aVSOIJMLT12A6701F9F0
p754
aVSOAMDTU12A67ADE753
p755
aVSOCHBAR12AB0187BA9
p756
aa(lp757
VSOGCWZS12A6701FCAC
p758
aVSOXSMGP12A6310DFA6
p759
aa(lp760
VSODWUCN12A6701D259
p761
aVSOIWEUA12A8C137B06
p762
aVSOBXRCM12A6D4F9835
p763
aa(lp764
VSOVDCPG12AB0188F4F
p765
aVSOKDWQS12A8C136B03
p766
aa(lp767
VSOTJQZN12AF72AA288
p768
aVSOINQNL12A8C13ADD1
p769
aVSOQLIZI12A8AE471C6
p770
aVSOBVKBE12A67ADF372
p771
aVSOTFABB12AF72A7ACE
p772
aVSOQNXBA12A8C143B11
p773
aa(lp774
VSONOALN12AB017CC19
p775
aVSOKEMEF12A6D4F9403
p776
aa(lp777
VSOLATVO12AB0185E65
p778
aVSOZYVAT12A8C13A3CA
p779
aVSOVNTJG12AB0181781
p780
aVSODLUFQ12A8C141D03
p781
aVSOCIHOK12AF72A1D99
p782
aVSOJOWHV12A6D4F6FFC
p783
aa(lp784
VSOMVKPP12A8C140377
p785
aVSOXRRAD12AC468A23D
p786
aa(lp787
VSOWTKSB12A58A7E0A0
p788
aVSOTAGMK12AB0180894
p789
aVSOFBAZD12A6702184D
p790
aa(lp791
VSOSGYLN12A6310F950
p792
aVSOYAOJB12A679C8056
p793
aVSOVLDHW12A679C8060
p794
aVSONVPVP12AF72A6851
p795
aVSOVLFWP12A6D4F9900
p796
aa(lp797
VSOZZDUG12A8C130EA7
p798
aVSOOTKAC12A6D4F92E6
p799
aa(lp800
VSOWQGQW12A6701D021
p801
aVSOCAHCE12AB017D30F
p802
aVSOXBEYM12AC4689A64
p803
aVSOWNWHR12A6D4F9981
p804
aVSOPHLCX12A6D4F94B7
p805
aa(lp806
VSOYLXXY12AB018686F
p807
aVSOJRZIN12A67AE1367
p808
aa(lp809
VSOBCAAD12A8C130EBF
p810
aVSORJGYU12A81C20961
p811
aVSOENRTG12A67020E07
p812
aa(lp813
VSOELXWZ12AB017DB22
p814
aVSOSIJMO12A8C1389DB
p815
aa(lp816
VSOQBFKR12AB01835FC
p817
aVSOFDMGQ12AC3DF4F12
p818
aVSOICAZH12A6D4F9864
p819
aa(lp820
VSOJWVJU12A6701E347
p821
aVSOAGMOX12A8C1399D1
p822
aa(lp823
VSONXCTN12A58A78E4B
p824
aVSOEVJCY12A6D4FE836
p825
aVSOFXBUV12AB0187A06
p826
aa(lp827
VSOPCVKB12A6701D2E2
p828
aVSOYSNYN12A81C2165F
p829
aVSOBYCGK12AB0180D47
p830
aVSOSRUFM12A6D4F9912
p831
aVSOMCISQ12A8C1356CA
p832
aa(lp833
VSOHEPXY12A6D4F8CC9
p834
aVSOBZMDJ12AB017BBCC
p835
aVSOCHBAR12AB0187BA9
p836
aa(lp837
VSOFULKE12A6D4FA691
p838
aVSOQQTCX12AB0186D49
p839
aVSOTXQTJ12AB017F706
p840
aa(lp841
VSOXGJAX12A58A7BA10
p842
aVSOCHDLX12A6D4FACA0
p843
aVSOLNYUR12A6310D7F7
p844
aVSOHSSHC12A8C1306F6
p845
aVSOMSVWU12AB0187600
p846
aa(lp847
VSOUJTFS12A6310D938
p848
aVSOWGLHP12A8C13CAEE
p849
aa(lp850
VSOXFFPU12A8C134F17
p851
aVSOUEZMI12AB018786C
p852
aa(lp853
VSOMQJET12A8C142157
p854
aVSOZEOQV12AB017DE27
p855
aVSOXERLQ12A8C144889
p856
aa(lp857
VSOAETAN12A8C136B2C
p858
aVSOMGOBU12A8C13E480
p859
aVSODQSMQ12AB0184AEF
p860
aVSORXSYY12A8C13A34A
p861
aa(lp862
VSOUOKFF12AB0186E7D
p863
aVSOHGEPW12A58A798E1
p864
aa(lp865
VSOLMSGA12A8C143091
p866
aVSOWFPNV12AB017C143
p867
aVSOVZAQD12A6D4FA818
p868
aVSOWGHHQ12A67021878
p869
aVSOYZYYY12A6701C432
p870
aVSOZRNIV12AB018E484
p871
aVSOVOAAD12A6D4F9AEC
p872
aVSOHSMVT12A6701BEB6
p873
aa(lp874
VSOTZIIP12A6D4FB471
p875
aVSOMYAUL12A8C139B9B
p876
aVSOLZHUY12AB0188680
p877
aVSOVPNMV12D02193D7F
p878
aVSOMBWGK12AAFF43463
p879
aa(lp880
VSOGCRXA12A6310D996
p881
aVSOHVZXZ12A6701C395
p882
aa(lp883
VSOFZSNR12A6310D87D
p884
aVSORAHXS12AB017EAB9
p885
aa(lp886
VSOXXIUP12A8C13B8E9
p887
aVSOHEPHE12AF729E9D0
p888
aa(lp889
VSODAQBI12A6D4F9BC8
p890
aVSOVNRVP12AAF3B5352
p891
aVSOPXCAF12A58A7DC08
p892
aVSOGRLYB12A8C13C1A2
p893
aa(lp894
VSOIWBJU12A6701CBE7
p895
aVSOPGKHY12A6D4F95DB
p896
aVSOLJOJD12AB0182697
p897
aVSOXFFPU12A8C134F17
p898
aVSOFGLYK12A8C143FED
p899
aa(lp900
VSOIJGLC12A67FFB3EB
p901
aVSONVORY12A8C13ED52
p902
aa(lp903
VSOTFABB12AF72A7ACE
p904
aVSORDKQF12A8C13D407
p905
aa(lp906
VSORGJTW12AB0183A57
p907
aVSOLWSNI12A58A7FEED
p908
aVSOZAFIC12AB017DAE3
p909
aa(lp910
VSOVHIIX12A58A78E30
p911
aVSOSJEOO12AC4689BA5
p912
aa(lp913
VSOMKIYE12A6701F863
p914
aVSOYJGSR12A6D4FA7EC
p915
aVSOCONZS12A6D4F7E03
p916
aVSOINALL12D021B3D41
p917
aVSOJUMBR12AC3DF439D
p918
aVSOOKWLY12AB0182AB8
p919
aa(lp920
VSOEDTCQ12A6310F1AF
p921
aVSOHXMTT12A8C13A8DE
p922
aa(lp923
VSOGYLPF12AB0185610
p924
aVSOHFTTQ12AF72A53D4
p925
aVSOPPICO12A58A77238
p926
aa(lp927
VSOQPBZV12A8C136AF4
p928
aVSOBOKMK12A8C138712
p929
aVSOJCNHV12A8C13EAB7
p930
aa(lp931
VSOHEMBB12A6701E907
p932
aVSOEDAII12A670201DF
p933
aa(lp934
VSOSGPVW12A58A76A36
p935
aVSOOVIFA12AB017ECE8
p936
aa(lp937
VSOZSZTH12A8C131141
p938
aVSOUDRCO12A6D4FB3AF
p939
aVSOFJAMK12AB018CCD9
p940
aa(lp941
VSOFGLYK12A8C143FED
p942
aVSOPMJMF12A6D4F9EFD
p943
aVSOBMIWW12A6D4FBE6A
p944
aa(lp945
VSOIWBJU12A6701CBE7
p946
aVSOIJGLC12A67FFB3EB
p947
aa(lp948
VSOBTJRC12A6310ECD4
p949
aVSOSEJSI12AB0184F55
p950
aVSOCUIKI12A8C13A016
p951
aVSOIAWCS12AB018379B
p952
aa(lp953
VSOLXTZM12AB01831D5
p954
aVSOLCCUG12A6D4FA0E5
p955
aa(lp956
VSOJVQGU12A67ADD4EF
p957
aVSOXHWQO12A58A7AD15
p958
aVSOZZHQT12AB018B714
p959
aVSODADLE12AB0184FAE
p960
aa(lp961
VSOWAHNU12A58A78D97
p962
aVSOHKVLB12A8C13DD95
p963
aVSOTOGXQ12A6310DF56
p964
aa(lp965
VSOENQMK12A81C212D5
p966
aVSOAQMSC12A6D4F8BDC
p967
aVSOXPFMW12A6D4F88A5
p968
aa(lp969
VSOFPHXA12A8C14517E
p970
aVSOZIFQO12A58A7BAA0
p971
aVSOWCECW12AB018273E
p972
aa(lp973
VSOLUXCG12A8C13C6F7
p974
aVSOPXLWJ12A8C132639
p975
aVSOXZNXJ12A6701D22B
p976
aVSOSYEJO12A67ADF6B5
p977
aVSOBRXIE12A58A784A4
p978
aa(lp979
VSOPYYSM12A6D4F7772
p980
aVSOQZAKJ12A8C143F09
p981
aa(lp982
VSOUVDUK12A8AE489A3
p983
aVSOIEPEN12A6D4F86F2
p984
aa(lp985
VSOYQCYH12A8C13896F
p986
aVSOGHLRC12A67ADBD64
p987
aVSOZKWRO12A8C14236F
p988
aVSORXOQD12A8C142C04
p989
aVSOZKLVA12A6D4F6B10
p990
aa(lp991
VSOGQKLV12AB0185D9F
p992
aVSOBCNUQ12CF5CFD5B6
p993
aVSOWYXAM12AB0183DD0
p994
aa(lp995
VSOLNFDR12A6D4F871B
p996
aVSOAUFFO12A670214BA
p997
aa(lp998
VSOFHFDD12AC46880BF
p999
aVSOAEAQE12A8C13F7EC
p1000
aVSOMZTIK12A8C139B68
p1001
aa(lp1002
VSOSJGAD12AB0181146
p1003
aVSOQYGSV12AB0185635
p1004
aVSOZIRSX12AB017D0D3
p1005
aVSOGFBVF12A679D7E24
p1006
aVSOXJENQ12A8C13C59D
p1007
aVSONWHHJ12A8C13FF49
p1008
aVSOJAMRA12A58A77D25
p1009
aa(lp1010
VSOASFXO12A8C136BAF
p1011
aVSOBWZJG12A6701F405
p1012
aVSOLIIRG12AB017C18C
p1013
aVSOJVPKR12AB0184F3A
p1014
aVSOXXKXP12A8C13C5D5
p1015
aVSOOOBRP12AB0186F85
p1016
aVSORPANR12A6D4F66C7
p1017
aa(lp1018
VSONBGOT12A6701DC53
p1019
aVSOKKZDB12A6310E966
p1020
aa(lp1021
VSORDJEF12A6D4FCECC
p1022
aVSOLWSNI12A58A7FEED
p1023
aVSOLRSWK12D02191EA0
p1024
aVSOQTDBM12A8C1339CF
p1025
aa(lp1026
VSOWFPNV12AB017C143
p1027
aVSOAFTRR12AF72A8D4D
p1028
aa(lp1029
VSONKZWM12AB017D049
p1030
aVSOCTNCE12A8C1439B6
p1031
aVSOTYUAW12AB017CEB7
p1032
aVSOOZNGS12AB0185170
p1033
aVSOBOBDK12D02191E77
p1034
aa(lp1035
VSOPPCXM12A6D4F66BC
p1036
aVSOCFAUI12A8C13BBE8
p1037
aVSOTFPLO12A6D4F7AC8
p1038
aa(lp1039
VSOMKJNQ12AC4687C63
p1040
aVSOJUPFZ12A8C13E883
p1041
aVSOYPDID12A6702012C
p1042
aVSOPIQZG12A6D4FD253
p1043
aa(lp1044
VSOBYPMP12A6310EDC5
p1045
aVSOLMBXS12AB018387B
p1046
aVSOEVCPD12AF72A3232
p1047
aa(lp1048
VSOVMBQW12A58A7DA0D
p1049
aVSOUQJDY12A6701D2EF
p1050
aVSOFCHIM12A8C138635
p1051
aVSOOVPEM12AB017CC1F
p1052
aVSOAXVBU12A6D4F7A3F
p1053
aVSOUZGQR12A6D4F7FA8
p1054
aVSOKNJKG12AB018B648
p1055
aVSOVMVBW12A6D4F91EC
p1056
aVSOONIKD12A8AE48316
p1057
aVSOZJSAD12A6310F322
p1058
aVSOWAELV12A6D4FBACA
p1059
aa(lp1060
VSORQTCL12A8C142AC0
p1061
aVSOAUFFO12A670214BA
p1062
aVSOFSJKF12A8C13FF74
p1063
aVSOIBXOP12A58A7F490
p1064
aa(lp1065
VSOYSNYN12A81C2165F
p1066
aVSOOSGZZ12AB017EB26
p1067
aa(lp1068
VSOWHTFY12A6702184E
p1069
aVSOQBYMB12AB018C78A
p1070
aa(lp1071
VSOQFZSE12A58A7917E
p1072
aVSOSOMWG12CF530D54E
p1073
aVSONPOVB12D02190B36
p1074
aVSOHINZX12AB017B5FE
p1075
aa(lp1076
VSOSSMGA12A67020F9A
p1077
aVSOCONZS12A6D4F7E03
p1078
aa(lp1079
VSOZGASJ12A670214A3
p1080
aVSOZRDAP12AB0188F4D
p1081
aVSOVJNYR12AAF3B3E5F
p1082
aa(lp1083
VSOEEQUD12A8C137A53
p1084
aVSOUWDVC12A58A7AD6D
p1085
aVSOMERHS12AB0183BE6
p1086
aa(lp1087
VSOHXGXE12A8C134DFD
p1088
aVSOGAAOI12A58A7F15B
p1089
aa(lp1090
VSOXVKSR12A6D4FC75F
p1091
aVSOIFOPB12AB0183C3C
p1092
aVSOPCVKB12A6701D2E2
p1093
aa(lp1094
VSOGJRSP12A58A7A4F1
p1095
aVSOUHSUW12AB017F112
p1096
aa(lp1097
VSOSOVYB12AB01845F0
p1098
aVSORBZFR12A8AE46E4D
p1099
aVSOJJHDQ12A6701D1EA
p1100
aVSOGCCGB12D021B107F
p1101
aVSOYKUDF12A8AE48B69
p1102
aVSODDVFH12D021B33C9
p1103
aa(lp1104
VSOHSAYJ12A8AE48A05
p1105
aVSOGEDPI12A58A79FC1
p1106
aVSOBMTNQ12A8C1332E8
p1107
aa(lp1108
VSOCNRQW12A6701F9F9
p1109
aVSOHPYSA12AC4687457
p1110
aVSOADXGA12D0219ACD3
p1111
aVSOSNZTN12A8C12FCA6
p1112
aa(lp1113
VSOWNSZY12AB0180BCF
p1114
aVSOTALJW12A6D4FAA40
p1115
aa(lp1116
VSOBXRMB12A8C13AE2C
p1117
aVSOOXRIE12A6D4F9284
p1118
aVSOWKGWT12A6D4F6C1D
p1119
aVSODVMRV12A8AE45AD8
p1120
aVSOTAGMK12AB0180894
p1121
aa(lp1122
VSOGAAMK12A58A7ACD6
p1123
aVSOCONZS12A6D4F7E03
p1124
aa(lp1125
VSOPMCUN12A6701F456
p1126
aVSOYDAPA12A8C1337D8
p1127
aVSOLEPNE12A6D4F86C5
p1128
aVSOWBGSE12A6D4FB028
p1129
aa(lp1130
VSOCZQYW12A6701E52E
p1131
aVSOIDUPD12A6D4F9C25
p1132
aVSOQJLWB12A6701E7B3
p1133
aVSOAFZZQ12AB0188BEF
p1134
aa(lp1135
VSOIFLAU12AF72A38F3
p1136
aVSOCONZS12A6D4F7E03
p1137
aVSOVNASG12AB017D9F5
p1138
aa(lp1139
VSOTYUAW12AB017CEB7
p1140
aVSOUZAZT12A8C13982C
p1141
aa(lp1142
VSOJRKYW12A58A799DA
p1143
aVSOIMCDE12A6D4F8383
p1144
aVSONYCOW12A8C137493
p1145
aa(lp1146
VSOKVLVS12AC3DFB65B
p1147
aVSOHJRGO12A58A79584
p1148
aa(lp1149
VSOTGMWI12AB0180B5B
p1150
aVSOUCEFH12AB018413A
p1151
aa(lp1152
VSOURBRH12A6D4F81CC
p1153
aVSOZSYPY12A6310DF1C
p1154
aa(lp1155
VSOSFDUN12A6D4FBD0A
p1156
aVSOXSLVP12A8C131DF8
p1157
aa(lp1158
VSOLYEOF12AF72A60AC
p1159
aVSOGDQCS12A8C132A92
p1160
aa(lp1161
VSOVRNBS12A6D4F88B3
p1162
aVSOHZPVS12A6701D2FA
p1163
aVSOCRCNK12A8C133AA7
p1164
aVSOASAFX12A6D4F5808
p1165
aa(lp1166
VSOQZAKJ12A8C143F09
p1167
aVSOXVCUB12AF729FAE7
p1168
aa(lp1169
VSOWJRIQ12AB017C5D2
p1170
aVSOQTGDO12AB0188C24
p1171
aa(lp1172
VSOZRQQV12AC3DF93AD
p1173
aVSOFDMGQ12AC3DF4F12
p1174
aa(lp1175
VSODUTQD12A6D4F8380
p1176
aVSOMWZYC12AB017CF57
p1177
aVSOMBLQW12A58A798DD
p1178
aa(lp1179
VSOGUVDL12CF56650B1
p1180
aVSOEDOHT12A8C13A2D1
p1181
aVSOLFXAR12A8C13D251
p1182
aa(lp1183
VSOTEJTP12A8C13647D
p1184
aVSOMLAVM12A8C1321B4
p1185
aa(lp1186
VSOXJZGQ12A8C131A4B
p1187
aVSOIREIZ12A67020AFA
p1188
aa(lp1189
VSOSHDXD12A8C1427A7
p1190
aVSOSGYLN12A6310F950
p1191
aVSOMJEYE12AB0183E95
p1192
aa(lp1193
VSOQVRGU12A8C1413F2
p1194
aVSOYYIZX12A6D4FD72C
p1195
aa(lp1196
VSOMUXVE12A6D4F6EAB
p1197
aVSOGKCUW12A8C141F3C
p1198
aa(lp1199
VSOIIYSU12A6D4F981D
p1200
aVSONAKBL12AB0183CF5
p1201
aVSOYYIZX12A6D4FD72C
p1202
aa(lp1203
VSOSUEJJ12AB018B331
p1204
aVSOITPXC12A6310E0DA
p1205
aa(lp1206
VSOGPWXQ12AAA8C5090
p1207
aVSODRENF12A58A7C9D0
p1208
aa(lp1209
VSOSWCIR12B35058931
p1210
aVSOTLUMQ12AB0181AE5
p1211
aa(lp1212
VSOXHCIE12A8C138867
p1213
aVSOUTNRU12A8C141526
p1214
aa(lp1215
VSOXSMGP12A6310DFA6
p1216
aVSOWOZJP12AAA15D8B3
p1217
aVSOTQBOZ12A58A78DB3
p1218
aa(lp1219
VSOEQUML12AF72A5001
p1220
aVSOBQUFQ12A6701F070
p1221
aVSOUZAZT12A8C13982C
p1222
aa(lp1223
VSOFHKVZ12A6310E157
p1224
aVSOWZZTA12AF729E2E8
p1225
aVSOMIIGX12AB0188F96
p1226
aVSOPLXQQ12A8C13A9C4
p1227
aa(lp1228
VSOKZVMB12A6D4FBA5D
p1229
aVSOADMTV12A6701FA3F
p1230
aVSOVGRAO12AB01887A8
p1231
aVSOHJLVZ12A8C1349BA
p1232
aa(lp1233
VSOJZUNY12AF72A5B18
p1234
aVSOULLKD12AB017BB6F
p1235
aVSOWFHUR12AB0183842
p1236
aa(lp1237
VSOFVTSM12A67020729
p1238
aVSOZAMIQ12A3F1EBE9C
p1239
aa(lp1240
VSOMZVGZ12A8C140EFF
p1241
aVSOCWJDB12A58A776AF
p1242
aVSOKVSUY12A8C13FCE0
p1243
aVSOIBEDZ12A6D4FA5D6
p1244
aVSOSNJIT12A8159E8DB
p1245
aa(lp1246
VSOHHBRK12A6D4F7AFA
p1247
aVSOHNEKO12A6310D873
p1248
aVSOIDAWQ12A58A7DEF9
p1249
aVSOWHFDO12A81C232BD
p1250
aa(lp1251
VSOHBFUU12A6D4F9DD8
p1252
aVSONRFRD12A8C1388DA
p1253
aVSOGXQBC12A8C136D69
p1254
aVSOAQHNL12AB017FAA0
p1255
aa(lp1256
VSOPNLYE12A6D4F886A
p1257
aVSOKQYMT12A6D4FDD6A
p1258
aa(lp1259
VSORYUYN12AB0188EE1
p1260
aVSOGXZZJ12A8C138F14
p1261
aa(lp1262
VSOWBZCR12A6D4F7F33
p1263
aVSOIYQSU12A8C13AF13
p1264
aa(lp1265
VSOXVHLU12A6D4F7EAB
p1266
aVSOGVVTF12AB0180B2E
p1267
aVSOFLNXK12A6D4F99DC
p1268
aa(lp1269
VSOLQTNF12D021B23DA
p1270
aVSOVOQIJ12A58A7D1C2
p1271
aVSOUNRHI12A6D4F8CA4
p1272
aVSOOZOEW12A8C1438C6
p1273
aa(lp1274
VSOPZEVP12A6D4F84CA
p1275
aVSOBSICO12A67020895
p1276
aa(lp1277
VSOAIYVI12AB018586C
p1278
aVSOQIMVD12A6D4FA780
p1279
aa(lp1280
VSOUFOBC12AB0185331
p1281
aVSOTGETW12A8C13B75A
p1282
aVSOMWAKT12A8C135081
p1283
aVSOGGHGL12AF72A80C8
p1284
aa(lp1285
VSOADMTV12A6701FA3F
p1286
aVSOWCEQC12AF72A2B64
p1287
aa(lp1288
VSOENQMK12A81C212D5
p1289
aVSOLCTWP12AB0186AC1
p1290
aa(lp1291
VSOCVERS12A8C136ABF
p1292
aVSOJCNHV12A8C13EAB7
p1293
aa(lp1294
VSOZXVWK12AB018B865
p1295
aVSORJSVU12AB0182CDA
p1296
aa(lp1297
VSOVQCCR12A58A7A481
p1298
aVSOINQNL12A8C13ADD1
p1299
aVSOIAEJU12A8C144FFF
p1300
aa(lp1301
VSOMKAVH12B35058518
p1302
aVSOIAEJI12AF72A1A3A
p1303
aVSOZEYZW12A6D4F9739
p1304
aVSOESZWS12A6D4F910C
p1305
aVSOCNHKC12A8C13F3CA
p1306
aVSOQVKWR12A58A7D2C9
p1307
aa(lp1308
VSOQGJOQ12AB0181C93
p1309
aVSOPMDZJ12AB018C420
p1310
aVSOEIEVL12A8C1422EA
p1311
aVSOCFAUI12A8C13BBE8
p1312
aa(lp1313
VSOPRFNT12AB017F8E9
p1314
aVSOGEXHU12AAF3B3D2E
p1315
aa(lp1316
VSONVPVP12AF72A6851
p1317
aVSOSJCUF12AB0180EBB
p1318
aa(lp1319
VSOTUCYL12A8C14487F
p1320
aVSOZYCEH12A58A78135
p1321
aVSOSKELC12AC3DF60C5
p1322
aVSOUUTBA12A6D4F9940
p1323
aVSOIQAPQ12A6D4F6E9C
p1324
aa(lp1325
VSOYSEWD12A6D4F8017
p1326
aVSOIUMLQ12A8C136A69
p1327
aa(lp1328
VSOTQVVZ12A6D4FC295
p1329
aVSOSBLMB12AB01861E8
p1330
aVSOQITAW12A8C13A5CC
p1331
aVSOHXGXU12A8C1413EB
p1332
aVSOYJFKA12A8C137CA8
p1333
aa(lp1334
VSOAYZRP12A58A7DF84
p1335
aVSOOSRRR12A8C131DF5
p1336
aa(lp1337
VSODZYOU12A8C13496D
p1338
aVSOXAHCV12AB018385C
p1339
aa(lp1340
VSOHMXHY12A8C13AE28
p1341
aVSOUWDVC12A58A7AD6D
p1342
aa(lp1343
VSOSUIMH12AF72A268E
p1344
aVSOUVINC12A6D4F8EB9
p1345
aa(lp1346
VSOFAVYA12A6701F9C7
p1347
aVSOEMWSV12AB0188156
p1348
aVSOFZGUN12A8C132C49
p1349
aVSONAVNU12AF6E56411
p1350
aVSONYMXY12A8C133F27
p1351
aVSOVCNWB12AB018AAE4
p1352
aa(lp1353
VSOUEYFN12A8C133933
p1354
aVSOTYUAW12AB017CEB7
p1355
aa(lp1356
VSOSNXJP12A8AE46BA6
p1357
aVSOLKAQQ12A8C137CCA
p1358
aVSOHECII12A8C13AB85
p1359
aa(lp1360
VSORXCYP12A6D4F96F6
p1361
aVSOXCEZL12A8C135325
p1362
aa(lp1363
VSOMBMEM12AB018B0A0
p1364
aVSOEMEWD12A8C13A5BD
p1365
aa(lp1366
VSODYJYD12AB01855E3
p1367
aVSOXKOBC12A8C13F842
p1368
aVSOWLKGF12AB017E647
p1369
aa(lp1370
VSOUQMYN12A6D4FC482
p1371
aVSOJQEKF12AAF3B3FF3
p1372
aVSOFQYSK12AC468BB3B
p1373
aa(lp1374
VSOXTCDH12AC3DF5D93
p1375
aVSOVXPPT12AB017F98C
p1376
aa(lp1377
VSOAOABQ12AB017F28D
p1378
aVSOKYNNC12A8C13C9E4
p1379
aVSOSEJSI12AB0184F55
p1380
aVSONNBUM12A6D4FDDB4
p1381
aa(lp1382
VSOVLDHW12A679C8060
p1383
aVSOQPOBG12A67AE024A
p1384
aa(lp1385
VSOTUCYL12A8C14487F
p1386
aVSOXBEYM12AC4689A64
p1387
aa(lp1388
VSOFFZYH12AB0180E65
p1389
aVSOAFTRR12AF72A8D4D
p1390
aVSOYZTTT12A81C22D87
p1391
aa(lp1392
VSOSWMIC12AB0185604
p1393
aVSOFRNKY12A6701D30F
p1394
aVSOXBEYM12AC4689A64
p1395
aa(lp1396
VSOLFCFV12A6701D2F8
p1397
aVSODMASJ12AF729E6FA
p1398
aVSOUQJDY12A6701D2EF
p1399
aa(lp1400
VSOGQUIN12A6701F2C4
p1401
aVSOQAWJC12A6D4F66F2
p1402
aa(lp1403
VSOARCSA12A8C13A21D
p1404
aVSOBQLWO12A8AE48212
p1405
aVSOLKRFH12A8C13C08D
p1406
aVSOOINJS12A8C13CCCD
p1407
aa(lp1408
VSOWCEQC12AF72A2B64
p1409
aVSOKNLRS12A6D4F88C6
p1410
aVSONNBUM12A6D4FDDB4
p1411
aa(lp1412
VSOGDKEK12AF72A193B
p1413
aVSOMMIKO12AB01827FC
p1414
aa(lp1415
VSOGBRXS12A6D4FA6FF
p1416
aVSOEMSPX12AB0189103
p1417
aa(lp1418
VSOJXFZG12A8C14207E
p1419
aVSOIRUTE12A6D4FA540
p1420
aa(lp1421
VSOULSBR12A6701F97C
p1422
aVSOVNHUR12AF72A3085
p1423
aVSOFFDGE12A6310F216
p1424
aa(lp1425
VSOFIDFA12A6D4F9471
p1426
aVSOVBVXV12A6D4F8BD8
p1427
aa(lp1428
VSOTHJME12A58A796C0
p1429
aVSOOVRBS12AC4689137
p1430
aVSOKXXEW12AB017DD03
p1431
aa(lp1432
VSOKLZHQ12A6701D2E3
p1433
aVSODADYK12A6702071F
p1434
aVSODMAOP12A8C143254
p1435
aa(lp1436
VSOUWDVC12A58A7AD6D
p1437
aVSOCODBI12AB017F6CF
p1438
aVSOGJRSP12A58A7A4F1
p1439
aVSOEHRUZ12A8C135968
p1440
aVSONHJDG12A8AE4653C
p1441
aVSOLKZDQ12AB01807E0
p1442
aa(lp1443
VSOXQKEH12A8C137F45
p1444
aVSORAHXS12AB017EAB9
p1445
aVSOKRTXV12A81C21E79
p1446
aVSONWODQ12AC3DFB57B
p1447
aVSOBESQY12A8C13415C
p1448
aa(lp1449
VSOPKMKT12AAA15EB9E
p1450
aVSOSNJIT12A8159E8DB
p1451
aVSOJNNUA12A8AE48C7A
p1452
aa(lp1453
VSOXGKYP12AB018B429
p1454
aVSOLTIVF12AAFF43797
p1455
aVSOLVTJP12A6D4F7670
p1456
aVSOGVOHA12AB018301D
p1457
aa(lp1458
VSOFZBRG12D0219A470
p1459
aVSOZXTUT12A6D4F6D03
p1460
aVSOFVJHZ12A8C134EA1
p1461
aVSODWUCN12A6701D259
p1462
aVSOSNZTN12A8C12FCA6
p1463
aa(lp1464
VSOWCEQC12AF72A2B64
p1465
aVSOKQBDZ12AB018019D
p1466
aVSONNBUM12A6D4FDDB4
p1467
aVSOENQMK12A81C212D5
p1468
aa(lp1469
VSOCVERS12A8C136ABF
p1470
aVSODUSNK12A6701F694
p1471
aVSONJBQX12A6D4F8382
p1472
aVSOIMCDE12A6D4F8383
p1473
aa(lp1474
VSOBXNUD12A6D4F851C
p1475
aVSOGGJFX12A6D4F60B1
p1476
aa(lp1477
VSOJMBXY12AB0180D9B
p1478
aVSOLSGAY12A8C13E752
p1479
aa(lp1480
VSOKJSGT12AB0183D54
p1481
aVSOWQJUV12A6701FA45
p1482
aVSODLOFG12AB0184FD9
p1483
aa(lp1484
VSOYAIPB12A8C143D84
p1485
aVSODACXX12A8C135277
p1486
aVSOIWRAH12A6D4F66C0
p1487
aVSOWTXBR12AB017CA8D
p1488
aVSODNQJO12A6310F970
p1489
aVSOUJRME12A8AE48075
p1490
aVSOIKOZD12A8C13D79A
p1491
aVSOQWDYJ12D02198E60
p1492
aVSOHMUPK12A8AE49D27
p1493
aVSOWGGXF12CF5F8716C
p1494
aa(lp1495
VSOAKMDU12A8C1346A9
p1496
aVSOMTXSB12AF72ACC38
p1497
aVSOXNWFP12A8C134ECC
p1498
aVSOUQULK12A6D4FA76B
p1499
aa(lp1500
VSOAUFID12A8C13AF6C
p1501
aVSOLISQK12A8C1416AF
p1502
aa(lp1503
VSOPEYFO12A8C13CDE3
p1504
aVSOVOUAW12A6D4F88AD
p1505
aVSOMWVKQ12A81C22A5A
p1506
aa(lp1507
VSOCZIOO12A81C21B4A
p1508
aVSORAINQ12A58A7BE44
p1509
aVSOTCTQD12A8AE48256
p1510
aVSOUFBVC12A8AE465D2
p1511
aa(lp1512
VSOWSXCI12A67020171
p1513
aVSOQCNCF12A6D4F81B1
p1514
aa(lp1515
VSOSTGHO12AB0186AB1
p1516
aVSOBIZEK12A6D4F708A
p1517
aVSOAQKDM12A67020E0D
p1518
aa(lp1519
VSOFZBRG12D0219A470
p1520
aVSOUVZMY12AB01831DB
p1521
aa(lp1522
VSOSADLU12A6701FB69
p1523
aVSOLWSNI12A58A7FEED
p1524
aa(lp1525
VSOQPOBG12A67AE024A
p1526
aVSOMOLIZ12A6310EC70
p1527
aa(lp1528
VSOKHZPE12A8C14392F
p1529
aVSOLWSHZ12AB018B999
p1530
aVSODHURP12A6D4F69C4
p1531
aVSODUQFK12AB018EB80
p1532
aa(lp1533
VSOOZGPE12A6D4F65B9
p1534
aVSOGNCZT12A8C134BEF
p1535
aa(lp1536
VSOKAXYM12A6D4FCD55
p1537
aVSOYFKZF12AB018316C
p1538
aa(lp1539
VSOVSLWD12AB018380A
p1540
aVSOXKRVZ12A6BD546E0
p1541
aVSOGBVRW12AB01797CF
p1542
aa(lp1543
VSOGYJGC12A6D4FA636
p1544
aVSOTJDVA12AB0184459
p1545
aVSOBWKBR12A6D4F7754
p1546
aVSOGNYYK12A8C13BBE2
p1547
aVSOPHSCF12AB018B539
p1548
aa(lp1549
VSOOBQZS12A58A7B9CB
p1550
aVSOMCFCM12A8C142386
p1551
aa(lp1552
VSODMAOP12A8C143254
p1553
aVSOJARZR12AB0181ECD
p1554
aa(lp1555
VSOWRBKH12A8C136027
p1556
aVSOUQJDY12A6701D2EF
p1557
aa(lp1558
VSOQAXQT12A8AE46AF6
p1559
aVSOIUMLQ12A8C136A69
p1560
aVSOEDJAZ12AAA8C6674
p1561
aa(lp1562
VSOAUFFO12A670214BA
p1563
aVSOLHAQN12A81C21C19
p1564
aa(lp1565
VSOOJUIE12A81C212C2
p1566
aVSOCJREW12A6D4FBB24
p1567
aVSONXSLH12A6BD50DF4
p1568
aVSOWKDWW12AB0181413
p1569
aVSOUERYV12A6D4F77F5
p1570
aa(lp1571
VSOCNQSB12AB018078C
p1572
aVSOMXUXH12A8AE48156
p1573
aa(lp1574
VSOZMLEG12AC468B502
p1575
aVSOVNRVP12AAF3B5352
p1576
aVSOFEOUD12D021B1FC4
p1577
aVSOEQBIK12A6D4F910A
p1578
aVSOJHMFW12B0B80B79B
p1579
aVSOINILQ12A58A77EA4
p1580
aVSOXSMGP12A6310DFA6
p1581
aVSOZAHBR12A67ADA28C
p1582
aVSONDQOC12A6D4F9C26
p1583
aVSOEFWVT12A58A7A7E3
p1584
aVSOBJZCN12A6D4F80E2
p1585
aVSOPIWDP12A6310D8B9
p1586
aVSOUPDNB12A8C13A431
p1587
aa(lp1588
VSOJINNN12A6D4F5E67
p1589
aVSOGCCGB12D021B107F
p1590
aa(lp1591
VSOWIYIB12A6310D89D
p1592
aVSOTHFSQ12A6D4F7475
p1593
aa(lp1594
VSOZNNJR12A8C1374E3
p1595
aVSOYFZIN12A58A7DAF5
p1596
aa(lp1597
VSONCQNM12A8C13C5A7
p1598
aVSOJMUCX12A8C138F67
p1599
aa(lp1600
VSOYFYUR12AB017C805
p1601
aVSOTODIH12A6D4F69A4
p1602
aVSOHVNST12A8C138D04
p1603
aVSOJFBKJ12A6310D8ED
p1604
aVSOAURZD12A8C139ED4
p1605
aa(lp1606
VSOBTCLI12AB017F37F
p1607
aVSODUWUQ12AC4686969
p1608
aa(lp1609
VSOHFTTQ12AF72A53D4
p1610
aVSOGFFFB12A8C1338DF
p1611
aa(lp1612
VSOAUXQN12AB018D2F6
p1613
aVSOQZAKJ12A8C143F09
p1614
aa(lp1615
VSONQSBF12AF72ABB86
p1616
aVSODQWZT12AB018156B
p1617
aVSOOPXFY12A6701DE4C
p1618
aVSOQSKTH12AB017F748
p1619
aVSOJTHXE12AF72A571B
p1620
aa(lp1621
VSOUQULK12A6D4FA76B
p1622
aVSOYWUJJ12A6701F3D3
p1623
aVSORXHZL12A8C139219
p1624
aa(lp1625
VSORDJEF12A6D4FCECC
p1626
aVSORDKQF12A8C13D407
p1627
aVSOLWSNI12A58A7FEED
p1628
aVSOBTCLI12AB017F37F
p1629
aa(lp1630
VSOTFABB12AF72A7ACE
p1631
aVSOSCIJV12A6D4FA56D
p1632
aa(lp1633
VSOESWGP12AB018B52B
p1634
aVSOVTWII12AB0182D1E
p1635
aVSOINILQ12A58A77EA4
p1636
aVSOZBVTL12A6D4F9D22
p1637
aVSORQVWO12A3F1EAB4A
p1638
aVSOWVWNZ12AB018A45A
p1639
aVSOBPNMG12AAF3B48D8
p1640
aVSOHUESZ12AB0183AFA
p1641
aVSOLKVPF12AB0189A7E
p1642
aa(lp1643
VSOINQNL12A8C13ADD1
p1644
aVSOOZDTM12AB0185A17
p1645
aVSOPYIIY12A6310F244
p1646
aVSOUQAFR12A6D4FB616
p1647
aVSOUVYOI12A8C13EA98
p1648
aa(lp1649
VSOOCWHK12A8C137627
p1650
aVSOHGKPB12A8C142BFD
p1651
aVSORGZKX12A6310E2F5
p1652
aVSOQFQKY12A8C137DA4
p1653
aa(lp1654
VSOAPBSH12A58A80492
p1655
aVSOHAXWY12A81C2320E
p1656
aVSOFFFEE12AB018B300
p1657
aVSOKJKDS12A6D4FC6D8
p1658
aVSOSPWUV12A8C137D03
p1659
aVSOWUEWP12A8C145998
p1660
aa(lp1661
VSOHCMOP12D02197AD9
p1662
aVSOWEZPT12A6701D1EB
p1663
aVSOUTQYD12A6D4F50FE
p1664
aVSOTSNDR12A8AE47599
p1665
aVSOCTZEJ12A67020722
p1666
aVSORDKQF12A8C13D407
p1667
aa(lp1668
VSOIKUSF12AF72A2E88
p1669
aVSOOVLXD12AC909752C
p1670
aa(lp1671
VSOHGYNZ12A8C13E052
p1672
aVSOHNGYM12AB0186148
p1673
aa(lp1674
VSODVHFU12CF5F88A22
p1675
aVSOPCPOL12CF5F87CCC
p1676
aVSOJLQEL12A6310E2F1
p1677
aVSORTUWA12AB0183609
p1678
aa(lp1679
VSOMASQS12AB018153D
p1680
aVSOUYICB12A8C143D8C
p1681
aVSOOEYLA12A6D4F8042
p1682
aVSOFCVWX12AB017D912
p1683
aa(lp1684
VSOVGFLC12A8C140E22
p1685
aVSOESZWS12A6D4F910C
p1686
aa(lp1687
VSONCSDE12AB018415A
p1688
aVSOQPFZN12A8C13F300
p1689
aa(lp1690
VSOTEJTP12A8C13647D
p1691
aVSOCPVMY12AF72AA178
p1692
aa(lp1693
VSOUVWTD12A8C13CA15
p1694
aVSOIAPPZ12AB01895D5
p1695
aVSOGRLBK12AC3DF739D
p1696
aa(lp1697
VSOTBCQW12AB018E1C5
p1698
aVSOAOKJX12A58A7F338
p1699
aVSONLGFU12AB017F636
p1700
aa(lp1701
VSOXPVGH12AB0186CD2
p1702
aVSONIZFH12AB0183924
p1703
aa(lp1704
VSOPGOME12A58A7B636
p1705
aVSOVFTME12A5891E696
p1706
aa(lp1707
VSOHWNLB12AB017B009
p1708
aVSOSTXYN12A6D4F67D4
p1709
aa(lp1710
VSOFPZIX12A6701CFAD
p1711
aVSOUFBIL12A6D4F8EC0
p1712
aVSOGKYQK12A67ADA292
p1713
aa(lp1714
VSOJWVJU12A6701E347
p1715
aVSOAGMOX12A8C1399D1
p1716
aa(lp1717
VSONXCTN12A58A78E4B
p1718
aVSOEVJCY12A6D4FE836
p1719
aVSOFXBUV12AB0187A06
p1720
aVSOYMCQU12A6D4F6FC8
p1721
aVSOPCVKB12A6701D2E2
p1722
aVSOYSNYN12A81C2165F
p1723
aa(lp1724
VSOSRUFM12A6D4F9912
p1725
aVSOMCISQ12A8C1356CA
p1726
aa(lp1727
VSOHEPXY12A6D4F8CC9
p1728
aVSOBZMDJ12AB017BBCC
p1729
aVSOCHBAR12AB0187BA9
p1730
aa(lp1731
VSOEMWSV12AB0188156
p1732
aVSOXGVDX12A6D4FCADC
p1733
aVSOGVVTF12AB0180B2E
p1734
aVSOTENEO12A6701F28F
p1735
aa(lp1736
VSOATQYE12A6D4F8167
p1737
aVSOICGTJ12A8AE487BE
p1738
aa(lp1739
VSOPPCXM12A6D4F66BC
p1740
aVSOGCWZS12A6701FCAC
p1741
aa(lp1742
VSOKHWDF12A6D4F7EF7
p1743
aVSOUSXPL12AB0182F34
p1744
aVSOFFZYH12AB0180E65
p1745
aVSOKSLUT12AB0183BD5
p1746
aVSONRQQF12A8C1387BE
p1747
aa(lp1748
VSOGYLPF12AB0185610
p1749
aVSORQXYQ12A81C21714
p1750
aVSOCVPBH12A6D4F44CD
p1751
aa(lp1752
VSONNZYM12A6D4F9832
p1753
aVSOVZAQD12A6D4FA818
p1754
aa(lp1755
VSOFDDTQ12AB0181C0B
p1756
aVSOJJHDQ12A6701D1EA
p1757
aa(lp1758
VSOSHDXD12A8C1427A7
p1759
aVSOKJSGT12AB0183D54
p1760
aVSOBEKGS12A8C13D7E5
p1761
aa(lp1762
VSOAPEGN12A8C1309AA
p1763
aVSOKHWDF12A6D4F7EF7
p1764
aa(lp1765
VSOJMXIM12A6D4FB4FC
p1766
aVSOPAIHA12B34F260CC
p1767
aa(lp1768
VSOAYHUV12A8C136AF2
p1769
aVSOEWYLX12A6D4F8E5F
p1770
aVSOOMJUZ12AB0182036
p1771
aVSOWWAUI12A6D4FB4F5
p1772
aVSOEUORE12A8C13953D
p1773
aVSOKEXAA12A8AE480EC
p1774
aa(lp1775
VSORJVGB12A6D4F9B5B
p1776
aVSOLJFRS12A8C13AB88
p1777
aa(lp1778
VSOSEJSI12AB0184F55
p1779
aVSOWDUPN12A8C13544C
p1780
aVSOHEPHE12AF729E9D0
p1781
aa(lp1782
VSOHNSVD12A6701FA42
p1783
aVSOHGWQF12A6702124F
p1784
aa(lp1785
VSOHLOTX12A6701FF2D
p1786
aVSOPFFWS12AF72AA932
p1787
aVSOMDJRE12AF72A7325
p1788
aVSOZPQNH12A8C1384C0
p1789
aVSOYKUDF12A8AE48B69
p1790
aVSOMWMKX12A6701FA43
p1791
aVSOGLCIP12A8C13754A
p1792
aa(lp1793
VSONXXHC12A6D4F8A87
p1794
aVSOQCKGU12A67AD8703
p1795
aa(lp1796
VSOHJRGO12A58A79584
p1797
aVSOUSZSW12AB01800C2
p1798
aVSOWGHHQ12A67021878
p1799
aa(lp1800
VSOUGVOD12A6D4F65B4
p1801
aVSOAFTRR12AF72A8D4D
p1802
aVSOFFZYH12AB0180E65
p1803
aVSOICXNX12AC468A1ED
p1804
aVSOINKKL12A6D22824F
p1805
aVSOZAYJI12A81C232A1
p1806
aa(lp1807
VSOAQOMZ12A6310D831
p1808
aVSOKPFXD12AF729ED11
p1809
aa(lp1810
VSOCKDAI12A8C137CBF
p1811
aVSODHURP12A6D4F69C4
p1812
aa(lp1813
VSOTFFHN12AC3DF7220
p1814
aVSOWQFUN12A6701FA4B
p1815
aa(lp1816
VSOKJUBL12AB0185020
p1817
aVSOJNCKO12AB01800B7
p1818
aa(lp1819
VSOMRDDT12A8C141602
p1820
aVSORQLGK12A8C132F13
p1821
aVSOTOUDQ12A8C141FFD
p1822
aa(lp1823
VSOHMQGF12A58A7BFD2
p1824
aVSOFLVYZ12CF5F88736
p1825
aa(lp1826
VSOJJHDQ12A6701D1EA
p1827
aVSORDKQF12A8C13D407
p1828
aVSOCSHAO12A67ADA295
p1829
aVSOKWEAS12A8AE45448
p1830
aVSOINQNL12A8C13ADD1
p1831
aVSONHORP12A6310EC76
p1832
aa(lp1833
VSOQTGDO12AB0188C24
p1834
aVSOVGHYM12A8C142002
p1835
aVSOLYRUQ12AB0183E4C
p1836
aVSOHCSZI12A6D4F9640
p1837
aa(lp1838
VSORDJEF12A6D4FCECC
p1839
aVSOPZTSV12AB0188991
p1840
aa(lp1841
VSOEJPPF12A6D4F747E
p1842
aVSOBPEGX12B0B8095F3
p1843
aVSOQCBHW12D021997C8
p1844
aVSOIPYGD12A6701CD87
p1845
aVSOVJBFJ12A67ADBD63
p1846
aVSOPGINA12A67020F1C
p1847
aa(lp1848
VSOOQAFN12A8C138432
p1849
aVSOTRNLZ12AB01884D7
p1850
aVSOVJNYR12AAF3B3E5F
p1851
aa(lp1852
VSOXOQTB12AB017F4D0
p1853
aVSOXNADP12A8C13E110
p1854
aVSOINALL12D021B3D41
p1855
aa(lp1856
VSOYKUEO12AB0187C7F
p1857
aVSOYRYEI12A6D4F823E
p1858
aVSOCNRMC12A8C144C75
p1859
aa(lp1860
VSOCALWR12A58A7D44B
p1861
aVSOAXPIE12A8AE465B3
p1862
aa(lp1863
VSOKYNNC12A8C13C9E4
p1864
aVSOSUAHP12A6701DA85
p1865
aVSOXSMGP12A6310DFA6
p1866
aa(lp1867
VSOOCWZO12A8C136696
p1868
aVSOYNKPB12A6310E008
p1869
aVSOWCLYD12A6D4F74B8
p1870
aVSOEVVQH12AC4689135
p1871
aVSORJSVU12AB0182CDA
p1872
aa(lp1873
VSOVYBFW12AB01815CE
p1874
aVSONLFQW12AC907502C
p1875
aa(lp1876
VSOSKJVW12AB0187708
p1877
aVSOHJRGO12A58A79584
p1878
aVSOIAYMV12AB017C8FA
p1879
aa(lp1880
VSOINJPD12A6D4F8726
p1881
aVSOFCHDP12A8C13A5DA
p1882
aa(lp1883
VSONJBQX12A6D4F8382
p1884
aVSOQJLWB12A6701E7B3
p1885
aVSOVJNYR12AAF3B3E5F
p1886
aa(lp1887
VSOAEMAV12A6D4F60A4
p1888
aVSOBWIEC12A6D4F6B2C
p1889
aa(lp1890
VSOAWCYO12A8151DF97
p1891
aVSOCVLOT12A6D4F9D96
p1892
aVSOJRZDS12AB017B704
p1893
aVSONSVSD12A6D4FAF3D
p1894
aVSOOLKWU12A6D4F73B8
p1895
aa(lp1896
VSOLZDOA12A6D4F781D
p1897
aVSOMNGMO12A6702187E
p1898
aa(lp1899
VSOHTBLY12A6D4F88A9
p1900
aVSOPCYWJ12AB017F7C9
p1901
aa(lp1902
VSOMUXVE12A6D4F6EAB
p1903
aVSOGFCEQ12A8C1351AF
p1904
aa(lp1905
VSOPQLPI12A6D4F9A90
p1906
aVSOIAEJI12AF72A1A3A
p1907
aVSOZPWQQ12A58A7F99B
p1908
aa(lp1909
VSONZDBB12A6701F463
p1910
aVSODTJYE12A6D4F8919
p1911
aa(lp1912
VSODJMPP12A670214B8
p1913
aVSOIHHFD12AB01812FA
p1914
aa(lp1915
VSORGJTW12AB0183A57
p1916
aVSOTWUUV12A8C137C5E
p1917
aVSOWHTFY12A6702184E
p1918
aa(lp1919
VSOCSNGT12A6D4F9453
p1920
aVSOLYHNV12A8C144BF5
p1921
aa(lp1922
VSOPIQZG12A6D4FD253
p1923
aVSOKYMOK12A6D4F7A63
p1924
aa(lp1925
VSOAYDRS12AB018B50A
p1926
aVSONZTSR12CF5F87071
p1927
aVSOEWYLX12A6D4F8E5F
p1928
aVSOLMSGA12A8C143091
p1929
aa(lp1930
VSOBZMOI12A8AE4827F
p1931
aVSOTNOXQ12A6D4FC79C
p1932
aa(lp1933
VSOLSJDD12A8AE4514C
p1934
aVSOHJZOX12A6701FF7A
p1935
aa(lp1936
VSONLFAI12A81C21208
p1937
aVSOMQFDT12A81C22C74
p1938
aa(lp1939
VSOAHRFK12AB017CAF5
p1940
aVSOINALL12D021B3D41
p1941
aVSOOGRXA12A8C135755
p1942
aVSOMGWBZ12A6D4FA0BF
p1943
aVSOZHHDA12AB0184C10
p1944
aa(lp1945
VSOBVKYP12A8C13C0EE
p1946
aVSOEZEOB12A6D4F6CEB
p1947
aa(lp1948
VSOADXGA12D0219ACD3
p1949
aVSOHYHOK12A6D4F9BAA
p1950
aa(lp1951
VSOKQRSF12AF72A8A8C
p1952
aVSOPZTTP12A8C137414
p1953
aa(lp1954
VSOBRDKH12A58A7A4CE
p1955
aVSOOWROL12A8AE46304
p1956
aa(lp1957
VSOCFWHK12AC46889AC
p1958
aVSOTUOBF12A8AE4543E
p1959
aVSOTVMOO12A8AE46BBB
p1960
aa(lp1961
VSOKADWM12A6D4F91EA
p1962
aVSOYOQHR12A6D4F5FD6
p1963
aa(lp1964
VSOFKPWM12A6D4F5412
p1965
aVSOWWAUI12A6D4FB4F5
p1966
aVSOXRTFF12A8C13C7F7
p1967
aVSOLBYNY12A6D4F91F1
p1968
aa(lp1969
VSOODRHW12A6310D8FF
p1970
aVSOEFNJM12A6701C8BE
p1971
aVSOXTOUC12AB0185A31
p1972
aVSONBRKM12A8C142AE8
p1973
aVSOWCABM12A67AE24A1
p1974
aVSOUQJDY12A6701D2EF
p1975
aa(lp1976
VSOMUXVE12A6D4F6EAB
p1977
aVSOSGUOR12A8C142ABA
p1978
aa(lp1979
VSOFAGDP12A8C13D138
p1980
aVSOOINJS12A8C13CCCD
p1981
aVSOXZMMV12AB0188F6B
p1982
aVSOCADHU12A8C1419A5
p1983
aVSOKPZJG12AB017D77D
p1984
aVSOSJCUF12AB0180EBB
p1985
aVSOFQJCW12A6D4F8AD3
p1986
aa(lp1987
VSOUISJQ12AB01899C1
p1988
aVSOHNUDR12A8C1357CF
p1989
aa(lp1990
VSOVGFLC12A8C140E22
p1991
aVSOQBFKR12AB01835FC
p1992
aa(lp1993
VSOFGLYK12A8C143FED
p1994
aVSOAKMDU12A8C1346A9
p1995
aa(lp1996
VSOXQGVZ12A58A7E6C6
p1997
aVSOPMJMF12A6D4F9EFD
p1998
aVSOOIVAD12A670210D8
p1999
aVSOHJRGO12A58A79584
p2000
aVSOQCNCF12A6D4F81B1
p2001
aVSOFAVYA12A6701F9C7
p2002
aa(lp2003
VSOODOOI12A8C1363B3
p2004
aVSOEDPOU12A67ADE2E9
p2005
aa(lp2006
VSOOGYTD12A6D4F8B9D
p2007
aVSOTTSMK12A6D4F8AD1
p2008
aa(lp2009
VSOOJRVW12A8C13F8F1
p2010
aVSOOMVHR12AAA15E97F
p2011
aa(lp2012
VSOZDLDO12AB018BAB1
p2013
aVSOQPWBK12A6D4FBBCF
p2014
aa(lp2015
VSOINQNL12A8C13ADD1
p2016
aVSOKNLRS12A6D4F88C6
p2017
aa(lp2018
VSOURBRH12A6D4F81CC
p2019
aVSOKHYFG12A63110822
p2020
aVSOSTEOF12AB018AA46
p2021
aVSOTRDLO12A8C13EEE5
p2022
aVSOGZDSD12A8C1361AC
p2023
aVSOGLMHC12A6702147C
p2024
aa(lp2025
VSOKPASY12A8C14135F
p2026
aVSOOKKON12A6D4FA2D3
p2027
aa(lp2028
VSORVLIX12A8C13E467
p2029
aVSOFVVOI12D02191E96
p2030
aa(lp2031
VSOFCPOU12A8C13BF40
p2032
aVSONYCOW12A8C137493
p2033
aa(lp2034
VSONEKBO12AB01817F4
p2035
aVSODINWJ12A8C1350AD
p2036
aVSOHUEKT12A8C13453C
p2037
aa(lp2038
VSOFIXXH12A67020333
p2039
aVSOJBOYM12A8C13D2F4
p2040
aVSODGUUH12A6D4F9343
p2041
aVSOJAOGQ12AF72A2B31
p2042
aa(lp2043
VSOQXQMS12A6D4F8140
p2044
aVSOZDLOM12AC4687CC9
p2045
aa(lp2046
VSONKCBC12A8C136B1F
p2047
aVSOBBTCL12A67ADC820
p2048
aa(lp2049
VSOPAWLL12A6D4F8B42
p2050
aVSOWQFUN12A6701FA4B
p2051
aVSOTYXMF12A67ADA938
p2052
aVSOVMPOY12A67ADE2EF
p2053
aa(lp2054
VSOLGYFT12A8C141DA6
p2055
aVSOLMNOR12AB0182CD8
p2056
aa(lp2057
VSODULQF12AB0183A23
p2058
aVSOKIDRB12A8C140E62
p2059
aa(lp2060
VSOYFKZF12AB018316C
p2061
aVSOKMLJC12A6D4F550F
p2062
aa(lp2063
VSOWVVOU12A58A7B8AE
p2064
aVSOYENQJ12A6D4FB446
p2065
aa(lp2066
VSOCSKBO12A6D4FDAA4
p2067
aVSOFUGCR12A8C13A26D
p2068
aVSOHGTCM12A6D4FC38F
p2069
aVSOFFFEE12AB018B300
p2070
aa(lp2071
VSOVGRAO12AB01887A8
p2072
aVSOJWALY12A6D4F66ED
p2073
aVSORDJEF12A6D4FCECC
p2074
aVSOWHTFY12A6702184E
p2075
aVSONJBQX12A6D4F8382
p2076
aVSOSXRTM12A6D4F85EC
p2077
aVSOALNCN12A6310F200
p2078
aVSOOZDTM12AB0185A17
p2079
aVSOTRNLZ12AB01884D7
p2080
aVSOPZBBG12A8C131BDE
p2081
aVSOALASK12AB0183555
p2082
aVSOMZYJG12A8C14138C
p2083
aa(lp2084
VSOSJYAG12A6310F243
p2085
aVSOAJYSF12A6701D300
p2086
aVSOSKCLB12D0219911B
p2087
aVSOIMCDE12A6D4F8383
p2088
aa(lp2089
VSOTZLPX12A58A7A702
p2090
aVSONVPVP12AF72A6851
p2091
aa(lp2092
VSOXQKEH12A8C137F45
p2093
aVSOKRDTZ12A6D4FC72C
p2094
aVSOCKDQN12A8C140339
p2095
aa(lp2096
VSOUYXAB12A6702036D
p2097
aVSOLJMNU12AB01829DF
p2098
aVSODKULV12AF72A61C9
p2099
aVSOEEYNQ12A8C132864
p2100
aa(lp2101
VSOVOUAW12A6D4F88AD
p2102
aVSOIZVRY12A8151CDDE
p2103
aVSOEHHAE12AF72A3997
p2104
aVSOSBLHB12AB018895D
p2105
aVSOLEFYK12A6701DE45
p2106
aVSOZPBSQ12A6D4F7827
p2107
aVSOVWQTP12A8C130C4A
p2108
aVSOKIHRL12A6701D1A6
p2109
aVSOHFZSU12A8C13C97D
p2110
aa(lp2111
VSOSZJGV12A6D4F6B46
p2112
aVSOVXHKC12A8C13B03F
p2113
aa(lp2114
VSOJZNLD12AB018D5A1
p2115
aVSOGVVTF12AB0180B2E
p2116
aVSOSHTIX12A8C133492
p2117
aVSOVOLUZ12A8AE48F34
p2118
aa(lp2119
VSOADMTV12A6701FA3F
p2120
aVSOBQEQM12A6701F40F
p2121
aa(lp2122
VSOABAEI12AB0185C7F
p2123
aVSOFIDFA12A6D4F9471
p2124
aVSONIHVC12AB0184AD6
p2125
aa(lp2126
VSOWFETX12AB0184B2C
p2127
aVSOGZGRH12AB018D462
p2128
aa(lp2129
VSOLMGQF12AB017B8C1
p2130
aVSOUFOBC12AB0185331
p2131
aVSOPRBLI12A8C134875
p2132
aVSOFULKE12A6D4FA691
p2133
aa(lp2134
VSOESCWN12A8C133D29
p2135
aVSORDKQF12A8C13D407
p2136
aa(lp2137
VSOXRJXO12B0B807DDD
p2138
aVSOFPXFY12A6701C5C3
p2139
aa(lp2140
VSOUIUIW12A8C134F47
p2141
aVSOHAMYR12A6D4F9AE0
p2142
aa(lp2143
VSOKYNNC12A8C13C9E4
p2144
aVSOJUVXX12AB017CD86
p2145
aVSOYOFJE12A58A77A23
p2146
aa(lp2147
VSOXSMGP12A6310DFA6
p2148
aVSOJPBAS12A6D4F7616
p2149
aa(lp2150
VSODMAYX12A6D4F7AC4
p2151
aVSOURBRH12A6D4F81CC
p2152
aa(lp2153
VSOXNGFU12A58A788C5
p2154
aVSOTFABB12AF72A7ACE
p2155
aVSOVCZBU12AB0184C69
p2156
aVSOOTUPB12AB0187321
p2157
aVSOMBNEE12A8C1426E3
p2158
aa(lp2159
VSOAVBFB12A6310D903
p2160
aVSOAOUYD12A6701CD27
p2161
aa(lp2162
VSOARNUY12A8C136DA5
p2163
aVSOVVXWK12A8C131ED7
p2164
aVSOHDIAL12A8C13A5F1
p2165
aa(lp2166
VSOGAIEA12A8C1343CF
p2167
aVSOIAGFO12A8C130539
p2168
aVSOQVAHG12A8C13C06F
p2169
aVSOPFLGZ12A8C13A5E7
p2170
aVSOQXFZW12A8C13CABF
p2171
aVSORUNVM12A8AE45B9C
p2172
aVSOJPARD12A8C13A5F4
p2173
aVSOQWUIQ12A8C13383B
p2174
aVSODNJEZ12AB0188EB3
p2175
aa(lp2176
VSOQUZWN12A8C13B875
p2177
aVSOBFGLR12A8C13F7F6
p2178
aa(lp2179
VSOMGITF12D02191BE3
p2180
aVSOQAUUD12A8C1344E3
p2181
aVSOYONCL12AB017DD8C
p2182
aVSOIBRYB12812D0C75D
p2183
aVSOFZJJB12D02198D39
p2184
aa(lp2185
VSONHORP12A6310EC76
p2186
aVSOINKKL12A6D22824F
p2187
aa(lp2188
VSOGAAMK12A58A7ACD6
p2189
aVSOTRNLZ12AB01884D7
p2190
aVSOEAEEA12A8AE465C9
p2191
aVSOINQNL12A8C13ADD1
p2192
aVSOIMCDE12A6D4F8383
p2193
aa(lp2194
VSOOMJUZ12AB0182036
p2195
aVSOGCQNN12A6701DB12
p2196
aVSOMGJKD12A67ADA293
p2197
aVSOOVBYN12A8C1435FE
p2198
aVSOLDDUZ12A6D4FAB59
p2199
aVSOGQUIN12A6701F2C4
p2200
aVSOBPQVT12A58A7B477
p2201
aa(lp2202
VSOPLKIR12AB0181853
p2203
aVSOQZUQQ12AB0184C6A
p2204
aVSODZFBX12A6D4F81C8
p2205
aa(lp2206
VSODDMLB12A6702111E
p2207
aVSOBIGCP12A8C1436DF
p2208
aa(lp2209
VSOBFMHC12A6D4F9401
p2210
aVSOHXMNE12A6701D1F3
p2211
aVSORAQHM12A8C13A2CC
p2212
aVSOSMWUV12A58A7AF3D
p2213
aa(lp2214
VSOQCKGU12A67AD8703
p2215
aVSORTFEF12AB017E64E
p2216
aVSOBCJST12A6D4F817C
p2217
aVSOQQUWX12A6D4F873C
p2218
aa(lp2219
VSOAUUER12A8C140C3D
p2220
aVSOIBSPD12AAA8C663A
p2221
aa(lp2222
VSONXXXP12A6701C220
p2223
aVSONVPVP12AF72A6851
p2224
aa(lp2225
VSOAVNIJ12A8C13AFBD
p2226
aVSOBBDOX12A670208E0
p2227
aa(lp2228
VSOWBZCR12A6D4F7F33
p2229
aVSOTOOHC12A58A78E9A
p2230
aVSOPSLPC12A5891FEF8
p2231
aa(lp2232
VSOPJBPC12A6D4FCE0B
p2233
aVSONOMKA12A6D4F7333
p2234
aa(lp2235
VSOVNASG12AB017D9F5
p2236
aVSOXGJAX12A58A7BA10
p2237
aa(lp2238
VSOMSVWU12AB0187600
p2239
aVSOXQBHW12A8C131E78
p2240
aa(lp2241
VSOTYUAW12AB017CEB7
p2242
aVSOOEYLA12A6D4F8042
p2243
aa(lp2244
VSOIAXUL12A8C134F65
p2245
aVSOARYAO12A8C13ABEC
p2246
aa(lp2247
VSOEAKSL12AB0185527
p2248
aVSODTJYE12A6D4F8919
p2249
aVSOBYAPA12A6D4F8F0E
p2250
aVSOOIYIC12A58A7D5EE
p2251
aa(lp2252
VSOAYOFO12AF72A4B88
p2253
aVSOHGROC12AB0184F2A
p2254
aa(lp2255
VSOBETOX12A6D4F97E2
p2256
aVSOXGBHE12A6701DEE6
p2257
aVSOOOYVI12A8C146012
p2258
aa(lp2259
VSOKDMUD12A6701F6F3
p2260
aVSOJHEQO12A670203C4
p2261
aVSOARNUY12A8C136DA5
p2262
aa(lp2263
VSOJFDWN12A8C13C2B2
p2264
aVSOGTZQY12A6310F27D
p2265
aa(lp2266
VSOFZHEQ12A58A7B69D
p2267
aVSOPSJQE12A8C13AA31
p2268
aVSOVBWKT12AB01861C1
p2269
aVSOCJMUH12A8C137E88
p2270
aVSOKAQBY12AB0185614
p2271
aVSOCNCNC12A6701F411
p2272
aa(lp2273
VSODCBWP12A6D4F60EC
p2274
aVSOHCNXC12A58A76F84
p2275
aVSOJQQDA12AB01843C1
p2276
aVSORBZFR12A8AE46E4D
p2277
aa(lp2278
VSOKEOWV12A6D4F94F1
p2279
aVSOOEYLA12A6D4F8042
p2280
aVSOYNKIH12AB017F54C
p2281
aVSONIZFH12AB0183924
p2282
aVSOFDPAE12A6D4F9218
p2283
aVSODTDBC12AB017CF2B
p2284
aa(lp2285
VSODBDSP12A6D4FA64C
p2286
aVSOAPHXY12A58A78848
p2287
aa(lp2288
VSOUZGQR12A6D4F7FA8
p2289
aVSOYFZIN12A58A7DAF5
p2290
aVSOFTVOI12A6D4F7FAB
p2291
aa(lp2292
VSOAXVBU12A6D4F7A3F
p2293
aVSOTQTMH12AB0183E9D
p2294
aa(lp2295
VSOPUSNZ12A6D4F9684
p2296
aVSOFXPZA12A8C13DD8A
p2297
aVSOTPNMW12AB0183C86
p2298
aVSOLFNIX12AB018284F
p2299
aa(lp2300
VSOWZUHU12AB017CBDE
p2301
aVSOTYTBP12A8C133EF6
p2302
aa(lp2303
VSOKMZDL12A6BD546E3
p2304
aVSOJBMSL12AB0181E54
p2305
aVSODYHHG12A6D4F7F7A
p2306
aa(lp2307
VSOTEZJI12A8C13FF9E
p2308
aVSOKDGIW12A6D4F71E6
p2309
aVSOKAPLK12A8C13C4D9
p2310
aa(lp2311
VSOUFAQK12A58A77B86
p2312
aVSOADMTV12A6701FA3F
p2313
aa(lp2314
VSOBTCLI12AB017F37F
p2315
aVSOSJCUF12AB0180EBB
p2316
aa(lp2317
VSOGKIWS12AB017E112
p2318
aVSOBHKCR12AB0183C86
p2319
aa(lp2320
VSOTNOXQ12A6D4FC79C
p2321
aVSOPAIHA12B34F260CC
p2322
aVSOQTGDO12AB0188C24
p2323
aa(lp2324
VSOSJCUF12AB0180EBB
p2325
aVSOTSNDR12A8AE47599
p2326
aVSOEXZQB12D021B2493
p2327
aVSOKQBDZ12AB018019D
p2328
aVSOYWACN12D021B4C2C
p2329
aVSOBPKSP12A6D4FBA0E
p2330
aVSOENAVX12A6D4FB5B4
p2331
aa(lp2332
VSOPCPOL12CF5F87CCC
p2333
aVSOACBDJ12A58A7894E
p2334
aVSOTVNMI12A58A7C2DA
p2335
aVSOVQCCR12A58A7A481
p2336
aVSOKVLVS12AC3DFB65B
p2337
aa(lp2338
VSOSTEOF12AB018AA46
p2339
aVSOFGIOB12A6701E32E
p2340
aVSOHKFZG12AF72AAD27
p2341
aVSOCHBAR12AB0187BA9
p2342
aVSOZUPKC12A8C141F43
p2343
aVSOIEJZC12AB0182DAA
p2344
aVSOGYBEW12D021B3D9A
p2345
aa(lp2346
VSOMYPEW12A6D4F6C04
p2347
aVSOTSNDR12A8AE47599
p2348
aVSODZYOU12A8C13496D
p2349
aVSOUFAQK12A58A77B86
p2350
aa(lp2351
VSORGORA12AB01803E6
p2352
aVSOPNBVP12A8C136C6B
p2353
aa(lp2354
VSOMOVBM12AB0180D97
p2355
aVSOGSETO12A8C1459D3
p2356
aVSOMYRAF12AB017DB7A
p2357
aVSOFVBFP12AB01899C7
p2358
aVSOWPJOT12AB0180684
p2359
aVSOEZALM12AB01868FA
p2360
aVSOCSRCP12A8C1416B2
p2361
aVSOUQTID12D02198CC7
p2362
aVSOLRGVL12A8C143BC3
p2363
aVSOBZPTM12A8AE4852D
p2364
aa(lp2365
VSOEDTCQ12A6310F1AF
p2366
aVSOAZNCI12A6D4F8380
p2367
aVSODXFKK12A8C13B9FB
p2368
aVSOSEVPJ12AB01853DB
p2369
aa(lp2370
VSOWIPGH12A81C22A79
p2371
aVSOUZGQR12A6D4F7FA8
p2372
aa(lp2373
VSOBLIBB12A67ADB2EF
p2374
aVSOCIPRA12A8C1326DA
p2375
aVSORZOGO12A58A7BCA3
p2376
aVSOHMUPK12A8AE49D27
p2377
aVSOIFHIO12A58A7CC8A
p2378
aa(lp2379
VSOOMJUZ12AB0182036
p2380
aVSOMJSNK12A8C1433F4
p2381
aVSOFYAHD12AAF3B1BFA
p2382
aa(lp2383
VSOULHTS12A6D4FAE9C
p2384
aVSOEHDIY12A58A78EE6
p2385
aVSOUYXAB12A6702036D
p2386
aVSOSUEJJ12AB018B331
p2387
aVSOJEJNM12A58A7C393
p2388
aVSOTWUUV12A8C137C5E
p2389
aVSOFAGDP12A8C13D138
p2390
aVSOVGRAO12AB01887A8
p2391
aVSOUPOPW12A58A7C55E
p2392
aVSOAPCFB12A8C13E5C1
p2393
aa(lp2394
VSONJBQX12A6D4F8382
p2395
aVSOBFWVA12AC37746C4
p2396
aVSOSJCUF12AB0180EBB
p2397
aa(lp2398
VSOFFZYH12AB0180E65
p2399
aVSOZDLOM12AC4687CC9
p2400
aa(lp2401
VSOTUEML12CF5CFD80B
p2402
aVSOWUBXC12A8C132682
p2403
aVSOKXADL12AB0183307
p2404
aa(lp2405
VSOBCSDX12A6D4F7EFA
p2406
aVSOQUYEF12AF72A9924
p2407
aVSOBTCLI12AB017F37F
p2408
aVSOGCCGB12D021B107F
p2409
aa(lp2410
VSOUMFBP12A679D7E23
p2411
aVSOFAORO12AC3DF67B2
p2412
aVSOWCUDK12AB01869E3
p2413
aVSOPIQZG12A6D4FD253
p2414
aVSOEHDIY12A58A78EE6
p2415
aVSOZPBSQ12A6D4F7827
p2416
aa(lp2417
VSOCCRVM12A6310E239
p2418
aVSOFOPHM12AB017FC26
p2419
aa(lp2420
VSOAJFOU12AB018427D
p2421
aVSOMPMLX12AB0185527
p2422
aVSOVFQFD12A8C13791E
p2423
aVSOHAMYR12A6D4F9AE0
p2424
aa(lp2425
VSOQFDUB12AB0181D72
p2426
aVSOTYTBP12A8C133EF6
p2427
aVSONKUQW12AB0189529
p2428
aa(lp2429
VSOVGFLC12A8C140E22
p2430
aVSOTSNDR12A8AE47599
p2431
aVSOINRJZ12A6D4FCD99
p2432
aVSOIBOEC12AB018CA89
p2433
aVSOUSZFY12A6D4F44D0
p2434
aa(lp2435
VSOFRJHH12A8AE45FF5
p2436
aVSOHOHLE12A8C143686
p2437
aVSOYIHXX12A6D4FD3BE
p2438
aa(lp2439
VSOBWWUF12A8C13AC82
p2440
aVSOFLIZI12A6D4FA0A0
p2441
aa(lp2442
VSOQTGDO12AB0188C24
p2443
aVSOEAEEA12A8AE465C9
p2444
aVSOALTVX12A6D4F852F
p2445
aa(lp2446
VSOXYVZT12A8C13AA91
p2447
aVSOYGHOJ12A6701FFBA
p2448
aa(lp2449
VSOWRUTR12AB01860BE
p2450
aVSOEDOHT12A8C13A2D1
p2451
aa(lp2452
VSOPXAZO12A6D4F7D94
p2453
aVSOKPELR12D021B2308
p2454
aa(lp2455
VSOLIWKM12A58A7B001
p2456
aVSOIBEZT12A6D4F7851
p2457
aa(lp2458
VSOBQEQM12A6701F40F
p2459
aVSOFZGUN12A8C132C49
p2460
aVSOSVKPQ12AB0188381
p2461
aa(lp2462
VSOAEAQE12A8C13F7EC
p2463
aVSOWNUKG12A81C23468
p2464
aVSOALLDE12A6D4FDAAD
p2465
aa(lp2466
VSOHSAYJ12A8AE48A05
p2467
aVSOLOXDE12A6D4F575B
p2468
aVSOZWLHR12A8C13F211
p2469
aVSOUYPYF12A58A76897
p2470
aa(lp2471
VSOLJZEL12AB018D3B4
p2472
aVSOAKMDU12A8C1346A9
p2473
aVSOFAVYA12A6701F9C7
p2474
aVSOZPBSQ12A6D4F7827
p2475
aa(lp2476
VSOEIDFX12AB01851B1
p2477
aVSOHTIFO12A8C13B046
p2478
aa(lp2479
VSORFQAG12A6701DE4B
p2480
aVSOEIQUY12AF72A086A
p2481
aa(lp2482
VSOQURXC12AB0182E26
p2483
aVSOQTEQV12AF729E1DB
p2484
aa(lp2485
VSOJTGAN12A6D4FD01A
p2486
aVSOQFWTV12AB017EC81
p2487
aVSOHOQTV12AB0184E5B
p2488
aVSOWCYAJ12A6D4F992D
p2489
aVSOXFTSF12A6D4F7278
p2490
aa(lp2491
VSOFXPZA12A8C13DD8A
p2492
aVSODLOFG12AB0184FD9
p2493
aa(lp2494
VSOXWIWP12A67020CDB
p2495
aVSOFBOTZ12A8C13C271
p2496
aa(lp2497
VSOFCKIE12A8C1414F6
p2498
aVSOLRIPE12AC3DF5704
p2499
aVSOPCPOL12CF5F87CCC
p2500
aVSOFNYCO12A6D4F69CD
p2501
aVSOJHUMG12A6D4FA0C1
p2502
aa(lp2503
VSOFPALX12AB017F864
p2504
aVSORNWAS12A8C142C41
p2505
aa(lp2506
VSOPCPOL12CF5F87CCC
p2507
aVSOPPCXM12A6D4F66BC
p2508
aa(lp2509
VSOFVDAP12A8C13607B
p2510
aVSOIAEJI12AF72A1A3A
p2511
aVSOCZUBU12A8C1311DD
p2512
aVSOZKKZK12A8C138461
p2513
aVSOEHHAW12A8C1440DB
p2514
aa(lp2515
VSOWTXIJ12A8C139CB8
p2516
aVSOMPUKI12A81C23451
p2517
aVSOAYVYB12A58A7917A
p2518
aa(lp2519
VSOFDPAE12A6D4F9218
p2520
aVSOTHAWB12A8C142B2E
p2521
aVSOUPDNB12A8C13A431
p2522
aa(lp2523
VSONYCOW12A8C137493
p2524
aVSOMDFBP12AB0180783
p2525
aa(lp2526
VSOZGIKU12A6D4F6AA7
p2527
aVSOXJMLT12A6D4F8F1B
p2528
aVSOUGJOZ12A81C1F825
p2529
aa(lp2530
VSOTPBYC12A6310D8C5
p2531
aVSORVQQJ12A58A7E5DD
p2532
aa(lp2533
VSOAFTRR12AF72A8D4D
p2534
aVSOOINJS12A8C13CCCD
p2535
aa(lp2536
VSOGKZKC12A8C13E290
p2537
aVSOMTNZA12A6D4F6BEA
p2538
aVSOQHXDZ12A8C1324DA
p2539
aVSOPACJX12AB017F0A2
p2540
aa(lp2541
VSOSYXDE12A8AE45E45
p2542
aVSOMPWYU12A58A7DBBA
p2543
aVSONPIGX12AAF3B4BF9
p2544
aa(lp2545
VSOLMUBJ12AF72AB38D
p2546
aVSOSRXVF12AB017CC2E
p2547
aa(lp2548
VSOBWZJG12A6701F405
p2549
aVSOFOPHM12AB017FC26
p2550
aa(lp2551
VSOUFAQK12A58A77B86
p2552
aVSOWFPNV12AB017C143
p2553
aa(lp2554
VSOHPYSA12AC4687457
p2555
aVSOZUPKC12A8C141F43
p2556
aVSOHGKXJ12A58A7F9B9
p2557
aVSOTUEML12CF5CFD80B
p2558
aVSOVATOV12AB017FF0C
p2559
aa(lp2560
VSOCPVXY12A670216A4
p2561
aVSOIRHGD12A58A7B6C2
p2562
aa(lp2563
VSORQIEQ12D02193737
p2564
aVSODPKRW12AC468A491
p2565
aVSOPQHWL12A8C1405F4
p2566
aa(lp2567
VSOONIKD12A8AE48316
p2568
aVSOJYNLR12A8C133B79
p2569
aa(lp2570
VSOLJUKN12A58920499
p2571
aVSOTFEZY12A6702096B
p2572
aVSOHOWAP12A8C132FC7
p2573
aa(lp2574
VSOZIWZJ12AB017F8EB
p2575
aVSODMZVK12A8C138E3A
p2576
aVSOQOZCD12A8AE48B23
p2577
aVSOFSHGY12AB01878BE
p2578
aa(lp2579
VSOVLEIJ12A6701C43B
p2580
aVSOKTMIV12AB0180199
p2581
aVSOPJAGE12A8C141E6B
p2582
aVSOAVAGQ12A8C14388F
p2583
aVSOANMPX12A8C13D8BD
p2584
aVSOUOALY12A670210FE
p2585
aa(lp2586
VSOFBAZD12A6702184D
p2587
aVSOQYRUF12AC3DF7136
p2588
aa(lp2589
VSOFAGDP12A8C13D138
p2590
aVSOFLOBQ12AAF3B1ADD
p2591
aa(lp2592
VSOEDPOU12A67ADE2E9
p2593
aVSOBGSTM12A8C1368A2
p2594
aVSOKNWUI12AB0185B54
p2595
aa(lp2596
VSOEPUTU12AC4687E8C
p2597
aVSOBTCLI12AB017F37F
p2598
aa(lp2599
VSOTFFHN12AC3DF7220
p2600
aVSOJIAMY12A6D4FA64D
p2601
aa(lp2602
VSOKVNWP12A8C13DD14
p2603
aVSOCJMUH12A8C137E88
p2604
aa(lp2605
VSOYIBFQ12A6701C628
p2606
aVSOUFAQK12A58A77B86
p2607
aa(lp2608
VSOCBIYV12A8C140745
p2609
aVSOTEJTP12A8C13647D
p2610
aa(lp2611
VSOUISJQ12AB01899C1
p2612
aVSOUUONF12A6D4F8AC0
p2613
aVSOXZMMV12AB0188F6B
p2614
aVSOTVNMI12A58A7C2DA
p2615
aVSOQLIZI12A8AE471C6
p2616
aVSOCADHU12A8C1419A5
p2617
aa(lp2618
VSOOMNNS12A6D4F8ECF
p2619
aVSOFPQLD12AB017D85A
p2620
aa(lp2621
VSOUQVBC12A8C14502D
p2622
aVSOZDGWG12AB0182A51
p2623
aa(lp2624
VSOZECYU12A6D4F903B
p2625
aVSOVIJDQ12A6701E79C
p2626
aVSODCOVB12AC3DF79E8
p2627
aVSOKIBUZ12A8C140196
p2628
aa(lp2629
VSOEDAHC12A8C133DFE
p2630
aVSOIATIA12A8C13BCC1
p2631
aa(lp2632
VSOWLNRP12AB0187C3E
p2633
aVSODGSFW12A8C1337FB
p2634
aa(lp2635
VSONLFAI12A81C21208
p2636
aVSOQPHMT12A67ADBD8D
p2637
aa(lp2638
VSOKTEGU12AB0188B84
p2639
aVSOCHDJT12A8C139577
p2640
aVSOPGKPH12A8C13384C
p2641
aa(lp2642
VSOUEUYT12A58A7DB62
p2643
aVSOLWSHZ12AB018B999
p2644
aa(lp2645
VSOTFFHN12AC3DF7220
p2646
aVSOWQFUN12A6701FA4B
p2647
aa(lp2648
VSOESKXH12A6310F9D0
p2649
aVSOGFPHT12A8C133CEF
p2650
aVSOKAAGA12A8C142367
p2651
aa(lp2652
VSOHTNRA12A8AE459B4
p2653
aVSORDKQF12A8C13D407
p2654
aa(lp2655
VSOYAADI12AB0187E82
p2656
aVSOZGFCX12A8C13B468
p2657
aa(lp2658
VSOCESHA12A6D4FA655
p2659
aVSONNZYM12A6D4F9832
p2660
aVSOJZUNY12AF72A5B18
p2661
aVSOWLENA12AB01845C6
p2662
aVSOVLDHW12A679C8060
p2663
aVSONVPVP12AF72A6851
p2664
aa(lp2665
VSOTUCYL12A8C14487F
p2666
aVSOBTCLI12AB017F37F
p2667
aa(lp2668
VSOBVOVE12A8C1336D9
p2669
aVSOCBIYV12A8C140745
p2670
aa(lp2671
VSOWMJVT12A8C1398D9
p2672
aVSOAQWDM12A8C13C643
p2673
aa(lp2674
VSOYSKHC12CF582738C
p2675
aVSOSFDUN12A6D4FBD0A
p2676
aVSOGXLUQ12B0B808F5D
p2677
aVSOFMREE12A8C13BAE9
p2678
aVSOBUYOW12A58A7B4FF
p2679
aa(lp2680
VSOGJXYT12AC3DFA647
p2681
aVSOVOUAW12A6D4F88AD
p2682
aa(lp2683
VSOWXFHV12A8C142A76
p2684
aVSOUFXKR12AB0184AFC
p2685
aVSOWEWQW12AB017EEA5
p2686
aa(lp2687
VSOKZUTC12A6D4F8BD4
p2688
aVSOWQJUV12A6701FA45
p2689
aVSOMUXVE12A6D4F6EAB
p2690
aVSOPLSTR12A8C140934
p2691
aVSOBWWUF12A8C13AC82
p2692
aVSOEXZQB12D021B2493
p2693
aa(lp2694
VSOFSTFE12AC468BAF0
p2695
aVSOCEEMV12A6D4F88A4
p2696
aa(lp2697
VSOKWPSZ12A67020690
p2698
aVSOUSZSW12AB01800C2
p2699
aVSOUYPYF12A58A76897
p2700
aa(lp2701
VSOPGKHY12A6D4F95DB
p2702
aVSOMDLRV12A6D4F74D2
p2703
aVSOWIZLX12AB018A1F9
p2704
aa(lp2705
VSOHXMNE12A6701D1F3
p2706
aVSOTQPEF12A8C133D54
p2707
aa(lp2708
VSOORTSX12AF72A4965
p2709
aVSOXFFPU12A8C134F17
p2710
aa(lp2711
VSOKDONI12D021987B3
p2712
aVSOITUAG12AB0180735
p2713
aVSORAHXS12AB017EAB9
p2714
aa(lp2715
VSOZEYZW12A6D4F9739
p2716
aVSORWLTW12A670208FA
p2717
aVSOVNRVP12AAF3B5352
p2718
aVSOTXEEH12A6D4F7F24
p2719
aVSOSXTLA12AB017DAC6
p2720
aVSOWGXOP12A6701E93A
p2721
aVSOAINYX12A67020A50
p2722
aVSOSNZTN12A8C12FCA6
p2723
aVSOEAEEA12A8AE465C9
p2724
aVSOZEFUJ12A6D4F790F
p2725
aVSOJSGJI12A8AE45A0C
p2726
aa(lp2727
VSOEYIPP12AB0181D99
p2728
aVSOHMXAW12A58A7BEDA
p2729
aa(lp2730
VSOOTIKQ12AB017E140
p2731
aVSOYHBDU12A6D4F7E73
p2732
aVSOQNIJN12A6D4F5574
p2733
aa(lp2734
VSOPPICO12A58A77238
p2735
aVSOMOVIW12A63110846
p2736
aa(lp2737
VSOWNALB12A58A7932C
p2738
aVSODLWYP12A6701E0AE
p2739
aa(lp2740
VSOEWAPR12A8AE46383
p2741
aVSOVNRVP12AAF3B5352
p2742
aa(lp2743
VSOEZYKT12A8C13B68A
p2744
aVSOTSNDR12A8AE47599
p2745
aVSOQCNCF12A6D4F81B1
p2746
aVSOHJRGO12A58A79584
p2747
aa(lp2748
VSOKFHMK12A8C1395BB
p2749
aVSOUIUIW12A8C134F47
p2750
aa(lp2751
VSOGVVTF12AB0180B2E
p2752
aVSOOBSEN12A6D4FB383
p2753
aa(lp2754
VSOQTGDO12AB0188C24
p2755
aVSOVHIIX12A58A78E30
p2756
aVSOBIHHO12A8AE46A44
p2757
aa(lp2758
VSORWMIE12AB0180492
p2759
aVSOBCSDX12A6D4F7EFA
p2760
aVSOQQGAR12AC3DF5DD9
p2761
aVSOQCYFG12A8AE48BE7
p2762
aa(lp2763
VSOHGOXR12A6701FBBC
p2764
aVSOZWLHR12A8C13F211
p2765
aVSOLOXDE12A6D4F575B
p2766
aVSOBAIKW12A6310FF58
p2767
aa(lp2768
VSOPXVXL12A58A7EDF3
p2769
aVSONYWGT12A58A7CABF
p2770
aVSOLISQK12A8C1416AF
p2771
aVSOUYPYF12A58A76897
p2772
aVSOPMJMF12A6D4F9EFD
p2773
aVSOSESQZ12A6D4F74CD
p2774
aVSOFAVYA12A6701F9C7
p2775
aVSOHHJMB12AB0183C39
p2776
aVSOPUTPG12A8C138265
p2777
aa(lp2778
VSOXVGDB12A8C14434A
p2779
aVSOYJHAO12A6D4F62E3
p2780
aVSOKPJOE12AB01848B7
p2781
aa(lp2782
VSOWWOUZ12A8C142D50
p2783
aVSOPLRUG12A6D4F7C55
p2784
aa(lp2785
VSOGIPRD12AB0182259
p2786
aVSOPRJSZ12A58A79B40
p2787
aa(lp2788
VSODWGKJ12A6701F4FC
p2789
aVSOGBHJV12A8C141C6E
p2790
aa(lp2791
VSORYQCW12A8C144A35
p2792
aVSOWOINN12AB0182672
p2793
aVSOIZGKE12A8C13B8A2
p2794
aa(lp2795
VSOWYXAM12AB0183DD0
p2796
aVSOCASAB12AB0181799
p2797
aa(lp2798
VSOWONYQ12A8C14201E
p2799
aVSOWEZPT12A6701D1EB
p2800
aa(lp2801
VSOCSVVA12AB0186D97
p2802
aVSONJUPQ12A6D4F857E
p2803
aVSOZZDUG12A8C130EA7
p2804
aa(lp2805
VSOMLUCD12A58A77397
p2806
aVSOVWDUQ12AAF3B291C
p2807
aVSOHYBSX12A6D4FBBA6
p2808
aa(lp2809
VSOBOBDK12D02191E77
p2810
aVSOUIUIW12A8C134F47
p2811
aVSOZBIVL12A8C13DB46
p2812
aa(lp2813
VSOWSJBP12A6D4F84BE
p2814
aVSOUETWN12A6701EB1B
p2815
aVSOPKNYC12AF72A4BB0
p2816
aVSODEQLY12AF72ACBD3
p2817
aa(lp2818
VSOFYHRL12A6D4F85F5
p2819
aVSOTTTAL12AB0186393
p2820
aVSOQBYMB12AB018C78A
p2821
aa(lp2822
VSOSJGAD12AB0181146
p2823
aVSOZIRSX12AB017D0D3
p2824
aVSODKNOX12AB018664E
p2825
aVSOGPNLG12A8C142A90
p2826
aVSOTCCIB12A6D4FB78D
p2827
aVSOWRWIP12A8C1336C9
p2828
aVSOGFBVF12A679D7E24
p2829
aVSOOMZRZ12AB0183851
p2830
aVSOXJENQ12A8C13C59D
p2831
aVSONWHHJ12A8C13FF49
p2832
aVSOJISGR12AB0180793
p2833
aa(lp2834
VSOCWZXG12AB018356C
p2835
aVSOOLPDT12A8C13BF53
p2836
aa(lp2837
VSOGQUIN12A6701F2C4
p2838
aVSOQYRUF12AC3DF7136
p2839
aa(lp2840
VSOWFPNV12AB017C143
p2841
aVSOAXPIE12A8AE465B3
p2842
aVSOWFSIE12A8C14294B
p2843
aa(lp2844
VSOKDTCM12A8C13AA80
p2845
aVSOFFZYH12AB0180E65
p2846
aVSOTUEML12CF5CFD80B
p2847
aVSOIFIDI12A8C13D9EC
p2848
aVSOWIQRQ12A8C13B191
p2849
aa(lp2850
VSOFCHIM12A8C138635
p2851
aVSOXUHDU12AB018DA8E
p2852
aVSOZJSAD12A6310F322
p2853
aVSOTPGQL12A8C14122F
p2854
aVSOMPNAH12A6D4F6ECD
p2855
aVSOSEGCB12AC3DFB689
p2856
aVSOAUFFO12A670214BA
p2857
aa(lp2858
VSOVBCKQ12A6D4FBAC9
p2859
aVSOHJEKP12AB017DD1C
p2860
aa(lp2861
VSOFVIXF12A8C13CACE
p2862
aVSOCZPEW12A6D4F7EF3
p2863
aVSOLIYND12A8AE46AC8
p2864
aVSOXRKAU12A8C14143D
p2865
aVSOQOIQB12A6D4F8FE9
p2866
aa(lp2867
VSONIHVC12AB0184AD6
p2868
aVSONNIVW12A8AE485C6
p2869
aa(lp2870
VSOZBVTL12A6D4F9D22
p2871
aVSOOUQCS12A81C231F6
p2872
aVSOEPFXK12A8C13ADE1
p2873
aVSONVHYS12A6D4FBDF6
p2874
aa(lp2875
VSOBEHYF12A67ADD885
p2876
aVSOPGEUB12A8C13DBA1
p2877
aVSOUEIOX12A6702123C
p2878
aVSOXOQTB12AB017F4D0
p2879
aVSOOUIFF12A6D4F9DDC
p2880
aVSOIKUSF12AF72A2E88
p2881
aVSOSMFSZ12A8C13A83A
p2882
aVSOLIKUV12A8C1330B5
p2883
aa(lp2884
VSODADYK12A6702071F
p2885
aVSOPGIIA12AAFF4413A
p2886
aVSOGVEJN12A6D4F9D83
p2887
aa(lp2888
VSODTANZ12AB017E0BD
p2889
aVSOOYUKI12A8C13E616
p2890
aa(lp2891
VSOYJFKA12A8C137CA8
p2892
aVSOAWTCP12A8C13572B
p2893
aa(lp2894
VSOBHTEB12A8C13445D
p2895
aVSOEAEEA12A8AE465C9
p2896
aa(lp2897
VSOTTPMC12AB01862AA
p2898
aVSOPGJEP12A6D4FA224
p2899
aa(lp2900
VSODRIKA12AB0186E41
p2901
aVSOKDONI12D021987B3
p2902
aVSOEISKT12A58A7E629
p2903
aa(lp2904
VSOWENDP12A8C1423A3
p2905
aVSONXOEZ12A6D4FD315
p2906
aVSOKKKYG12A8C13D64A
p2907
aa(lp2908
VSOPPJQV12AB017BBB7
p2909
aVSOGXIAE12A6D4F931D
p2910
aa(lp2911
VSOOONQY12A8C13DF5E
p2912
aVSOKLXQR12A8C13243F
p2913
aa(lp2914
VSOYTUNS12A8C134C16
p2915
aVSOHEPHE12AF729E9D0
p2916
aa(lp2917
VSOPVCBV12A6702137A
p2918
aVSOCSSUU12A8C13820A
p2919
aa(lp2920
VSOVUBJV12A58A7B7FB
p2921
aVSOKTGJZ12A58A7DC07
p2922
aa(lp2923
VSOWUHHZ12A8C13F129
p2924
aVSOGEDPI12A58A79FC1
p2925
aa(lp2926
VSOZCAOK12CF5F872E4
p2927
aVSOGEKBX12A8C13ACE1
p2928
aa(lp2929
VSOLIJOQ12A8C141189
p2930
aVSOAKLMK12AB01872D3
p2931
aa(lp2932
VSOAHKGF12A8AE467AF
p2933
aVSOATNYF12AF72A8D48
p2934
aa(lp2935
VSONPOVB12D02190B36
p2936
aVSOKYDXR12A8C133CC9
p2937
aVSOJPBAS12A6D4F7616
p2938
aa(lp2939
VSOXSMGP12A6310DFA6
p2940
aVSOMFAEO12AF72A3265
p2941
aa(lp2942
VSOIMCDE12A6D4F8383
p2943
aVSOFDNON12A8C13FA3E
p2944
aVSOWKHIK12A6D4FAF41
p2945
aa(lp2946
VSOHECII12A8C13AB85
p2947
aVSOVBSON12AC3DF92DC
p2948
aa(lp2949
VSOMTQGF12AB0184158
p2950
aVSOEUUWT12A8C136ECA
p2951
aa(lp2952
VSONDPMB12A8C13185F
p2953
aVSOOSPNW12A8C1449BC
p2954
aVSOZAIEQ12A8C135F58
p2955
aa(lp2956
VSOMSVWU12AB0187600
p2957
aVSORIXFW12A58A77E7A
p2958
aa(lp2959
VSOPAAAA12A6D4F89B9
p2960
aVSOPRLTE12A6D4F6F7B
p2961
aVSOKSTEX12A6702077E
p2962
aVSOGMYBJ12A67ADF378
p2963
aVSOYEGUO12A8AE46A7C
p2964
aa(lp2965
VSOSFTFK12A8C132622
p2966
aVSOYFUJD12AB018D334
p2967
aVSOGNLHV12AAF3B3FE2
p2968
aa(lp2969
VSODLYCW12A67021657
p2970
aVSOSJCUF12AB0180EBB
p2971
aa(lp2972
VSOWJWIE12AB018BE28
p2973
aVSORCRXZ12AB01862A8
p2974
aa(lp2975
VSOBZMDJ12AB017BBCC
p2976
aVSOYJFKA12A8C137CA8
p2977
aVSODWOUC12AB0186292
p2978
aa(lp2979
VSOTBCQW12AB018E1C5
p2980
aVSOPXQPH12A58A78FD8
p2981
aa(lp2982
VSOAPJTM12AB0187FBB
p2983
aVSOHRVUI12A6D4F77BB
p2984
aa(lp2985
VSOINQNL12A8C13ADD1
p2986
aVSOBPKSP12A6D4FBA0E
p2987
aVSOEUORE12A8C13953D
p2988
aa(lp2989
VSOTFFHN12AC3DF7220
p2990
aVSOKNLRS12A6D4F88C6
p2991
aa(lp2992
VSORDKQF12A8C13D407
p2993
aVSOIWRAH12A6D4F66C0
p2994
aa(lp2995
VSODZYOU12A8C13496D
p2996
aVSOGOQAT12A8AE46705
p2997
aa(lp2998
VSONEDHZ12A6D4F7BFE
p2999
aVSOLPDGD12A6701F951
p3000
aVSOFDKMR12A8C13F3B8
p3001
aa(lp3002
VSOQTGDO12AB0188C24
p3003
aVSODOIBD12A8AE454BA
p3004
aVSOIMEIT12A8C134F25
p3005
aVSOINDRZ12A6701DAF6
p3006
aVSODVNIZ12A6310F24E
p3007
aa(lp3008
VSOQDBBA12A81C20773
p3009
aVSOKNWUI12AB0185B54
p3010
aa(lp3011
VSODHZRY12A6D4F8760
p3012
aVSOGIWRI12AC3DFB187
p3013
aa(lp3014
VSOSXYOL12AB0188FCB
p3015
aVSOHKMBB12AB01825AE
p3016
aVSODDGLI12AB017FE90
p3017
aVSOMEQEW12A8C139D57
p3018
aa(lp3019
VSOITUAG12AB0180735
p3020
aVSOKULLX12A8AE4609D
p3021
aa(lp3022
VSOQTGDO12AB0188C24
p3023
aVSOWUBXC12A8C132682
p3024
aVSOXMPHV12A8C1371CE
p3025
aa(lp3026
VSOGGHGL12AF72A80C8
p3027
aVSOLUSUJ12AF72A43D5
p3028
aa(lp3029
VSOUQVBC12A8C14502D
p3030
aVSOFPQLD12AB017D85A
p3031
aVSOTFABB12AF72A7ACE
p3032
aVSOFAGDP12A8C13D138
p3033
aa(lp3034
VSOUDDDY12A8C138E4C
p3035
aVSOMFMMV12A8C1330C1
p3036
aa(lp3037
VSOFAGDP12A8C13D138
p3038
aVSOEVLFB12AC3DF5E05
p3039
aVSOHMVNU12AC468D26E
p3040
aa(lp3041
VSOAGPYL12A67AE0ED1
p3042
aVSOGQLPK12A6D4F4ABC
p3043
aVSOOZGZE12A6D4F99F9
p3044
aa(lp3045
VSOSVKIS12A8C13AE51
p3046
aVSOLQKWB12A67ADAC46
p3047
aVSOHJRWR12AF72A8A9A
p3048
aVSOEITRO12AC468B287
p3049
aVSOSVCES12A8C13FCEC
p3050
aVSODIZTD12A58A76BE7
p3051
aVSOIXWHH12A8151CB1D
p3052
aVSOPDWKW12AB018D150
p3053
aa(lp3054
VSODGZIM12AB0183F26
p3055
aVSODZTEQ12AB018B90D
p3056
aVSOLVDNS12AB0184E02
p3057
aa(lp3058
VSOZKLVA12A6D4F6B10
p3059
aVSOBVOYT12AB017AD4F
p3060
aVSOOZNGS12AB0185170
p3061
aVSOOGXFP12A67AD84F8
p3062
aVSOKJAMJ12AB0185165
p3063
aVSOGKFYU12A6BD55C93
p3064
aVSOQZJZZ12A58291D22
p3065
aa(lp3066
VSOEQTSX12AB0181101
p3067
aVSOPZWGL12A6D4FA2C2
p3068
aVSOAZVRO12AB0185422
p3069
aVSOSXEJO12AB0186421
p3070
aa(lp3071
VSONHIHL12AB018B531
p3072
aVSOKKKSN12AC468A0E6
p3073
aVSOGZSAF12AB018BE50
p3074
aVSOLBPRF12A8C13CB9B
p3075
aVSOIMCDE12A6D4F8383
p3076
aVSOLCIKH12A8C13A2C4
p3077
aVSOIAEJI12AF72A1A3A
p3078
aVSOFCHIM12A8C138635
p3079
aVSOWRBKH12A8C136027
p3080
aa(lp3081
VSOAYSJV12A58A7D20C
p3082
aVSONYCOW12A8C137493
p3083
aVSOWPAXV12A67ADA046
p3084
aa(lp3085
VSOSJEPE12D0219219F
p3086
aVSOCPSWP12A670214F2
p3087
aa(lp3088
VSORZOGO12A58A7BCA3
p3089
aVSOPEXWM12AB01884DD
p3090
aVSOFHDWF12CF5CFD83C
p3091
aVSOCAHCE12AB017D30F
p3092
aVSOMNVVX12AB017EF19
p3093
aa(lp3094
VSOMTQOW12A6D4F7A40
p3095
aVSOUHEDW12A6D4F6C5B
p3096
aVSORFAOX12B0B8079DA
p3097
aVSOLEOSK12A6D4F84BD
p3098
aVSOHRGZX12AB0182E6F
p3099
aa(lp3100
VSOQCKGU12A67AD8703
p3101
aVSOJLQEL12A6310E2F1
p3102
aVSOWCEQC12AF72A2B64
p3103
aVSOPVXJB12A6D4F47A1
p3104
aa(lp3105
VSOXQGVZ12A58A7E6C6
p3106
aVSOTJQZN12AF72AA288
p3107
aa(lp3108
VSOQSJXB12A8C13858C
p3109
aVSOHNVKM12A8C13B030
p3110
aVSODLLIT12AC4686155
p3111
aa(lp3112
VSOIZQBM12A6310ECCD
p3113
aVSOCKTQO12A8C13546D
p3114
aVSOAOERV12AF72A48FC
p3115
aVSOZDXSF12AB01871D3
p3116
aa(lp3117
VSOLLTXZ12AB01815D9
p3118
aVSOGGPCG12AAA8C8F96
p3119
aVSOOXIJB12D021B3710
p3120
aVSOXVMAK12AB0182C59
p3121
aa(lp3122
VSONAVXO12B0B80AF4F
p3123
aVSOAIJTR12AC3DF9C37
p3124
aVSOJSCZS12A6D4FC7C1
p3125
aa(lp3126
VSOMUGJA12A67020841
p3127
aVSOKOCMS12A6D4FB70A
p3128
aa(lp3129
VSODLCVS12A58A7ABE7
p3130
aVSOUXPQJ12A6D4FC99B
p3131
aa(lp3132
VSOWAACZ12A8C135AC1
p3133
aVSOOWMXY12A6701DFA8
p3134
aa(lp3135
VSOUYXAB12A6702036D
p3136
aVSOSESQZ12A6D4F74CD
p3137
aVSOXQGVZ12A58A7E6C6
p3138
aa(lp3139
VSOOIVAD12A670210D8
p3140
aVSOPXVXL12A58A7EDF3
p3141
aVSOBAIKW12A6310FF58
p3142
aa(lp3143
VSOLGYFT12A8C141DA6
p3144
aVSOPMJMF12A6D4F9EFD
p3145
aa(lp3146
VSOMPWYU12A58A7DBBA
p3147
aVSOWPWJZ12A8C1399DD
p3148
aVSOMCISQ12A8C1356CA
p3149
aVSOQFQKY12A8C137DA4
p3150
aVSOZWGSV12AB017F4C9
p3151
aVSOCONZS12A6D4F7E03
p3152
aVSOWUEWP12A8C145998
p3153
aa(lp3154
VSOECYCK12A8C131D38
p3155
aVSOGRLVC12A6D4F51B2
p3156
aVSOCTUTR12A6D4FA050
p3157
aVSOSEVFK12AB01863B9
p3158
aVSOLKNFC12A8C137707
p3159
aa(lp3160
VSOVUCXT12A8C13CBF3
p3161
aVSOVSWVR12AAF3B3A9B
p3162
aa(lp3163
VSOFGIOB12A6701E32E
p3164
aVSOTEGSC12AB0182ED8
p3165
aa(lp3166
VSOAXINQ12AB0181BBA
p3167
aVSOSRXVF12AB017CC2E
p3168
aVSOLMGQF12AB017B8C1
p3169
aVSOQFDUB12AB0181D72
p3170
aa(lp3171
VSODDFIK12A6D4F8A7F
p3172
aVSOWMJVT12A8C1398D9
p3173
aVSOUSQPK12AB017F662
p3174
aVSOEAHYF12A6D4F8D55
p3175
aVSOQPFZN12A8C13F300
p3176
aa(lp3177
VSOEAEEA12A8AE465C9
p3178
aVSOBTCLI12AB017F37F
p3179
aa(lp3180
VSOTUCYL12A8C14487F
p3181
aVSOJUVXX12AB017CD86
p3182
aa(lp3183
VSOGRCBF12A8C13233B
p3184
aVSOHOQMU12A6D4F7B81
p3185
aa(lp3186
VSOXLBRB12AF729DD4F
p3187
aVSOMVCRM12A8C138716
p3188
aVSOMAAPA12A8C13B531
p3189
aVSOHNHEL12AF729E72D
p3190
aa(lp3191
VSOQCNCF12A6D4F81B1
p3192
aVSOGUIDL12AB017ECB0
p3193
aa(lp3194
VSOSVWZZ12A6D4FAD45
p3195
aVSOAGPYL12A67AE0ED1
p3196
aa(lp3197
VSOWPEMZ12A58A8128D
p3198
aVSOEGJNM12A6D4F804D
p3199
aVSOSJCUF12AB0180EBB
p3200
aVSOINKUL12AB0188B02
p3201
aa(lp3202
VSOXSCBO12A6D4F758E
p3203
aVSOPIQZG12A6D4FD253
p3204
aVSOXSMGP12A6310DFA6
p3205
aVSOLXQBP12AB0187DB5
p3206
aVSOMJVVW12A8C141CFB
p3207
aVSOFOEWF12AB0180676
p3208
aVSOACHPF12A6D4FA64D
p3209
aVSOUQJDY12A6701D2EF
p3210
aa(lp3211
VSOFNEOC12A8C137A36
p3212
aVSOQXJUH12AB018B98E
p3213
aa(lp3214
VSOHEVRF12A8C13BF46
p3215
aVSOYJHAO12A6D4F62E3
p3216
aVSOKJATK12A6310E240
p3217
aVSOVOPBR12A6D4F9590
p3218
aVSOTTDDG12A6701F403
p3219
aa(lp3220
VSOJRZOD12AB0187B7D
p3221
aVSOEXZQB12D021B2493
p3222
aa(lp3223
VSODZYOU12A8C13496D
p3224
aVSOGLCIP12A8C13754A
p3225
aVSOAUUER12A8C140C3D
p3226
aVSOFAGDP12A8C13D138
p3227
aa(lp3228
VSOLCCUG12A6D4FA0E5
p3229
aVSOWFPNV12AB017C143
p3230
aVSORGORA12AB01803E6
p3231
aa(lp3232
VSOVSWVR12AAF3B3A9B
p3233
aVSOGFCEQ12A8C1351AF
p3234
aVSOHKFRZ12AAF3B24D3
p3235
aa(lp3236
VSOVNASG12AB017D9F5
p3237
aVSOGLMPW12A8C134E46
p3238
aa(lp3239
VSOWSXCI12A67020171
p3240
aVSOVJBFJ12A67ADBD63
p3241
aVSOLJFRS12A8C13AB88
p3242
aa(lp3243
VSOENFDI12A58A7C35A
p3244
aVSOICJSZ12D0219B17D
p3245
aVSORRIME12A8C13E7FB
p3246
aVSOSSMGA12A67020F9A
p3247
aVSOXTBGF12A6D4FB49C
p3248
aa(lp3249
VSOMQYAC12A8C1383C3
p3250
aVSOGRCBF12A8C13233B
p3251
aa(lp3252
VSOWWLHV12A6D4F7400
p3253
aVSOYJLDR12A8C13D375
p3254
aVSOCXFNW12A8C145973
p3255
aVSOWFQCC12D021B1FE1
p3256
aa(lp3257
VSOVFQFD12A8C13791E
p3258
aVSOHQJOF12A8C13CD72
p3259
aVSOCVTLJ12A6310F0FD
p3260
aa(lp3261
VSOHKFZG12AF72AAD27
p3262
aVSOHNOOC12A8C13BF35
p3263
aa(lp3264
VSOGNHYX12AB017B429
p3265
aVSOCZVDH12A6310E13C
p3266
aVSOCUGSL12A8C135065
p3267
aa(lp3268
VSOYXESX12A6D4F6629
p3269
aVSOJGFPE12A8C135B9D
p3270
aVSOZSTCP12D0219910F
p3271
aa(lp3272
VSOOFAQQ12CF5465266
p3273
aVSOWUBXC12A8C132682
p3274
aVSOQRJON12A8C13E7F1
p3275
aa(lp3276
VSOIYLMC12A6D4FA1BD
p3277
aVSOOPUJM12D02198F84
p3278
aVSOTUCYL12A8C14487F
p3279
aVSOBTCLI12AB017F37F
p3280
aa(lp3281
VSOJNNUA12A8AE48C7A
p3282
aVSOWYGDD12A8C13C666
p3283
aa(lp3284
VSOPXAZO12A6D4F7D94
p3285
aVSORDJEF12A6D4FCECC
p3286
aVSOPZSEZ12A6D4F74AE
p3287
aa(lp3288
VSOSWMIC12AB0185604
p3289
aVSOSUAHP12A6701DA85
p3290
aa(lp3291
VSOOMJUZ12AB0182036
p3292
aVSOAFILC12A6701EF0F
p3293
aVSOVOUAW12A6D4F88AD
p3294
aa(lp3295
VSOHGYXM12A8C1353F5
p3296
aVSOLYJVR12A6701F6F7
p3297
aVSOIPMQZ12A6310EC73
p3298
aa(lp3299
VSOXCBXH12A8AE47D81
p3300
aVSOBTKOF12A6D4FA76F
p3301
aVSOWBZCR12A6D4F7F33
p3302
aa(lp3303
VSOMARWU12AF729E5B6
p3304
aVSOKNLRS12A6D4F88C6
p3305
aa(lp3306
VSONMHYL12A6310E003
p3307
aVSOADONB12AB0182B52
p3308
aa(lp3309
VSOQIWZT12A58A78248
p3310
aVSOGAYIV12A8C13F8BC
p3311
aa(lp3312
VSOSTMHJ12A58A75D72
p3313
aVSOOEIKI12A6D4F85C0
p3314
aVSOVPGMY12AB018647C
p3315
aa(lp3316
VSOPTFFR12A8C134A4E
p3317
aVSOALWPB12A6701C55C
p3318
aa(lp3319
VSOJICTC12A6D4F8E00
p3320
aVSOFFIWB12AB01864A9
p3321
aa(lp3322
VSOTTETA12AB0184B6D
p3323
aVSOYQRNH12AB01864A3
p3324
aa(lp3325
VSORAKLI12A6D4FB7C8
p3326
aVSOWARBN12AB0184FC2
p3327
aa(lp3328
VSOKVZJM12AF729FC53
p3329
aVSOLOXDE12A6D4F575B
p3330
aVSOMUIFU12AB0183D81
p3331
aVSOVDDPT12AB0185D18
p3332
aVSOENAXE12A8C13C13A
p3333
aa(lp3334
VSONDQOC12A6D4F9C26
p3335
aVSOPOFBW12AB0187196
p3336
aVSOWMLIH12A8C13CB96
p3337
aa(lp3338
VSOFULKE12A6D4FA691
p3339
aVSOKHCYM12A6D4FC596
p3340
aa(lp3341
VSOWNUWP12A6D4F65B1
p3342
aVSOBMMMV12AB0181D68
p3343
aa(lp3344
VSODEGPW12AB018C115
p3345
aVSOPFHGI12AB018B117
p3346
aa(lp3347
VSOUUONF12A6D4F8AC0
p3348
aVSOJHTRU12A58A7BAE8
p3349
aVSONKZWM12AB017D049
p3350
aa(lp3351
VSOOZDTM12AB0185A17
p3352
aVSOXJXTB12AB01842EA
p3353
aVSOBXLLY12A6D4F9673
p3354
aa(lp3355
VSOXKSJF12A8C13B431
p3356
aVSOVAPAM12AB018A74F
p3357
aa(lp3358
VSOJYCLR12AB0184C90
p3359
aVSOJUVXX12AB017CD86
p3360
aa(lp3361
VSORDJEF12A6D4FCECC
p3362
aVSOJICTC12A6D4F8E00
p3363
aVSOSCIJV12A6D4FA56D
p3364
aa(lp3365
VSOHRKOJ12A6D4F86EC
p3366
aVSODZYOU12A8C13496D
p3367
aa(lp3368
VSOVMPOY12A67ADE2EF
p3369
aVSOZDLOM12AC4687CC9
p3370
aa(lp3371
VSOYFUJD12AB018D334
p3372
aVSOEVWMB12A6D4F94B5
p3373
aVSODDCFI12AC4687D6F
p3374
aVSOAYSJV12A58A7D20C
p3375
aVSOBXDQP12A58A78C47
p3376
aVSOAMJNX12A8C141CCC
p3377
aVSOFNYWP12AB01878CE
p3378
aVSORQTCL12A8C142AC0
p3379
aVSOEKUPU12A6D4F97D0
p3380
aVSOZMLEG12AC468B502
p3381
aVSODXYOL12A81C2389C
p3382
aVSOJRZIN12A67AE1367
p3383
aVSOAKEUT12AB0183C36
p3384
aa(lp3385
VSOPUSNZ12A6D4F9684
p3386
aVSOPVXJB12A6D4F47A1
p3387
aa(lp3388
VSOUKENV12A8C13B668
p3389
aVSOXFJDA12AB018A684
p3390
aa(lp3391
VSOQXHIX12A58A7CB51
p3392
aVSOTWSBP12A6D4FA69D
p3393
aVSOLTAOU12A8C1375CB
p3394
aVSOHQJSG12AB017DC09
p3395
aa(lp3396
VSOUHVUA12A8C13D988
p3397
aVSOACBDJ12A58A7894E
p3398
aVSOCHBAR12AB0187BA9
p3399
aa(lp3400
VSOHUICH12AB0181B55
p3401
aVSOGYJGC12A6D4FA636
p3402
aVSOTMTGS12A6D4F74BD
p3403
aVSOLBPNT12A8C13DB30
p3404
aVSOBYAPA12A6D4F8F0E
p3405
aVSOLYLJL12A58A7B40C
p3406
aVSOUWDVC12A58A7AD6D
p3407
aa(lp3408
VSOEJDBP12A6D4FA04C
p3409
aVSOBSICO12A67020895
p3410
aVSOXYSXH12AB0183B9C
p3411
aa(lp3412
VSOFFZYH12AB0180E65
p3413
aVSOBQLWO12A8AE48212
p3414
aa(lp3415
VSOJBNPE12A8AE47B59
p3416
aVSOTFABB12AF72A7ACE
p3417
aa(lp3418
VSOJJHDQ12A6701D1EA
p3419
aVSOAIVYC12A8C13F27D
p3420
aVSOGLCIP12A8C13754A
p3421
aVSOHNSVD12A6701FA42
p3422
aVSONSQDD12A8C13C93C
p3423
aa(lp3424
VSOINALL12D021B3D41
p3425
aVSOFAGDP12A8C13D138
p3426
aVSOTPBYC12A6310D8C5
p3427
aVSOKQUDN12A58A7791C
p3428
aVSORUJSU12AB018F508
p3429
aVSOCJWPI12A8C13D357
p3430
aa(lp3431
VSOVHYVB12A3F1EC277
p3432
aVSOUYXAB12A6702036D
p3433
aa(lp3434
VSOUXWXS12AB017F061
p3435
aVSOGTYPE12A8AE45145
p3436
aa(lp3437
VSOPLUOT12A6D4F7AC3
p3438
aVSOREOWV12A8C139FA6
p3439
aVSOTFPAY12A6310E13A
p3440
aVSOXVYMO12AB01876E9
p3441
aVSOCVERS12A8C136ABF
p3442
aa(lp3443
VSOTGETW12A8C13B75A
p3444
aVSOITPXC12A6310E0DA
p3445
aa(lp3446
VSOAZPPR12A6D4F89C6
p3447
aVSOTVNJX12AF72A1A53
p3448
aa(lp3449
VSOLKRFH12A8C13C08D
p3450
aVSOPVXJB12A6D4F47A1
p3451
aa(lp3452
VSOBHTEB12A8C13445D
p3453
aVSOZEYZW12A6D4F9739
p3454
aVSOEIQDP12A58A75817
p3455
aa(lp3456
VSOPDZRR12A6D4F7038
p3457
aVSOZNGGI12AF72A29C2
p3458
aa(lp3459
VSOSWCIR12B35058931
p3460
aVSOPSVEM12AB0184A3D
p3461
aa(lp3462
VSOAJGWM12AB0185A48
p3463
aVSOHYBZX12A8C13B37B
p3464
aa(lp3465
VSOWPAXV12A67ADA046
p3466
aVSOPLSTR12A8C140934
p3467
aa(lp3468
VSOLOUDG12A67020DF1
p3469
aVSOQJCXI12CF5F883FC
p3470
aVSOKAQBY12AB0185614
p3471
aVSOGCRXA12A6310D996
p3472
aaa(lp3473
(lp3474
VSOYQBFJ12AB0188FCA
p3475
aVSOYEOHK12A8C134116
p3476
aVSOHFVGK12A8C14182E
p3477
aVSOMJRNY12A6D4FA03E
p3478
aag191
ag194
ag200
ag207
ag210
ag214
ag219
ag1228
ag1233
ag1179
ag1183
ag1186
ag3177
ag3180
ag2185
ag2188
ag2194
ag1649
ag1654
ag1337
a(lp3479
VSOLCTWP12AB0186AC1
p3480
aVSODTDBC12AB017CF2B
p3481
aa(lp3482
VSOVQCCR12A58A7A481
p3483
aVSOKVMRD12A8C13BE6C
p3484
aa(lp3485
VSOYNKIH12AB017F54C
p3486
aVSOLQHWC12A8AE47927
p3487
aa(lp3488
VSOYJFKA12A8C137CA8
p3489
aVSODFTHP12A58A7AA9F
p3490
aVSOEPNTG12AB01812BF
p3491
aa(lp3492
VSOOXCTV12AB0186E92
p3493
aVSODWOUC12AB0186292
p3494
aVSOPCWHE12A8AE460BE
p3495
aVSOPXQPH12A58A78FD8
p3496
aa(lp3497
VSODLOFG12AB0184FD9
p3498
aVSODQUUI12A6701F44F
p3499
aVSONYMXY12A8C133F27
p3500
aag2379
ag2466
ag2471
ag3385
ag3388
ag1793
a(lp3501
VSOYFUJD12AB018D334
p3502
aVSOGXZZJ12A8C138F14
p3503
aVSOFYSOE12AB018A581
p3504
aa(lp3505
VSOFYAHD12AAF3B1BFA
p3506
aVSOSJCUF12AB0180EBB
p3507
aa(lp3508
VSOZQQBK12AB018D7CE
p3509
aVSOHUHSO12A6D4F818F
p3510
aa(lp3511
VSOXYPIQ12A58A78713
p3512
aVSOSZNKO12A8C133B17
p3513
aVSOAUYOZ12A8C138B2C
p3514
aVSONDCZH12B0B807AFB
p3515
aVSOAUFOF12AB0180C65
p3516
aa(lp3517
VSOESZWS12A6D4F910C
p3518
aVSOKFHMK12A8C1395BB
p3519
aVSOWMGEC12B0B80B77F
p3520
aVSOZKLVA12A6D4F6B10
p3521
aa(lp3522
VSOZDRQA12AB0187E61
p3523
aVSOVOUAW12A6D4F88AD
p3524
aVSOIAEJI12AF72A1A3A
p3525
aag2288
ag2292
ag2311
ag2314
ag3146
ag3154
ag481
ag1169
ag1172
ag1175
ag10
ag14
ag20
ag283
ag286
ag2209
ag155
ag3341
ag3344
ag1256
ag1237
ag1240
ag956
ag961
ag965
a(lp3526
VSOAXVBU12A6D4F7A3F
p3527
aVSOUZGQR12A6D4F7FA8
p3528
aa(lp3529
VSOYXNHN12AB0187FB9
p3530
aVSONYCOW12A8C137493
p3531
aag69
ag72
ag76
ag3105
ag3108
ag3112
ag2365
ag2370
ag2373
ag1643
a(lp3532
VSOSFQEO12A81C21A3E
p3533
aVSOSNZTN12A8C12FCA6
p3534
aVSOYTSDU12A8C132903
p3535
aVSOPPCXM12A6D4F66BC
p3536
aa(lp3537
VSOOSGEE12A8C13236E
p3538
aVSOTCHHG12AAF3B3E1C
p3539
aVSOOQASH12A8C1353D8
p3540
aVSOFXDOS12A6D4FD8BC
p3541
aVSODLCVG12A6D4F7A25
p3542
aa(lp3543
VSOMTNZA12A6D4F6BEA
p3544
aVSOJUKCD12AB0186A01
p3545
aVSONGFYO12A6D4F678E
p3546
aVSODGZIE12A6D4F80C9
p3547
aa(lp3548
VSOIYPLX12AB0189CA2
p3549
aVSOBXXJI12A6D4F64AF
p3550
aVSOBBEBY12AAF3B465E
p3551
aa(lp3552
VSOXGKYP12AB018B429
p3553
aVSOFKCWS12A8C134911
p3554
aVSOLMSGA12A8C143091
p3555
aa(lp3556
VSOJCRAQ12AAF3B2B3A
p3557
aVSOVKQFF12A6D4FAB5A
p3558
aVSONPOVB12D02190B36
p3559
aa(lp3560
VSOUYPYF12A58A76897
p3561
aVSOZYNLB12A6D4F6BF3
p3562
aVSOOSBGU12A6D4FA82A
p3563
aVSOESZWS12A6D4F910C
p3564
aa(lp3565
VSOFVTSM12A67020729
p3566
aVSOWZQKJ12A58A79DAD
p3567
aVSOXTOUC12AB0185A31
p3568
aa(lp3569
VSOXKPMY12A6D4FA496
p3570
aVSOXQKEH12A8C137F45
p3571
aag2751
ag2754
ag2758
ag1856
ag1860
ag889
ag894
ag900
ag3211
ag3214
ag2998
ag3002
ag3264
a(lp3572
VSOGPSGT12A8C139BD9
p3573
aVSOHTEJN12A58A783FF
p3574
aa(lp3575
VSORWLTW12A670208FA
p3576
aVSOQCNCF12A6D4F81B1
p3577
aVSOHJRGO12A58A79584
p3578
aa(lp3579
VSODUBLQ12A8C14360B
p3580
aVSOFVVOI12D02191E96
p3581
aa(lp3582
VSOFCPOU12A8C13BF40
p3583
aVSOJJBVA12A58A78A79
p3584
aag3117
ag3122
ag3126
ag3257
ag3261
ag2114
ag2214
a(lp3585
VSOEXUXZ12A8C142418
p3586
aVSODFTHP12A58A7AA9F
p3587
aa(lp3588
VSOYVLBK12A6D4FA64C
p3589
aVSODLOFG12AB0184FD9
p3590
aVSOCJLNE12AC3DF6DAB
p3591
aVSOADMTV12A6701FA3F
p3592
aVSOSAENK12AB0181276
p3593
aVSOWHTFY12A6702184E
p3594
aag689
ag692
ag695
ag512
ag2694
a(lp3595
VSOZGDUH12AF72A6DB2
p3596
aVSOHKFZG12AF72AAD27
p3597
aVSOKHYFG12A63110822
p3598
aVSOMOVIW12A63110846
p3599
aVSOKHYFG12A63110822
p3600
aVSOQPCTM12CF5F87C1D
p3601
aVSOWGHHQ12A67021878
p3602
aVSOPQBTT12A58A7B5B7
p3603
aVSONIFJR12A6702187A
p3604
aVSOMNGMO12A6702187E
p3605
aVSOCMRWF12AB018AC92
p3606
aVSOPRQRO12AB018906E
p3607
aVSOPTOEB12AB018AC96
p3608
aa(lp3609
VSOSHYRW12A8AE47BD6
p3610
aVSOKPZJG12AB017D77D
p3611
aa(lp3612
VSORMLJU12A8C13EEEE
p3613
aVSOSAENK12AB0181276
p3614
aVSOXKGUD12A58A7C687
p3615
aVSOGCCGB12D021B107F
p3616
aVSOFAGDP12A8C13D138
p3617
aVSOCKDAI12A8C137CBF
p3618
aa(lp3619
VSOCKDAI12A8C137CBF
p3620
aVSOADMTV12A6701FA3F
p3621
aVSOLKRFH12A8C13C08D
p3622
aVSOQNXBA12A8C143B11
p3623
aa(lp3624
VSORIXFW12A58A77E7A
p3625
aVSOEXZQB12D021B2493
p3626
aVSORLZNS12A6D4FA5B5
p3627
aVSOSJCUF12AB0180EBB
p3628
aVSOELATB12D021903EE
p3629
aag1704
ag1707
ag1710
a(lp3630
VSOBKVBL12A58A7B576
p3631
aVSOLGYFT12A8C141DA6
p3632
aag3100
a(lp3633
VSOLRSWK12D02191EA0
p3634
aVSOEQDWL12AF72A9243
p3635
aa(lp3636
VSOELDYJ12A8C137554
p3637
aVSOOIJXI12A8C140D75
p3638
aa(lp3639
VSOWZUHU12AB017CBDE
p3640
aVSOXGVEZ12A6310F95A
p3641
aa(lp3642
VSONAUCY12A8C13D9CD
p3643
aVSOUSQCN12A8C133302
p3644
aVSOWXPAA12A8C13A3BE
p3645
aVSOKVJOX12A8C13B872
p3646
aa(lp3647
VSOECPPC12AB0183841
p3648
aVSOTQREV12AB01842B9
p3649
aVSOCXIHZ12A8C134D4B
p3650
aa(lp3651
VSOMSSJU12D0219A380
p3652
aVSOQWZXN12AF729EA91
p3653
aVSORXQST12A6D4F9C54
p3654
aVSOQEMEU12A6310ED28
p3655
aa(lp3656
VSOCWLDQ12A8C141DEC
p3657
aVSOTNJTI12A8C13EC36
p3658
aVSOKYGIV12A6D4F6086
p3659
aVSOCBEHN12A8C13289C
p3660
aVSOBNYKY12A8C13C50C
p3661
aVSOXLRKG12AB0185B15
p3662
aVSOKQZYZ12A58A7767E
p3663
aa(lp3664
VSOLMGQF12AB017B8C1
p3665
aVSOLEQKA12A67AD8701
p3666
aa(lp3667
VSORLHLI12A58A7DB80
p3668
aVSOVHCDP12A6701F3B2
p3669
aVSOFEWRR12A8C13BA6B
p3670
aVSOWOZUJ12A8C146D72
p3671
aVSOLLTKO12A6D4F80A7
p3672
aVSOCZIGD12AB018BA07
p3673
aa(lp3674
VSOTJPXP12A6D4F7FFD
p3675
aVSOHTNRA12A8AE459B4
p3676
aVSOQSJNS12AB0182B33
p3677
aVSOJNYUW12AC468EAEB
p3678
aVSOEMLSQ12A6701F3C7
p3679
aag767
ag774
ag1633
ag2009
a(lp3680
VSOYZYYY12A6701C432
p3681
aVSOKBPVA12A6701C43A
p3682
aag1432
ag1436
a(lp3683
VSOXRGGA12A8C1335E6
p3684
aVSOMOVIW12A63110846
p3685
aa(lp3686
VSOBEYEY12A6701DB19
p3687
aVSODQLAE12A8AE4636C
p3688
aa(lp3689
VSOJSGTF12A8C13584A
p3690
aVSOSCIJV12A6D4FA56D
p3691
aag2850
ag2858
ag2202
ag2206
ag1464
ag1469
ag1474
ag1477
ag1480
ag392
ag395
a(lp3692
VSOXIBNQ12A8C14020F
p3693
aVSOZEPSY12A6D4F8AC3
p3694
aa(lp3695
VSOVTEMT12A8C136501
p3696
aVSOXFJDA12AB018A684
p3697
aVSOUWAEQ12AB018D99B
p3698
aa(lp3699
VSOVLEPW12A8C134EC4
p3700
aVSOGLZCL12AB01836FA
p3701
aVSOIBZWB12A6D223C27
p3702
aVSOBDYWT12AF729BEB0
p3703
aag606
ag609
ag177
ag181
ag185
ag188
ag2560
ag2563
ag2567
ag1796
ag1800
ag2822
ag2834
ag2354
ag2278
a(lp3704
VSOGAIEI12A6D4F7DA1
p3705
aVSOEPDZY12A6D4F72DD
p3706
aVSOMCWAZ12A67ADBCE3
p3707
aag748
ag751
ag545
ag548
ag1876
ag1880
ag3412
ag3415
ag820
ag823
ag827
ag833
ag2683
ag2687
ag1251
ag2176
ag2179
ag1142
ag1146
ag1149
ag1152
ag126
ag130
ag133
ag136
ag3236
ag3239
a(lp3708
VSOEUORE12A8C13953D
p3709
aVSOGYJLK12AB01831AD
p3710
aag2589
ag2592
ag1377
ag1382
ag1385
a(lp3711
VSOUSUEE12AB01828F9
p3712
aVSOJOEPE12A8C1334F8
p3713
aa(lp3714
VSOBXRMB12A8C13AE2C
p3715
aVSOKBZQF12A8C134F6A
p3716
aag2383
ag2394
ag934
ag937
ag2665
ag2668
ag2545
a(lp3717
VSOSPWUV12A8C137D03
p3718
aVSOBTHHY12A8C133144
p3719
aVSOIBEDZ12A6D4FA5D6
p3720
aa(lp3721
VSOQRCSS12AB017F4DE
p3722
aVSOEQUML12AF72A5001
p3723
aVSOJCRAQ12AAF3B2B3A
p3724
aa(lp3725
VSOHGKPB12A8C142BFD
p3726
aVSOGHJPS12A8C138028
p3727
aa(lp3728
VSOUMKOJ12A8C134A11
p3729
aVSOCAXSL12A58A762C2
p3730
aVSOIYFMH12A6D4F99D5
p3731
aag2003
ag2006
ag1552
ag1555
ag1558
ag1562
ag1661
ag1668
ag1671
ag1674
ag462
ag465
ag2586
a(lp3732
VSOBKQTX12A8C143631
p3733
aVSOMCISQ12A8C1356CA
p3734
aVSOOVOCB12A6701BE62
p3735
aa(lp3736
VSORZYGT12A6701E302
p3737
aVSOVKQFF12A6D4FAB5A
p3738
aVSOENLNA12A8C142766
p3739
aVSOAVMSY12A8C13A82C
p3740
aVSORGZKX12A6310E2F5
p3741
aVSOQZXVS12AB017DDCD
p3742
aVSOXEVPU12A8C1358FC
p3743
aa(lp3744
VSOBMIIQ12A6D4FC898
p3745
aVSOUWDVC12A58A7AD6D
p3746
aVSOULJJZ12A6D4FC8BA
p3747
aVSOQFQJI12A8C13471E
p3748
aa(lp3749
VSOCODBI12AB017F6CF
p3750
aVSOHZDFT12A8C13BBA4
p3751
aa(lp3752
VSOGUIDL12AB017ECB0
p3753
aVSOVSUZH12A8C13AD5B
p3754
aVSOZIHBF12AB017AF6C
p3755
aag114
ag119
ag123
ag509
ag1135
ag1139
ag2015
ag3243
ag3249
ag3252
a(lp3756
VSOGCAAF12AB017F8C4
p3757
aVSONKZWM12AB017D049
p3758
aa(lp3759
VSOFODVX12A8C13F93F
p3760
aVSOVOUAN12AC9074CC7
p3761
aa(lp3762
VSOBPEGX12B0B8095F3
p3763
aVSOQZBSW12A6D4FA704
p3764
aVSOOPHQT12AB018BC5C
p3765
aag1609
ag1612
ag2485
ag2491
ag699
ag1340
ag1343
ag1346
ag1353
ag1356
ag2740
ag2743
ag2748
ag2778
ag2782
ag2785
ag2788
ag2791
a(lp3766
VSOBVTQI12A6D4F8F75
p3767
aVSOSMSEU12AB0186D4E
p3768
aag1690
ag1693
ag1915
ag1919
ag3088
ag3094
a(lp3769
VSORXCYP12A6D4F96F6
p3770
aVSOXCEZL12A8C135325
p3771
aa(lp3772
VSOMBMEM12AB018B0A0
p3773
aVSOEMEWD12A8C13A5BD
p3774
aag853
ag857
ag862
a(lp3775
VSOBAIKW12A6310FF58
p3776
aVSOATRBT12A67020A62
p3777
aVSOEZPRQ12A8C13DDCC
p3778
aa(lp3779
VSOSHDXD12A8C1427A7
p3780
aVSOQQSYT12A6310F0C7
p3781
aag1922
ag1412
a(lp3782
VSOSGPQX12A6D4FD776
p3783
aVSOJUXAO12A8C13A390
p3784
aag1752
ag1755
ag1758
ag1762
ag2398
ag2401
ag1484
ag1495
ag1500
ag38
ag2043
ag2046
ag2049
ag816
ag2972
ag1400
ag1403
ag1408
a(lp3785
VSOARTSF12A8C13983F
p3786
aVSOBZMOI12A8AE4827F
p3787
aa(lp3788
VSOBTCLI12AB017F37F
p3789
aVSONTPFW12A8C13B8FB
p3790
aVSOHQJOF12A8C13CD72
p3791
aVSOOZWTI12A8C13FD9C
p3792
aVSOMVNKP12AB01862CA
p3793
aVSOTFFHN12AC3DF7220
p3794
aag412
ag416
ag1125
ag1130
ag1113
ag1116
ag1122
ag1334
ag3465
ag3468
ag81
ag85
ag88
ag91
ag708
a(lp3795
VSOXZNCH12A58A78406
p3796
aVSOUWDVC12A58A7AD6D
p3797
aa(lp3798
VSOQFQJI12A8C13471E
p3799
aVSOGJRSP12A58A7A4F1
p3800
aVSONPAKF12AB017AF3F
p3801
aa(lp3802
VSOTIGMN12A8151CC55
p3803
aVSOGAAOI12A58A7F15B
p3804
aag2038
ag2092
ag2096
ag2101
ag2111
ag2985
a(lp3805
VSOGRCBF12A8C13233B
p3806
aVSOHOQMU12A6D4F7B81
p3807
aa(lp3808
VSOMZNZQ12A6310E83F
p3809
aVSOVNBRO12A58A7A444
p3810
aag2897
ag2900
ag2904
ag2526
ag2530
a(lp3811
VSOAZJEJ12A6D4F894D
p3812
aVSOBDVUZ12A8C13B6DE
p3813
aVSOUSXGM12CF5F891DF
p3814
aa(lp3815
VSOOZOEW12A8C1438C6
p3816
aVSOLLUUU12A6D4F8C75
p3817
aVSOAXLTG12A81C22660
p3818
aVSOYWSKQ12AB018FEDE
p3819
aa(lp3820
VSOWINYZ12A679D8AF3
p3821
aVSOOTYVJ12A8C14184B
p3822
aag237
ag240
ag244
ag1697
ag1701
ag399
ag1360
ag1363
ag1863
ag1867
ag1873
ag2844
ag3019
ag3022
ag3026
ag3008
a(lp3823
VSOTFABB12AF72A7ACE
p3824
aVSOJJYOD12A8C134256
p3825
aag3351
ag3355
ag3358
ag2624
ag2629
ag496
ag499
ag1961
ag1964
ag277
ag280
ag2523
ag3197
ag3202
ag222
ag225
ag229
ag233
ag361
ag368
ag1597
ag1600
ag1606
ag1421
ag1425
ag1428
ag1899
ag247
ag3129
ag3132
ag2946
a(lp3826
VSOXGJAX12A58A7BA10
p3827
aVSOXJENQ12A8C13C59D
p3828
aVSOFNYWP12AB01878CE
p3829
aVSOOEYLA12A6D4F8042
p3830
aVSOXQBHW12A8C131E78
p3831
aVSOYFUJD12AB018D334
p3832
aa(lp3833
VSOLJGKM12A8C14365E
p3834
aVSODKNOX12AB018664E
p3835
aVSOLYRUQ12AB0183E4C
p3836
aag2506
ag738
a(lp3837
VSOQOZCD12A8AE48B23
p3838
aVSOPAWLL12A6D4F8B42
p3839
aVSOHEHPA12AB018F500
p3840
aVSOPDPDJ12A6D4FC340
p3841
aa(lp3842
VSOALRTL12A58A7D751
p3843
aVSOZYNNT12A81C22E0F
p3844
aa(lp3845
VSOCMILX12A8C142892
p3846
aVSOIPGYO12AB01840F7
p3847
aa(lp3848
VSOACMZC12A8AE46B47
p3849
aVSOHDDLF12A81C23717
p3850
aa(lp3851
VSOFIXJA12AB0183487
p3852
aVSOOMZRZ12AB0183851
p3853
aa(lp3854
VSONXEAY12A6D4F77FF
p3855
aVSOMQYJT12A81C22A4C
p3856
aa(lp3857
VSODCQDG12A8C13463B
p3858
aVSOEPCBK12A8C135B07
p3859
aag2285
ag3418
ag3424
ag3431
a(lp3860
VSOWAHXT12A6D4FADFB
p3861
aVSOJEJNM12A58A7C393
p3862
aa(lp3863
VSOBFGLR12A8C13F7F6
p3864
aVSOBTKOF12A6D4FA76F
p3865
aVSOQQTZR12A6701C609
p3866
aa(lp3867
VSOMNGMO12A6702187E
p3868
aVSOQKYNS12CF530E4D7
p3869
aVSOBRWLS12A8AE4798D
p3870
aag777
ag784
ag629
ag632
ag1957
a(lp3871
VSOGWQEF12AB0183FE7
p3872
aVSOVTCSA12AB017E20A
p3873
aa(lp3874
VSOPKSRM12A6D4FC66D
p3875
aVSORQMWI12A6D4FB4FD
p3876
aVSOJKKQQ12A8C138FD2
p3877
aVSOGUXZZ12A6D4FA07A
p3878
aa(lp3879
VSOBTHHY12A8C133144
p3880
aVSOEHRUZ12A8C135968
p3881
aa(lp3882
VSODKNOX12AB018664E
p3883
aVSOHEUFB12AB0182E84
p3884
aVSOWZBPI12A8C13E76C
p3885
aa(lp3886
VSOYWUJJ12A6701F3D3
p3887
aVSOOLKWU12A6D4F73B8
p3888
aVSOQKYNS12CF530E4D7
p3889
aVSOFAJJB12B350582B8
p3890
aVSOBDZVH12AC468AB54
p3891
aa(lp3892
VSOUYCVU12AB0184733
p3893
aVSOBLOKY12A58A7E5FE
p3894
aVSOOPKUX12A8C13D170
p3895
aa(lp3896
VSOPGKHY12A6D4F95DB
p3897
aVSOPMJMF12A6D4F9EFD
p3898
aag1848
ag1852
ag1048
ag1060
ag953
ag640
ag644
ag2162
ag2166
a(lp3899
VSONJBQX12A6D4F8382
p3900
aVSOLQRCE12A6D4F8381
p3901
aVSOIMCDE12A6D4F8383
p3902
aVSOTSNDR12A8AE47599
p3903
aVSOEWYLX12A6D4F8E5F
p3904
aVSOBFMHC12A6D4F9401
p3905
aa(lp3906
VSOXFTSF12A6D4F7278
p3907
aVSOBDMNP12AF72AB1E1
p3908
aVSOFNCRW12A6D4F727B
p3909
aVSORLZNS12A6D4FA5B5
p3910
aVSOAFTRR12AF72A8D4D
p3911
aVSOZPQES12A6D4F8E57
p3912
aVSOOCVAY12A6D4F8385
p3913
aVSOIMCDE12A6D4F8383
p3914
aVSOHCLPF12AB017FD26
p3915
aVSOMSNCG12A8AE475A7
p3916
aVSODMASJ12AF729E6FA
p3917
aVSOTSNDR12A8AE47599
p3918
aag2150
ag2153
ag1068
ag2648
ag2652
a(lp3919
VSOTTSMK12A6D4F8AD1
p3920
aVSOYFSCL12A8C136374
p3921
aag1684
ag1687
ag923
ag1193
ag1029
ag1035
ag386
ag389
ag1155
ag1158
ag1161
a(lp3922
VSOBQEQM12A6701F40F
p3923
aVSOFZGUN12A8C132C49
p3924
aVSOSVKPQ12AB0188381
p3925
aa(lp3926
VSOAEAQE12A8C13F7EC
p3927
aVSOWNUKG12A81C23468
p3928
aVSOALLDE12A6D4FDAAD
p3929
aag2320
ag2324
a(lp3930
VSOEDTCQ12A6310F1AF
p3931
aVSOCKWWY12A58A7FB3D
p3932
aa(lp3933
VSOHZPYJ12A6D4F84F5
p3934
aVSOKJJOF12A8AE45B67
p3935
aVSOGNYFT12A6D4F7867
p3936
aa(lp3937
VSOZSZTH12A8C131141
p3938
aVSOCMGQH12CF5465276
p3939
aag2252
ag2255
ag2259
a(lp3940
VSOTCUVX12A81C2358A
p3941
aVSOHDDLF12A81C23717
p3942
aVSOMDZMV12A81C23597
p3943
aVSONZVTK12A81C2374B
p3944
aa(lp3945
VSOERCPF12A6D4F7B94
p3946
aVSOGGFOW12AB0188219
p3947
aVSOIZXJF12AB01825CC
p3948
aVSODALYF12A58A79940
p3949
aag531
ag534
ag537
ag542
a(lp3950
VSOCONZS12A6D4F7E03
p3951
aVSOUUXYS12A8C13AC5F
p3952
aa(lp3953
VSOCGLAK12A8AE489B1
p3954
aVSOHVOGF12A6D4FA066
p3955
aVSOCXGWF12AB0181150
p3956
aag734
ag1591
ag1594
ag1615
ag1621
a(lp3957
VSOSOVYB12AB01845F0
p3958
aVSORBZFR12A8AE46E4D
p3959
aVSOJJHDQ12A6701D1EA
p3960
aVSOGCCGB12D021B107F
p3961
aVSOYKUDF12A8AE48B69
p3962
aVSODDVFH12D021B33C9
p3963
aa(lp3964
VSOHSAYJ12A8AE48A05
p3965
aVSOGEDPI12A58A79FC1
p3966
aVSOBMTNQ12A8C1332E8
p3967
aa(lp3968
VSOCNRQW12A6701F9F9
p3969
aVSOHPYSA12AC4687457
p3970
aVSOADXGA12D0219ACD3
p3971
aVSOSNZTN12A8C12FCA6
p3972
aag1588
ag2763
ag2768
ag2225
ag2228
ag2674
ag2680
ag837
ag1993
ag1996
ag1933
ag1936
ag1969
ag1976
ag2455
ag2494
ag2497
ag3037
ag3456
ag3183
ag3186
ag741
ag745
a(lp3973
VSOJFYIS12AB018416A
p3974
aVSOEJTHE12A6D4F9A1E
p3975
aa(lp3976
VSOGQMPO12AAF3B23D7
p3977
aVSODHKQB12A8C133B16
p3978
aa(lp3979
VSOBMMPM12A6D4FCA5A
p3980
aVSOBVSSK12A8C13C64D
p3981
aVSOBSTHO12A8C142818
p3982
aa(lp3983
VSOXQRUZ12AB0184379
p3984
aVSORJOTH12A8C13832D
p3985
aag1262
ag1265
ag1319
ag1325
ag2476
ag2479
ag2482
ag1328
ag2929
ag2932
ag432
ag436
ag444
ag402
ag2122
a(lp3986
VSOIZVRY12A8151CDDE
p3987
aVSOJTKPR12A8C13E490
p3988
aa(lp3989
VSOKQLTX12A6D4F9EF8
p3990
aVSODJRJZ12A58A76AC4
p3991
aVSOGPVZW12B0B806501
p3992
aag159
ag726
ag731
a(lp3993
VSOOUJNM12A8C13440B
p3994
aVSOJWVJU12A6701E347
p3995
aag2611
ag2618
ag2621
ag1902
ag1883
ag102
ag105
ag111
ag2596
ag2599
ag2602
ag2605
ag2608
ag1925
ag1930
a(lp3996
VSOTEKMT12A67AD954E
p3997
aVSOPIENH12D021B2F18
p3998
aa(lp3999
VSOXLRHD12A6D4F330A
p4000
aVSOCAIJI12A8A9D5730
p4001
aag2509
ag2515
ag2519
a(lp4002
VSOFHQXN12A8AE48035
p4003
aVSOCMMSM12AB0182161
p4004
aag2533
ag2536
ag2541
ag969
ag973
ag979
ag982
ag1939
ag1945
ag1948
ag1951
ag3054
ag3058
ag3066
ag319
ag322
ag293
ag298
ag301
ag306
ag2818
ag348
ag352
ag358
a(lp4005
VSOIXGWE12AB0183469
p4006
aVSOYKPDC12AB018354F
p4007
aa(lp4008
VSODLCVG12A6D4F7A25
p4009
aVSOJOWHV12A6D4F6FFC
p4010
aVSOHAXWY12A81C2320E
p4011
aVSOIDLDZ12A8C13CC4C
p4012
aVSONPOVB12D02190B36
p4013
aa(lp4014
VSODJQQQ12A8C134922
p4015
aVSOWUEWP12A8C145998
p4016
aVSOFYPIA12AB018C167
p4017
aVSOUMKOJ12A8C134A11
p4018
aVSOSNZTN12A8C12FCA6
p4019
aa(lp4020
VSOSESQZ12A6D4F74CD
p4021
aVSOADMTV12A6701FA3F
p4022
aa(lp4023
VSOLZXXY12A67AE0E12
p4024
aVSOQSZZY12A8AE4480A
p4025
aa(lp4026
VSOCUQMK12A8C135B78
p4027
aVSONNZYM12A6D4F9832
p4028
aVSOXSMGP12A6310DFA6
p4029
aag1679
a(lp4030
VSOSORUE12A6D4FBB5F
p4031
aVSOVLFWP12A6D4F9900
p4032
aVSOPBWUD12AB017D83F
p4033
aVSOZPIUC12A8C13630F
p4034
aa(lp4035
VSOAQWDM12A8C13C643
p4036
aVSORIJQD12A6D4FAD28
p4037
aa(lp4038
VSORQLKU12A8C137BBC
p4039
aVSOHHBUE12A8C132659
p4040
aVSOUWHDP12A8151AACF
p4041
aa(lp4042
VSOGLBQA12A6701E7AF
p4043
aVSOWUBXC12A8C132682
p4044
aa(lp4045
VSOEGZHD12A8C13BF3D
p4046
aVSOUMKYO12A6D4F73B7
p4047
aag2126
ag2458
ag2462
a(lp4048
VSOQMBYN12AB017F3B7
p4049
aVSOPXCAF12A58A7DC08
p4050
aVSOLMIXC12A8AE46F7A
p4051
aVSOUVZMY12AB01831DB
p4052
aa(lp4053
VSOIIETD12D021943C0
p4054
aVSOQCNCF12A6D4F81B1
p4055
aVSOADMTV12A6701FA3F
p4056
aVSOQJINU12AC907503C
p4057
aVSOIZXJF12AB01825CC
p4058
aag598
ag602
ag3034
a(lp4059
VSOSJCUF12AB0180EBB
p4060
aVSOJRZOD12AB0187B7D
p4061
aa(lp4062
VSOPTLTT12A58A7938D
p4063
aVSOPRATO12A8C132851
p4064
aVSOVMEMB12A6D4F81B0
p4065
aa(lp4066
VSOCGKEW12A58A7AFC1
p4067
aVSOIVCFT12AC960DE07
p4068
aa(lp4069
VSOEHZQB12A6702016D
p4070
aVSOGWAKH12A8AE48816
p4071
aVSOROGBA12A8C132F1B
p4072
aVSOEWWIU12A8C141309
p4073
aVSOCMILX12A8C142892
p4074
aVSOOIVVR12A6D4F968C
p4075
aag2975
ag2979
ag2982
ag517
ag522
ag526
a(lp4076
VSOBRIXB12AB0182257
p4077
aVSOWOZJP12AAA15D8B3
p4078
aVSOITFPA12A670201C6
p4079
aVSOWJBFI12A6D4F88AE
p4080
aVSOAIGBA12AF72AB214
p4081
aa(lp4082
VSOENFDI12A58A7C35A
p4083
aVSOFYYSE12A8C138B1A
p4084
aag757
ag760
ag764
ag623
ag626
ag1565
ag1571
ag1522
a(lp4085
VSOHBPOE12A6701D93F
p4086
aVSOYSPDK12A6D4F7D27
p4087
aVSOXFDYF12A8C137FBD
p4088
aag2795
ag2798
a(lp4089
VSOXYIPS12A8C1325F7
p4090
aVSOVHFEY12AC468D274
p4091
aVSOCJLNE12AC3DF6DAB
p4092
aVSOVEUQB12A6D4F4928
p4093
aVSOGGHGL12AF72A80C8
p4094
aa(lp4095
VSOLIVPY12A8C13F156
p4096
aVSOXPALC12A6701EF32
p4097
aVSODBUPH12A67ADE2E6
p4098
aag151
ag1189
a(lp4099
VSOANMPX12A8C13D8BD
p4100
aVSOBPKSP12A6D4FBA0E
p4101
aVSOAUUER12A8C140C3D
p4102
aa(lp4103
VSOENQMK12A81C212D5
p4104
aVSOKVNWP12A8C13DD14
p4105
aVSOPIVNU12A6D4FA6EA
p4106
aVSOEUJGQ12AB0188D8A
p4107
aa(lp4108
VSOVSLQF12A6D4F9A31
p4109
aVSODUWUQ12AC4686969
p4110
aVSORKCOJ12AF72A8B6C
p4111
aVSOGOQAT12A8AE46705
p4112
aag24
ag28
ag32
ag35
a(lp4113
VSOLMSGA12A8C143091
p4114
aVSOAFTRR12AF72A8D4D
p4115
aVSOZBVTL12A6D4F9D22
p4116
aVSOPCYWJ12AB017F7C9
p4117
aVSOJHTRU12A58A7BAE8
p4118
aVSORNPSL12D0219320F
p4119
aa(lp4120
VSOWKLYP12A6D4F75A8
p4121
aVSORGDVZ12AB017D2A5
p4122
aag1742
ag1748
a(lp4123
VSOZCFFJ12AB0181564
p4124
aVSOAZQHD12A6D4F40C2
p4125
aVSOERNEC12AB018072C
p4126
aVSOCRDNB12AB0185CAE
p4127
aVSOLMUHR12AB018B2D8
p4128
aVSOECWHH12A8AE46707
p4129
aVSOBCOUO12AB017C753
p4130
aa(lp4131
VSOFENYK12CEB121A06
p4132
aVSOJMJJV12A6D4F6FD4
p4133
aag2503
a(lp4134
VSOUKPYI12A8C1349EB
p4135
aVSOAFTRR12AF72A8D4D
p4136
aVSOXSMGP12A6310DFA6
p4137
aVSOIQJSO12AB0187559
p4138
aa(lp4139
VSOJCNHV12A8C13EAB7
p4140
aVSODYLZO12A6D4F8F28
p4141
aVSOINALL12D021B3D41
p4142
aag712
ag716
ag719
ag3029
ag813
ag2711
ag2715
ag2632
ag2635
ag2638
a(lp4143
VSOUXPDA12AB0182E46
p4144
aVSOGXCBU12AB017DD9B
p4145
aa(lp4146
VSOEUJGQ12AB0188D8A
p4147
aVSOANMPX12A8C13D8BD
p4148
aag3347
ag2232
ag2235
ag2238
ag2241
ag2949
ag2952
ag1838
ag1065
ag1039
ag1044
a(lp4149
VSOSJEOO12AC4689BA5
p4150
aVSOMLJAD12A8C133DC6
p4151
aa(lp4152
VSONKUQW12AB0189529
p4153
aVSOKAQBY12AB0185614
p4154
aag2908
ag2911
ag1525
ag1528
a(lp4155
VSOJZNXN12A8C137C80
p4156
aVSOWFPPG12AB018884F
p4157
aVSOESKXH12A6310F9D0
p4158
aVSOWPQSO12A8C13E585
p4159
aVSOLWICS12A8C141BE1
p4160
aVSOTYTBP12A8C133EF6
p4161
aVSOFNXPL12A6D4FABD6
p4162
aVSOIATIA12A8C13BCC1
p4163
aVSOBCJST12A6D4F817C
p4164
aVSOQZAKJ12A8C143F09
p4165
aa(lp4166
VSOWEZPT12A6701D1EB
p4167
aVSOVCOYG12AF72A065D
p4168
aa(lp4169
VSORAHXS12AB017EAB9
p4170
aVSOIEBGZ12D02198FE9
p4171
aVSORWBEB12A58A78BF8
p4172
aa(lp4173
VSOLMLMZ12A6D4F6563
p4174
aVSOPORAY12AB0189964
p4175
aVSOWPAXV12A67ADA046
p4176
aVSOBCYTU12A8C138525
p4177
aag910
ag913
ag920
ag1083
ag1087
ag1090
ag1094
ag1196
ag1199
ag1203
a(lp4178
VSOKDXZL12AB01830BF
p4179
aVSOIPHDK12A8C134B02
p4180
aVSOBTCLI12AB017F37F
p4181
aa(lp4182
VSOTSNDR12A8AE47599
p4183
aVSOGJRSP12A58A7A4F1
p4184
aVSOUWDVC12A58A7AD6D
p4185
aVSOFZGUN12A8C132C49
p4186
aVSOLKZDQ12AB01807E0
p4187
aa(lp4188
VSOSJECG12AF72A4DE0
p4189
aVSOGFDKM12AB0187725
p4190
aVSONVPVP12AF72A6851
p4191
aag589
ag595
ag2263
ag2266
ag3299
ag329
ag332
ag337
ag3191
ag3194
ag2956
ag2959
ag2965
ag2969
ag3303
ag3306
ag3309
ag3166
ag3171
ag3220
ag3223
ag3228
ag3232
ag3325
ag42
ag46
ag49
ag2219
ag2222
ag3434
a(lp4192
VSOJJBVA12A58A78A79
p4193
aVSOKFMAI12A8C13788E
p4194
aVSOFCPOU12A8C13BF40
p4195
aVSOXNOYN12A6D4FB4B4
p4196
aVSOPAIHA12B34F260CC
p4197
aa(lp4198
VSOZKCCH12A81C20E3B
p4199
aVSOXDDBS12A8C13B494
p4200
aVSOWOZJP12AAA15D8B3
p4201
aVSOCKDQN12A8C140339
p4202
aVSONWPHF12AB017E14E
p4203
aVSOZKLVA12A6D4F6B10
p4204
aVSOZAHBR12A67ADA28C
p4205
aag405
ag408
a(lp4206
VSONKCBC12A8C136B1F
p4207
aVSOFCDCD12AB0180534
p4208
aa(lp4209
VSONRQQF12A8C1387BE
p4210
aVSOWCABM12A67AE24A1
p4211
aag683
a(lp4212
VSOIKOZD12A8C13D79A
p4213
aVSOAGSYE12A58A7A5A7
p4214
aag263
ag2129
ag139
ag142
ag998
ag1002
ag1887
ag1890
ag1896
ag1209
ag1212
ag1954
ag2119
ag260
ag2060
ag2063
ag2066
ag3160
ag3163
a(lp4215
VSODBBQP12A6D4FAD09
p4216
aVSODZAQY12A8C144546
p4217
aa(lp4218
VSOYCWCO12A6D4F969E
p4219
aVSODTANZ12AB017E0BD
p4220
aag1905
ag1909
ag1912
ag1018
a(lp4221
VSOPXCAF12A58A7DC08
p4222
aVSONDQOC12A6D4F9C26
p4223
aVSOPOFBW12AB0187196
p4224
aVSOCXAOV12AB0181F87
p4225
aVSOCONZS12A6D4F7E03
p4226
aa(lp4227
VSOIWMSK12A6D4F8A22
p4228
aVSOEXPML12AB01867EC
p4229
aVSOXFFPU12A8C134F17
p4230
aa(lp4231
VSOOIMHA12AB018D144
p4232
aVSODUIUJ12A58A79705
p4233
aa(lp4234
VSOBZZRZ12A3F1EC09C
p4235
aVSOAXSHO12A8C134C31
p4236
aVSONIFRR12A8AE46079
p4237
aag1097
ag1104
ag1108
ag2809
ag2813
ag1778
ag1782
ag1785
a(lp4238
VSOBCJST12A6D4F817C
p4239
aVSOPVXJB12A6D4F47A1
p4240
aa(lp4241
VSOYRVSP12A6D4F907A
p4242
aVSOVFADZ12AB01832D1
p4243
aVSORVSAQ12AB01826A4
p4244
aa(lp4245
VSOFHFDD12AC46880BF
p4246
aVSOREOWV12A8C139FA6
p4247
aVSOSJGAD12AB0181146
p4248
aVSOVJPEV127D977984B
p4249
aVSOLNEGI12A6701CB8B
p4250
aVSOONJAI12A8C135254
p4251
aVSOKTEGW12AB0185735
p4252
aa(lp4253
VSOQVKWR12A58A7D2C9
p4254
aVSOJRZOD12AB0187B7D
p4255
aa(lp4256
VSOQFWTV12AB017EC81
p4257
aVSOITEBY12A6D4F4800
p4258
aVSOPXKWI12A8C143C7B
p4259
aVSOKUWEV12A8C13BBEB
p4260
aag253
ag256
ag3312
ag3316
ag3319
ag3322
a(lp4261
VSOHHJYE12A8AE47599
p4262
aVSOGGHGL12AF72A80C8
p4263
aVSOKQBDZ12AB018019D
p4264
aa(lp4265
VSODMAOP12A8C143254
p4266
aVSOQYSHL12A8C13CB0E
p4267
aag1291
ag1294
ag1297
ag1301
ag1308
ag1313
ag1316
ag576
ag580
ag583
ag420
ag424
ag427
ag3328
ag3334
ag1714
ag1717
ag1724
ag1727
ag1269
ag1274
ag797
ag800
ag806
ag809
ag2273
ag1765
ag1768
ag1775
ag2405
ag2410
ag2417
ag1246
ag2346
ag2351
ag865
ag874
ag1010
ag2730
ag2734
a(lp4268
VSORQTCL12A8C142AC0
p4269
aVSOOVPEM12AB017CC1F
p4270
aa(lp4271
VSOOOQGR12A67AD8509
p4272
aVSOMFBOB12A8C13DC72
p4273
aVSOBLRJG12AB0184418
p4274
aVSOTGDTS12A6BD4E0D9
p4275
aVSOYJCVV12AB0184E40
p4276
aVSOTPGQL12A8C14122F
p4277
aVSOORFFN12A8C131F53
p4278
aVSONJUPQ12A6D4F857E
p4279
aVSOXTOUC12AB0185A31
p4280
aag2837
ag2935
ag2939
ag2942
ag3459
ag3462
ag1731
ag1736
ag3361
ag3365
ag3368
a(lp4281
VSOSKJVW12AB0187708
p4282
aVSOTWUUV12A8C137C5E
p4283
aVSODGSFW12A8C1337FB
p4284
aVSOIVXIY12A8AE45DD4
p4285
aa(lp4286
VSOSEEXZ12AB0184EEA
p4287
aVSOIRUTE12A6D4FA540
p4288
aa(lp4289
VSOVMGXI12AF72A80B0
p4290
aVSOTZLPX12A58A7A702
p4291
aa(lp4292
VSOTKRKX12AB018407B
p4293
aVSOJQUHI12A6D4FA7ED
p4294
aa(lp4295
VSOUJMPV12A8C13815C
p4296
aVSOTDTOK12A6310EF6E
p4297
aag1816
ag1819
ag1823
ag2570
ag2574
ag2579
ag3276
ag3281
ag3284
ag2054
ag2057
ag1739
ag490
ag493
ag3268
ag3272
aa(lp4298
g1209
ag1212
ag1574
ag3485
ag3488
ag3492
ag3497
ag4059
ag969
ag973
ag979
ag982
ag664
ag668
ag677
ag1591
ag1594
ag2420
ag2425
ag2429
ag2435
ag2439
ag2442
ag2446
ag2449
ag2452
ag3756
ag3759
ag3762
ag1071
ag1076
ag1079
ag3572
ag3575
ag3579
ag3582
ag2697
ag2701
ag2705
ag2708
ag2632
ag2635
ag2638
ag2596
ag2599
ag2602
ag2605
ag2608
a(lp4299
VSOUNRHI12A6D4F8CA4
p4300
aVSOGRFXS12AB017E4FB
p4301
aVSOTGKQE12AB018B4CC
p4302
aa(lp4303
VSOHMUPK12A8AE49D27
p4304
aVSOPEFQM12AB0186F95
p4305
aVSOTXDUV12A8C1465D8
p4306
aVSOEGJEB12D02192678
p4307
aVSOPHSBZ12A6D4F9693
p4308
aVSONJXPV12A8C13058E
p4309
aVSODNQJO12A6310F970
p4310
aa(lp4311
VSOWMELF12AB0184958
p4312
aVSOVTZZW12A8C137919
p4313
aag3930
ag3933
ag3071
ag3081
ag3085
ag2114
ag319
ag322
ag3833
ag4099
ag4103
ag4108
ag1643
ag3037
ag3630
ag462
ag465
ag3
ag7
a(lp4314
VSOBLRJG12AB0184418
p4315
aVSOVMBQW12A58A7DA0D
p4316
aVSOPCVKB12A6701D2E2
p4317
aag3268
ag3272
ag2506
ag2683
ag2687
a(lp4318
VSOECIVV12AB01824A0
p4319
aVSOTGLFF12AC37746ED
p4320
aVSOXETEV12A8C140438
p4321
aVSOIYVQP12A67020486
p4322
aa(lp4323
VSOKLZHQ12A6701D2E3
p4324
aVSOHUEFC12A8AE4827A
p4325
aVSOMMAIV12A8C136001
p4326
aa(lp4327
VSOCPSWP12A670214F2
p4328
aVSOCVTLJ12A6310F0FD
p4329
aag2092
ag2096
ag2101
ag2111
ag449
ag454
ag459
ag2485
ag2491
ag1251
ag657
ag661
ag2645
ag3434
ag2989
ag2992
ag2995
ag2137
ag2140
ag2143
ag2147
ag392
ag395
ag1565
ag1571
ag3177
ag3180
ag2214
ag1228
ag1233
ag3034
ag1841
ag2458
ag2462
ag865
ag874
ag2303
ag2307
a(lp4330
VSOMNXAP12AB01864B6
p4331
aVSOKEXAA12A8AE480EC
p4332
aag2642
ag1905
ag1909
ag1912
ag3412
ag3415
ag708
ag741
ag745
ag3160
ag3163
ag2740
ag2743
ag2748
ag3993
ag4215
ag4218
ag3842
ag3845
ag3848
ag3851
ag3854
ag4155
ag2509
ag2515
ag2519
ag629
ag632
ag222
ag225
ag229
ag233
ag1215
ag1219
ag4286
ag4289
ag4292
ag4295
ag3860
ag3863
ag3867
ag1922
ag3986
ag3989
ag293
ag298
ag301
ag306
ag2129
ag813
ag1246
ag2778
ag2782
ag2785
ag2788
ag2791
ag3474
ag2150
ag2153
ag4134
ag4139
ag3892
ag3896
ag3054
ag3058
ag3066
ag837
ag777
ag784
ag726
ag731
ag2850
ag2858
a(lp4333
VSOLKZDQ12AB01807E0
p4334
aVSOCLQYV12A8C13A709
p4335
aVSOXTOUC12AB0185A31
p4336
aVSOWUBXC12A8C132682
p4337
aa(lp4338
VSOHHPLT12A6D4FB9F8
p4339
aVSOJJHDQ12A6701D1EA
p4340
aa(lp4341
VSOWAHNU12A58A78D97
p4342
aVSOCSHAO12A67ADA295
p4343
aVSOYNLYI12A679C8064
p4344
aa(lp4345
VSOWZUHU12AB017CBDE
p4346
aVSOOSRRR12A8C131DF5
p4347
aa(lp4348
VSOCKEOB12A8AE485D2
p4349
aVSOPHLCX12A6D4F94B7
p4350
aag2012
ag3183
ag3186
ag1337
ag3325
ag2861
ag2867
ag3166
ag3171
a(lp4351
VSOANMPX12A8C13D8BD
p4352
aVSOUXOTG12A8C13D8D0
p4353
aa(lp4354
VSOIRUTE12A6D4FA540
p4355
aVSOAFTRR12AF72A8D4D
p4356
aag4085
a(lp4357
VSOJZNXN12A8C137C80
p4358
aVSOSBFGT12AF72A6C3F
p4359
aag3633
ag3636
ag3639
ag3642
ag1179
ag1183
ag1186
ag2801
ag2805
ag4048
ag4053
ag2162
ag2166
ag3744
ag3749
ag3752
ag3805
ag2060
ag2063
ag2066
ag1778
ag1782
ag1785
ag2998
ag3002
ag1484
ag1495
ag1500
ag348
ag352
ag358
ag1193
ag412
ag416
ag1552
ag1555
ag1558
ag1562
ag2870
ag2875
ag2884
ag2888
ag2891
ag589
ag595
ag3692
ag53
ag56
ag62
ag66
ag468
ag473
ag2844
ag1068
ag266
ag270
a(lp4360
VSOKQBDZ12AB018019D
p4361
aVSOFTQOV12AB0187753
p4362
aVSODMAOP12A8C143254
p4363
aVSOEUPYR12AAF3B2F05
p4364
aVSODLOFG12AB0184FD9
p4365
aag635
ag1752
ag1755
ag1758
ag1762
ag3609
ag3612
ag3619
ag3624
ag612
ag615
a(lp4366
VSOPPCXM12A6D4F66BC
p4367
aVSOBQEQM12A6701F40F
p4368
aVSOCYUZL12A6701FA23
p4369
aa(lp4370
VSOTFFHN12AC3DF7220
p4371
aVSOKAQBY12AB0185614
p4372
aa(lp4373
VSOTFFHN12AC3DF7220
p4374
aVSOFFZYH12AB0180E65
p4375
aVSOOMJUZ12AB0182036
p4376
aVSOTFABB12AF72A7ACE
p4377
aVSOINQNL12A8C13ADD1
p4378
aVSORIXFW12A58A77E7A
p4379
aa(lp4380
VSOYXOJV12AB017FC27
p4381
aVSOLXTPM12B0B80B2A5
p4382
aa(lp4383
VSOEMPFT12A58A7A574
p4384
aVSOLJMNU12AB01829DF
p4385
aag4076
ag4082
a(lp4386
VSOLBRDH12A6D228252
p4387
aVSOEDKIC12AB017EECA
p4388
aVSOMXFEZ12AB017FB37
p4389
aa(lp4390
VSORIXFW12A58A77E7A
p4391
aVSOKEXAA12A8AE480EC
p4392
aVSOTWUUV12A8C137C5E
p4393
aag3857
ag1334
ag3711
ag3714
ag1739
ag237
ag240
ag244
a(lp4394
VSOQMAJV12A81C235AF
p4395
aVSOYGXVS12AB017B4BD
p4396
aVSOBHSUL12A8C13A439
p4397
aVSOBXCWF12A8C1409E6
p4398
aVSOOPGAR12A8C140938
p4399
aa(lp4400
VSOBYDJL12A8AE48D97
p4401
aVSOTZLPX12A58A7A702
p4402
aag24
ag28
ag32
ag35
ag1979
ag1987
ag1990
ag3647
ag3651
ag3656
ag3940
ag3945
ag1957
ag1838
ag151
ag683
ag2956
ag2959
ag2965
ag2969
ag1902
a(lp4403
VSOZIXBJ12A8C13D1FC
p4404
aVSOKTGJZ12A58A7DC07
p4405
aVSOMJWIV12AC468A5A0
p4406
aag686
ag1793
ag3919
ag623
ag626
ag102
ag105
ag111
ag177
ag181
ag185
ag188
ag277
ag280
ag2278
a(lp4407
VSOFYJVT12A8C1414F7
p4408
aVSOELDYJ12A8C137554
p4409
aa(lp4410
VSOLMSGA12A8C143091
p4411
aVSOBAEXU12AB017D197
p4412
aa(lp4413
VSORQOGZ12CF5F88F6F
p4414
aVSORNPSL12D0219320F
p4415
aVSOOPRCG12A8AE4703A
p4416
aa(lp4417
VSOETYSJ12A8AE4635D
p4418
aVSOLYALL12A8AE46345
p4419
aag3937
ag1625
ag1630
ag1503
ag1507
ag1512
ag3479
ag3482
ag2159
ag3782
ag3585
ag3588
ag2354
ag1388
ag1392
ag1396
ag2219
ag2222
ag2398
ag2401
ag3983
ag1189
ag420
ag424
ag427
ag3197
ag3202
a(lp4420
VSOTFTCK12A6701C535
p4421
aVSOYFPNH12A6701F86D
p4422
aag3664
ag816
ag927
ag931
ag4192
ag4198
ag1412
a(lp4423
VSODUBLQ12A8C14360B
p4424
aVSOTSJBD12A670214A4
p4425
aVSOFAITH12AB018A004
p4426
aag2122
ag1649
ag1654
a(lp4427
VSOVUOKE12A6310EE51
p4428
aVSOXPMIV12A6701EF9E
p4429
aVSOVCZBU12AB0184C69
p4430
aa(lp4431
VSOGFHHE12A67ADF7E8
p4432
aVSODWFXA12A8C135B91
p4433
aag3243
ag3249
ag3252
a(lp4434
VSOWJXAG12A6D4F82F9
p4435
aVSOJEJNM12A58A7C393
p4436
aVSOPQFID12A8AE48735
p4437
aVSOQPOBG12A67AE024A
p4438
aVSOGHWER12A8C137DEA
p4439
aa(lp4440
VSOOYLHM12A8C13DA24
p4441
aVSOKJJOF12A8AE45B67
p4442
aVSOEMDTY12A67ADA1B2
p4443
aVSOAEMAV12A6D4F60A4
p4444
aVSOQWSCJ12A8AE46F1C
p4445
aVSOLJMNU12AB01829DF
p4446
aag1083
ag1087
ag1090
ag1094
ag566
ag569
ag573
a(lp4447
VSOSESQZ12A6D4F74CD
p4448
aVSOVPXOH12AB0180112
p4449
aag1169
ag1172
ag1175
ag4038
ag4042
ag4045
ag4020
ag4023
ag4026
ag402
ag4113
ag4120
ag4089
ag4095
ag69
ag72
ag76
ag159
ag3236
ag3239
ag3019
ag3022
ag3026
ag598
ag602
ag3526
ag3529
ag640
ag644
ag712
ag716
ag719
ag923
ag155
ag4281
ag2383
ag2394
ag2365
ag3667
ag3674
ag2763
ag2768
ag1993
ag1996
ag998
ag1002
ag3191
ag3194
ag3303
ag3306
ag3309
ag4035
ag2346
ag2351
ag1277
ag4178
ag4182
ag4188
ag1697
ag1701
ag4123
ag4131
ag689
ag692
ag695
ag3011
ag3014
ag3456
ag1661
ag1668
ag1671
ag1674
ag1010
ag2185
ag2188
ag2194
ag1704
ag1707
ag1710
ag985
ag991
ag995
ag2015
ag1256
a(lp4450
VSOQEEHX12A8AE47BD0
p4451
aVSOEKVVS12A6D4FA981
p4452
aVSOIFIDI12A8C13D9EC
p4453
aVSOHOQTV12AB0184E5B
p4454
aVSOKNLRS12A6D4F88C6
p4455
aVSOJEACK12AB0189D5E
p4456
aVSOPPCXM12A6D4F66BC
p4457
aVSOMYPEW12A6D4F6C04
p4458
aVSOWFPNV12AB017C143
p4459
aVSOUDUDI12A6D4F9674
p4460
aag3695
ag3699
ag3871
ag3874
ag1915
ag1919
ag1237
ag1240
ag2038
a(lp4461
VSOXJCWC12A6D4FA800
p4462
aVSOWQAQE12AF72A5E88
p4463
aa(lp4464
VSOEEBVK12AB017E4F1
p4465
aVSOYSKHC12CF582738C
p4466
aag648
ag651
ag654
ag283
ag286
ag556
ag559
ag562
ag361
ag368
ag1018
ag4005
ag4008
ag4014
ag2711
ag2715
ag2946
ag371
ag376
ag381
ag247
ag1021
ag1026
ag699
ag3088
ag3094
ag2225
ag2228
ag432
ag436
ag444
a(lp4467
VSOMOTXO12A6701D279
p4468
aVSOWXFHV12A8C142A76
p4469
aVSOTLQLG12A6D4F8833
p4470
aa(lp4471
VSOSKJVW12AB0187708
p4472
aVSOYFUJD12AB018D334
p4473
aa(lp4474
VSOGCAAF12AB017F8C4
p4475
aVSODDEJI12A67FFB3F4
p4476
aVSOULZBG12AF729C36D
p4477
aag3041
ag3045
ag2985
ag4002
ag2332
ag2338
ag3808
ag889
ag894
ag900
ag2126
ag2119
ag1796
ag1800
ag2972
ag1319
ag1325
ag3837
ag2914
ag2917
ag2920
ag2923
ag2926
ag1377
ag1382
ag1385
ag3922
ag3926
a(lp4478
VSOFQIIR12AF72A166B
p4479
aVSOECTHT12A8C145949
p4480
aVSOKGDHC12A8C145978
p4481
aVSOENAXU12A6D4FB6B8
p4482
aVSOFJHSD12A8C145C1A
p4483
aa(lp4484
VSONRUUX12AF72A4830
p4485
aVSOICGCQ12A8C14185C
p4486
aa(lp4487
VSOECTHT12A8C145949
p4488
aVSOSSVMX12A8C145951
p4489
aa(lp4490
VSOWFHUR12AB0183842
p4491
aVSOAKPSF12AB0187559
p4492
aag2818
ag2379
ag1522
a(lp4493
VSOIBXMY12AF72A07DE
p4494
aVSOXOXEG12AB0186B3D
p4495
aag3008
ag1609
ag1612
ag96
ag99
ag4030
a(lp4496
VSOAXHRH12A8C13C5FB
p4497
aVSOOQMEL12A67ADF7D6
p4498
aVSOCESFW12A58A7DC8C
p4499
aVSOTUPBA12A6D4F71CA
p4500
aa(lp4501
VSOSYDQC12A8C13A68F
p4502
aVSOBDGQD12A58A7C5DF
p4503
aVSOULNVH12A6D4F875D
p4504
aVSOGRCBF12A8C13233B
p4505
aa(lp4506
VSOBOOXZ12A8C13AF83
p4507
aVSOTJLQW12A8C13F87A
p4508
aag2809
ag2813
ag2311
ag2314
ag2034
ag1969
ag1976
ag3501
ag3459
ag3462
ag3135
ag3139
ag3143
a(lp4509
VSOYNKIH12AB017F54C
p4510
aVSOAESFQ12A8C140EEF
p4511
aVSODWOUC12AB0186292
p4512
aVSOVVYBK12A8C13BEC6
p4513
aVSOFDPAE12A6D4F9218
p4514
aVSODLOFG12AB0184FD9
p4515
aVSOTBCQW12AB018E1C5
p4516
aag490
ag493
ag953
ag3338
ag4261
ag4265
ag1039
ag1044
ag1223
ag1633
ag3957
ag3964
ag3968
ag2523
ag1925
ag1930
ag2894
ag3717
ag3721
ag3725
ag3728
ag1065
ag3532
ag3537
ag3543
ag3548
ag3552
ag3556
ag3560
ag3565
ag3569
ag3418
ag3424
ag3431
ag2252
ag2255
ag2259
ag260
ag1113
ag1116
ag1122
ag1097
ag1104
ag1108
ag2273
ag3683
ag3686
ag3689
ag2003
ag2006
ag4149
ag4152
ag2897
ag2900
ag2904
ag738
ag1525
ag1528
ag1684
ag1687
ag4221
ag4227
ag4231
ag4234
ag3446
a(lp4517
VSOPLIKQ12A6D4FA256
p4518
aVSOYAADI12AB0187E82
p4519
aag2548
ag2551
ag2554
ag2244
ag2247
ag956
ag961
ag965
ag1048
ag1060
ag4143
ag4146
ag1813
ag576
ag580
ag583
ag1328
ag3276
ag3281
ag3284
ag3505
ag3508
a(lp4520
VSOVSOYD12AB018C029
p4521
aVSOWHTFY12A6702184E
p4522
aVSOPVXJB12A6D4F47A1
p4523
aag1415
ag3328
ag3334
ag2822
ag2834
ag126
ag130
ag133
ag136
ag734
ag310
ag313
ag316
ag2455
ag3680
ag1826
ag1833
ag3385
ag3388
ag1418
ag1876
ag1880
ag3129
ag3132
ag1714
ag1717
ag1724
ag1727
ag941
ag945
ag948
ag3973
ag3976
ag3979
ag2526
ag2530
ag2202
ag2206
ag3950
ag3953
ag3785
ag3788
ag399
ag1961
ag1964
ag3732
ag3736
ag1432
ag1436
ag2840
ag1196
ag1199
ag1203
ag1742
ag1748
ag1933
ag1936
ag2648
ag2652
ag1939
ag1945
ag1948
ag1951
ag2908
ag2911
a(lp4524
VSOHYBJO12A8C13BEB4
p4525
aVSOQYGSV12AB0185635
p4526
aVSOGFBVF12A679D7E24
p4527
aVSOCGEUK12AC3DF9CB4
p4528
aVSOAUUER12A8C140C3D
p4529
aVSOIHYJM12AB0188722
p4530
aVSOSEBZA12A8C136F54
p4531
aVSONYMXY12A8C133F27
p4532
aVSOWBLUO12A6D4F8496
p4533
aa(lp4534
VSOPFTHK12A679D7E20
p4535
aVSOTQVVZ12A6D4FC295
p4536
aVSOFNYWP12AB01878CE
p4537
aa(lp4538
VSODODYE12A8C13ADB6
p4539
aVSONKZWM12AB017D049
p4540
aag1615
ag1621
ag509
ag2560
ag2563
ag2567
ag4241
ag4245
ag4253
ag4256
ag1280
ag1285
ag1288
ag3996
ag3999
ag2694
ag3704
ag3347
a(lp4541
VSOSUEJJ12AB018B331
p4542
aVSOFGCVB12AAF3B22BD
p4543
aa(lp4544
VSOIATIA12A8C13BCC1
p4545
aVSONYCMX12A58A7A6B6
p4546
aag4206
ag4209
ag2285
ag2929
ag2932
ag2009
ag163
ag2263
ag2266
ag1206
ag4212
ag1807
ag1810
ag512
ag853
ag857
ag862
ag506
ag1443
ag1449
ag1453
ag1458
ag1597
ag1600
ag1606
ag2671
ag2288
ag2292
ag2176
ag2179
ag2370
ag2373
ag531
ag534
ag537
ag542
ag3449
ag3452
ag1856
ag1860
ag2317
ag757
ag760
ag764
ag1155
ag1158
ag1161
ag3117
ag3122
ag3126
ag174
ag1269
ag1274
ag3886
ag1259
ag2727
ag551
ag2655
ag2658
aa(lp4547
g3930
ag3933
ag1856
ag1860
ag2060
ag2063
ag2066
ag1841
ag1277
ag69
ag72
ag76
ag1625
ag1630
ag2632
ag2635
ag2638
ag1018
ag4286
ag4289
ag4292
ag4295
ag3717
ag3721
ag3725
ag3728
ag2420
ag2425
ag2429
ag2435
ag2439
ag2442
ag2446
ag2449
ag2452
ag3826
ag3396
ag3400
ag3408
ag2645
ag2665
ag2668
ag1503
ag1507
ag1512
ag2897
ag2900
ag2904
ag2801
ag2805
ag1370
ag1374
ag4447
ag3769
ag3772
ag1731
ag1736
ag3437
ag3443
ag767
ag774
ag2655
ag2658
ag3034
ag1206
ag2043
ag2046
ag2049
ag2506
ag4281
ag247
ag4238
ag3288
ag3291
ag3295
ag1609
ag1612
ag576
ag580
ag583
ag4461
ag4464
ag329
ag332
ag337
ag1291
ag1294
ag1297
ag1301
ag1308
ag1313
ag1316
ag2523
ag2570
ag2574
ag2579
ag1838
ag3526
ag3529
ag738
ag4427
ag4431
ag4478
ag4484
ag4487
ag4490
ag3236
ag3239
ag38
ag2134
ag481
ag371
ag376
ag381
ag1807
ag1810
ag114
ag119
ag123
ag1443
ag1449
ag1453
ag1458
ag4517
ag2263
ag2266
ag1684
ag1687
ag2908
ag2911
ag1939
ag1945
ag1948
ag1951
ag1010
a(lp4548
VSOISWTQ12A8C1406BC
p4549
aVSOTALAF12A8C135704
p4550
aVSOXFGZL12A81C239A0
p4551
aag1269
ag1274
ag1412
ag2485
ag2491
ag1643
ag3667
ag3674
ag606
ag609
a(lp4552
VSOTTBUF12A8C13ACA3
p4553
aVSOIYLMC12A6D4FA1BD
p4554
aVSOQVKWR12A58A7D2C9
p4555
aag4357
ag2914
ag2917
ag2920
ag2923
ag2926
ag2232
ag2235
ag2238
ag2241
ag402
ag2711
ag2715
ag361
ag368
ag2114
ag1796
ag1800
ag551
ag3647
ag3651
ag3656
ag3325
ag702
ag705
ag820
ag823
ag827
ag833
ag2084
ag2089
ag2071
ag1961
ag1964
ag1969
ag1976
ag531
ag534
ag537
ag542
ag841
ag847
ag850
ag1135
ag1139
ag545
ag548
a(lp4556
VSOHTNRA12A8AE459B4
p4557
aVSOXXUFU12A6310E18A
p4558
aVSOENRTG12A67020E07
p4559
aVSOOJHLB12A6D4F991F
p4560
aVSOIAEJI12AF72A1A3A
p4561
aa(lp4562
VSOJYKOC12A6D4F6ED3
p4563
aVSOZSTCP12D0219910F
p4564
aVSOEXYIG12A6310E188
p4565
aVSOACHPF12A6D4FA64D
p4566
aVSOGCRXA12A6310D996
p4567
aag1883
ag3117
ag3122
ag3126
ag3775
ag3779
ag4386
ag4390
ag816
ag2476
ag2479
ag2482
ag2285
ag1125
ag1130
ag953
ag2003
ag2006
a(lp4568
VSOQEVOG12A8C137C98
p4569
aVSORFFNB12A6310F202
p4570
aag3940
ag3945
ag3957
ag3964
ag3968
ag4450
ag4206
ag4209
ag3183
ag3186
ag4360
ag4173
ag566
ag569
ag573
ag405
ag408
ag1933
ag1936
ag1887
ag1890
ag1896
ag3879
ag3882
ag1334
ag2844
ag1525
ag1528
ag3973
ag3976
ag3979
ag934
ag937
ag3756
ag3759
ag3762
ag2018
ag2025
ag2028
ag2031
ag1597
ag1600
ag1606
ag4089
ag4095
ag683
ag3860
ag3863
ag3867
ag3708
ag3704
ag3459
ag3462
ag2840
ag2822
ag2834
ag941
ag945
ag948
ag3371
ag260
ag1813
ag2320
ag2324
ag4113
ag4120
ag2850
ag2858
ag3664
ag2683
ag2687
ag237
ag240
ag244
ag496
ag499
ag4366
ag4370
ag4373
ag4380
ag4383
ag3833
ag3446
ag283
ag286
ag4403
ag3008
ag3937
ag4038
ag4042
ag4045
ag3766
ag3220
ag3223
ag3228
ag3232
ag837
ag4423
ag865
ag874
ag757
ag760
ag764
ag1251
ag2273
ag4048
ag4053
ag708
ag3243
ag3249
ag3252
ag3351
ag3355
ag3358
ag4221
ag4227
ag4231
ag4234
ag3268
ag3272
ag3465
ag3468
ag3683
ag3686
ag3689
ag517
ag522
ag526
ag3993
ag263
ag1169
ag1172
ag1175
ag4076
ag4082
ag2346
ag2351
ag2611
ag2618
ag2621
ag1048
ag1060
ag734
ag686
ag2694
ag3054
ag3058
ag3066
ag903
ag906
ag853
ag857
ag862
ag889
ag894
ag900
ag1155
ag1158
ag1161
ag1097
ag1104
ag1108
ag3385
ag3388
ag3572
ag3575
ag3579
ag3582
ag1925
ag1930
ag4496
ag4501
ag4506
ag3842
ag3845
ag3848
ag3851
ag3854
ag3391
ag3692
ag3892
ag3896
ag2244
ag2247
ag4318
ag4323
ag4327
ag2119
ag2354
ag1071
ag1076
ag1079
ag3037
ag3361
ag3365
ag3368
ag1421
ag1425
ag1428
ag3197
ag3202
ag2526
ag2530
ag3303
ag3306
ag3309
ag3299
ag2162
ag2166
ag3811
ag3815
ag3820
ag1432
ag1436
ag1193
ag1954
ag96
ag99
ag2837
ag3
ag7
ag1922
ag2137
ag2140
ag2143
ag2147
ag1704
ag1707
ag1710
ag1360
ag1363
ag310
ag313
ag316
ag449
ag454
ag459
ag2092
ag2096
ag2101
ag2111
ag4166
ag4169
ag910
ag913
ag920
ag3029
ag1552
ag1555
ag1558
ag1562
ag2126
ag1029
ag1035
ag1993
ag1996
ag3501
ag4059
ag1415
ag699
ag1142
ag1146
ag1149
ag1152
ag2311
ag2314
ag1957
ag623
ag626
ag3823
ag2642
ag293
ag298
ag301
ag306
ag1679
ag1690
ag1693
ag2129
ag3479
ag3482
ag4215
ag4218
ag2159
ag2122
ag3983
ag2455
ag3264
ag2560
ag2563
ag2567
ag3837
ag3919
ag2214
ag1166
ag635
ag2975
ag2979
ag2982
ag3160
ag3163
ag3276
ag3281
ag3284
ag3257
ag3261
ag506
ag1065
ag2671
ag2946
ag2740
ag2743
ag2748
ag1899
ag1340
ag1343
ag1346
ag1353
ag1356
ag1739
ag4348
ag629
ag632
ag1464
ag1469
ag1474
ag1477
ag1480
ag2219
ag2222
ag3871
ag3874
ag4155
ag3019
ag3022
ag3026
ag3680
ag174
ag42
ag46
ag49
a(lp4571
VSOXXUFU12A6310E18A
p4572
aVSOGTXAO12A6D4F87C5
p4573
aVSOZSZTH12A8C131141
p4574
aag1765
ag1768
ag1775
ag3129
ag3132
ag139
ag142
ag3886
ag648
ag651
ag654
ag3347
ag3191
ag3194
ag1484
ag1495
ag1500
ag2288
ag2292
ag462
ag465
ag1418
ag4123
ag4131
ag392
ag395
ag598
ag602
ag2861
ag2867
ag2870
ag2875
ag2884
ag2888
ag2891
ag4192
ag4198
ag3986
ag3989
ag4212
ag2278
ag102
ag105
ag111
ag3088
ag3094
ag3795
ag3798
ag3802
ag4420
ag2589
ag2592
ag4434
ag4440
ag3412
ag3415
ag3732
ag3736
ag2778
ag2782
ag2785
ag2788
ag2791
ag3922
ag3926
ag2225
ag2228
ag2365
ag927
ag931
ag1533
ag1536
ag1539
ag1543
ag1549
ag155
ag3434
ag640
ag644
ag2795
ag2798
ag2949
ag2952
ag3312
ag3316
ag3319
ag3322
ag712
ag716
ag719
ag748
ag751
ag3474
a(lp4575
VSOSOVYB12AB01845F0
p4576
aVSORBZFR12A8AE46E4D
p4577
aVSOJJHDQ12A6701D1EA
p4578
aVSOGCCGB12D021B107F
p4579
aVSOYKUDF12A8AE48B69
p4580
aVSODDVFH12D021B33C9
p4581
aa(lp4582
VSOHSAYJ12A8AE48A05
p4583
aVSOGEDPI12A58A79FC1
p4584
aVSOBMTNQ12A8C1332E8
p4585
aa(lp4586
VSOCNRQW12A6701F9F9
p4587
aVSOHPYSA12AC4687457
p4588
aVSOADXGA12D0219ACD3
p4589
aVSOSNZTN12A8C12FCA6
p4590
aag3633
ag3636
ag3639
ag3642
ag1400
ag1403
ag1408
ag222
ag225
ag229
ag233
ag1113
ag1116
ag1122
ag4299
ag4303
ag4311
ag797
ag800
ag806
ag809
ag2370
ag2373
ag1848
ag1852
ag4085
ag1752
ag1755
ag1758
ag1762
ag2998
ag3002
ag2586
ag1228
ag1233
ag4314
ag3341
ag3344
ag4020
ag4023
ag4026
ag4351
ag4354
ag3805
ag4509
ag2383
ag2394
ag1905
ag1909
ag1912
ag4394
ag4400
ag1039
ag1044
ag813
ag4062
ag4066
ag4069
ag3105
ag3108
ag3112
ag3418
ag3424
ag3431
ag1876
ag1880
ag4407
ag4410
ag4413
ag4417
ag10
ag14
ag20
ag3950
ag3953
ag191
ag194
ag200
ag207
ag210
ag214
ag219
ag1068
ag2727
ag4268
ag4271
ag4493
ag319
ag322
ag1215
ag1219
ag2503
ag657
ag661
ag1793
ag1574
ag1377
ag1382
ag1385
ag277
ag280
ag2012
ag3071
ag3081
ag3085
ag2818
ag2332
ag2338
ag3338
ag4261
ag4265
ag3585
ag3588
ag3100
ag2405
ag2410
ag2417
ag2317
ag2956
ag2959
ag2965
ag2969
ag253
ag256
ag177
ag181
ag185
ag188
ag3011
ag3014
ag2509
ag2515
ag2519
ag4541
ag4544
ag3630
ag2038
ag420
ag424
ag427
ag1778
ag1782
ag1785
ag2989
ag2992
ag2995
ag1591
ag1594
ag3595
ag53
ag56
ag62
ag66
ag2185
ag2188
ag2194
ag126
ag130
ag133
ag136
ag432
ag436
ag444
ag2985
ag2458
ag2462
ag689
ag692
ag695
ag3449
ag3452
ag1328
ag468
ag473
aa(lp4591
g4357
ag2185
ag2188
ag2194
ag1933
ag1936
ag2624
ag2629
ag934
ag937
ag1609
ag1612
ag3371
ag3667
ag3674
ag2137
ag2140
ag2143
ag2147
ag3276
ag3281
ag3284
ag3811
ag3815
ag3820
ag1039
ag1044
ag2084
ag2089
ag1552
ag1555
ag1558
ag1562
ag3391
ag606
ag609
ag2730
ag2734
ag767
ag774
ag329
ag332
ag337
ag3019
ag3022
ag3026
ag1731
ag1736
ag4206
ag4209
ag1565
ag1571
ag2263
ag2266
ag69
ag72
ag76
ag1415
ag1484
ag1495
ag1500
ag4496
ag4501
ag4506
ag1340
ag1343
ag1346
ag1353
ag1356
ag3940
ag3945
ag3892
ag3896
ag1856
ag1860
ag4360
ag2795
ag2798
ag3437
ag3443
ag1591
ag1594
ag3100
ag1793
ag3303
ag3306
ag3309
ag1179
ag1183
ag1186
ag2956
ag2959
ag2965
ag2969
ag1269
ag1274
ag3922
ag3926
ag4134
ag4139
ag1010
ag2015
ag1155
ag1158
ag1161
ag3532
ag3537
ag3543
ag3548
ag3552
ag3556
ag3560
ag3565
ag3569
ag4113
ag4120
ag371
ag376
ag381
ag837
ag2092
ag2096
ag2101
ag2111
ag865
ag874
ag517
ag522
ag526
ag3782
ag3236
ag3239
ag2596
ag2599
ag2602
ag2605
ag2608
ag4241
ag4245
ag4253
ag4256
ag222
ag225
ag229
ag233
ag1993
ag1996
ag2379
ag512
ag2122
ag3191
ag3194
ag2119
ag420
ag424
ag427
ag3695
ag3699
ag3071
ag3081
ag3085
ag3647
ag3651
ag3656
ag3795
ag3798
ag3802
ag1223
ag4030
ag1939
ag1945
ag1948
ag1951
ag2949
ag2952
ag490
ag493
ag956
ag961
ag965
ag277
ag280
ag1574
ag2908
ag2911
ag4123
ag4131
ag4149
ag4152
ag2494
ag2497
ag1443
ag1449
ag1453
ag1458
ag4099
ag4103
ag4108
ag1625
ag1630
ag3683
ag3686
ag3689
ag2054
ag2057
ag2870
ag2875
ag2884
ag2888
ag2891
ag2935
ag2939
ag2942
ag3312
ag3316
ag3319
ag3322
ag399
ag3805
ag1876
ag1880
ag3833
ag3983
ag3465
ag3468
ag1714
ag1717
ag1724
ag1727
ag3633
ag3636
ag3639
ag3642
ag1588
ag2683
ag2687
ag2320
ag2324
ag4085
ag3008
ag4020
ag4023
ag4026
ag3474
ag1277
ag556
ag559
ag562
ag96
ag99
ag1848
ag1852
ag1826
ag1833
ag4467
ag4471
ag4474
ag2763
ag2768
ag3485
ag3488
ag3492
ag3497
ag1400
ag1403
ag1408
ag3328
ag3334
ag3341
ag3344
ag1421
ag1425
ag1428
ag1841
ag1083
ag1087
ag1090
ag1094
ag1215
ag1219
ag4407
ag4410
ag4413
ag4417
ag3160
ag3163
ag734
ag2894
ag3449
ag3452
ag1643
ag820
ag823
ag827
ag833
ag1697
ag1701
ag1432
ag1436
ag2303
ag2307
ag4221
ag4227
ag4231
ag4234
ag3950
ag3953
ag191
ag194
ag200
ag207
ag210
ag214
ag219
ag4268
ag4271
ag3
ag7
ag1142
ag1146
ag1149
ag1152
ag2219
ag2222
ag2370
ag2373
ag1209
ag1212
ag4568
ag432
ag436
ag444
ag3775
ag3779
ag2861
ag2867
ag2533
ag2536
ag2541
ag2244
ag2247
ag4434
ag4440
ag4005
ag4008
ag4014
ag4386
ag4390
ag2458
ag2462
ag708
ag657
ag661
ag509
ag4509
ag2589
ag2592
ag1377
ag1382
ag1385
ag4461
ag4464
ag139
ag142
ag2523
ag3220
ag3223
ag3228
ag3232
ag2972
ag4192
ag4198
ag266
ag270
ag3385
ag3388
ag2273
ag3197
ag3202
ag2545
ag1597
ag1600
ag1606
ag3054
ag3058
ag3066
ag3717
ag3721
ag3725
ag3728
ag1649
ag1654
ag2038
ag4299
ag4303
ag4311
ag3088
ag3094
ag3511
ag3517
ag3522
ag293
ag298
ag301
ag306
ag2611
ag2618
ag2621
ag2727
ag2405
ag2410
ag2417
ag941
ag945
ag948
ag3664
ag2840
ag237
ag240
ag244
ag114
ag119
ag123
ag3446
ag1259
ag3609
ag3612
ag3619
ag3624
ag4261
ag4265
ag405
ag408
ag4524
ag4534
ag4538
ag3501
ag699
ag449
ag454
ag459
a(lp4592
VSOTFFUF12A8C1312F4
p4593
aVSOXXCNZ12AB01877C6
p4594
aa(lp4595
VSOAADYE12A58A7A804
p4596
aVSOEKDPZ12A8AE47A0B
p4597
aa(lp4598
VSOKXCMU12A58A7B7DE
p4599
aVSODICXR12A8C142F57
p4600
aa(lp4601
VSORHCPW12AC468BD9E
p4602
aVSOZAXAE12A58A7D32C
p4603
aVSOLYKAD12AB0186270
p4604
aag174
ag1113
ag1116
ag1122
ag3871
ag3874
ag3585
ag3588
ag1193
ag903
ag906
ag3808
ag1838
ag686
ag2114
ag1337
ag3243
ag3249
ag3252
ag4552
ag1251
ag3957
ag3964
ag3968
ag3325
ag3177
ag3180
ag3361
ag3365
ag3368
ag163
ag612
ag615
ag2232
ag2235
ag2238
ag2241
ag2586
ag2009
ag4178
ag4182
ag4188
ag3456
ag923
ag4520
ag102
ag105
ag111
ag910
ag913
ag920
ag4062
ag4066
ag4069
ag2850
ag2858
ag3756
ag3759
ag3762
ag3505
ag3508
ag4166
ag4169
ag3744
ag3749
ag3752
ag126
ag130
ag133
ag136
ag2570
ag2574
ag2579
ag2134
ag1752
ag1755
ag1758
ag1762
ag797
ag800
ag806
ag809
ag3166
ag3171
ag726
ag731
ag2285
ag3879
ag3882
ag757
ag760
ag764
ag4348
ag155
ag3837
ag53
ag56
ag62
ag66
ag2346
ag2351
ag1739
ag4089
ag4095
ag2989
ag2992
ag2995
ag2809
ag2813
ag2801
ag2805
ag81
ag85
ag88
ag91
ag4394
ag4400
a(lp4605
VSOFJOSL12AB0181CA8
p4606
aVSORMKTB12A8AE48533
p4607
aa(lp4608
VSOGDQWF12A67AD954F
p4609
aVSOZRMMN12A81C218B3
p4610
aVSOGDNZE12AB01802F6
p4611
aVSOEDSIN12A81C20B4D
p4612
aa(lp4613
VSOHDTPZ12AB018B590
p4614
aVSOSOKWQ12A6D4F8D2E
p4615
aVSOIWPED12A8C13136F
p4616
aa(lp4617
VSOWBQXL12AB017F60E
p4618
aVSOFNHEO12A81C218AC
p4619
aVSOLBMBM12AB0187F04
p4620
aag4403
ag4575
ag4582
ag4586
ag1412
ag1237
ag1240
ag1969
ag1976
ag629
ag632
ag4447
ag1418
ag2150
ag2153
ag635
ag2354
ag1905
ag1909
ag1912
ag2975
ag2979
ag2982
ag392
ag395
ag3347
ag4330
ag3029
ag3459
ag3462
ag3930
ag3933
ag1690
ag1693
ag2642
ag702
ag705
ag2043
ag2046
ag2049
ag4423
ag1925
ag1930
ag3434
ag319
ag322
ag2317
ag1922
ag3257
ag3261
ag4493
ag2503
ag1360
ag1363
ag2214
ag841
ag847
ag850
ag3711
ag3714
ag3937
ag1366
ag348
ag352
ag358
ag2655
ag2658
ag1863
ag1867
ag1873
ag953
ag4059
ag4215
ag4218
ag177
ag181
ag185
ag188
ag2159
ag3996
ag3999
ag2129
ag1887
ag1890
ag1896
ag927
ag931
ag402
ag3526
ag3529
ag3857
ag664
ag668
ag677
ag253
ag256
ag2034
ag4351
ag4354
ag2476
ag2479
ag2482
ag3338
ag1071
ag1076
ag1079
ag2737
ag4035
ag38
ag1899
ag3704
ag3288
ag3291
ag3295
ag2295
ag2300
ag3630
ag576
ag580
ag583
ag2998
ag3002
ag1915
ag1919
ag3823
ag777
ag784
ag3919
ag3680
ag3595
ag2455
ag853
ag857
ag862
ag2278
ag2398
ag2401
ag4571
ag2126
ag2560
ag2563
ag2567
ag1029
ag1035
ag4238
ag1765
ag1768
ag1775
ag1742
ag1748
ag813
ag689
ag692
ag695
ag1256
ag24
ag28
ag32
ag35
ag468
ag473
ag4450
ag2929
ag2932
ag3183
ag3186
ag640
ag644
ag3479
ag3482
ag748
ag751
ag3826
ag506
ag1097
ag1104
ag1108
ag2209
ag1370
ag1374
ag3986
ag3989
ag545
ag548
ag283
ag286
ag151
ag2311
ag2314
ag4556
ag4562
ag998
ag1002
ag2466
ag2471
ag889
ag894
ag900
ag496
ag499
ag159
ag2071
ag1228
ag1233
ag263
ag1883
ag2648
ag2652
ag1206
ag310
ag313
ag316
ag3769
ag3772
ag412
ag416
ag2844
ag2665
ag2668
ag2711
ag2715
ag3860
ag3863
ag3867
ag2506
ag2632
ag2635
ag2638
ag2003
ag2006
ag551
ag3692
ag1018
ag4541
ag4544
ag2837
ag42
ag46
ag49
ag1615
ag1621
ag3011
ag3014
ag2012
ag3351
ag3355
ag3358
ag1515
ag1519
ag4143
ag4146
ag1280
ag1285
ag1288
aa(lp4621
g1933
ag1936
ag2956
ag2959
ag2965
ag2969
ag3667
ag3674
ag3775
ag3779
ag1574
ag1388
ag1392
ag1396
ag3886
ag4427
ag4431
ag4206
ag4209
ag880
ag883
ag886
ag2998
ag3002
ag2092
ag2096
ag2101
ag2111
ag1189
ag2929
ag2932
ag4030
ag4366
ag4370
ag4373
ag4380
ag4383
ag3385
ag3388
ag42
ag46
ag49
ag3986
ag3989
ag2870
ag2875
ag2884
ag2888
ag2891
ag2985
ag3664
ag3756
ag3759
ag3762
ag4450
ag606
ag609
ag1113
ag1116
ag1122
ag96
ag99
ag348
ag352
ag358
ag3257
ag3261
ag1615
ag1621
ag2795
ag2798
ag4241
ag4245
ag4253
ag4256
ag1690
ag1693
ag2655
ag2658
ag2533
ag2536
ag2541
ag1142
ag1146
ag1149
ag1152
ag1340
ag1343
ag1346
ag1353
ag1356
ag4520
ag3008
ag2596
ag2599
ag2602
ag2605
ag2608
ag2084
ag2089
ag3243
ag3249
ag3252
ag1334
ag3312
ag3316
ag3319
ag3322
ag2038
ag2060
ag2063
ag2066
ag1533
ag1536
ag1539
ag1543
ag1549
ag683
ag2611
ag2618
ag2621
ag1269
ag1274
ag4155
ag2003
ag2006
ag1848
ag1852
ag3572
ag3575
ag3579
ag3582
ag1807
ag1810
ag3860
ag3863
ag3867
ag2914
ag2917
ag2920
ag2923
ag2926
ag757
ag760
ag764
ag816
ag2778
ag2782
ag2785
ag2788
ag2791
ag4002
ag1591
ag1594
ag2225
ag2228
ag4467
ag4471
ag4474
ag1418
ag3919
ag1280
ag1285
ag1288
ag1246
ag2949
ag2952
ag4212
ag767
ag774
ag657
ag661
ag4076
ag4082
ag3236
ag3239
ag191
ag194
ag200
ag207
ag210
ag214
ag219
ag2129
ag402
ag998
ag1002
ag2737
ag2665
ag2668
ag2801
ag2805
ag3922
ag3926
ag1876
ag1880
ag496
ag499
ag3183
ag3186
ag2370
ag2373
ag1957
ag1443
ag1449
ag1453
ag1458
ag4403
ag3029
ag2624
ag2629
ag3595
ag664
ag668
ag677
ag1068
ag1065
ag4281
ag3088
ag3094
ag1661
ag1668
ag1671
ag1674
ag4333
ag4338
ag4341
ag4345
ag556
ag559
ag562
ag4085
ag1902
ag3485
ag3488
ag3492
ag3497
ag2763
ag2768
ag2458
ag2462
ag2244
ag2247
ag1125
ag1130
ag2176
ag2179
ag3361
ag3365
ag3368
ag4360
ag726
ag731
ag712
ag716
ag719
ag3396
ag3400
ag3408
ag3532
ag3537
ag3543
ag3548
ag3552
ag3556
ag3560
ag3565
ag3569
ag2946
ag1484
ag1495
ag1500
ag2119
ag2850
ag2858
ag1071
ag1076
ag1079
ag1697
ag1701
ag2114
ag4123
ag4131
ag4423
ag38
ag4330
ag517
ag522
ag526
ag2506
ag266
ag270
ag151
ag449
ag454
ag459
ag1813
ag1856
ag1860
ag512
ag927
ag931
ag969
ag973
ag979
ag982
ag1337
ag1704
ag1707
ag1710
ag2697
ag2701
ag2705
ag2708
ag2122
ag648
ag651
ag654
ag126
ag130
ag133
ag136
ag2054
ag2057
ag2214
ag2632
ag2635
ag2638
ag3711
ag3714
ag1796
ag1800
ag139
ag142
ag2420
ag2425
ag2429
ag2435
ag2439
ag2442
ag2446
ag2449
ag2452
ag3105
ag3108
ag3112
ag319
ag322
ag1228
ag1233
ag4215
ag4218
ag3129
ag3132
ag3351
ag3355
ag3358
ag1922
ag910
ag913
ag920
ag2674
ag2680
ag399
ag3434
ag3940
ag3945
ag3177
ag3180
ag1503
ag1507
ag1512
ag1679
ag3785
ag3788
ag1993
ag1996
ag4192
ag4198
ag2844
ag903
ag906
ag2273
ag2162
ag2166
ag4299
ag4303
ag4311
ag4089
ag4095
ag3633
ag3636
ag3639
ag3642
ag3347
ag589
ag595
ag956
ag961
ag965
ag1135
ag1139
ag1400
ag1403
ag1408
ag1826
ag1833
ag3769
ag3772
ag1841
ag3071
ag3081
ag3085
ag1522
ag4571
ag1597
ag1600
ag1606
ag3826
ag4447
ag4166
ag4169
ag2383
ag2394
ag2317
ag386
ag389
ag3585
ag3588
ag4113
ag4120
ag2683
ag2687
ag686
ag1319
ag1325
ag2405
ag2410
ag2417
ag1915
ag1919
ag841
ag847
ag850
ag4099
ag4103
ag4108
ag2694
ag1838
ag820
ag823
ag827
ag833
ag708
ag1237
ag1240
ag1954
ag222
ag225
ag229
ag233
ag865
ag874
ag1899
ag4351
ag4354
ag2711
ag2715
ag2740
ag2743
ag2748
ag2894
ag1752
ag1755
ag1758
ag1762
ag3100
ag741
ag745
ag2897
ag2900
ag2904
ag2185
ag2188
ag2194
ag1097
ag1104
ag1108
ag2503
ag1649
ag1654
ag1684
ag1687
ag237
ag240
ag244
ag985
ag991
ag995
ag1765
ag1768
ag1775
ag4357
ag1018
ag2285
ag3717
ag3721
ag3725
ag3728
ag1021
ag1026
ag260
ag3135
ag3139
ag3143
ag102
ag105
ag111
ag748
ag751
ag2159
ag3842
ag3845
ag3848
ag3851
ag3854
ag3950
ag3953
ag2485
ag2491
ag2150
ag2153
ag1609
ag1612
ag3937
ag734
ag3879
ag3882
ag1742
ag1748
ag3808
ag3449
ag3452
ag2809
ag2813
ag2354
ag1588
ag4605
ag4608
ag4613
ag4617
ag4461
ag4464
ag432
ag436
ag444
ag1961
ag1964
ag1793
ag277
ag280
ag3930
ag3933
ag4517
ag2818
ag371
ag376
ag381
ag329
ag332
ag337
ag2671
ag293
ag298
ag301
ag306
ag4592
ag4595
ag4598
ag4601
ag4143
ag4146
ag1029
ag1035
ag1633
ag2134
ag3268
ag3272
ag3871
ag3874
ag853
ag857
ag862
ag2232
ag2235
ag2238
ag2241
ag2908
ag2911
ag2837
ag462
ag465
ag629
ag632
ag2972
ag2303
ag2307
ag566
ag569
ag573
ag1412
ag1625
ag1630
ag813
ag1366
ag2545
ag1739
ag2252
ag2255
ag2259
ag3782
ag2751
ag2754
ag2758
ag2012
ag3892
ag3896
ag598
ag602
ag1565
ag1571
ag2840
ag3276
ag3281
ag3284
ag2126
ag481
ag2398
ag2401
ag4496
ag4501
ag4506
ag4286
ag4289
ag4292
ag4295
ag699
ag4348
ag1328
ag797
ag800
ag806
ag809
ag361
ag368
ag2526
ag2530
ag777
ag784
ag1215
ag1219
ag3833
ag1905
ag1909
ag1912
ag2320
ag2324
ag2570
ag2574
ag2579
ag53
ag56
ag62
ag66
ag3805
ag4541
ag4544
ag3328
ag3334
ag545
ag548
ag468
ag473
ag4478
ag4484
ag4487
ag4490
ag283
ag286
ag1251
ag3996
ag3999
ag3220
ag3223
ag3228
ag3232
ag2861
ag2867
ag1262
ag1265
ag1291
ag1294
ag1297
ag1301
ag1308
ag1313
ag1316
ag2034
ag2332
ag2338
ag263
ag3264
ag3456
ag3511
ag3517
ag3522
ag640
ag644
ag1887
ag1890
ag1896
ag1259
ag3465
ag3468
ag3708
ag1370
ag1374
ag1432
ag1436
ag923
ag1969
ag1976
ag576
ag580
ag583
ag2466
ag2471
ag3479
ag3482
ag4556
ag4562
ag3371
ag3811
ag3815
ag3820
ag1979
ag1987
ag1990
ag4314
ag3338
ag4420
ag4524
ag4534
ag4538
ag506
ag4149
ag4152
ag509
ag3146
ag3154
ag1083
ag1087
ag1090
ag1094
ag3418
ag3424
ag3431
ag3837
ag3325
ag1643
ag4035
ag4394
ag4400
ag4020
ag4023
ag4026
ag4221
ag4227
ag4231
ag4234
ag4238
ag689
ag692
ag695
ag4038
ag4042
ag4045
ag3823
ag4509
ag1883
ag3211
ag3214
ag3983
ag2379
ag4173
ag310
ag313
ag316
ag4568
ag2043
ag2046
ag2049
ag4318
ag4323
ag4327
ag3795
ag3798
ag3802
ag3437
ag3443
ag2476
ag2479
ag2482
ag3474
ag163
ag177
ag181
ag185
ag188
ag392
ag395
ag3732
ag3736
ag1206
ag4552
ag3303
ag3306
ag3309
ag1256
ag635
ag3160
ag3163
ag2278
ag24
ag28
ag32
ag35
ag3191
ag3194
aa(lp4622
g4212
ag3505
ag3508
ag910
ag913
ag920
ag4099
ag4103
ag4108
ag1816
ag1819
ag1823
ag293
ag298
ag301
ag306
ag657
ag661
ag3526
ag3529
ag3630
ag748
ag751
ag2683
ag2687
ag1565
ag1571
ag726
ag731
ag1412
ag816
ag4062
ag4066
ag4069
ag1813
ag4509
ag3937
ag4059
ag2763
ag2768
ag4360
ag260
ag2897
ag2900
ag2904
ag1525
ag1528
ag1237
ag1240
ag813
ag3396
ag3400
ag3408
ag865
ag874
ag4206
ag4209
ag2134
ag2159
ag1291
ag1294
ag1297
ag1301
ag1308
ag1313
ag1316
ag468
ag473
ag2054
ag2057
ag3371
ag3775
ag3779
ag2455
ag2003
ag2006
ag3732
ag3736
ag3833
ag4149
ag4152
ag2914
ag2917
ag2920
ag2923
ag2926
ag3088
ag3094
ag3276
ag3281
ag3284
ag3692
ag2503
ag3595
ag3412
ag3415
ag2114
ag392
ag395
ag1029
ag1035
ag3166
ag3171
ag664
ag668
ag677
ag4155
ag956
ag961
ag965
ag3361
ag3365
ag3368
ag1206
ag386
ag389
ag1048
ag1060
ag1010
ag4348
ag635
ag985
ag991
ag995
ag3211
ag3214
ag1609
ag1612
ag576
ag580
ag583
ag3983
ag3785
ag3788
ag3008
ag3449
ag3452
ag4366
ag4370
ag4373
ag4380
ag4383
ag3029
ag1922
ag2665
ag2668
ag1856
ag1860
ag1841
ag3268
ag3272
ag2060
ag2063
ag2066
ag2295
ag2300
ag2985
ag1277
ag2671
ag2737
ag1933
ag1936
ag2697
ag2701
ag2705
ag2708
ag841
ag847
ag850
ag3957
ag3964
ag3968
ag2611
ag2618
ag2621
ag253
ag256
ag734
ag114
ag119
ag123
ag1591
ag1594
ag2894
ag506
ag648
ag651
ag654
ag3325
ag1039
ag1044
ag1739
ag2126
ag4330
ag551
ag4143
ag4146
ag2288
ag2292
ag3842
ag3845
ag3848
ag3851
ag3854
ag174
ag3860
ag3863
ag3867
ag420
ag424
ag427
ag2303
ag2307
ag4173
ag3808
ag3766
ag3717
ag3721
ag3725
ag3728
ag4605
ag4608
ag4613
ag4617
ag2320
ag2324
ag1939
ag1945
ag1948
ag1951
ag4541
ag4544
ag2122
ag155
ag3351
ag3355
ag3358
ag490
ag493
ag3328
ag3334
ag1421
ag1425
ag1428
ag1179
ag1183
ag1186
ag2485
ag2491
ag4423
ag787
ag791
ag3391
ag3919
ag4113
ag4120
ag1432
ag1436
ag2801
ag2805
ag1328
ag1166
ag1848
ag1852
ag2346
ag2351
ag1246
ag69
ag72
ag76
ag2176
ag2179
ag4261
ag4265
ag2727
ag3288
ag3291
ag3295
ag2946
ag699
ag4002
ag589
ag595
ag3950
ag3953
ag4299
ag4303
ag4311
ag4434
ag4440
ag3135
ag3139
ag3143
ag969
ag973
ag979
ag982
ag4241
ag4245
ag4253
ag4256
ag3146
ag3154
ag741
ag745
ag3071
ag3081
ag3085
ag4089
ag4095
ag4357
ag1649
ag1654
ag2730
ag2734
ag880
ag883
ag886
ag3795
ag3798
ag3802
ag1340
ag1343
ag1346
ag1353
ag1356
ag1633
ag432
ag436
ag444
ag1196
ag1199
ag1203
ag3479
ag3482
ag3034
ag3857
ag2018
ag2025
ag2028
ag2031
ag3437
ag3443
ag566
ag569
ag573
ag2975
ag2979
ag2982
ag2870
ag2875
ag2884
ag2888
ag2891
ag1319
ag1325
ag3474
ag2458
ag2462
ag247
ag4496
ag4501
ag4506
ag38
ag2379
ag2844
ag545
ag548
ag1993
ag1996
ag3160
ag3163
ag163
ag2589
ag2592
ag2209
ag4575
ag4582
ag4586
ag2645
ag3220
ag3223
ag3228
ag3232
ag3811
ag3815
ag3820
ag1083
ag1087
ag1090
ag1094
ag1796
ag1800
ag767
ag774
ag2822
ag2834
ag2466
ag2471
ag402
ag3243
ag3249
ag3252
ag1752
ag1755
ag1758
ag1762
ag4450
ag3647
ag3651
ag3656
ag2837
ag1021
ag1026
ag1366
ag1503
ag1507
ag1512
ag1905
ag1909
ag1912
ag4038
ag4042
ag4045
ag3744
ag3749
ag3752
ag2570
ag2574
ag2579
ag3385
ag3388
ag2370
ag2373
ag2929
ag2932
ag2642
ag1269
ag1274
ag1765
ag1768
ag1775
ag1262
ag1265
ag2972
ag2202
ag2206
ag4420
ag1588
ag2476
ag2479
ag2482
ag1899
ag4394
ag4400
ag1742
ag1748
ag640
ag644
ag509
ag1189
ag3695
ag3699
ag629
ag632
ag3986
ag3989
ag1400
ag1403
ag1408
ag191
ag194
ag200
ag207
ag210
ag214
ag219
ag1251
ag2150
ag2153
ag1370
ag1374
ag2545
ag3826
ag2632
ag2635
ag2638
ag712
ag716
ag719
ag3871
ag3874
ag1155
ag1158
ag1161
ag3105
ag3108
ag3112
ag277
ag280
ag4524
ag4534
ag4538
ag889
ag894
ag900
ag2949
ag2952
ag151
ag1377
ag1382
ag1385
ag512
ag4123
ag4131
ag1065
ag1113
ag1116
ag1122
ag2244
ag2247
ag1552
ag1555
ag1558
ag1562
ag1215
ag1219
ag4568
ag3434
ag2354
ag3996
ag3999
ag4005
ag4008
ag4014
ag1337
ag1793
ag1915
ag1919
ag449
ag454
ag459
ag1597
ag1600
ag1606
ag3769
ag3772
ag820
ag823
ag827
ag833
ag1714
ag1717
ag1724
ag1727
ag462
ag465
ag3264
ag3236
ag3239
ag4548
ag1484
ag1495
ag1500
ag702
ag705
ag3756
ag3759
ag3762
ag2311
ag2314
ag738
ag3183
ag3186
ag3823
ag3667
ag3674
ag2129
ag2383
ag2394
ag3037
ag1097
ag1104
ag1108
ag1415
ag3191
ag3194
ag481
ag42
ag46
ag49
ag3680
ag797
ag800
ag806
ag809
ag3805
ag1969
ag1976
ag4134
ag4139
ag1125
ag1130
ag319
ag322
ag283
ag286
ag4403
ag1883
ag683
ag2137
ag2140
ag2143
ag2147
ag934
ag937
ag53
ag56
ag62
ag66
ag4221
ag4227
ag4231
ag4234
ag3299
ag2778
ag2782
ag2785
ag2788
ag2791
ag531
ag534
ag537
ag542
ag496
ag499
ag3993
ag3664
ag3485
ag3488
ag3492
ag3497
ag2809
ag2813
ag1522
ag4552
ag222
ag225
ag229
ag233
ag412
ag416
ag2405
ag2410
ag2417
ag2526
ag2530
ag2586
ag1418
ag4286
ag4289
ag4292
ag4295
ag757
ag760
ag764
ag4268
ag4271
ag1135
ag1139
ag2317
ag1826
ag1833
ag612
ag615
ag1684
ag1687
ag361
ag368
ag3303
ag3306
ag3309
ag3054
ag3058
ag3066
ag2038
ag4520
ag1778
ag1782
ag1785
ag3886
ag3418
ag3424
ag3431
ag266
ag270
ag3465
ag3468
ag2071
ag2694
ag3177
ag3180
ag4556
ag4562
ag3633
ag3636
ag3639
ag3642
ag3011
ag3014
ag2596
ag2599
ag2602
ag2605
ag2608
ag159
ag4215
ag4218
ag1643
ag1533
ag1536
ag1539
ag1543
ag1549
ag3892
ag3896
ag2908
ag2911
ag1169
ag1172
ag1175
ag1704
ag1707
ag1710
ag4407
ag4410
ag4413
ag4417
ag2674
ag2680
ag598
ag602
ag1018
ag2232
ag2235
ag2238
ag2241
ag3837
ag3347
ag2162
ag2166
ag348
ag352
ag358
ag1223
ag4467
ag4471
ag4474
ag4478
ag4484
ag4487
ag4490
ag3930
ag3933
ag2523
ag2398
ag2401
ag1979
ag1987
ag1990
ag1957
ag998
ag1002
ag1731
ag1736
ag4076
ag4082
ag1228
ag1233
ag2861
ag2867
ag371
ag376
ag381
ag2751
ag2754
ag2758
ag2655
ag2658
ag399
ag2012
ag903
ag906
ag2092
ag2096
ag2101
ag2111
ag1464
ag1469
ag1474
ag1477
ag1480
ag3129
ag3132
ag1256
ag1807
ag1810
ag3922
ag3926
ag686
ag2225
ag2228
ag4333
ag4338
ag4341
ag4345
ag2624
ag2629
ag2506
ag1360
ag1363
ag2219
ag2222
ag3100
aa(lp4623
g1778
ag1782
ag1785
ag2730
ag2734
ag2914
ag2917
ag2920
ag2923
ag2926
ag2949
ag2952
ag841
ag847
ag850
ag4575
ag4582
ag4586
ag3361
ag3365
ag3368
ag496
ag499
ag1277
ag1625
ag1630
ag2694
ag4467
ag4471
ag4474
ag4166
ag4169
ag3879
ag3882
ag1922
ag2476
ag2479
ag2482
ag1887
ag1890
ag1896
ag3479
ag3482
ag683
ag2929
ag2932
ag4333
ag4338
ag4341
ag4345
ag702
ag705
ag4299
ag4303
ag4311
ag1684
ag1687
ag1400
ag1403
ag1408
ag3808
ag4520
ag777
ag784
ag2185
ag2188
ag2194
ag4059
ag1418
ag2466
ag2471
ag3220
ag3223
ag3228
ag3232
ag1256
ag3957
ag3964
ag3968
ag865
ag874
ag3160
ag3163
ag1029
ag1035
ag3630
ag3211
ag3214
ag4221
ag4227
ag4231
ag4234
ag4403
ag1848
ag1852
ag4238
ag1807
ag1810
ag2054
ag2057
ag3465
ag3468
ag1291
ag1294
ag1297
ag1301
ag1308
ag1313
ag1316
ag3191
ag3194
ag371
ag376
ag381
ag420
ag424
ag427
ag1902
ag3449
ag3452
ag3732
ag3736
ag3391
ag1464
ag1469
ag1474
ag1477
ag1480
ag3983
ag4592
ag4595
ag4598
ag4601
ag42
ag46
ag49
ag635
ag2263
ag2266
ag2012
ag3511
ag3517
ag3522
ag2998
ag3002
ag2946
ag2697
ag2701
ag2705
ag2708
ag2485
ag2491
ag1993
ag1996
ag1334
ag2908
ag2911
ag1179
ag1183
ag1186
ag81
ag85
ag88
ag91
ag53
ag56
ag62
ag66
ag3899
ag3906
ag2801
ag2805
ag2611
ag2618
ag2621
ag2506
ag2586
ag1961
ag1964
ag998
ag1002
ag432
ag436
ag444
ag69
ag72
ag76
ag3711
ag3714
ag3412
ag3415
ag2317
ag3
ag7
ag1484
ag1495
ag1500
ag1065
ag3257
ag3261
ag4386
ag4390
ag4348
ag2015
ag1933
ag1936
ag1690
ag1693
ag531
ag534
ag537
ag542
ag1826
ag1833
ag4268
ag4271
ag4434
ag4440
ag2232
ag2235
ag2238
ag2241
ag757
ag760
ag764
ag1360
ag1363
ag4496
ag4501
ag4506
ag4123
ag4131
ag3034
ag2209
ag2092
ag2096
ag2101
ag2111
ag114
ag119
ag123
ag4020
ag4023
ag4026
ag2303
ag2307
ag4366
ag4370
ag4373
ag4380
ag4383
ag2818
ag1083
ag1087
ag1090
ag1094
ag3633
ag3636
ag3639
ag3642
ag1223
ag1377
ag1382
ag1385
ag3695
ag3699
ag3986
ag3989
ag2060
ag2063
ag2066
ag576
ag580
ag583
ag3871
ag3874
ag3299
ag1010
ag2737
ag2285
ag3930
ag3933
ag3501
ag2134
ag2225
ag2228
ag3585
ag3588
ag606
ag609
ag816
ag4541
ag4544
ag10
ag14
ag20
ag2674
ag2680
ag1883
ag1714
ag1717
ag1724
ag1727
ag3526
ag3529
ag3100
ag4149
ag4152
ag1793
ag927
ag931
ag4048
ag4053
ag1813
ag1209
ag1212
ag1068
ag509
ag4509
ag402
ag1039
ag1044
ag253
ag256
ag4568
ag767
ag774
ag155
ag2545
ag2398
ag2401
ag2596
ag2599
ag2602
ag2605
ag2608
ag1661
ag1668
ag1671
ag1674
ag3328
ag3334
ag2822
ag2834
ag1443
ag1449
ag1453
ag1458
ag1125
ag1130
ag3766
ag2751
ag2754
ag2758
ag969
ag973
ag979
ag982
ag956
ag961
ag965
ag3088
ag3094
ag545
ag548
ag3351
ag3355
ag3358
ag1097
ag1104
ag1108
ag1925
ag1930
ag2084
ag2089
ag4357
ag3826
ag3338
ag405
ag408
ag2655
ag2658
ag2975
ag2979
ag2982
ag2494
ag2497
ag4085
ag741
ag745
ag2642
ag4215
ag4218
ag1905
ag1909
ag1912
ag4571
ag657
ag661
ag3459
ag3462
ag3919
ag4178
ag4182
ag4188
ag163
ag3805
ag2533
ag2536
ag2541
ag934
ag937
ag3857
ag3276
ag3281
ag3284
ag708
ag3664
ag3105
ag3108
ag3112
ag3717
ag3721
ag3725
ag3728
ag1319
ag1325
ag4314
ag3117
ag3122
ag3126
ag3667
ag3674
ag1189
ag3312
ag3316
ag3319
ag3322
ag1731
ag1736
ag4423
ag1679
ag2126
ag1206
ag1259
ag3177
ag3180
ag1251
ag3347
ag263
ag1071
ag1076
ag1079
ag1565
ag1571
ag4605
ag4608
ag4613
ag4617
ag1388
ag1392
ag1396
ag2570
ag2574
ag2579
ag293
ag298
ag301
ag306
ag399
ag3811
ag3815
ag3820
ag4407
ag4410
ag4413
ag4417
ag3371
ag589
ag595
ag4155
ag1048
ag1060
ag2034
ag4286
ag4289
ag4292
ag4295
ag3833
ag3647
ag3651
ag3656
ag2365
ag277
ag280
ag612
ag615
ag3950
ag3953
ag392
ag395
ag3474
ag1742
ag1748
ag689
ag692
ag695
ag2809
ag2813
ag2956
ag2959
ag2965
ag2969
ag813
ag2985
ag3940
ag3945
ag2159
ag2455
ag3037
ag3782
ag1328
ag4076
ag4082
ag24
ag28
ag32
ag35
ag1228
ag1233
ag4351
ag4354
ag462
ag465
ag386
ag389
ag2850
ag2858
ag3823
ag1018
ag3996
ag3999
ag2405
ag2410
ag2417
ag4556
ag4562
ag985
ag991
ag995
ag556
ag559
ag562
ag2795
ag2798
ag1899
ag2840
ag151
ag2244
ag2247
ag1246
ag4493
ag853
ag857
ag862
ag3572
ag3575
ag3579
ag3582
ag3268
ag3272
ag3243
ag3249
ag3252
ag787
ag791
ag2897
ag2900
ag2904
ag1609
ag1612
ag1841
ag2740
ag2743
ag2748
ag3166
ag3171
ag191
ag194
ag200
ag207
ag210
ag214
ag219
ag102
ag105
ag111
ag247
ag1649
ag1654
ag623
ag626
ag4360
ag2311
ag2314
ag2273
ag1915
ag1919
ag266
ag270
ag2671
ag1765
ag1768
ag1775
ag734
ag3795
ag3798
ag3802
ag1142
ag1146
ag1149
ag1152
ag738
ag3288
ag3291
ag3295
ag2009
ag3071
ag3081
ag3085
ag4420
ag1552
ag1555
ag1558
ag1562
ag1196
ag1199
ag1203
ag4427
ag4431
ag4143
ag4146
ag2589
ag2592
ag3054
ag3058
ag3066
ag3886
ag923
ag797
ag800
ag806
ag809
ag648
ag651
ag654
ag3437
ag3443
ag2176
ag2179
ag3303
ag3306
ag3309
ag1856
ag1860
ag2214
ag1876
ag1880
ag1697
ag1701
ag3922
ag3926
ag3842
ag3845
ag3848
ag3851
ag3854
ag1643
ag2837
ag2043
ag2046
ag2049
ag820
ag823
ag827
ag833
ag481
ag4113
ag4120
ag2119
ag174
ag1838
ag2003
ag2006
ag1752
ag1755
ag1758
ag1762
ag566
ag569
ag573
ag1113
ag1116
ag1122
ag3434
ag1533
ag1536
ag1539
ag1543
ag1549
ag2295
ag2300
ag1432
ag1436
ag2038
ag2645
ag2137
ag2140
ag2143
ag2147
ag3264
ag4030
ag4005
ag4008
ag4014
ag3837
ag1193
ag1969
ag1976
ag3135
ag3139
ag3143
ag2989
ag2992
ag2995
ag1525
ag1528
ag1863
ag1867
ag1873
ag1515
ag1519
ag3595
ag837
ag3485
ag3488
ag3492
ag3497
ag4099
ag4103
ag4108
ag2379
ag490
ag493
ag664
ag668
ag677
ag1135
ag1139
ag4548
ag126
ag130
ag133
ag136
ag1954
ag38
ag3341
ag3344
ag283
ag286
ag4394
ag4400
ag4089
ag4095
ag1366
ag3019
ag3022
ag3026
ag3456
ag2665
ag2668
ag2503
ag880
ag883
ag886
ag4035
ag1269
ag1274
ag629
ag632
ag3993
ag2870
ag2875
ag2884
ag2888
ag2891
ag310
ag313
ag316
ag2711
ag2715
ag3756
ag3759
ag3762
ag361
ag368
ag3008
ag2114
ag4552
ag3505
ag3508
ag640
ag644
ag3937
ag3446
ag4038
ag4042
ag4045
ag3769
ag3772
ag1597
ag1600
ag1606
ag2683
ag2687
ag1574
ag3892
ag3896
aa(lp4624
g1251
ag2844
ag462
ag465
ag2975
ag2979
ag2982
ag3299
ag4076
ag4082
ag24
ag28
ag32
ag35
ag545
ag548
ag598
ag602
ag2897
ag2900
ag2904
ag512
ag1905
ag1909
ag1912
ag3041
ag3045
ag2850
ag2858
ag531
ag534
ag537
ag542
ag1291
ag1294
ag1297
ag1301
ag1308
ag1313
ag1316
ag589
ag595
ag4357
ag2084
ag2089
ag222
ag225
ag229
ag233
ag3236
ag3239
ag2209
ag1097
ag1104
ag1108
ag3879
ag3882
ag2129
ag1328
ag734
ag3456
ag69
ag72
ag76
ag253
ag256
ag2596
ag2599
ag2602
ag2605
ag2608
ag2288
ag2292
ag4556
ag4562
ag998
ag1002
ag432
ag436
ag444
ag2671
ag606
ag609
ag787
ag791
ag2998
ag3002
ag329
ag332
ag337
ag4541
ag4544
ag1209
ag1212
ag399
ag1838
ag3919
ag2989
ag2992
ag2995
ag4434
ag4440
ag3585
ag3588
ag1902
ag3385
ag3388
ag2012
ag683
ag1887
ag1890
ag1896
ag2114
ag1939
ag1945
ag1948
ag1951
ag3037
ag1609
ag1612
ag4038
ag4042
ag4045
ag4450
ag1876
ag1880
ag3437
ag3443
ag3054
ag3058
ag3066
ag3100
ag2494
ag2497
ag163
ag412
ag416
ag3595
ag1039
ag1044
ag1742
ag1748
ag1625
ag1630
ag3808
ag1993
ag1996
ag3775
ag3779
ag237
ag240
ag244
ag1415
ag2972
ag1739
ag3899
ag3906
ag1679
ag2778
ag2782
ag2785
ag2788
ag2791
ag2509
ag2515
ag2519
ag880
ag883
ag886
ag1421
ag1425
ag1428
ag3418
ag3424
ag3431
ag1228
ag1233
ag1206
ag969
ag973
ag979
ag982
ag941
ag945
ag948
ag841
ag847
ag850
ag3892
ag3896
ag4020
ag4023
ag4026
ag1633
ag4149
ag4152
ag4099
ag4103
ag4108
ag1979
ag1987
ag1990
ag2645
ag4062
ag4066
ag4069
ag3826
ag4394
ag4400
ag1961
ag1964
ag3071
ag3081
ag3085
ag2320
ag2324
ag934
ag937
ag3347
ag956
ag961
ag965
ag1552
ag1555
ag1558
ag1562
ag3396
ag3400
ag3408
ag1690
ag1693
ag3257
ag3261
ag623
ag626
ag3511
ag3517
ag3522
ag319
ag322
ag3328
ag3334
ag3857
ag2586
ag2840
ag1018
ag3312
ag3316
ag3319
ag3322
ag3795
ag3798
ag3802
ag2092
ag2096
ag2101
ag2111
ag1256
ag293
ag298
ag301
ag306
ag1370
ag1374
ag4238
ag1574
ag405
ag408
ag1816
ag1819
ag1823
ag3288
ag3291
ag3295
ag686
ag3268
ag3272
ag4035
ag2697
ag2701
ag2705
ag2708
ag2018
ag2025
ag2028
ag2031
ag2751
ag2754
ag2758
ag927
ag931
ag81
ag85
ag88
ag91
ag3823
ag4166
ag4169
ag767
ag774
ag4089
ag4095
ag4423
ag1533
ag1536
ag1539
ag1543
ag1549
ag1957
ag612
ag615
ag2383
ag2394
ag664
ag668
ag677
ag1697
ag1701
ag1337
ag2837
ag1661
ag1668
ag1671
ag1674
ag191
ag194
ag200
ag207
ag210
ag214
ag219
ag3303
ag3306
ag3309
ag2263
ag2266
ag3860
ag3863
ag3867
ag1856
ag1860
ag386
ag389
ag2642
ag3088
ag3094
ag4493
ag2801
ag2805
ag2870
ag2875
ag2884
ag2888
ag2891
ag1071
ag1076
ag1079
ag174
ag3785
ag3788
ag4427
ag4431
ag2162
ag2166
ag4048
ag4053
ag3532
ag3537
ag3543
ag3548
ag3552
ag3556
ag3560
ag3565
ag3569
ag3008
ag3683
ag3686
ag3689
ag2740
ag2743
ag2748
ag1899
ag2485
ag2491
ag1922
ag3717
ag3721
ag3725
ag3728
ag2122
ag2176
ag2179
ag4143
ag4146
ag4575
ag4582
ag4586
ag4348
ag348
ag352
ag358
ag1237
ag1240
ag3695
ag3699
ag177
ag181
ag185
ag188
ag3338
ag551
ag4420
ag4461
ag4464
ag1377
ag1382
ag1385
ag4351
ag4354
ag2809
ag2813
ag2295
ag2300
ag2822
ag2834
ag1193
ag2317
ag2795
ag2798
ag3146
ag3154
ag263
ag2043
ag2046
ag2049
ag777
ag784
ag2232
ag2235
ag2238
ag2241
ag3805
ag2009
ag1269
ag1274
ag889
ag894
ag900
ag1649
ag1654
ag1142
ag1146
ag1149
ag1152
ag4134
ag4139
ag3930
ag3933
ag3211
ag3214
ag4206
ag4209
ag151
ag3680
ag853
ag857
ag862
ag1515
ag1519
ag797
ag800
ag806
ag809
ag3993
ag1933
ag1936
ag4192
ag4198
ag4520
ag837
ag3160
ag3163
ag629
ag632
ag3117
ag3122
ag3126
ag2225
ag2228
ag3937
ag2137
ag2140
ag2143
ag2147
ag2455
ag509
ag1443
ag1449
ag1453
ag1458
ag53
ag56
ag62
ag66
ag1010
ag2526
ag2530
ag2278
ag3609
ag3612
ag3619
ag3624
ag2711
ag2715
ag726
ag731
ag2727
ag3950
ag3953
ag4571
ag2694
ag283
ag286
ag2420
ag2425
ag2429
ag2435
ag2439
ag2442
ag2446
ag2449
ag2452
ag2379
ag2273
ag361
ag368
ag260
ag3664
ag1319
ag1325
ag3766
ag1597
ag1600
ag1606
ag640
ag644
ag1765
ag1768
ag1775
ag2624
ag2629
ag3177
ag3180
ag3351
ag3355
ag3358
ag4509
ag4517
ag3922
ag3926
ag2119
ag1484
ag1495
ag1500
ag1848
ag1852
ag3
ag7
ag1883
ag3505
ag3508
ag1021
ag1026
ag1029
ag1035
ag2038
ag2185
ag2188
ag2194
ag3191
ag3194
ag3105
ag3108
ag3112
ag2503
ag2737
ag4496
ag4501
ag4506
ag4113
ag4120
ag4299
ag4303
ag4311
ag1969
ag1976
ag3782
ag3412
ag3415
ag2946
ag1412
ag712
ag716
ag719
ag1360
ag1363
ag2655
ag2658
ag657
ag661
ag820
ag823
ag827
ag833
ag4552
ag2506
ag4360
ag1125
ag1130
ag2244
ag2247
ag1704
ag1707
ag1710
ag96
ag99
ag4215
ag4218
ag1113
ag1116
ag1122
ag2466
ag2471
ag4123
ag4131
ag3833
ag1591
ag1594
ag2054
ag2057
ag1280
ag1285
ag1288
ag3371
ag2370
ag2373
ag741
ag745
ag1503
ag1507
ag1512
ag576
ag580
ag583
ag4005
ag4008
ag4014
ag2003
ag2006
ag247
ag3434
ag3501
ag517
ag522
ag526
ag3135
ag3139
ag3143
ag923
ag1259
ag1196
ag1199
ag1203
ag1925
ag1930
ag1155
ag1158
ag1161
ag139
ag142
ag3361
ag3365
ag3368
ag4085
ag3886
ag2034
ag3243
ag3249
ag3252
ag3667
ag3674
ag4548
ag2476
ag2479
ag2482
ag3708
ag126
ag130
ag133
ag136
ag1863
ag1867
ag1873
ag2458
ag2462
ag2150
ag2153
ag392
ag395
ag3391
ag481
ag1215
ag1219
ag266
ag270
ag2523
ag648
ag651
ag654
ag2533
ag2536
ag2541
ag1179
ag1183
ag1186
ag2252
ag2255
ag2259
ag1954
ag1277
ag4478
ag4484
ag4487
ag4490
ag635
ag4030
ag2763
ag2768
ag3871
ag3874
ag1418
ag1464
ag1469
ag1474
ag1477
ag1480
ag2332
ag2338
ag985
ag991
ag995
ag159
ag3973
ag3976
ag3979
ag4241
ag4245
ag4253
ag4256
ag2134
ag3983
ag4605
ag4608
ag4613
ag4617
ag813
ag4173
ag3633
ag3636
ag3639
ag3642
ag1522
ag2405
ag2410
ag2417
ag2935
ag2939
ag2942
ag2365
ag689
ag692
ag695
ag277
ag280
ag3220
ag3223
ag3228
ag3232
ag2202
ag2206
ag1340
ag1343
ag1346
ag1353
ag1356
ag1752
ag1755
ag1758
ag1762
ag3465
ag3468
ag3986
ag3989
ag3732
ag3736
ag3011
ag3014
ag1169
ag1172
ag1175
ag4178
ag4182
ag4188
ag3526
ag3529
ag490
ag493
ag4592
ag4595
ag4598
ag4601
ag3842
ag3845
ag3848
ag3851
ag3854
ag371
ag376
ag381
ag1714
ag1717
ag1724
ag1727
ag556
ag559
ag562
ag3692
ag748
ag751
ag2818
ag4002
ag3197
ag3202
ag1565
ag1571
ag2545
ag1334
ag3034
aa(lp4625
g3919
ag2844
ag2730
ag2734
ag1704
ag1707
ag1710
ag4062
ag4066
ag4069
ag405
ag408
ag432
ag436
ag444
ag3166
ag3171
ag3837
ag4020
ag4023
ag4026
ag3117
ag3122
ag3126
ag2503
ag2225
ag2228
ag683
ag4330
ag1388
ag1392
ag1396
ag462
ag465
ag2244
ag2247
ag4478
ag4484
ag4487
ag4490
ag348
ag352
ag358
ag2043
ag2046
ag2049
ag748
ag751
ag222
ag225
ag229
ag233
ag726
ag731
ag4268
ag4271
ag260
ag2476
ag2479
ag2482
ag2494
ag2497
ag2642
ag386
ag389
ag903
ag906
ag155
ag1742
ag1748
ag4149
ag4152
ag3756
ag3759
ag3762
ag3474
ag4517
ag1259
ag1684
ag1687
ag2159
ag1979
ag1987
ag1990
ag1319
ag1325
ag490
ag493
ag1838
ag2273
ag1643
ag1969
ag1976
ag1021
ag1026
ag3328
ag3334
ag3391
ag1961
ag1964
ag2822
ag2834
ag3197
ag3202
ag1193
ag3146
ag3154
ag1933
ag1936
ag1661
ag1668
ag1671
ag1674
ag1228
ag1233
ag3325
ag757
ag760
ag764
ag4509
ag2176
ag2179
ag481
ag2209
ag1597
ag1600
ag1606
ag648
ag651
ag654
ag1189
ag2060
ag2063
ag2066
ag4143
ag4146
ag657
ag661
ag3879
ag3882
ag3732
ag3736
ag3957
ag3964
ag3968
ag1609
ag1612
ag1246
ag3680
ag606
ag609
ag3465
ag3468
ag2727
ag4571
ag1574
ag3135
ag3139
ag3143
ag2466
ag2471
ag1752
ag1755
ag1758
ag1762
ag3711
ag3714
ag813
ag2485
ag2491
ag2012
ag2645
ag2071
ag3996
ag3999
ag2809
ag2813
ag2897
ag2900
ag2904
ag4434
ag4440
ag3585
ag3588
ag1954
ag4568
ag3276
ag3281
ag3284
ag1097
ag1104
ag1108
ag1071
ag1076
ag1079
ag3795
ag3798
ag3802
ag2533
ag2536
ag2541
ag3449
ag3452
ag1432
ag1436
ag3823
ag953
ag1876
ag1880
ag2763
ag2768
ag2914
ag2917
ag2920
ag2923
ag2926
ag4221
ag4227
ag4231
ag4234
ag1591
ag1594
ag2219
ag2222
ag1739
ag1039
ag1044
ag1048
ag1060
ag1899
ag412
ag416
ag2894
ag3986
ag3989
ag4002
ag3264
ag3347
ag2632
ag2635
ag2638
ag1251
ag310
ag313
ag316
ag3973
ag3976
ag3979
ag2648
ag2652
ag4605
ag4608
ag4613
ag4617
ag4099
ag4103
ag4108
ag3744
ag3749
ag3752
ag402
ag2509
ag2515
ag2519
ag3526
ag3529
ag496
ag499
ag910
ag913
ag920
ag2711
ag2715
ag2354
ag4348
ag1337
ag3572
ag3575
ag3579
ag3582
ag3708
ag4241
ag4245
ag4253
ag4256
ag81
ag85
ag88
ag91
ag1209
ag1212
ag1068
ag3630
ag468
ag473
ag2084
ag2089
ag512
ag3664
ag3418
ag3424
ag3431
ag3833
ag2946
ag361
ag368
ag3341
ag3344
ag3236
ag3239
ag3459
ag3462
ag841
ag847
ag850
ag4178
ag4182
ag4188
ag4166
ag4169
ag3692
ag998
ag1002
ag2683
ag2687
ag787
ag791
ag42
ag46
ag49
ag797
ag800
ag806
ag809
ag1841
ag3717
ag3721
ag3725
ag3728
ag3008
ag598
ag602
ag4366
ag4370
ag4373
ag4380
ag4383
ag1503
ag1507
ag1512
ag4318
ag4323
ag4327
ag4447
ag3338
ag2671
ag1029
ag1035
ag2278
ag2405
ag2410
ag2417
ag1925
ag1930
ag1377
ag1382
ag1385
ag2214
ag3220
ag3223
ag3228
ag3232
ag1957
ag1010
ag4076
ag4082
ag3088
ag3094
ag551
ag2949
ag2952
ag2523
ag3257
ag3261
ag531
ag534
ag537
ag542
ag934
ag937
ag4035
ag4155
ag237
ag240
ag244
ag2114
ag1340
ag1343
ag1346
ag1353
ag1356
ag1902
ag3434
ag837
ag2972
ag420
ag424
ag427
ag3511
ag3517
ag3522
ag1135
ag1139
ag3647
ag3651
ag3656
ag1765
ag1768
ag1775
ag1360
ag1363
ag3609
ag3612
ag3619
ag3624
ag2655
ag2658
ag3361
ag3365
ag3368
ag1291
ag1294
ag1297
ag1301
ag1308
ag1313
ag1316
ag816
ag3930
ag3933
ag2935
ag2939
ag2942
ag3177
ag3180
ag1277
ag3129
ag3132
ag3037
ag3860
ag3863
ag3867
ag4238
ag3805
ag2126
ag2975
ag2979
ag2982
ag2311
ag2314
ag2458
ag2462
ag2929
ag2932
ag777
ag784
ag1796
ag1800
ag969
ag973
ag979
ag982
ag2697
ag2701
ag2705
ag2708
ag3054
ag3058
ag3066
ag2003
ag2006
ag4261
ag4265
ag159
ag629
ag632
ag174
ag126
ag130
ag133
ag136
ag4548
ag2038
ag853
ag857
ag862
ag1223
ag2332
ag2338
ag2778
ag2782
ag2785
ag2788
ag2791
ag2009
ag712
ag716
ag719
ag4592
ag4595
ag4598
ag4601
ag4089
ag4095
ag880
ag883
ag886
ag1280
ag1285
ag1288
ag371
ag376
ag381
ag3808
ag3683
ag3686
ag3689
ag3633
ag3636
ag3639
ag3642
ag699
ag3268
ag3272
ag2383
ag2394
ag506
ag635
ag2586
ag2998
ag3002
ag3695
ag3699
ag1179
ag1183
ag1186
ag3886
ag4386
ag4390
ag941
ag945
ag948
ag4212
ag1334
ag923
ag2850
ag2858
ag3
ag7
ag3191
ag3194
ag139
ag142
ag3857
ag449
ag454
ag459
ag2365
ag392
ag395
ag1421
ag1425
ag1428
ag1615
ag1621
ag2379
ag623
ag626
ag1778
ag1782
ag1785
ag3769
ag3772
ag3211
ag3214
ag1813
ag1262
ag1265
ag1415
ag266
ag270
ag3456
ag2611
ag2618
ag2621
ag2288
ag2292
ag4403
ag2870
ag2875
ag2884
ag2888
ag2891
ag545
ag548
ag4467
ag4471
ag4474
ag3371
ag1807
ag1810
ag2545
ag3396
ag3400
ag3408
ag4520
ag865
ag874
ag2119
ag1731
ag1736
ag767
ag774
ag738
ag1418
ag319
ag322
ag2589
ag2592
ag3532
ag3537
ag3543
ag3548
ag3552
ag3556
ag3560
ag3565
ag3569
ag2837
ag4281
ag1816
ag1819
ag1823
ag4038
ag4042
ag4045
ag1166
ag4450
ag1649
ag1654
ag1863
ag1867
ag1873
ag1697
ag1701
ag1018
ag3899
ag3906
ag1484
ag1495
ag1500
ag177
ag181
ag185
ag188
ag4333
ag4338
ag4341
ag4345
ag4360
ag4206
ag4209
ag509
ag1856
ag1860
ag4461
ag4464
ag2861
ag2867
ag247
ag2548
ag2551
ag2554
ag24
ag28
ag32
ag35
ag3019
ag3022
ag3026
ag1169
ag1172
ag1175
ag3892
ag3896
ag2252
ag2255
ag2259
ag686
ag4048
ag4053
ag2122
ag2134
ag3034
ag2398
ag2401
ag2596
ag2599
ag2602
ag2605
ag2608
ag1848
ag1852
ag4059
ag2295
ag2300
ag4493
ag2795
ag2798
ag3842
ag3845
ag3848
ag3851
ag3854
ag2185
ag2188
ag2194
ag96
ag99
ag2054
ag2057
ag3782
ag1625
ag1630
ag3501
ag163
ag2956
ag2959
ag2965
ag2969
ag1083
ag1087
ag1090
ag1094
ag1464
ag1469
ag1474
ag1477
ag1480
ag1443
ag1449
ag1453
ag1458
ag2092
ag2096
ag2101
ag2111
ag4123
ag4131
ag1690
ag1693
ag2346
ag2351
ag1826
ag1833
ag1793
ag2034
ag283
ag286
ag1125
ag1130
ag2137
ag2140
ag2143
ag2147
ag1065
ag734
ag4407
ag4410
ag4413
ag4417
ag4394
ag4400
ag3303
ag3306
ag3309
ag2263
ag2266
ag3160
ag3163
ag3766
ag2320
ag2324
ag3011
ag3014
ag3100
ag2674
ag2680
ag2989
ag2992
ag2995
ag1113
ag1116
ag1122
ag151
ag517
ag522
ag526
ag1400
ag1403
ag1408
ag3299
ag38
ag114
ag119
ag123
ag2317
ag3446
ag1883
ag2570
ag2574
ag2579
aa.