(lp1
(lp2
(lp3
VSOZHJKI12A81C2248F
p4
aVSOISVBT12A6D4F85FA
p5
aVSOLXOPD12AB0182D9E
p6
aVSOREMDW12B0B80AD3B
p7
aa(lp8
VSOUMDYT12A8C137E91
p9
aVSOQAWJC12A6D4F66F2
p10
aa(lp11
VSOUDGRV12A8C1309E1
p12
aVSOJXGIQ12A6D4FA4AD
p13
aVSOPQRLK12AB018237D
p14
aa(lp15
VSODLOFG12AB0184FD9
p16
aVSOFAGDP12A8C13D138
p17
aVSOGGHGL12AF72A80C8
p18
aVSOPRBLI12A8C134875
p19
aVSOKHZPE12A8C14392F
p20
aVSOVVYBK12A8C13BEC6
p21
aa(lp22
VSOENQMK12A81C212D5
p23
aVSONOALN12AB017CC19
p24
aa(lp25
VSOITHVX12A6D4F97B7
p26
aVSORIPBE12A8C13AAEA
p27
aVSOOECXL12A6310F24D
p28
aa(lp29
VSOCXQDF12AB018791E
p30
aVSOGHPTG12A6D4F97CF
p31
aa(lp32
VSOHPEFH12AB017F1DA
p33
aVSOVTPDN12A6D4F660F
p34
aa(lp35
VSOOYQXS12A6D4F84B9
p36
aVSOFQYNW12A8AE4560F
p37
aVSOAMHWE12AB0185CF3
p38
aa(lp39
VSOAFTRR12AF72A8D4D
p40
aVSOQXUWL12A8C13E250
p41
aa(lp42
VSOCRXFM12A8C13E6EA
p43
aVSORMKSJ12AB0189EF5
p44
aVSOTWUUV12A8C137C5E
p45
aa(lp46
VSOMQYAC12A8C1383C3
p47
aVSOIYYCP12AB018797A
p48
aa(lp49
VSOXWZMB12A6D4F622B
p50
aVSONBEIX12A8C131D11
p51
aVSOAQMEC12A67ADD881
p52
aVSOLZVFP12D021907D6
p53
aa(lp54
VSOZIHWE12A6D4F96BD
p55
aVSOSKDBR12A58A787C9
p56
aVSOPMZRD12AB017BB68
p57
aa(lp58
VSOPLUOT12A6D4F7AC3
p59
aVSOWEVAW12A8C137E13
p60
aa(lp61
VSOOJRVW12A8C13F8F1
p62
aVSOEEFJN12A6D4FA604
p63
aa(lp64
VSOZGGXU12A67ADD3E4
p65
aVSOKKFAV12A81C20715
p66
aa(lp67
VSORZMHH12A58A7F434
p68
aVSOPUSFD12B0B807392
p69
aa(lp70
VSOZSKZX12A6D4FB67F
p71
aVSOIQBNS12AB017DC22
p72
aa(lp73
VSOLNLRO12A58A79FDE
p74
aVSONYTEW12A8AE45111
p75
aa(lp76
VSOSJUAX12A58A7FD30
p77
aVSODCQDG12A8C13463B
p78
aVSOIAEJI12AF72A1A3A
p79
aVSOWDFGG12A6D4F9863
p80
aVSOOJHLB12A6D4F991F
p81
aVSOTPGQL12A8C14122F
p82
aVSOSNTTH12A6D4F8864
p83
aa(lp84
VSOUJMOE12A8C138654
p85
aVSOZAMIQ12A3F1EBE9C
p86
aVSOPGEUB12A8C13DBA1
p87
aVSOXUHDU12AB018DA8E
p88
aVSOGRFXS12AB017E4FB
p89
aVSOGRCBF12A8C13233B
p90
aVSODJMPP12A670214B8
p91
aVSOONZNZ12A6D4F787B
p92
aVSOTLRXZ12A6D4F9ED9
p93
aa(lp94
VSOEGEFR12AB0186FBA
p95
aVSOEOLDY12AB0185940
p96
aVSOSBHLR12A8C132259
p97
aVSOROVGA12AF72A3E23
p98
aa(lp99
VSOUZANW12AB0187651
p100
aVSOOKLWU12A6D4FA2D0
p101
aVSOHTOHT12AB017E711
p102
aVSOHUCRT12AB0183EDF
p103
aa(lp104
VSOEHDIY12A58A78EE6
p105
aVSOLQCWI12D021B1F49
p106
aa(lp107
VSODXFKK12A8C13B9FB
p108
aVSOHNOOC12A8C13BF35
p109
aa(lp110
VSOBSPMI12A8C13B2A3
p111
aVSODMLIR12A6D4FA2F1
p112
aa(lp113
VSONYEIJ12A6D4FA32D
p114
aVSOIIOXN12AB018C83C
p115
aa(lp116
VSOHNTXI12A6D4F897B
p117
aVSOCLYEP12A67ADD4EA
p118
aa(lp119
VSOQJDLS12A6701FF30
p120
aVSOLSNLX12A8AE46073
p121
aVSOZGDUH12AF72A6DB2
p122
aVSOKXLRG12A8C13AC3A
p123
aa(lp124
VSOATUWE12A8AE47B65
p125
aVSOPPICO12A58A77238
p126
aVSOONYSQ12A8AE46098
p127
aa(lp128
VSOXCJDN12A8C1315CD
p129
aVSOOMOMU12A8AE46EC9
p130
aa(lp131
VSOYWVMS12AB017E866
p132
aVSODLVDX12A6310DF22
p133
aa(lp134
VSOHCJYB12A58A7C8D6
p135
aVSODKYFX12D0219BC06
p136
aa(lp137
VSOIXMLX12AB017B823
p138
aVSOTRIMQ12AB017D5EC
p139
aVSOTEKWV12AC468A55D
p140
aa(lp141
VSOZSYPY12A6310DF1C
p142
aVSOMBLEA12AF729ECE2
p143
aa(lp144
VSORUJSU12AB018F508
p145
aVSOKNWUI12AB0185B54
p146
aa(lp147
VSOBPKSP12A6D4FBA0E
p148
aVSOOMNPL12AB017F76C
p149
aVSOWZAXW12A6D4F69B6
p150
aa(lp151
VSOPPICO12A58A77238
p152
aVSOALPJV12A58A7BD9D
p153
aVSOYGGHM12A6D4FBE45
p154
aa(lp155
VSOPFKJH12A67AD858E
p156
aVSOENQMK12A81C212D5
p157
aVSOTZNMV12A8C13C9A5
p158
aa(lp159
VSOYAVWE12A8C13AEF4
p160
aVSOLQJDH12A8C13503B
p161
aa(lp162
VSOBKXDF12A67ADF7EC
p163
aVSOEUORE12A8C13953D
p164
aVSOQPPSI12AB018F798
p165
aa(lp166
VSOJMBXY12AB0180D9B
p167
aVSODYJYD12AB01855E3
p168
aa(lp169
VSOQAODG12AB0183251
p170
aVSOAJJRC12A58A77CD6
p171
aVSOHNYNL12A6D4FA020
p172
aVSONBGOT12A6701DC53
p173
aa(lp174
VSOQXWAX12AB0180355
p175
aVSOUBAXF12A58A7BA00
p176
aa(lp177
VSONAWRL12A6D4F9688
p178
aVSOCFPSZ12A6D4FCA89
p179
aa(lp180
VSOQCBHW12D021997C8
p181
aVSOHEWUA12A81C23130
p182
aVSOWQLRT12AB0183537
p183
aa(lp184
VSOVZERD12AB01814D7
p185
aVSOYWKVA12AB0181504
p186
aa(lp187
VSOANABX12A6D4F9C42
p188
aVSOFFHEG12AB0183375
p189
aa(lp190
VSOPJBCH12AB017F8EE
p191
aVSOWEBRO12A8C13CEAB
p192
aa(lp193
VSOSOUWB12AB017DBF3
p194
aVSOLSBLG12AB01835E4
p195
aa(lp196
VSOARYAO12A8C13ABEC
p197
aVSOQZXOP12A8C13E297
p198
aVSOPGCUQ12AAF3B3D88
p199
aa(lp200
VSOEDJAZ12AAA8C6674
p201
aVSOVBVXV12A6D4F8BD8
p202
aa(lp203
VSOBMFWT12AAA8C6C81
p204
aVSOUQJDY12A6701D2EF
p205
aa(lp206
VSONPOVB12D02190B36
p207
aVSOSJECG12AF72A4DE0
p208
aa(lp209
VSOXBEYM12AC4689A64
p210
aVSOGRCBF12A8C13233B
p211
aa(lp212
VSOOINJS12A8C13CCCD
p213
aVSOWCEQC12AF72A2B64
p214
aVSOVOUAN12AC9074CC7
p215
aa(lp216
VSODLVDX12A6310DF22
p217
aVSOOZOVA12A6D4F8572
p218
aa(lp219
VSOTPAXJ12A8C13EE63
p220
aVSOBXIIX12A6D4FA32F
p221
aa(lp222
VSOEGZHJ12A8C1443E0
p223
aVSOWFNCJ12A8C133A16
p224
aa(lp225
VSOAMHWE12AB0185CF3
p226
aVSONVPVP12AF72A6851
p227
aVSOKXCMU12A58A7B7DE
p228
aVSOQDHAS12A8C14266D
p229
aa(lp230
VSOPEPDC12A6D4F7599
p231
aVSOGCRXA12A6310D996
p232
aVSOXPKVK12A6D4F6DA5
p233
aa(lp234
VSOVKPXJ12AB01896BB
p235
aVSOKZUFA12A8C13E688
p236
aVSOJOHXM12A58A7CA57
p237
aa(lp238
VSOTFVVE12AF729EF30
p239
aVSOOSKQS12AB0182B7B
p240
aa(lp241
VSOJRICB12A6D4F7F44
p242
aVSOEQBKP12A58A7912E
p243
aa(lp244
VSOVTUKC12AB017CE94
p245
aVSOMRAUY12A8C1414FF
p246
aVSOODFHP12AB0184A67
p247
aa(lp248
VSORLAUW12A8C135EA5
p249
aVSOROHTY12A58A79064
p250
aVSOETSVM12A8C1330A9
p251
aa(lp252
VSOGJXYT12AC3DFA647
p253
aVSOVJNYR12AAF3B3E5F
p254
aa(lp255
VSOYAKIB12A81C23202
p256
aVSOTDNFT12B350582E5
p257
aa(lp258
VSOZENBX12AC4688E50
p259
aVSODMHAK12A6D4F618B
p260
aVSOQUKFS12A8AE476FA
p261
aVSORAKLI12A6D4FB7C8
p262
aa(lp263
VSOOOPOP12AB017C99D
p264
aVSOTEKBX12A58A784F1
p265
aVSOHGECF12A8C13345E
p266
aa(lp267
VSOHOTNU12AB0180C23
p268
aVSOMMNIH12AB01802C9
p269
aVSODLOFG12AB0184FD9
p270
aVSOFDDTQ12AB0181C0B
p271
aVSOYNCPX12AC3DF5D52
p272
aa(lp273
VSOPPJQV12AB017BBB7
p274
aVSOMPLLS12A8C142C2E
p275
aVSOBTPSW12A8C142D1D
p276
aVSOGJAJX12D0219A914
p277
aVSOZYNNT12A81C22E0F
p278
aa(lp279
VSOBJZKT12A8C140FA9
p280
aVSOHCHGH12A8C137B7F
p281
aVSOGWANF12A8C142C60
p282
aVSOSLOER12AB018377D
p283
aa(lp284
VSOMUXVE12A6D4F6EAB
p285
aVSOLUJQF12A8C134A3D
p286
aa(lp287
VSODRJHN12A67AE0D39
p288
aVSOYUGHV12A8151DFE2
p289
aVSOIXWHH12A8151CB1D
p290
aVSOALSEF12AB018D77B
p291
aVSOBRORE12AF72A4358
p292
aVSOIISTI12A6D4F47D1
p293
aVSOEHZQB12A6702016D
p294
aa(lp295
VSOORDHC12A6BD4CA72
p296
aVSOTLKTO12AB017C39C
p297
aa(lp298
VSOWRGDS12A6D4F94EE
p299
aVSOKMCGA12A6D4FB7A0
p300
aVSOHOOEK12AB017C509
p301
aVSOPEOSQ12AB018A387
p302
aa(lp303
VSOOKGQL12A8C141506
p304
aVSOMKGQN12A8C1339D2
p305
aVSOYSEWD12A6D4F8017
p306
aVSOIWMSK12A6D4F8A22
p307
aVSODVOKX12AF72A9347
p308
aVSONGAPO12A67ADBED9
p309
aVSOOOBWX12A6D4F80E9
p310
aa(lp311
VSOOSABV12A8C14283A
p312
aVSOXFRTG12CF4DB59B6
p313
aVSONVXCT12AB01848FE
p314
aa(lp315
VSOPJOWY12D0219B471
p316
aVSOJBSOA12CF5F87D0B
p317
aVSOMQVDS12A8C13C1E7
p318
aa(lp319
VSOGRFXS12AB017E4FB
p320
aVSOXSGPF12A6310E9EC
p321
aVSOXLTLP12A8C133A56
p322
aa(lp323
VSOMQUYZ12AB018219C
p324
aVSOZCQPZ12AB017D3B7
p325
aa(lp326
VSODWOUC12AB0186292
p327
aVSOPQQUM12A6D4FB5A4
p328
aa(lp329
VSOEDNNC12AB0187D6B
p330
aVSORANSK12AC4689CB0
p331
aa(lp332
VSOAWGYN12AB017AA84
p333
aVSOAMEKC12A6D4F6D44
p334
aVSOSANPG12A8C13A1DC
p335
aa(lp336
VSOBTASZ12AB017B058
p337
aVSOMJDKY12A8C1398EB
p338
aa(lp339
VSOLWKTF12A8C1403BA
p340
aVSOXTOPX12AB018E476
p341
aa(lp342
VSODADYK12A6702071F
p343
aVSOQGSME12A8C13B37E
p344
aVSOINTXZ12AF729FB66
p345
aVSOCPIKO12A6D4FC3AE
p346
aa(lp347
VSOFZQDO12A6D4FB4F4
p348
aVSOBXHRX12A67020724
p349
aa(lp350
VSOQAWJC12A6D4F66F2
p351
aVSOLSODY12A8C1348AA
p352
aa(lp353
VSOXQKEH12A8C137F45
p354
aVSOIABPS12A6D4F69DA
p355
aa(lp356
VSOTZLPX12A58A7A702
p357
aVSOQDVUC12A67ADF7ED
p358
aa(lp359
VSOBBCWD12A6D4F7BE1
p360
aVSOVGRGN12A8C13BE8A
p361
aa(lp362
VSOGVEJN12A6D4F9D83
p363
aVSOKWQQT12A6701DC54
p364
aa(lp365
VSOEWYLX12A6D4F8E5F
p366
aVSOGQUIN12A6701F2C4
p367
aVSOSLLDC12A8C13E5BC
p368
aVSONOALN12AB017CC19
p369
aVSOCVGWU12A8AE48669
p370
aVSOXELPB12A8AE46000
p371
aa(lp372
VSOSJCUF12AB0180EBB
p373
aVSOULDME12AB01887C6
p374
aVSOTSNDR12A8AE47599
p375
aa(lp376
VSONWNUY12A6310DF4C
p377
aVSOWQJUV12A6701FA45
p378
aa(lp379
VSOWEWRL12A58A7961F
p380
aVSOYPBCI12AB018140A
p381
aVSOUVYOI12A8C13EA98
p382
aVSOTGZWF12AB01876DB
p383
aa(lp384
VSOKEUYU12A67ADF7E6
p385
aVSOJUPSW12A6310DF1E
p386
aa(lp387
VSOBRIXB12AB0182257
p388
aVSOBEIMM12AB018174C
p389
aa(lp390
VSOJFGCS12B0B80BFD2
p391
aVSOLGRBI12A8C1431A8
p392
aVSOOJDIN12AB0183B48
p393
aa(lp394
VSOPOCCO12A58A7ADED
p395
aVSOMUJHM12A8C13FED5
p396
aa(lp397
VSOEJPPF12A6D4F747E
p398
aVSODCLXI12A58A7DD5B
p399
aVSOGVWGI12A8C13B9D1
p400
aVSOODXQA12A8C132677
p401
aVSOMWWQB12AB01840D8
p402
aVSOKRAHZ12A8C13F438
p403
aVSOFXDDO12AF729E290
p404
aa(lp405
VSOKJQAT12A58A7B5C8
p406
aVSOAUZSP12A8C136AC6
p407
aa(lp408
VSOEEPNG12AB018018B
p409
aVSONXMNH12A67ADD3E9
p410
aa(lp411
VSOCXEGS12AB0181E2C
p412
aVSONDUUR12A8C13954D
p413
aa(lp414
VSOULJSK12A58A7B674
p415
aVSOTNSKV12A6D4FA323
p416
aVSOSFDUN12A6D4FBD0A
p417
aVSOKGCIG12A6D4F9D09
p418
aVSOAXGBS12A6310E17A
p419
aVSOKCYHU12A6D4FB682
p420
aVSOATSGC12AB018739B
p421
aa(lp422
VSOUTZRW12A6310E16C
p423
aVSOZLCVC12A6D4FA32E
p424
aa(lp425
VSOZZYAO12A6701FF36
p426
aVSOOLJJP12AB017AE27
p427
aa(lp428
VSOLCTDG12AB01838D6
p429
aVSOJXZCH12A6D4F7DA8
p430
aa(lp431
VSOKNVMU12A6D4F7764
p432
aVSOYWBPL12B0B80BD74
p433
aa(lp434
VSOGOMCI12AB0188C6C
p435
aVSOVEHLG12A6D4FB414
p436
aa(lp437
VSOJSFGS12A8C13CE8E
p438
aVSOPSMCV12A8C13B80A
p439
aa(lp440
VSONSNRE12A6D4FA2F7
p441
aVSOTTYMT12AC468A041
p442
aVSOMFAQW12AB017F56A
p443
aVSOFUNPN12A8C13B387
p444
aa(lp445
VSOTSJBD12A670214A4
p446
aVSOGGHGL12AF72A80C8
p447
aVSOWCEQC12AF72A2B64
p448
aVSOTHJME12A58A796C0
p449
aVSOYVFJU12D0219B52A
p450
aVSOPOEJD12A67021D68
p451
aVSOGCZFW12A81C22054
p452
aa(lp453
VSOCVERS12A8C136ABF
p454
aVSOPBTUS12AC468F0AA
p455
aa(lp456
VSOSCVMZ12A8C14392B
p457
aVSODMHZW12AC3DFA00D
p458
aVSOQGBBX12A58A7ED75
p459
aVSORUKKN12A67021D65
p460
aa(lp461
VSOSZJDP12AB0186886
p462
aVSOIBXMY12AF72A07DE
p463
aa(lp464
VSOBGLBX12A8C13AE8E
p465
aVSOLTAHA12A8C141A84
p466
aVSOCLNBL12A8C13F440
p467
aa(lp468
VSOKJUBL12AB0185020
p469
aVSOUDQKF12A6BD53715
p470
aVSOBFMHC12A6D4F9401
p471
aa(lp472
VSOWFTUR12A6310E24A
p473
aVSONXKDN12AB017BD75
p474
aVSOGVVTF12AB0180B2E
p475
aa(lp476
VSOBFGLR12A8C13F7F6
p477
aVSODAQBI12A6D4F9BC8
p478
aVSOWWAUI12A6D4FB4F5
p479
aVSOFJRQH12A8C137197
p480
aVSOIFLAU12AF72A38F3
p481
aa(lp482
VSOLTHNI12AB017F602
p483
aVSOEJMSC12A6D4F5FEE
p484
aVSOBUHGZ12A8C13E9E5
p485
aa(lp486
VSOBYKTC12A8C139CAD
p487
aVSOTMGFM12A8C13E860
p488
aVSOKQOCN12AAF3B26CD
p489
aa(lp490
VSOUVNZJ12A58A78797
p491
aVSOXGMWP12AAF3B279C
p492
aVSOBZVBB12A8AE46AC8
p493
aVSOZQJMN12AB01864A4
p494
aVSOWVJDZ12AC4687DEB
p495
aa(lp496
VSOHHLYI12AB0188280
p497
aVSOMYSKA12A6D4FABFD
p498
aa(lp499
VSOBILME12A6701EEAB
p500
aVSOKCYHU12A6D4FB682
p501
aa(lp502
VSORMLMV12AB0183853
p503
aVSOWOQJI12AB018383D
p504
aVSOXEUDZ12A8C13145B
p505
aa(lp506
VSONKZCL12AC907323B
p507
aVSOCATCA12AB0181E75
p508
aVSOTWLRA12D02190B10
p509
aVSOSOXJK12A8AE47120
p510
aa(lp511
VSOGHCST12A8C141F4A
p512
aVSOTPIVG12A8C140142
p513
aVSOPPKFO12AB018321A
p514
aVSOXPCPT12A58A7F88B
p515
aa(lp516
VSOQDYDO12AC4689886
p517
aVSOVHZVI12A8C14398A
p518
aa(lp519
VSONEJAP12AB0182829
p520
aVSOJQBVB12A8C142CCE
p521
aa(lp522
VSOXRJXO12B0B807DDD
p523
aVSOTOZFG12A6D4F8382
p524
aVSOAVQLA12AB017F349
p525
aa(lp526
VSOJSFKK12A8C1395D0
p527
aVSONTOSO12AB018E652
p528
aa(lp529
VSOMVACB12A6D4FB05A
p530
aVSONZSDG12A6D4FB058
p531
aVSOIIQQB12A6D4FB05F
p532
aVSOFKHIF12A8C13113F
p533
aVSOYRSFO12A8C139D78
p534
aVSOGSTNL12A6D4FB061
p535
aa(lp536
VSOXFOCR12A6D4F747A
p537
aVSOUDGRV12A8C1309E1
p538
aVSOWOEDO12AB018BDDF
p539
aVSOKQBDZ12AB018019D
p540
aVSOSKCLB12D0219911B
p541
aVSOUVGNH12AF72A0BE4
p542
aa(lp543
VSOZPQES12A6D4F8E57
p544
aVSORUKKN12A67021D65
p545
aVSOSMBFH12A8C13A2A3
p546
aVSOPPICO12A58A77238
p547
aVSODMAOP12A8C143254
p548
aa(lp549
VSOUZCMV12A6D4F7480
p550
aVSONLWEK12D0219317D
p551
aa(lp552
VSOMHJWC12A6D4FA0A4
p553
aVSODEAMH12A67ADE726
p554
aVSOATNYF12AF72A8D48
p555
aVSOJJINB12AF72A35F5
p556
aa(lp557
VSOHVFPO12A6D4FA2ED
p558
aVSORMVQE12A6D4FA2F3
p559
aa(lp560
VSOYTGLZ12A6D4FA368
p561
aVSOENPOI12A6D4FA2EC
p562
aa(lp563
VSOIJXRT12A6D4FA2F2
p564
aVSOTXPBE12AB018763C
p565
aVSOJJZVN12AB0183D3B
p566
aVSOFFPOW12A6D4FA2F4
p567
aVSOYKECU12A6D4FB67A
p568
aVSOEITFB12AB017BD6F
p569
aVSOFCDXJ12A6D4FB68A
p570
aVSOUAHKX12A6D4FB68E
p571
aa(lp572
VSOAKJKI12A8C146D1C
p573
aVSOMQUYZ12AB018219C
p574
aa(lp575
VSOWLPIP12AC9072A7C
p576
aVSOYNIQY12A6D4F77BD
p577
aa(lp578
VSOQMEZR12A8C13D9EB
p579
aVSOWOSVZ12A58A7AF57
p580
aa(lp581
VSOUUVUS12A8C1408E0
p582
aVSOUAQRD12A8C137A0A
p583
aa(lp584
VSOQTWDJ12AB0182B51
p585
aVSOIPYGD12A6701CD87
p586
aa(lp587
VSOKMVPC12A6D4F8A4F
p588
aVSOXYWQM12A6D4F970A
p589
aVSOPPICO12A58A77238
p590
aVSOURBRH12A6D4F81CC
p591
aa(lp592
VSOZBEJW12AB017EF4F
p593
aVSOCRTVG12A8151D35F
p594
aa(lp595
VSOQSEVY12A8C133A4F
p596
aVSOOTKHV12A8AE47B54
p597
aVSOJWALY12A6D4F66ED
p598
aVSOOSABV12A8C14283A
p599
aVSOUARNN12A6D4F8EE9
p600
aVSOOHCCU12A6701C964
p601
aa(lp602
VSOFBGNM12AF72A315E
p603
aVSOJMUHV12A8C13BCDD
p604
aa(lp605
VSOBXIIX12A6D4FA32F
p606
aVSOUKQFH12B0B8077FF
p607
aa(lp608
VSOZFMXS12A6D4F897E
p609
aVSOPOOXU12A58A7B963
p610
aa(lp611
VSOLQRCE12A6D4F8381
p612
aVSOPKTJF12A6310F24A
p613
aVSODADNL12AB0185DA9
p614
aVSOQZAKJ12A8C143F09
p615
aa(lp616
VSORVERI12A8AE46203
p617
aVSOIJBQV12AB01879C3
p618
aa(lp619
VSORJTJO12AC4688933
p620
aVSODQOAK12A8C13C810
p621
aa(lp622
VSOKAXBB12A8C13B07B
p623
aVSOHWDKN12A6D4F94F4
p624
aVSOIJXRT12A6D4FA2F2
p625
aa(lp626
VSOOYWDN12A58A7AEA7
p627
aVSOXEZLY12A8C137AB0
p628
aVSOSESYP12AB0189E8F
p629
aa(lp630
VSOXJBZQ12AB018773A
p631
aVSOHUMHB12A8C1337D1
p632
aVSOFHSYU12A67ADC83A
p633
aa(lp634
VSOROVGA12AF72A3E23
p635
aVSOAINXH12A6D4F66F4
p636
aVSOFZJEL12A58A77FEF
p637
aVSOZZYAO12A6701FF36
p638
aa(lp639
VSOINQNL12A8C13ADD1
p640
aVSOXKOBC12A8C13F842
p641
aVSOPPICO12A58A77238
p642
aa(lp643
VSOGDEDD12AB018035B
p644
aVSOPTFRS12AB0183370
p645
aVSOCYUZL12A6701FA23
p646
aVSOADMTV12A6701FA3F
p647
aa(lp648
VSOQYGXE12A8AE49BE1
p649
aVSOLIJAU12A8C13AD98
p650
aa(lp651
VSOGHVUV12AB0186231
p652
aVSOECGRS12AB0184053
p653
aVSOZEGUZ12AC90713F4
p654
aVSOOSWGU12A6701DA7D
p655
aVSOTGPYD12A8C13D2E5
p656
aa(lp657
VSODXDCN12A58A7C719
p658
aVSOXAUGN12AB017DC7B
p659
aa(lp660
VSOOCPUL12AB0188C56
p661
aVSOBNPLZ12A81C2394C
p662
aVSONYEIJ12A6D4FA32D
p663
aa(lp664
VSOSAMNL12A67ADD884
p665
aVSOQNLVH12A8C13DF1B
p666
aVSOKRMRX12A58A79F92
p667
aVSOCQWFC12A6701CD78
p668
aVSOEFPCP12AB017E0EC
p669
aVSOYTQTM12A8C13CA7E
p670
aa(lp671
VSOTSKFP12A6701E682
p672
aVSOEQXOL12AB018A61D
p673
aVSOHZGTC12A8C13E051
p674
aa(lp675
VSORTVVH12A8C13FB53
p676
aVSOJNUCE12AB017AF50
p677
aVSOUQJDY12A6701D2EF
p678
aVSOEIKST12A8C135EAD
p679
aa(lp680
VSOWHTFY12A6702184E
p681
aVSOWJBFI12A6D4F88AE
p682
aa(lp683
VSOCSHAO12A67ADA295
p684
aVSOGEKGE12AB0181E20
p685
aVSOLBRDH12A6D228252
p686
aa(lp687
VSOQNTQL12A8C1330AD
p688
aVSOSVWZZ12A6D4FAD45
p689
aa(lp690
VSOAKMDU12A8C1346A9
p691
aVSOAGPYL12A67AE0ED1
p692
aVSOTRNLZ12AB01884D7
p693
aa(lp694
VSOQRLIP12A8C144FBD
p695
aVSONLWEK12D0219317D
p696
aVSOQDWQN12A6310DF29
p697
aVSOPXAQV12AB01818A4
p698
aa(lp699
VSOQUBQO12A6D4F9698
p700
aVSOZNMYQ12A6D4F837E
p701
aa(lp702
VSOQNXBA12A8C143B11
p703
aVSOVSWVR12AAF3B3A9B
p704
aVSOOJUZY12A6D4F5816
p705
aa(lp706
VSODHZSM12A58A7B5D9
p707
aVSOWCEQC12AF72A2B64
p708
aVSOHGNHZ12D02197924
p709
aVSOURBRH12A6D4F81CC
p710
aVSOQPOBG12A67AE024A
p711
aa(lp712
VSOITHVX12A6D4F97B7
p713
aVSOKNVMU12A6D4F7764
p714
aa(lp715
VSOQDNNI12A6310EE3A
p716
aVSOQJLWB12A6701E7B3
p717
aa(lp718
VSOGGAST12A8C140E32
p719
aVSOVRIZO12AF72A4C0C
p720
aa(lp721
VSOOAZKL12A6D4F5DA3
p722
aVSOFGSLS12A6D4F9C6A
p723
aa(lp724
VSOKJATK12A6310E240
p725
aVSOWMGHQ12A6D4F914D
p726
aa(lp727
VSOCUKWE12A6D4F9B20
p728
aVSOQNTQL12A8C1330AD
p729
aVSOWKZMT12AB017FDCE
p730
aVSOFBNPE12A6D4F693C
p731
aVSOOMJUZ12AB0182036
p732
aVSOEUORE12A8C13953D
p733
aa(lp734
VSOMNFVX12A6701DAFF
p735
aVSOUSZSW12AB01800C2
p736
aVSOBUJOL12AB0183D2D
p737
aVSOTDORD12A8C13D632
p738
aVSOEJYFV12CF5664FF1
p739
aa(lp740
VSOALBSB12A58A814C0
p741
aVSOAKMDU12A8C1346A9
p742
aVSONWWDY12A6D4F7FB1
p743
aVSOZKLVA12A6D4F6B10
p744
aVSODXGRZ12A8C1425F6
p745
aVSOCCRUB12A6D4F951B
p746
aa(lp747
VSODLOFG12AB0184FD9
p748
aVSOSKJVW12AB0187708
p749
aVSOIPYGD12A6701CD87
p750
aa(lp751
VSOCCMZA12A6D4F88BF
p752
aVSOQBFKR12AB01835FC
p753
aa(lp754
VSOQBYMB12AB018C78A
p755
aVSOTKALX12A8C141D15
p756
aVSOFYAHD12AAF3B1BFA
p757
aa(lp758
VSOEUORE12A8C13953D
p759
aVSOQOZCD12A8AE48B23
p760
aa(lp761
VSOKTLWI12AC3DF8512
p762
aVSOGWWAU12A8C13D897
p763
aa(lp764
VSOYJKLK12AF72A4568
p765
aVSOXWYHD12B34F261A9
p766
aVSOUPMHL12A8C141D55
p767
aVSOTZKFS12A6D4F89BD
p768
aVSOYVCDN12A67021554
p769
aVSOVKAPO12AB01894E7
p770
aVSOKREXV12AB018EB6F
p771
aa(lp772
VSODLVDX12A6310DF22
p773
aVSOTFOHS12A8AE47B73
p774
aa(lp775
VSOPNMLL12AB018775A
p776
aVSOWKEWB12AC468D4A2
p777
aa(lp778
VSOPHOHL12A6D22728E
p779
aVSOFTQOV12AB0187753
p780
aVSOSTWHQ12A6D4FA381
p781
aa(lp782
VSOIYLMC12A6D4FA1BD
p783
aVSOIFDUX12AB0185959
p784
aa(lp785
VSOREQQT12A8C138ED1
p786
aVSOHFTTQ12AF72A53D4
p787
aa(lp788
VSOULJSK12A58A7B674
p789
aVSODUSNK12A6701F694
p790
aVSOPOEJD12A67021D68
p791
aa(lp792
VSOPMZRD12AB017BB68
p793
aVSOXBXAK12CF51A9663
p794
aa(lp795
VSOFLBFI12B0B806DE1
p796
aVSOZOGWS12A6D4FC356
p797
aa(lp798
VSOSCYDR12A8C1413DA
p799
aVSOZKDIL12A8C1360FE
p800
aa(lp801
VSOZGPKA12AB01890EA
p802
aVSOXLNWZ12AB017F744
p803
aVSOSJOIR12AB018937D
p804
aa(lp805
VSOTJDBL12A6D4F75E0
p806
aVSOTELBF12A6701FA4A
p807
aa(lp808
VSOKAFZY12A6310E85A
p809
aVSOWCHGC12A8C13F848
p810
aa(lp811
VSOWZSEB12A6D4F3C95
p812
aVSOXBXAK12CF51A9663
p813
aVSOCMIPA12A6310E961
p814
aVSOJMUHV12A8C13BCDD
p815
aa(lp816
VSODYJYD12AB01855E3
p817
aVSONMEPF12A6D4F3C92
p818
aa(lp819
VSOUZCMV12A6D4F7480
p820
aVSOKXLRG12A8C13AC3A
p821
aVSOXHWQO12A58A7AD15
p822
aVSOPVGPL12A6D4F8515
p823
aVSOUAXAX12A8C13E561
p824
aVSOBYRLV12A8C138AB4
p825
aVSOXMPHV12A8C1371CE
p826
aa(lp827
VSOIVPRW12A6310F237
p828
aVSOQAWJC12A6D4F66F2
p829
aVSOGWZQD12AB0186C53
p830
aa(lp831
VSORDXIV12AB0184087
p832
aVSOGWWAU12A8C13D897
p833
aa(lp834
VSONQHPC12AAFF437D2
p835
aVSODGKMY12A6D4F9DC7
p836
aVSOYYXZF12A6D4F8EFB
p837
aa(lp838
VSOAFTRR12AF72A8D4D
p839
aVSOBFWVA12AC37746C4
p840
aVSOHSOHS12A81C22502
p841
aa(lp842
VSOSBHLR12A8C132259
p843
aVSOOJRVW12A8C13F8F1
p844
aVSOFMREE12A8C13BAE9
p845
aa(lp846
VSOVHIXQ12A58A7EFFB
p847
aVSOMYBJD12A8C13C852
p848
aa(lp849
VSOFZNER12A6D4FB68B
p850
aVSOSZXVP12A6D4F97CD
p851
aa(lp852
VSOELUEY12A8AE4853E
p853
aVSOGIVSP12AF729A146
p854
aa(lp855
VSOJYYHB12D02193D56
p856
aVSOPPWHZ12A6D4FA416
p857
aa(lp858
VSOBOASZ12AB018104B
p859
aVSOHTEJN12A58A783FF
p860
aa(lp861
VSOKQUCA12A6D4FC499
p862
aVSODGXQS12A8C13F124
p863
aVSOSHDXD12A8C1427A7
p864
aVSODUFUJ12A6D4F7015
p865
aVSOWFIHB12A6D4F7782
p866
aVSOMLGFY12AB01852F9
p867
aVSOOMJUZ12AB0182036
p868
aVSOUCEFH12AB018413A
p869
aa(lp870
VSOJAGRK12AC46896BC
p871
aVSOERXDI12A6D4FA334
p872
aa(lp873
VSOZSSUB12A58A7C965
p874
aVSOOCFVI12A8C13BDEE
p875
aa(lp876
VSODGHMO12A8C13B3AB
p877
aVSOROVGA12AF72A3E23
p878
aVSOGQUIN12A6701F2C4
p879
aVSOMRFHJ12A8C1334AB
p880
aVSOALCOJ12AB0189FAB
p881
aVSONWHGA12AB0184DB0
p882
aVSOOTKHV12A8AE47B54
p883
aVSOLSODY12A8C1348AA
p884
aVSOJFBKJ12A6310D8ED
p885
aa(lp886
VSOHTBLY12A6D4F88A9
p887
aVSOMIIGX12AB0188F96
p888
aa(lp889
VSOAVOUK12A8AE47504
p890
aVSOGLIIB12A6D4F7C4D
p891
aa(lp892
VSOJFNBO12A6D4F7D7A
p893
aVSOVDGST12A6D4FD360
p894
aVSOFBAZD12A6702184D
p895
aVSOTEXKZ12A6D4FA2EF
p896
aa(lp897
VSODYJYD12AB01855E3
p898
aVSOFBGNM12AF72A315E
p899
aVSOJMBXY12AB0180D9B
p900
aVSOMUCFP12A6701F28E
p901
aVSOCIKSP12A8C141B16
p902
aVSOYSFMA12A6701F85E
p903
aVSORTGEB12AF729E251
p904
aVSOHYMUT12A6310D869
p905
aa(lp906
VSOEGIIP12B0B80AFC4
p907
aVSOJKGZW12A6D4F66EE
p908
aa(lp909
VSORTGEB12AF729E251
p910
aVSOCIKSP12A8C141B16
p911
aVSOSFDUN12A6D4FBD0A
p912
aa(lp913
VSOTEXKZ12A6D4FA2EF
p914
aVSOAFZYT12A6310F1F0
p915
aVSOMZYJG12A8C14138C
p916
aa(lp917
VSOZJSAD12A6310F322
p918
aVSOQAOWI12A6310D8FC
p919
aVSOHMOLN12A58A7D3FE
p920
aa(lp921
VSOIRHGD12A58A7B6C2
p922
aVSOQUIFE12AB01854ED
p923
aVSOTLWFE12A8C13BF57
p924
aVSOVFIFN12A67020164
p925
aVSONQLGP12A6D4F697B
p926
aa(lp927
VSODLZDX12A8C13F002
p928
aVSONOYTE12A6D4F8697
p929
aVSONOGZR12A8AE47D2B
p930
aVSOEPDZY12A6D4F72DD
p931
aVSOBTFWO12AB01875D5
p932
aVSOGXMFL12A8C145C0E
p933
aVSOYXNHN12AB0187FB9
p934
aVSOMTEGI12B34F1C789
p935
aa(lp936
VSOUAXVX12AB017A07F
p937
aVSOAYPQN12A58A7AE28
p938
aa(lp939
VSONVPVP12AF72A6851
p940
aVSOUZGQR12A6D4F7FA8
p941
aVSOFETTK12A8C13DDCF
p942
aVSOEXYIG12A6310E188
p943
aVSOTMSAQ12CF5CFD6E4
p944
aVSOXUHDU12AB018DA8E
p945
aVSOKOYAJ12A8C136E70
p946
aVSOXCGGW12AC468CD95
p947
aa(lp948
VSOYXNHN12AB0187FB9
p949
aVSOUKCNX12A3F1EA020
p950
aVSOZJSAD12A6310F322
p951
aa(lp952
VSOPOGOZ12A6D4F947B
p953
aVSOIQGYE12A58A78D23
p954
aa(lp955
VSOGYJLK12AB01831AD
p956
aVSORMXBV12A8C135FE6
p957
aa(lp958
VSOGKTSK12A6D4FA1E3
p959
aVSOJHDQB12AB0185E98
p960
aa(lp961
VSOWOZJP12AAA15D8B3
p962
aVSOPBGKX12A8C13D97B
p963
aa(lp964
VSOSKJVW12AB0187708
p965
aVSOUFUTS12AF72A51C0
p966
aa(lp967
VSOZDXXD12A6701DA91
p968
aVSOPSCPK12A58A77993
p969
aa(lp970
VSORLAUW12A8C135EA5
p971
aVSOBOEJV12A8C1424C0
p972
aa(lp973
VSOTGGKE12A6BD55CAF
p974
aVSOKYMBZ12AB017DB1E
p975
aa(lp976
VSOQVJEI12AB017F610
p977
aVSOJSQZR12AB017F60A
p978
aVSOFZIAY12AB017F5C1
p979
aVSOOGKNY12AB017F59D
p980
aVSORPJJJ12AB017F5AC
p981
aa(lp982
VSOUASGO12A58A7C3CE
p983
aVSOKYBEO12A81C23957
p984
aVSOGQUIN12A6701F2C4
p985
aVSOBGBKR12A58A7CC8A
p986
aVSOINQNL12A8C13ADD1
p987
aVSOFHHYH12A8C132421
p988
aVSOTDTOK12A6310EF6E
p989
aVSOTEVAS12A8C139841
p990
aa(lp991
VSOTJDBL12A6D4F75E0
p992
aVSOUQJDY12A6701D2EF
p993
aa(lp994
VSOQDNNI12A6310EE3A
p995
aVSOQJLWB12A6701E7B3
p996
aa(lp997
VSOWOSVZ12A58A7AF57
p998
aVSOQABWJ12AAF3B3D1D
p999
aVSONLDNL12A8C13B9EE
p1000
aa(lp1001
VSOAGPYL12A67AE0ED1
p1002
aVSODXFKK12A8C13B9FB
p1003
aa(lp1004
VSOLBRDH12A6D228252
p1005
aVSOWGQHG12A58A78688
p1006
aa(lp1007
VSOFDMGQ12AC3DF4F12
p1008
aVSOFBAZD12A6702184D
p1009
aVSOQGACL12A6701DCF6
p1010
aa(lp1011
VSODLOFG12AB0184FD9
p1012
aVSOKQBDZ12AB018019D
p1013
aVSONNBUM12A6D4FDDB4
p1014
aa(lp1015
VSODOVQW12A8C13536C
p1016
aVSOEXZQB12D021B2493
p1017
aa(lp1018
VSOASYSL12A6310D898
p1019
aVSOUFUTS12AF72A51C0
p1020
aa(lp1021
VSOVBVXV12A6D4F8BD8
p1022
aVSOZJYXL12A6701E717
p1023
aVSOYZOLJ12A6D4F90D2
p1024
aVSOEXFJA12A6D4F90D0
p1025
aVSOMHUOT12AC468C48D
p1026
aVSOLQEXB12A8C132FB1
p1027
aa(lp1028
VSOXZBTQ12AAF3B53B3
p1029
aVSOOKLWU12A6D4FA2D0
p1030
aa(lp1031
VSOXGMHC12A8C14392C
p1032
aVSOCJPWB12A58A79E4B
p1033
aVSONNSKJ12AB018161E
p1034
aVSOZOZLF12AB018598E
p1035
aVSONSBDA12AB017B826
p1036
aVSOKWSOL12A8C139A98
p1037
aa(lp1038
VSOXZRPV12A6D4F88B3
p1039
aVSOLRPVC12AB0182A3C
p1040
aVSOXRWDM12A8C1452B2
p1041
aa(lp1042
VSOCONZS12A6D4F7E03
p1043
aVSOZBVTL12A6D4F9D22
p1044
aa(lp1045
VSOWILZU12A6D4F8425
p1046
aVSOBYGRE12AC9072677
p1047
aVSOTQVVZ12A6D4FC295
p1048
aVSOXQBHW12A8C131E78
p1049
aVSOYFUJD12AB018D334
p1050
aVSOZSCVA12A8C13E6B8
p1051
aVSOQQGXX12A6D4F6F7F
p1052
aVSOQFERN12A8AE47FD0
p1053
aVSOSEFWJ12AB017FC30
p1054
aVSOWRBKH12A8C136027
p1055
aa(lp1056
VSOPAIHA12B34F260CC
p1057
aVSOOMJUZ12AB0182036
p1058
aVSOSSLDZ12A6310DFB0
p1059
aVSOBUHLH12A6D4F8EFD
p1060
aa(lp1061
VSOWDUTV12A67020692
p1062
aVSOJJYOD12A8C134256
p1063
aVSOQSUOE12A6D4F9617
p1064
aVSOUQFUK12A6D4F9662
p1065
aVSOJZWSD12AB0180F33
p1066
aVSOVJEMI12A6D4F88B0
p1067
aa(lp1068
VSOZMNAX12A58A77F88
p1069
aVSOGXLUQ12B0B808F5D
p1070
aa(lp1071
VSOMGBTI12A58A7DDDE
p1072
aVSOJFDJB12A8C13CA81
p1073
aa(lp1074
VSODXPEL12A8C13B6A0
p1075
aVSOPARPS12A6D4F2982
p1076
aVSOPAOYJ12A81C23E41
p1077
aVSOMMWXL12A8C13EA02
p1078
aVSOAGQAJ12AAFF429E3
p1079
aa(lp1080
VSOOHIJG12A58A8137B
p1081
aVSOBCRSV12A6D4F3C93
p1082
aVSOFMREE12A8C13BAE9
p1083
aa(lp1084
VSOREKKG12A6310D835
p1085
aVSOHHUWT12A58A7F3C3
p1086
aa(lp1087
VSOQCBHW12D021997C8
p1088
aVSOBRDPT12A6701F53A
p1089
aVSOAPEGN12A8C1309AA
p1090
aVSOQAWJC12A6D4F66F2
p1091
aVSOVVCON12A6D4F775F
p1092
aVSOWFNCJ12A8C133A16
p1093
aVSOMZYJG12A8C14138C
p1094
aVSOWUBXC12A8C132682
p1095
aa(lp1096
VSOKEUYU12A67ADF7E6
p1097
aVSOEIQDH12A58A7684A
p1098
aa(lp1099
VSORUZKY12AAF3B22A3
p1100
aVSOKAFZY12A6310E85A
p1101
aa(lp1102
VSOKXZJL12A6D4FD851
p1103
aVSOAYIVO12A8C13DCB6
p1104
aVSORHPWW12A6310DF24
p1105
aVSOROVGA12AF72A3E23
p1106
aVSOJWALY12A6D4F66ED
p1107
aa(lp1108
VSOXKOBC12A8C13F842
p1109
aVSOXONZC12A67ADF6DA
p1110
aVSOJMBXY12AB0180D9B
p1111
aVSOUMDYT12A8C137E91
p1112
aVSOWENLZ12A8C133620
p1113
aa(lp1114
VSOEGIIP12B0B80AFC4
p1115
aVSOWKEKB12A6310E969
p1116
aa(lp1117
VSOMTQNR12A6D4F6986
p1118
aVSOXSTRU12A58A7A858
p1119
aa(lp1120
VSOTEXKZ12A6D4FA2EF
p1121
aVSOEGZHJ12A8C1443E0
p1122
aVSOKEUYU12A67ADF7E6
p1123
aa(lp1124
VSOCHQXX12AB0180AE1
p1125
aVSONSVSD12A6D4FAF3D
p1126
aa(lp1127
VSOYEJCP12A8C133A3C
p1128
aVSOGGNTX12AB01838EE
p1129
aa(lp1130
VSOFCMTS12AB0189B48
p1131
aVSOXNVIA12B0B806A7A
p1132
aa(lp1133
VSOEUBKB12AB01854BA
p1134
aVSOCUSXJ12A8AE47A16
p1135
aa(lp1136
VSOSRPBT12AB018264A
p1137
aVSOWMXVE12A6D4F9061
p1138
aa(lp1139
VSOEWNJA12A67AE110B
p1140
aVSODXJYM12A8AE46B2A
p1141
aVSODSCGN12A8C135B9A
p1142
aa(lp1143
VSOTRESB12A8C13F10B
p1144
aVSOTZRNJ12A67AD8640
p1145
aVSOFIXJA12AB0183487
p1146
aVSOZVMXO12A67AE0CD6
p1147
aa(lp1148
VSOWQNSQ12AF72A42A5
p1149
aVSOAIWRP12A67AE2397
p1150
aVSOTWWOR12A6D4FD473
p1151
aVSOLAGCF12A6D4F6DE7
p1152
aa(lp1153
VSOWOZJP12AAA15D8B3
p1154
aVSODFZCW12A8151B84B
p1155
aVSOHNOOC12A8C13BF35
p1156
aVSOQJLWB12A6701E7B3
p1157
aVSOATNYF12AF72A8D48
p1158
aVSOHHJYE12A8AE47599
p1159
aVSOUTQYD12A6D4F50FE
p1160
aVSOENQMK12A81C212D5
p1161
aVSOMZYJG12A8C14138C
p1162
aVSODYJYD12AB01855E3
p1163
aVSOWQJUV12A6701FA45
p1164
aVSOLSGAY12A8C13E752
p1165
aVSORJRBR12AB01887EE
p1166
aVSOIPYGD12A6701CD87
p1167
aa(lp1168
VSONSGJI12AC960DA15
p1169
aVSOCLWOY12AAFF438EB
p1170
aa(lp1171
VSOMHJWC12A6D4FA0A4
p1172
aVSODEAMH12A67ADE726
p1173
aa(lp1174
VSOZCOEW12A8C13FB91
p1175
aVSOOEYLA12A6D4F8042
p1176
aVSOBPNMG12AAF3B48D8
p1177
aVSOLSJDD12A8AE4514C
p1178
aVSOESKXH12A6310F9D0
p1179
aa(lp1180
VSOVCHXZ12AB0181D2C
p1181
aVSONLDNL12A8C13B9EE
p1182
aa(lp1183
VSOQQPWC12AB0181898
p1184
aVSOFMUMU12A6D4FA2D5
p1185
aa(lp1186
VSOKULLX12A8AE4609D
p1187
aVSORIPBE12A8C13AAEA
p1188
aVSORKCOJ12AF72A8B6C
p1189
aa(lp1190
VSOPNGMA12A8AE47FA2
p1191
aVSOQULLL12A8C14036C
p1192
aVSOEAKIB12A8AE48D12
p1193
aa(lp1194
VSOITHVX12A6D4F97B7
p1195
aVSOQPOBG12A67AE024A
p1196
aa(lp1197
VSOXYIPS12A8C1325F7
p1198
aVSOLQRCE12A6D4F8381
p1199
aVSOCVERS12A8C136ABF
p1200
aVSOZSYPY12A6310DF1C
p1201
aVSOLBXKR12AB0184BBA
p1202
aa(lp1203
VSOTEVAS12A8C139841
p1204
aVSOQJDLS12A6701FF30
p1205
aVSOINKKL12A6D22824F
p1206
aVSOGQUIN12A6701F2C4
p1207
aVSOEHZQB12A6702016D
p1208
aa(lp1209
VSOSUIMH12AF72A268E
p1210
aVSOWCEQC12AF72A2B64
p1211
aVSOCKWWY12A58A7FB3D
p1212
aVSOBLYDT12A8AE470FE
p1213
aVSOBGBKR12A58A7CC8A
p1214
aVSOMNFVX12A6701DAFF
p1215
aa(lp1216
VSOBMWXT12A6310E32B
p1217
aVSOLQRCE12A6D4F8381
p1218
aa(lp1219
VSOFPHXA12A8C14517E
p1220
aVSOOKLWU12A6D4FA2D0
p1221
aa(lp1222
VSOIDEJQ12AB01888CD
p1223
aVSOWVKSU12A6310D83E
p1224
aa(lp1225
VSODLOFG12AB0184FD9
p1226
aVSOSWMIC12AB0185604
p1227
aVSOMLAVM12A8C1321B4
p1228
aa(lp1229
VSOWEWQW12AB017EEA5
p1230
aVSOLYTNZ12AB018670C
p1231
aa(lp1232
VSOINQNL12A8C13ADD1
p1233
aVSOBLPZA12A6310DF57
p1234
aa(lp1235
VSOFNRQO12A8C135DDB
p1236
aVSOCNWPX12A6D4FA348
p1237
aVSOLXOPD12AB0182D9E
p1238
aa(lp1239
VSOWOSVZ12A58A7AF57
p1240
aVSOESOZQ12A8C13B9D9
p1241
aa(lp1242
VSOGKPTQ12AC3DF98CE
p1243
aVSOAEWOY12A6701FA3D
p1244
aVSOTJVBL12A58A7A8A2
p1245
aVSOBMSZE12A6D4F89B9
p1246
aa(lp1247
VSOVLFUZ12A8C137962
p1248
aVSOPMUZX12AC3DF5B21
p1249
aa(lp1250
VSOGCRXA12A6310D996
p1251
aVSOJMHDE12A6D4F88AB
p1252
aVSOEBXZL12A81C22A98
p1253
aVSOZEYZW12A6D4F9739
p1254
aVSONVPVP12AF72A6851
p1255
aVSOFJPMV12AB017EA9F
p1256
aVSOPEFQM12AB0186F95
p1257
aVSOEKUPU12A6D4F97D0
p1258
aa(lp1259
VSOKOYAJ12A8C136E70
p1260
aVSOJWFXM12A3F1EBE8B
p1261
aVSOYPUMY12A6D4F5FD8
p1262
aVSOXOXEG12AB0186B3D
p1263
aVSOYFZIN12A58A7DAF5
p1264
aVSOHMUPK12A8AE49D27
p1265
aVSOOMJHI12A6D4F8086
p1266
aVSOVWBYM12A6D4F8A22
p1267
aa(lp1268
VSOCGVNZ12A8C13FDDA
p1269
aVSOEHZQB12A6702016D
p1270
aVSOCOQQK12AB018338A
p1271
aa(lp1272
VSOEIHEF12A8C1422AA
p1273
aVSOXTCSH12A6701FA37
p1274
aVSOJOBMW12A6310EC71
p1275
aa(lp1276
VSOPUSNZ12A6D4F9684
p1277
aVSOMOVIW12A63110846
p1278
aa(lp1279
VSOGQUIN12A6701F2C4
p1280
aVSOSKKUE12AB0180108
p1281
aa(lp1282
VSOTUVVP12A8C13FE7E
p1283
aVSOFIXVS12AB017A0A3
p1284
aVSOGZVTK12A6701BE5B
p1285
aVSONARZR12A8AE47E83
p1286
aVSOFEQVT12A8C13AB0F
p1287
aa(lp1288
VSOMHGDZ12AB018102A
p1289
aVSOUEFJV12A8C14657F
p1290
aa(lp1291
VSOZASYA12A8C13BB03
p1292
aVSOXIMIR12A8C13BAFB
p1293
aa(lp1294
VSODGUAL12AB01873B0
p1295
aVSOYGGNV12A8C132F0D
p1296
aVSOSSVAH12A6D4F9681
p1297
aVSOWWAUI12A6D4FB4F5
p1298
aVSOJDPRJ12A58A7A568
p1299
aa(lp1300
VSOWEWRL12A58A7961F
p1301
aVSOQCNCF12A6D4F81B1
p1302
aVSOSKJVW12AB0187708
p1303
aa(lp1304
VSOKGIXK12A6D4F8097
p1305
aVSOTHYHY12AB0184699
p1306
aa(lp1307
VSOWIMYH12A6D4FA2F9
p1308
aVSOXZKRX12AF729FDCC
p1309
aa(lp1310
VSOXAUGN12AB017DC7B
p1311
aVSOLWHJR12AB017C6DB
p1312
aa(lp1313
VSOPMURQ12AF729C6E5
p1314
aVSOAIQBZ12A67ADBCE1
p1315
aa(lp1316
VSOSUDWP12A58A7CD2F
p1317
aVSOPPJGQ12AB0183CC8
p1318
aVSOFMPBP12A58A7E662
p1319
aVSONBGOT12A6701DC53
p1320
aa(lp1321
VSOBJUIV12AF72A7997
p1322
aVSODUPSC12AB0189116
p1323
aVSONFUMA12A8AE47B5A
p1324
aa(lp1325
VSOOKLWU12A6D4FA2D0
p1326
aVSOOLJJP12AB017AE27
p1327
aVSOORDQF12A6D4FA09C
p1328
aa(lp1329
VSOBXDWE12A81C23664
p1330
aVSOGJKVV12A8AE460E0
p1331
aa(lp1332
VSOMRMHS12A8C13A1FC
p1333
aVSOQNTQL12A8C1330AD
p1334
aVSOLBRDH12A6D228252
p1335
aa(lp1336
VSOAVOUK12A8AE47504
p1337
aVSOVEHLG12A6D4FB414
p1338
aa(lp1339
VSODEAMH12A67ADE726
p1340
aVSOEWYLX12A6D4F8E5F
p1341
aVSOSFDUN12A6D4FBD0A
p1342
aa(lp1343
VSOZSYPY12A6310DF1C
p1344
aVSOEIKST12A8C135EAD
p1345
aa(lp1346
VSOGKCUW12A8C141F3C
p1347
aVSORSORV12A6D4F65C6
p1348
aVSOKPSAG12AC3DF9F60
p1349
aa(lp1350
VSOGCZTO12AF72A90C5
p1351
aVSOSJYDL12A679D7E6E
p1352
aa(lp1353
VSOCTNRU12A6D4FBE21
p1354
aVSOWRKWG127CF88A4FD
p1355
aVSOETSTN12A81C219A9
p1356
aa(lp1357
VSOMHJWC12A6D4FA0A4
p1358
aVSOSAGTQ12A6D4F75B5
p1359
aVSOOSQBY12A6D4F7476
p1360
aa(lp1361
VSOMMYOY12A6D4F6D46
p1362
aVSOZOJIN12AB0182732
p1363
aa(lp1364
VSOTYDND12A6D4FA9E1
p1365
aVSOSYGGS12A8C13B38E
p1366
aa(lp1367
VSOTTFVK12AB0182C8B
p1368
aVSOXBXAK12CF51A9663
p1369
aa(lp1370
VSOPUTKS12A8C13A1F4
p1371
aVSOYWOYL12AB018CB2E
p1372
aa(lp1373
VSOOLRLB12A8C13D936
p1374
aVSOIPGND12A8AE46300
p1375
aVSOARPIE12A8C13CF61
p1376
aVSOOZZGS12A6D4FBDF8
p1377
aa(lp1378
VSOLSODY12A8C1348AA
p1379
aVSOEWVDH12A67AD94D0
p1380
aVSOGJPVV12A6310E159
p1381
aVSOBPQCK12AF72A2FD5
p1382
aa(lp1383
VSOYYOKM12A8C13BD07
p1384
aVSONLDNL12A8C13B9EE
p1385
aa(lp1386
VSOSJCUF12AB0180EBB
p1387
aVSOKKFUS12A6701DAFA
p1388
aa(lp1389
VSOWCMZE12A6D4FD7FC
p1390
aVSOSSKRQ12AC468B729
p1391
aa(lp1392
VSOBXDCE12AB017C92F
p1393
aVSOQDWQN12A6310DF29
p1394
aa(lp1395
VSODMLIR12A6D4FA2F1
p1396
aVSOACHPF12A6D4FA64D
p1397
aa(lp1398
VSOCNWPX12A6D4FA348
p1399
aVSOYBIOQ12A6D4FB685
p1400
aa(lp1401
VSOCMQFQ12A81C2098C
p1402
aVSOSSVAH12A6D4F9681
p1403
aa(lp1404
VSOTNSKV12A6D4FA323
p1405
aVSOPEEDH12A58A7C407
p1406
aVSOQUDUI12A6D4F9D86
p1407
aVSOIXIZL12A8AE44F3A
p1408
aa(lp1409
VSOHUBEY12A6D4FA339
p1410
aVSOWFFDN12AC3DF84C3
p1411
aVSODUHAW12A58A771D0
p1412
aVSOJNQNN12A6D4FA2F6
p1413
aa(lp1414
VSOERCPF12A6D4F7B94
p1415
aVSOIFLAU12AF72A38F3
p1416
aa(lp1417
VSOBXHRX12A67020724
p1418
aVSOFSTXF12AB0181BE9
p1419
aVSOKTLWI12AC3DF8512
p1420
aVSOINKKL12A6D22824F
p1421
aa(lp1422
VSORQTCL12A8C142AC0
p1423
aVSOQUIFE12AB01854ED
p1424
aa(lp1425
VSOTSJBD12A670214A4
p1426
aVSOGHDGX12A8C1355DE
p1427
aVSOGIFHM12A670207B7
p1428
aVSOHCSZI12A6D4F9640
p1429
aa(lp1430
VSOSWKCC12A8C13A8BF
p1431
aVSOKFEUB12AB0186BED
p1432
aa(lp1433
VSOJTKPR12A8C13E490
p1434
aVSOSYJJL12B0B80B28D
p1435
aa(lp1436
VSONKIIJ12A6D4FBE67
p1437
aVSOEMQRX12AF729BFA4
p1438
aa(lp1439
VSOODVTQ12AB018497D
p1440
aVSORXHEO12AB018566C
p1441
aa(lp1442
VSOSJCNH12A81C23945
p1443
aVSOMOKFI12A58A7B921
p1444
aVSOJFULV12A8C13A93C
p1445
aa(lp1446
VSOZDCDK12A6D4FA036
p1447
aVSOKYBEO12A81C23957
p1448
aVSORDJJS12A8C13E056
p1449
aVSOIFTBM12A58A7A3E8
p1450
aa(lp1451
VSOFYGER12AC468C2A9
p1452
aVSOPQKDE12A8AE479C6
p1453
aa(lp1454
VSOYABQR12AB018631E
p1455
aVSOSJJRK12A8C138E92
p1456
aa(lp1457
VSOYYXYN12A8C13E59B
p1458
aVSOTKVYT12A6701EEAD
p1459
aa(lp1460
VSOWEWRL12A58A7961F
p1461
aVSOQMJLC12A679AE53B
p1462
aa(lp1463
VSOZJWDN12A8151B851
p1464
aVSOLNDJE12A6D4FA336
p1465
aa(lp1466
VSOVVYBK12A8C13BEC6
p1467
aVSOOKLWU12A6D4FA2D0
p1468
aa(lp1469
VSOMHEBZ12AB01822B1
p1470
aVSOTFIZR12A8151CD78
p1471
aVSOILGZL12A8C1413D7
p1472
aVSOITYPH12AB0182DF3
p1473
aVSOZDCDK12A6D4FA036
p1474
aa(lp1475
VSOYBACH12AF729C4E4
p1476
aVSOZAHBR12A67ADA28C
p1477
aVSOEPFXK12A8C13ADE1
p1478
aVSOGPJWS12A6D4FB9BF
p1479
aVSOZWFNI12A8C13CB20
p1480
aVSOCYAQD12D021B18B1
p1481
aa(lp1482
VSOYCWCO12A6D4F969E
p1483
aVSOIBEDZ12A6D4FA5D6
p1484
aVSOXBHCJ12A8C13BA43
p1485
aVSONNXHM12AB0183407
p1486
aVSOLVOIS12AB017DFC5
p1487
aVSOVBCKQ12A6D4FBAC9
p1488
aVSOVBVXV12A6D4F8BD8
p1489
aa(lp1490
VSOPVXJB12A6D4F47A1
p1491
aVSOZRSOQ12A58A7D884
p1492
aVSOAFILC12A6701EF0F
p1493
aa(lp1494
VSOWCEQC12AF72A2B64
p1495
aVSOFZQDO12A6D4FB4F4
p1496
aVSOVEUQB12A6D4F4928
p1497
aa(lp1498
VSOGOAGM12AB017E99E
p1499
aVSOXTOUC12AB0185A31
p1500
aa(lp1501
VSOXYIPS12A8C1325F7
p1502
aVSOHAMYR12A6D4F9AE0
p1503
aVSOUIUIW12A8C134F47
p1504
aa(lp1505
VSOOJUZY12A6D4F5816
p1506
aVSOGVEJN12A6D4F9D83
p1507
aa(lp1508
VSOHZYPB12AB01820A3
p1509
aVSOEGFNA12A6D4F9DA8
p1510
aa(lp1511
VSOTBZPK12AB017C942
p1512
aVSOSJNUD12AB0183524
p1513
aa(lp1514
VSOOSABV12A8C14283A
p1515
aVSOVKAPY12A6D4FA2FF
p1516
aa(lp1517
VSOTNULY12AB017B7C1
p1518
aVSOOEYAC12AB0185C2D
p1519
aa(lp1520
VSOVVYBK12A8C13BEC6
p1521
aVSOFAGDP12A8C13D138
p1522
aa(lp1523
VSOVWMIT12A8C13B9AF
p1524
aVSOZJSAD12A6310F322
p1525
aVSOPGBAN12A6D4F77D2
p1526
aa(lp1527
VSOJXOEH12A8C13ABB5
p1528
aVSOSBKCQ12AB017BF5F
p1529
aa(lp1530
VSOVJTFA12AF72A4224
p1531
aVSOLEOSK12A6D4F84BD
p1532
aVSOPRCAG12A58290FAC
p1533
aVSOQJYCK12A6701E1D1
p1534
aa(lp1535
VSOKMMGX12A8C135CEE
p1536
aVSOFLIZI12A6D4FA0A0
p1537
aVSONAWRL12A6D4F9688
p1538
aVSOCJERD12A8AE465E7
p1539
aVSONBGOT12A6701DC53
p1540
aa(lp1541
VSOBNPLZ12A81C2394C
p1542
aVSOEGEFR12AB0186FBA
p1543
aVSORFXYR12A6D4FA322
p1544
aa(lp1545
VSOQQYLY12AB0188101
p1546
aVSOPZSTN12AB017DDE3
p1547
aVSOMONYZ12AB017EB66
p1548
aVSOQUMFW12AB018001D
p1549
aa(lp1550
VSOELVSU12A6D4FA32A
p1551
aVSOYKECU12A6D4FB67A
p1552
aa(lp1553
VSOWWAUI12A6D4FB4F5
p1554
aVSOYCEUD12A6D4FC2AE
p1555
aVSOGQUIN12A6701F2C4
p1556
aVSOLEIXJ12B0B809022
p1557
aVSOYHTAT12A81C23955
p1558
aVSOEUORE12A8C13953D
p1559
aVSOQNXUY12AB01833EA
p1560
aVSOAYKMG12AB01803E2
p1561
aa(lp1562
VSOOSKQS12AB0182B7B
p1563
aVSOALCOJ12AB0189FAB
p1564
aa(lp1565
VSOPUTCP12A6D4F851D
p1566
aVSOQUQIO12AB018C168
p1567
aa(lp1568
VSOSRMNW12AB0186E68
p1569
aVSOXDIBI12AB017E64B
p1570
aa(lp1571
VSODMLIR12A6D4FA2F1
p1572
aVSOAVRVK12A8C13AD4A
p1573
aVSOKSIKC12AB018AA55
p1574
aa(lp1575
VSOFTNGV12A6D4F71BF
p1576
aVSODUKEE12AB0180D4A
p1577
aa(lp1578
VSORHRLZ12AB01881D6
p1579
aVSOFJAMK12AB018CCD9
p1580
aa(lp1581
VSOALIEL12A8C13CD2C
p1582
aVSOXFTSF12A6D4F7278
p1583
aVSOWLPIP12AC9072A7C
p1584
aVSOQUMFW12AB018001D
p1585
aa(lp1586
VSOTUZCO12AB0187B61
p1587
aVSOTBWDA12AB018E3C8
p1588
aa(lp1589
VSOOGLIK12AB0180A3C
p1590
aVSOKWQQT12A6701DC54
p1591
aa(lp1592
VSOOJBLX12A6310D85D
p1593
aVSOWTQLD12A6D4F747F
p1594
aa(lp1595
VSOFNVOF12A6D4F85A1
p1596
aVSOYMIWE12AAF3B2AE3
p1597
aa(lp1598
VSOBBCWD12A6D4F7BE1
p1599
aVSOXWYHD12B34F261A9
p1600
aVSOIUYLB12A6310DF30
p1601
aa(lp1602
VSOITHVX12A6D4F97B7
p1603
aVSOMZYJG12A8C14138C
p1604
aa(lp1605
VSOWNIXW12A8C13AA9C
p1606
aVSOFMAMT12A6D4F8519
p1607
aa(lp1608
VSOKULLX12A8AE4609D
p1609
aVSOUVGNH12AF72A0BE4
p1610
aVSOYCXSH12AB0182AE5
p1611
aVSORIPBE12A8C13AAEA
p1612
aa(lp1613
VSOXTOUC12AB0185A31
p1614
aVSOQNXBA12A8C143B11
p1615
aVSOINTXZ12AF729FB66
p1616
aa(lp1617
VSODCBIW12AB0184E2C
p1618
aVSOCUKWE12A6D4F9B20
p1619
aVSOORDHC12A6BD4CA72
p1620
aVSOLCQDA12AF729DCD1
p1621
aa(lp1622
VSOFOEWF12AB0180676
p1623
aVSONTXRY12A81C20F0A
p1624
aa(lp1625
VSOKSTNJ12A6D4FBCAB
p1626
aVSONXSLH12A6BD50DF4
p1627
aa(lp1628
VSONFBXS12A6701FD97
p1629
aVSOXDRTR12AB0187516
p1630
aa(lp1631
VSOFDWNI12A6D4FC1D1
p1632
aVSOQHYDK12AB017FAB9
p1633
aa(lp1634
VSOLSODY12A8C1348AA
p1635
aVSOUKDVA12A6701E0DA
p1636
aVSOHFHQQ12A8AE479C9
p1637
aa(lp1638
VSOQHUWM12A8C13AACF
p1639
aVSOPIVNU12A6D4FA6EA
p1640
aa(lp1641
VSOGVWGI12A8C13B9D1
p1642
aVSOKCYHU12A6D4FB682
p1643
aVSOMQMFR12A8C137B1F
p1644
aVSONEYYW12AF72A2AA6
p1645
aVSONBGOT12A6701DC53
p1646
aVSOBXDCE12AB017C92F
p1647
aa(lp1648
VSOIAFQP12A8C13E188
p1649
aVSOULZWN12A67021A98
p1650
aa(lp1651
VSOUDQKF12A6BD53715
p1652
aVSOWLFYL12AB0187453
p1653
aVSOYZYGZ12A8C137A6F
p1654
aa(lp1655
VSOYCRDD12A8C13A204
p1656
aVSOYUCBC12A8C139A87
p1657
aa(lp1658
VSOARTSF12A8C13983F
p1659
aVSOFFWZZ12A6D4F66F0
p1660
aa(lp1661
VSOPJESY12AB0185901
p1662
aVSOQAWJC12A6D4F66F2
p1663
aVSOCMIPA12A6310E961
p1664
aa(lp1665
VSORGSCK12A6310E81C
p1666
aVSOKXLTD12AB0183679
p1667
aa(lp1668
VSOAGPYL12A67AE0ED1
p1669
aVSOFIBYJ12A6D4F860B
p1670
aVSODNLOY12A6D4FB64A
p1671
aa(lp1672
VSOWEJXI12A58A7B04F
p1673
aVSOJJINB12AF72A35F5
p1674
aVSOMHBWE12A8C133B61
p1675
aVSOBPQVT12A58A7B477
p1676
aVSOHNOOC12A8C13BF35
p1677
aa(lp1678
VSOOHGOH12AC3DFB31A
p1679
aVSOQTSYP12A6D4F40FD
p1680
aa(lp1681
VSOKGOUQ12AF72A9B39
p1682
aVSOPXBMV12A6D4F6621
p1683
aa(lp1684
VSOAVBFB12A6310D903
p1685
aVSOGPZNV12A6D4F7871
p1686
aa(lp1687
VSOLVWST12A8AE469FD
p1688
aVSOLDZWH12A6D4F815D
p1689
aa(lp1690
VSOPAIHA12B34F260CC
p1691
aVSOBKDOW12A6D4FA093
p1692
aa(lp1693
VSOGYLPF12AB0185610
p1694
aVSOEFLXW12A8C13DD7A
p1695
aa(lp1696
VSOCGCBP12A6D4FAC3A
p1697
aVSOQUKFS12A8AE476FA
p1698
aa(lp1699
VSOFJAMK12AB018CCD9
p1700
aVSOTSNDR12A8AE47599
p1701
aVSOWEWQW12AB017EEA5
p1702
aVSOXHWQO12A58A7AD15
p1703
aVSOPVXJB12A6D4F47A1
p1704
aVSOOZPLQ12A6701D220
p1705
aVSOMOLIZ12A6310EC70
p1706
aVSOTEJTP12A8C13647D
p1707
aa(lp1708
VSOLXBCC12A6D4F5FD2
p1709
aVSOPEJKC12A6310E8DB
p1710
aVSODMASJ12AF729E6FA
p1711
aa(lp1712
VSOSSVMX12A8C145951
p1713
aVSOEYXEY12A6310E9C5
p1714
aa(lp1715
VSOWQNJW12A6D4F69DB
p1716
aVSOJAILV12A8C132B00
p1717
aVSODXOZI12A6D4F8AB0
p1718
aa(lp1719
VSOFWSOO12A4280627E
p1720
aVSOTXPBE12AB018763C
p1721
aa(lp1722
VSOVXBVF12AC4689682
p1723
aVSOFZJEL12A58A77FEF
p1724
aVSOEWQSK12B0B80A207
p1725
aa(lp1726
VSOOWOSS12A67ADE2D3
p1727
aVSORFXYR12A6D4FA322
p1728
aa(lp1729
VSOVHFEY12AC468D274
p1730
aVSOMCCMJ12A8C1322C0
p1731
aa(lp1732
VSOKQBDZ12AB018019D
p1733
aVSOQPOBG12A67AE024A
p1734
aa(lp1735
VSOBQLWO12A8AE48212
p1736
aVSOXHWQO12A58A7AD15
p1737
aVSOQNXBA12A8C143B11
p1738
aa(lp1739
VSOKPWKG12AB01801C0
p1740
aVSOCECBN12A67ADE48D
p1741
aa(lp1742
VSOJXTQS12A6D4FCFB3
p1743
aVSOAEXQZ12A8C14185D
p1744
aVSONDJOU12A6701C967
p1745
aVSOBSPGM12A8C143184
p1746
aa(lp1747
VSOFBAZD12A6702184D
p1748
aVSOQNTQL12A8C1330AD
p1749
aVSOAGPYL12A67AE0ED1
p1750
aa(lp1751
VSOYRFBS12A8C12FF0F
p1752
aVSOIPIDS12A8C140791
p1753
aVSOTRNLZ12AB01884D7
p1754
aa(lp1755
VSOVJNYR12AAF3B3E5F
p1756
aVSOHTJVH12A6702071E
p1757
aVSOJAFSP12AB018B341
p1758
aa(lp1759
VSOQRLMO12A8C131F50
p1760
aVSOHSVSN12A6D4F7E1F
p1761
aVSOJVGGE12AB0181F27
p1762
aVSOBEHYF12A67ADD885
p1763
aa(lp1764
VSORHPWW12A6310DF24
p1765
aVSOEUORE12A8C13953D
p1766
aa(lp1767
VSOFMNAD12A8151D766
p1768
aVSOPPSWG12A8C143171
p1769
aVSOZVBFQ12A8C1364E0
p1770
aVSOZNDMU12A8AE4845A
p1771
aVSOGJAJX12D0219A914
p1772
aVSONPQQN12A8C145892
p1773
aVSOBJZKT12A8C140FA9
p1774
aa(lp1775
VSOPEYFO12A8C13CDE3
p1776
aVSOKXFEA12AB017BDEF
p1777
aa(lp1778
VSONWWDY12A6D4F7FB1
p1779
aVSOHKFZG12AF72AAD27
p1780
aa(lp1781
VSOIABTF12A8C1368F5
p1782
aVSOAWGYN12AB017AA84
p1783
aVSOIXVIO12A58A7C805
p1784
aa(lp1785
VSOSRTCJ12A8C1383F0
p1786
aVSOLVJHU12A8AE47FC0
p1787
aVSONDQMB12A58A76283
p1788
aVSOVFYID12A8C13E3AA
p1789
aVSOZFTKM12AB017F018
p1790
aVSOFAVYA12A6701F9C7
p1791
aa(lp1792
VSOFJGYI12A813568B8
p1793
aVSOQOXRJ12A8C1402D6
p1794
aVSOZYYCO12A6D4F82BD
p1795
aVSOAXKYT12A6701EF89
p1796
aVSOECPEI12A58A7CE30
p1797
aVSORLZFM12AF729FB69
p1798
aVSOUBSOL12A58A7B66D
p1799
aa(lp1800
VSOXBXAK12CF51A9663
p1801
aVSOGAKEI12A8C13FA54
p1802
aVSOINKVP12A8C13BF5D
p1803
aa(lp1804
VSORJRBR12AB01887EE
p1805
aVSOCBFFT12A6D4FBF80
p1806
aa(lp1807
VSONIULR12A8C13D663
p1808
aVSOPTBQZ12A6D4FA35D
p1809
aVSOYKCVY12AB0184B71
p1810
aVSOZTJHW12AB0182820
p1811
aa(lp1812
VSOGNGJX12AB01867D3
p1813
aVSOIZKRW12AB01822A3
p1814
aa(lp1815
VSOEMTCU12A8C134E3F
p1816
aVSOATUXR12A8C137BE5
p1817
aa(lp1818
VSOIYSHK12A8C13ACE8
p1819
aVSOBVQCQ12A8C13846B
p1820
aa(lp1821
VSOKNGNA12CF5F886DE
p1822
aVSOSRPDU12AC3DF6E20
p1823
aa(lp1824
VSOUMLBN12A8AE489B8
p1825
aVSOLEIXJ12B0B809022
p1826
aVSOAMBEM12A6701F3D4
p1827
aa(lp1828
VSOJXMZW12A8C13DCB6
p1829
aVSOKWULH12AF72AAF46
p1830
aa(lp1831
VSOVRLVI12A8C132DCB
p1832
aVSOAXKYT12A6701EF89
p1833
aa(lp1834
VSOLHVPS12AB01834DC
p1835
aVSOFQWYC12A8C13D540
p1836
aa(lp1837
VSOLSDAL12A58A8047A
p1838
aVSOLXMNR12AB0181A30
p1839
aa(lp1840
VSOYDKEK12A6D4F6D18
p1841
aVSOURZRM12A6D4F8882
p1842
aa(lp1843
VSORAZQF12AB01840E9
p1844
aVSOAKYDR12A6D4F7800
p1845
aVSOURSOC12A6D4F665D
p1846
aa(lp1847
VSOQLMDE12AB0183B60
p1848
aVSOUDSRZ12AB0187301
p1849
aa(lp1850
VSOBOASZ12AB018104B
p1851
aVSOPMZRD12AB017BB68
p1852
aVSOKWJIM12A6310F9C0
p1853
aVSODYJYD12AB01855E3
p1854
aa(lp1855
VSOJGSOF12A8C13A277
p1856
aVSOKYBEO12A81C23957
p1857
aa(lp1858
VSOUDQKF12A6BD53715
p1859
aVSOSKKUE12AB0180108
p1860
aVSOEUDUO12B0B806673
p1861
aa(lp1862
VSOYIIWQ12AB018087B
p1863
aVSOHZTFJ12AB01829B9
p1864
aa(lp1865
VSOWZZTA12AF729E2E8
p1866
aVSOZRNRG12A8C141C09
p1867
aVSOAFTRR12AF72A8D4D
p1868
aa(lp1869
VSOLYTNZ12AB018670C
p1870
aVSOFETTK12A8C13DDCF
p1871
aVSOGCOKB12A6D4FA76C
p1872
aVSOLXMNR12AB0181A30
p1873
aa(lp1874
VSOINMWI12AB01848B2
p1875
aVSOXGDOO12A6D4F9748
p1876
aVSONCIHL12AB017D06C
p1877
aVSOYBYEV12A6D4F97BE
p1878
aa(lp1879
VSOYWVMS12AB017E866
p1880
aVSOWEWRL12A58A7961F
p1881
aVSOBULTX12A6D4F69DD
p1882
aa(lp1883
VSOLSODY12A8C1348AA
p1884
aVSOFMREE12A8C13BAE9
p1885
aVSOYWLJY12AB0188A02
p1886
aVSODLVDX12A6310DF22
p1887
aa(lp1888
VSONOBZB12A58A774FC
p1889
aVSOPQQNK12A8C13BF46
p1890
aVSOLOWZP12A8C1321DC
p1891
aVSOFFHIM12A6D4FA56E
p1892
aa(lp1893
VSOMJAEG12A58A7BB99
p1894
aVSOHARHH12A58A78279
p1895
aa(lp1896
VSOXEZLY12A8C137AB0
p1897
aVSONKNVU12A3F1EB037
p1898
aa(lp1899
VSOJWALY12A6D4F66ED
p1900
aVSOMTEGI12B34F1C789
p1901
aVSOAJACT12A8C13B8FE
p1902
aVSOHSXAV12A67ADF7E7
p1903
aVSOSMSEU12AB0186D4E
p1904
aa(lp1905
VSOUDSRZ12AB0187301
p1906
aVSOSYTQC12A8C13A27F
p1907
aa(lp1908
VSOREQRF12A8C13E45B
p1909
aVSONULMU12AB01803A3
p1910
aVSOLFEIC12AAF3B5699
p1911
aVSODPIOT12A6310E235
p1912
aVSOEGPCI12AC960A51F
p1913
aa(lp1914
VSOFGSZO12A6D4FC2DB
p1915
aVSODHIVX12A8C13BAC0
p1916
aa(lp1917
VSOMSDVE12A8151BE20
p1918
aVSOLJNQN12A8C138CE7
p1919
aVSOGYARV12A58A7B090
p1920
aa(lp1921
VSOTOXGS12A8C139181
p1922
aVSOFAWEA12A8C13D664
p1923
aVSOBOHEQ12A8C138D0A
p1924
aVSOWJSDG12AB0182561
p1925
aa(lp1926
VSOLSDAL12A58A8047A
p1927
aVSOLXMNR12AB0181A30
p1928
aa(lp1929
VSOSYQFA12AB01825D3
p1930
aVSODRKRC12AB017F09A
p1931
aa(lp1932
VSOURBRH12A6D4F81CC
p1933
aVSOMVSPC12A6701FA4D
p1934
aa(lp1935
VSOITTRF12A6D4F8594
p1936
aVSOLSODY12A8C1348AA
p1937
aa(lp1938
VSOIFDEB12A8C130EBD
p1939
aVSOINQNL12A8C13ADD1
p1940
aa(lp1941
VSOGFFFB12A8C1338DF
p1942
aVSOBMJHK12A6D4F7E30
p1943
aVSOHTBLY12A6D4F88A9
p1944
aVSOYSFMA12A6701F85E
p1945
aVSOROVGA12AF72A3E23
p1946
aa(lp1947
VSOAAOUI12AB018381C
p1948
aVSOIFVWZ12A6D4FB60B
p1949
aa(lp1950
VSOSEVPJ12AB01853DB
p1951
aVSOKYGEW12AC4687D7C
p1952
aa(lp1953
VSOTIDHN12A6D4F7EF5
p1954
aVSOMWIGT12AB0188C64
p1955
aa(lp1956
VSOFCAWX12A8C13AA57
p1957
aVSOONKIW12A58A7B5A2
p1958
aa(lp1959
VSOVYVPA12CF5F87B4A
p1960
aVSOYDJAX12A58A7A9FA
p1961
aVSOBILME12A6701EEAB
p1962
aa(lp1963
VSOMQMFR12A8C137B1F
p1964
aVSOWMWPK12AB01853AC
p1965
aa(lp1966
VSOIOQAC12AB017F85B
p1967
aVSOENRTG12A67020E07
p1968
aa(lp1969
VSOTTEEN12A58A7FB34
p1970
aVSOLRAGY12A58A775AE
p1971
aa(lp1972
VSOQBFKR12AB01835FC
p1973
aVSOXMPHV12A8C1371CE
p1974
aa(lp1975
VSOABDOL12A6D4F7471
p1976
aVSOEPDZY12A6D4F72DD
p1977
aVSOFBAZD12A6702184D
p1978
aa(lp1979
VSODLOFG12AB0184FD9
p1980
aVSOINTXZ12AF729FB66
p1981
aa(lp1982
VSOJJINB12AF72A35F5
p1983
aVSONNPTA12A6D4F97DC
p1984
aVSOAKMDU12A8C1346A9
p1985
aVSORHUHC12A8C13C21C
p1986
aa(lp1987
VSOGJPVV12A6310E159
p1988
aVSOPNNGS12A8C13946D
p1989
aa(lp1990
VSOZPBSQ12A6D4F7827
p1991
aVSOPCOKI12A6D4F9163
p1992
aVSOSGAZF12A8151CB28
p1993
aa(lp1994
VSOHMQRZ12AB017DCA6
p1995
aVSOMERYR12A6310DFDE
p1996
aa(lp1997
VSOGQUIN12A6701F2C4
p1998
aVSOAUXQN12AB018D2F6
p1999
aa(lp2000
VSODOKTE12A6D4FB6A4
p2001
aVSOMEEGN12AB018529A
p2002
aa(lp2003
VSOQJLWB12A6701E7B3
p2004
aVSODOWQF12A81C2371B
p2005
aVSORUMQF12A8C142100
p2006
aVSOCJPWB12A58A79E4B
p2007
aa(lp2008
VSONOZEC12AB0182069
p2009
aVSOPRPRR12A8C13F003
p2010
aa(lp2011
VSOUGQQV12AB018D4F4
p2012
aVSOUASGO12A58A7C3CE
p2013
aVSOGDBWD12A6D4FCFBC
p2014
aa(lp2015
VSOSAGTQ12A6D4F75B5
p2016
aVSORJWXT12A58A7CE17
p2017
aVSOBHUCN12AB0188868
p2018
aa(lp2019
VSOPJKWQ12A67ADD318
p2020
aVSOUXJCO12A6D4FA421
p2021
aVSOHQFKA12A67AD9081
p2022
aa(lp2023
VSOUORRD12AB018218F
p2024
aVSOVPBWS12A8C141EF1
p2025
aVSOIXWHH12A8151CB1D
p2026
aa(lp2027
VSOZUNWX12A81C221F3
p2028
aVSOUJIRU12A67AD8E61
p2029
aVSOWYJRH12AB0188DBE
p2030
aVSOFOSUN12A6D4F73D1
p2031
aa(lp2032
VSOKFRHD12AB01861F3
p2033
aVSOPCTHV12A67ADD32E
p2034
aVSOWXBLE12A6D4F8EE8
p2035
aa(lp2036
VSOMJPZT12A6D4FA5F6
p2037
aVSOZYOFO12AB01840F2
p2038
aa(lp2039
VSOCNUVU12AF72AC0BD
p2040
aVSOENRTG12A67020E07
p2041
aa(lp2042
VSOUWWCT12A58A79D9B
p2043
aVSOZTUIS12A8AE46A4D
p2044
aa(lp2045
VSORNOMS12A6D4F6D1B
p2046
aVSOXVLFN12A6D4FA37A
p2047
aa(lp2048
VSONYHRU12A6701D2EC
p2049
aVSOTPBYC12A6310D8C5
p2050
aVSOQJLWB12A6701E7B3
p2051
aa(lp2052
VSOZKLVA12A6D4F6B10
p2053
aVSOBFGLR12A8C13F7F6
p2054
aVSOUQMTU12AB0181653
p2055
aa(lp2056
VSOCTINI12A6D4F94F4
p2057
aVSOLQRCE12A6D4F8381
p2058
aa(lp2059
VSOSAGTQ12A6D4F75B5
p2060
aVSONEYTB12AF72A73F0
p2061
aa(lp2062
VSOINTXZ12AF729FB66
p2063
aVSOCUTVA12A8C1349EF
p2064
aa(lp2065
VSOQYLOK12AB018BDE5
p2066
aVSOGIJGJ12A8C130EB9
p2067
aVSOAQOMZ12A6310D831
p2068
aVSOVSWNN12A6D4F989B
p2069
aa(lp2070
VSOTAZTW12A6D4F88E3
p2071
aVSOAROHZ12A6D4FC845
p2072
aa(lp2073
VSOUXOTG12A8C13D8D0
p2074
aVSOWVZDZ12AB0187456
p2075
aa(lp2076
VSOHRPRB12AB0186D8D
p2077
aVSOTJVBL12A58A7A8A2
p2078
aVSOSRXER12A8AE474BB
p2079
aa(lp2080
VSOVECGN12AB01839F5
p2081
aVSOTRCOA12A8C14057A
p2082
aVSOJFZEE12A6701D301
p2083
aVSOUSJZQ12A6D4F69CB
p2084
aa(lp2085
VSOJZYUB12A67020883
p2086
aVSOXOXEG12AB0186B3D
p2087
aVSOVBVXV12A6D4F8BD8
p2088
aVSOAYETH12A6D4F9126
p2089
aVSOXESYC12A8C135617
p2090
aVSOMOSZV12A6D4F9CF6
p2091
aVSOGXOXR12A6D4F7EE2
p2092
aa(lp2093
VSOTGETW12A8C13B75A
p2094
aVSOWBHAR12A8C14146F
p2095
aa(lp2096
VSOJDJHI12A58291523
p2097
aVSOQXVXQ12A6701D1FD
p2098
aa(lp2099
VSOPDXJZ12A8C135B68
p2100
aVSODYSGJ12A8AE460B0
p2101
aVSONFONJ12A6D4FAD05
p2102
aa(lp2103
VSOWJGWJ12AF72AA6CE
p2104
aVSOQCBHW12D021997C8
p2105
aVSOCQWCC12A8C13F115
p2106
aa(lp2107
VSOZUGIG12AB018356C
p2108
aVSOTPLYF12A8C132381
p2109
aa(lp2110
VSOVGRWP12A6D4F85F8
p2111
aVSODYKLT12A6D4F6D6B
p2112
aa(lp2113
VSOJJUFV12AB01834D1
p2114
aVSOQWXBI12A6701FA49
p2115
aVSOKYBEO12A81C23957
p2116
aa(lp2117
VSOXBEYM12AC4689A64
p2118
aVSOKDPMJ12A8C130578
p2119
aa(lp2120
VSOAENHH12A81C22D54
p2121
aVSOQCNCF12A6D4F81B1
p2122
aa(lp2123
VSONAWRL12A6D4F9688
p2124
aVSOPPHRC12A8AE465C1
p2125
aVSOWKEUN12AF72AB837
p2126
aVSOLSODY12A8C1348AA
p2127
aVSOAINXH12A6D4F66F4
p2128
aVSOKPBAG12A6D4FA2E8
p2129
aVSOILGZL12A8C1413D7
p2130
aVSOAYKMG12AB01803E2
p2131
aa(lp2132
VSOAWOWP12A8C142882
p2133
aVSOIGZQU12A8C14108B
p2134
aa(lp2135
VSOZYJZL12A8C142860
p2136
aVSOADRAL12A6D4F514B
p2137
aa(lp2138
VSORQTCL12A8C142AC0
p2139
aVSOWIDJQ12A8C1317ED
p2140
aa(lp2141
VSOGXQBC12A8C136D69
p2142
aVSOUBDWQ12CF58274F7
p2143
aVSOODRHW12A6310D8FF
p2144
aVSOPYVVX12A58A80D6E
p2145
aa(lp2146
VSOZRWMA12A8C137EA1
p2147
aVSORDXIV12AB0184087
p2148
aVSOBZWPD12A8C131C14
p2149
aVSOOCEKO12A67ADF6D9
p2150
aVSOXKOBC12A8C13F842
p2151
aa(lp2152
VSOINDKN12CF5F87DC3
p2153
aVSOLIYND12A8AE46AC8
p2154
aa(lp2155
VSOADMTV12A6701FA3F
p2156
aVSOLZHRO12A58A77674
p2157
aVSOXBEYM12AC4689A64
p2158
aa(lp2159
VSOYSKHC12CF582738C
p2160
aVSOGOQAT12A8AE46705
p2161
aVSOJJIIZ12AB0183EB4
p2162
aa(lp2163
VSOEXZQB12D021B2493
p2164
aVSODFTHP12A58A7AA9F
p2165
aVSOYCKSX12A8AE460C9
p2166
aVSONFUMA12A8AE47B5A
p2167
aVSOENQMK12A81C212D5
p2168
aVSOXKGUD12A58A7C687
p2169
aa(lp2170
VSOUKJJL12A6D4F7EF2
p2171
aVSORRNNM12A6D4F6E5E
p2172
aVSORVQQJ12A58A7E5DD
p2173
aa(lp2174
VSOBJUIV12AF72A7997
p2175
aVSORJRBR12AB01887EE
p2176
aa(lp2177
VSOINTXZ12AF729FB66
p2178
aVSOBXOYU12AB017EBEA
p2179
aa(lp2180
VSOWFNCJ12A8C133A16
p2181
aVSOBMPAY12A8C145133
p2182
aa(lp2183
VSOFJRQH12A8C137197
p2184
aVSOUFAKI12AB0183888
p2185
aa(lp2186
VSOSPJJW12A6D4FD9B4
p2187
aVSOSJNXC12AB01896A5
p2188
aa(lp2189
VSOHHKAD12A6D4FB647
p2190
aVSOPKXGE12AB0182043
p2191
aa(lp2192
VSOZMNAX12A58A77F88
p2193
aVSOQIQTD12AB0182048
p2194
aa(lp2195
VSOETSVM12A8C1330A9
p2196
aVSOIIMGT12AC3DF84C6
p2197
aa(lp2198
VSOFYAHD12AAF3B1BFA
p2199
aVSOEPXMG12AC3DF713B
p2200
aa(lp2201
VSOLXMNR12AB0181A30
p2202
aVSONBELP12A8C13ACBD
p2203
aa(lp2204
VSOSSVAH12A6D4F9681
p2205
aVSODPOWE12AB018651B
p2206
aVSOZHJKI12A81C2248F
p2207
aa(lp2208
VSOYKCVY12AB0184B71
p2209
aVSOZTJHW12AB0182820
p2210
aa(lp2211
VSOCUQYT12AB01808F2
p2212
aVSOAFTRR12AF72A8D4D
p2213
aVSOXANLW12A8C133DBC
p2214
aa(lp2215
VSOGTCIZ12A6D4F91CB
p2216
aVSOLQYNJ12A6D4F866D
p2217
aa(lp2218
VSOLHOGN12AB0183D1C
p2219
aVSORZVEE12A58A7BB85
p2220
aVSOUBCBU12A58A766FC
p2221
aVSOSYBEV12AB0182933
p2222
aVSOTBOWE12A6D4FB599
p2223
aa(lp2224
VSOTKVYT12A6701EEAD
p2225
aVSOYORGU12A6D4FB868
p2226
aa(lp2227
VSODNLOY12A6D4FB64A
p2228
aVSOEGZYY12A58A8062F
p2229
aa(lp2230
VSOXQDYQ12A6702106A
p2231
aVSOKZEYC12A67ADD4A7
p2232
aa(lp2233
VSOVHFEY12AC468D274
p2234
aVSONKPRA12A8C130ED0
p2235
aVSOUARNN12A6D4F8EE9
p2236
aVSOUQMGU12A6D4F8A52
p2237
aa(lp2238
VSOJWALY12A6D4F66ED
p2239
aVSOTJDBL12A6D4F75E0
p2240
aVSOGWSIO12A8C133A5B
p2241
aa(lp2242
VSOJVFKY12A8C13B9FF
p2243
aVSOQUODP12A8C1384C6
p2244
aa(lp2245
VSONWNUY12A6310DF4C
p2246
aVSODSMUR12A58A77C11
p2247
aa(lp2248
VSOXPSYR12A8AE485F0
p2249
aVSOWEWQW12AB017EEA5
p2250
aVSOLSODY12A8C1348AA
p2251
aVSOCHUVL12A8C13AFFE
p2252
aVSOXVCUB12AF729FAE7
p2253
aVSONIZFH12AB0183924
p2254
aVSODOBDI12A8C1400F2
p2255
aa(lp2256
VSOQMEZR12A8C13D9EB
p2257
aVSOGOWYQ12A8151AACE
p2258
aa(lp2259
VSOLYSTA12A8C13B92F
p2260
aVSODTKMI12A8C1352B0
p2261
aVSOCPQGT12A8C13CE5A
p2262
aa(lp2263
VSOYNEKA12AB0185FE4
p2264
aVSOVKAPY12A6D4FA2FF
p2265
aVSODYJYD12AB01855E3
p2266
aa(lp2267
VSOGOQAT12A8AE46705
p2268
aVSOZSYPY12A6310DF1C
p2269
aa(lp2270
VSOSBHLR12A8C132259
p2271
aVSOLSODY12A8C1348AA
p2272
aa(lp2273
VSOHQOJR12A8C14438F
p2274
aVSOKKFAV12A81C20715
p2275
aVSOGGURL12A8C141C0C
p2276
aVSOXELPB12A8AE46000
p2277
aa(lp2278
VSOITHVX12A6D4F97B7
p2279
aVSOTKDBW12A6D4F761A
p2280
aVSOEGIIP12B0B80AFC4
p2281
aVSOLSODY12A8C1348AA
p2282
aa(lp2283
VSOOXUOE12AB017FB77
p2284
aVSOBRGIZ12A6D4FA021
p2285
aa(lp2286
VSOGVEJN12A6D4F9D83
p2287
aVSOKBMTW12A8C13BC49
p2288
aa(lp2289
VSONNBUM12A6D4FDDB4
p2290
aVSOYSKHC12CF582738C
p2291
aa(lp2292
VSOBPEGX12B0B8095F3
p2293
aVSOZAOOP12A6D4FB50C
p2294
aVSOPIVNU12A6D4FA6EA
p2295
aVSOXYIPS12A8C1325F7
p2296
aVSOINTXZ12AF729FB66
p2297
aVSODLVDX12A6310DF22
p2298
aVSOYHZTQ12AB0184DB1
p2299
aa(lp2300
VSOZBEJW12AB017EF4F
p2301
aVSOCPCNY12AB0183CCD
p2302
aa(lp2303
VSOGANIK12A8C13B73A
p2304
aVSODVNIZ12A6310F24E
p2305
aVSOYTUNS12A8C134C16
p2306
aa(lp2307
VSOVEUQB12A6D4F4928
p2308
aVSOEUPYR12AAF3B2F05
p2309
aVSOKQBDZ12AB018019D
p2310
aa(lp2311
VSODOVQW12A8C13536C
p2312
aVSOUFOBC12AB0185331
p2313
aa(lp2314
VSONJBQX12A6D4F8382
p2315
aVSOVXTLM12A6D4F9F6A
p2316
aa(lp2317
VSOUBKFT12A6701F07A
p2318
aVSOUJOMF12A8C134964
p2319
aa(lp2320
VSOGQUIN12A6701F2C4
p2321
aVSOAVZDO12A8AE47FE2
p2322
aVSOAOGDM12AB01831F3
p2323
aVSOVPBLT12A6D4F5113
p2324
aa(lp2325
VSODFZCW12A8151B84B
p2326
aVSOPOFBW12AB0187196
p2327
aVSONJBQX12A6D4F8382
p2328
aa(lp2329
VSOAKMDU12A8C1346A9
p2330
aVSOSVWSI12A6D4F6D3D
p2331
aa(lp2332
VSOZCITS12A8C13C65D
p2333
aVSOQDWQN12A6310DF29
p2334
aVSOXOKSH12A8C13BAC6
p2335
aa(lp2336
VSOITHVX12A6D4F97B7
p2337
aVSOLQDJI12A8C145A85
p2338
aa(lp2339
VSOTFABB12AF72A7ACE
p2340
aVSOOJUZY12A6D4F5816
p2341
aVSORAYTU12A58A7C439
p2342
aa(lp2343
VSODDYLO12A8C134AF3
p2344
aVSOVOPBR12A6D4F9590
p2345
aVSOTBCQW12AB018E1C5
p2346
aa(lp2347
VSOQNXBA12A8C143B11
p2348
aVSOVHFEY12AC468D274
p2349
aVSONKPRA12A8C130ED0
p2350
aa(lp2351
VSOLXMNR12AB0181A30
p2352
aVSOICAZH12A6D4F9864
p2353
aVSOOTNOG12A8C13AB78
p2354
aa(lp2355
VSOHCQVM12A8AE49226
p2356
aVSOTDTOK12A6310EF6E
p2357
aa(lp2358
VSOHNYNL12A6D4FA020
p2359
aVSOINLOY12AB0182891
p2360
aa(lp2361
VSOTNSKV12A6D4FA323
p2362
aVSOBFLWB12A6D4FB67C
p2363
aa(lp2364
VSOPUSNZ12A6D4F9684
p2365
aVSOAVOUK12A8AE47504
p2366
aVSOHNOOC12A8C13BF35
p2367
aa(lp2368
VSOEPDZY12A6D4F72DD
p2369
aVSOKTLWI12AC3DF8512
p2370
aVSOINKVP12A8C13BF5D
p2371
aVSOWKEUN12AF72AB837
p2372
aa(lp2373
VSOHJRGO12A58A79584
p2374
aVSOHAGXN12A8C13D1A7
p2375
aVSOSKJVW12AB0187708
p2376
aVSOPGIIA12AAFF4413A
p2377
aa(lp2378
VSOARHMY12A6701F63E
p2379
aVSOAFTRR12AF72A8D4D
p2380
aVSOXSMGP12A6310DFA6
p2381
aVSOAGPYL12A67AE0ED1
p2382
aVSOTKGOA12A6D4F88B1
p2383
aVSOBEHYF12A67ADD885
p2384
aVSOWGQHG12A58A78688
p2385
aa(lp2386
VSOXXIUP12A8C13B8E9
p2387
aVSOGAQMK12A6D4FB432
p2388
aa(lp2389
VSOHQOJR12A8C14438F
p2390
aVSOUFOBC12AB0185331
p2391
aa(lp2392
VSOTWUTC12A8C13C3C3
p2393
aVSOGMYBJ12A67ADF378
p2394
aa(lp2395
VSOVLFUZ12A8C137962
p2396
aVSOUZOOP12A8C135077
p2397
aa(lp2398
VSONMOOB12A6D4F80A1
p2399
aVSOGQDCI12A8C13C3EA
p2400
aa(lp2401
VSOWXZLT12A8C141E3C
p2402
aVSOZFFMZ12A8C141E52
p2403
aa(lp2404
VSOMNFVX12A6701DAFF
p2405
aVSOWLOQV12A8C13F571
p2406
aVSOVJEMI12A6D4F88B0
p2407
aVSOYWUJJ12A6701F3D3
p2408
aa(lp2409
VSOTEZJI12A8C13FF9E
p2410
aVSOIMDZO12AB0180F6E
p2411
aVSOGCRXA12A6310D996
p2412
aa(lp2413
VSOWMRFX12A6D4F7449
p2414
aVSOHMUPK12A8AE49D27
p2415
aa(lp2416
VSOPQLYV12A6D4F797D
p2417
aVSOOICVZ12AB017D6D0
p2418
aVSOOVPEM12AB017CC1F
p2419
aa(lp2420
VSONCIHL12AB017D06C
p2421
aVSOMUCFP12A6701F28E
p2422
aVSOHWBBJ12A8C137EAC
p2423
aVSOPOGHW12A58A7ABE0
p2424
aVSOPZBBG12A8C131BDE
p2425
aVSOGQUIN12A6701F2C4
p2426
aVSOGBSEU12B0B80BCC3
p2427
aa(lp2428
VSOEFCWH12AB018CDD9
p2429
aVSOPWGRT12A8C133B4D
p2430
aa(lp2431
VSOKCGID12A6D4FC599
p2432
aVSOWEWRL12A58A7961F
p2433
aa(lp2434
VSOAZOYN12A6701EEF2
p2435
aVSOKXLRG12A8C13AC3A
p2436
aVSOTGETW12A8C13B75A
p2437
aVSOGPYAQ12A8C132293
p2438
aa(lp2439
VSOVFYIO12A8AE479A9
p2440
aVSOILOVX12A58A7BBFE
p2441
aa(lp2442
VSOJCDEO12A6D4F6D73
p2443
aVSOMVUKM12AB01876E1
p2444
aa(lp2445
VSOXGDOO12A6D4F9748
p2446
aVSOSKCLB12D0219911B
p2447
aVSOKXLRG12A8C13AC3A
p2448
aVSOILOVX12A58A7BBFE
p2449
aVSONNBUM12A6D4FDDB4
p2450
aa(lp2451
VSOYCXSH12AB0182AE5
p2452
aVSOBQLWO12A8AE48212
p2453
aVSOVEUQB12A6D4F4928
p2454
aVSODLWYP12A6701E0AE
p2455
aVSOKQBDZ12AB018019D
p2456
aa(lp2457
VSOMKIKJ12A8C13D03A
p2458
aVSOEGZHJ12A8C1443E0
p2459
aa(lp2460
VSOFAGDP12A8C13D138
p2461
aVSOZZYAO12A6701FF36
p2462
aa(lp2463
VSOEMWSV12AB0188156
p2464
aVSOBPQBI12A8C143600
p2465
aVSOLJFRS12A8C13AB88
p2466
aVSOYNXXZ12A6D4F4115
p2467
aa(lp2468
VSOHHJYE12A8AE47599
p2469
aVSOCFIUI12A81C23E48
p2470
aVSOUTQYD12A6D4F50FE
p2471
aa(lp2472
VSOVVCON12A6D4F775F
p2473
aVSOGCQNN12A6701DB12
p2474
aa(lp2475
VSOMUXVE12A6D4F6EAB
p2476
aVSORTGEB12AF729E251
p2477
aVSOVEUQB12A6D4F4928
p2478
aVSOQNXBA12A8C143B11
p2479
aVSOUDGRV12A8C1309E1
p2480
aVSONIZFH12AB0183924
p2481
aa(lp2482
VSOHPTDX12AB01892DF
p2483
aVSOLQDJI12A8C145A85
p2484
aVSONZVVM12A6D4FA2FC
p2485
aa(lp2486
VSOMYDVM12A6D4F7935
p2487
aVSOMFDZY12A6D4F8191
p2488
aa(lp2489
VSOJMAEV12AC3DF7EC3
p2490
aVSOLJRTK12A6310F256
p2491
aa(lp2492
VSOXJZGQ12A8C131A4B
p2493
aVSOQKCKK12A8C13CDB6
p2494
aa(lp2495
VSOQPYGG12AF72A296B
p2496
aVSOQFERN12A8AE47FD0
p2497
aVSOJWGEO12A6701DE8B
p2498
aVSORPYUK12AB0181E09
p2499
aa(lp2500
VSOHYUEB12AAF3B2909
p2501
aVSOKFGKS12A6701C506
p2502
aVSOYGGNV12A8C132F0D
p2503
aa(lp2504
VSOWJRIQ12AB017C5D2
p2505
aVSOFSSHI12AB0180C72
p2506
aa(lp2507
VSODKTNH12A6701E0D2
p2508
aVSOMZYJG12A8C14138C
p2509
aVSOVHFEY12AC468D274
p2510
aa(lp2511
VSOWAJLN12A8C130ECC
p2512
aVSORAYTU12A58A7C439
p2513
aVSOPDHKO12A6D4F7765
p2514
aa(lp2515
VSOWCEQC12AF72A2B64
p2516
aVSOOJTZC12AC9DCC419
p2517
aVSOOJUZY12A6D4F5816
p2518
aVSOHHJYE12A8AE47599
p2519
aa(lp2520
VSOGCQNN12A6701DB12
p2521
aVSOUBYCC12A8AE463A2
p2522
aa(lp2523
VSOHANIM12AB017CB6A
p2524
aVSOXDLUF12AC4687779
p2525
aa(lp2526
VSONUAZM12A58A7B617
p2527
aVSOYRYII12AF72A1B4F
p2528
aa(lp2529
VSOKHZPE12A8C14392F
p2530
aVSOHRGZX12AB0182E6F
p2531
aa(lp2532
VSOVYVPA12CF5F87B4A
p2533
aVSOHTUXB12AC46853BA
p2534
aa(lp2535
VSOHYXSV12A8C13AE01
p2536
aVSOPAOYJ12A81C23E41
p2537
aVSONNBER12A58A78A36
p2538
aVSOCKEOB12A8AE485D2
p2539
aa(lp2540
VSOQUNZR12AB0183547
p2541
aVSOSVEFP12AB0183709
p2542
aa(lp2543
VSOULJJZ12A6D4FC8BA
p2544
aVSOCIADC12A6D4FB04A
p2545
aVSOUEFIO12A6701FAA5
p2546
aa(lp2547
VSOZRIJO12AB017DAC0
p2548
aVSOUSOQS12A8C134268
p2549
aVSORERYB12A67ADE75B
p2550
aa(lp2551
VSOIWBJU12A6701CBE7
p2552
aVSODUFUJ12A6D4F7015
p2553
aVSONGIXY12A58A7BB42
p2554
aVSOEWYLX12A6D4F8E5F
p2555
aVSOKWULH12AF72AAF46
p2556
aa(lp2557
VSOAJORS12A58A7A9FB
p2558
aVSOSAGTQ12A6D4F75B5
p2559
aVSOMZWBQ12AB0183AC5
p2560
aa(lp2561
VSOUIWJT12A67ADD32F
p2562
aVSOJYROH12A6701EF0D
p2563
aa(lp2564
VSOAYHUV12A8C136AF2
p2565
aVSODHPIY12A8BED7487
p2566
aa(lp2567
VSOEHUYO12A8C13C9E0
p2568
aVSORKUVN12A81C22C70
p2569
aa(lp2570
VSOFRBUK12A67AD80D7
p2571
aVSOMGURG12AB017DBE1
p2572
aVSOJVQGU12A67ADD4EF
p2573
aVSOHKZQD12A81C204E0
p2574
aVSOGFRUV12AC95F077A
p2575
aa(lp2576
VSOCVERS12A8C136ABF
p2577
aVSOITHVX12A6D4F97B7
p2578
aVSONNBUM12A6D4FDDB4
p2579
aa(lp2580
VSOCMIPA12A6310E961
p2581
aVSOJPLEN12A8C13ED05
p2582
aa(lp2583
VSOIOCFQ12AB0184D6D
p2584
aVSODSDZM12A58A7E16C
p2585
aa(lp2586
VSOAACVH12AB017EB86
p2587
aVSOCFRJC12A8C13D52E
p2588
aa(lp2589
VSOUZANW12AB0187651
p2590
aVSOAUYJI12AB0182E8F
p2591
aa(lp2592
VSOMTMBH12A8AE47A19
p2593
aVSOAXGBS12A6310E17A
p2594
aa(lp2595
VSOYZYGZ12A8C137A6F
p2596
aVSOAJYSF12A6701D300
p2597
aVSOVBCKQ12A6D4FBAC9
p2598
aa(lp2599
VSOUYXAB12A6702036D
p2600
aVSOPTTOX12A6310E279
p2601
aa(lp2602
VSODLVDX12A6310DF22
p2603
aVSOYKECU12A6D4FB67A
p2604
aVSOEGZHJ12A8C1443E0
p2605
aa(lp2606
VSOSCVMZ12A8C14392B
p2607
aVSOFFIWB12AB01864A9
p2608
aVSODZYOU12A8C13496D
p2609
aVSOPVXJB12A6D4F47A1
p2610
aa(lp2611
VSOXGVDX12A6D4FCADC
p2612
aVSOJYEFL12AB018338C
p2613
aVSOVDGST12A6D4FD360
p2614
aa(lp2615
VSOIVNGD12A8AE48043
p2616
aVSODCEXF12A8C135F42
p2617
aa(lp2618
VSOCGVNZ12A8C13FDDA
p2619
aVSOWWUHJ12A6D4F841F
p2620
aa(lp2621
VSOYRFBS12A8C12FF0F
p2622
aVSOCJWPI12A8C13D357
p2623
aVSOQDBBA12A81C20773
p2624
aVSOECQFZ12AB017EDA3
p2625
aa(lp2626
VSOZZROE12A6D4FA698
p2627
aVSOINQNL12A8C13ADD1
p2628
aVSOSADLU12A6701FB69
p2629
aa(lp2630
VSOLKCDW12A8C133A38
p2631
aVSOGPYAQ12A8C132293
p2632
aVSOGWDFG12A8AE47D4F
p2633
aa(lp2634
VSOMYBJD12A8C13C852
p2635
aVSORZXVR12A8C146CBF
p2636
aa(lp2637
VSORUJXY12AB017F3A3
p2638
aVSOEMSPX12AB0189103
p2639
aa(lp2640
VSONERJR12A6D4F6228
p2641
aVSOCNPOI12A67AD85DF
p2642
aa(lp2643
VSOECPKB12A8C145F76
p2644
aVSOYLVLF12A6D4FB650
p2645
aa(lp2646
VSOOEYAC12AB0185C2D
p2647
aVSOEFZEX12AB0187677
p2648
aVSOEIHTT12AC468C841
p2649
aa(lp2650
VSOWNALB12A58A7932C
p2651
aVSOMLAVM12A8C1321B4
p2652
aa(lp2653
VSORECWY12AB0184366
p2654
aVSOZJWDN12A8151B851
p2655
aVSOQCMSJ12A6D4FA320
p2656
aa(lp2657
VSOCTCRL12AB0184BDB
p2658
aVSOECQFZ12AB017EDA3
p2659
aa(lp2660
VSONBAWH12A8AE49D51
p2661
aVSOBURSY12AB017C07E
p2662
aVSOBLYHF12AB018A396
p2663
aa(lp2664
VSOUQULK12A6D4FA76B
p2665
aVSOCAFTJ12AF72A17B6
p2666
aa(lp2667
VSOGDATI12A8C13B8BA
p2668
aVSOOHIJO12A8C13A2E9
p2669
aVSOULDME12AB01887C6
p2670
aa(lp2671
VSOLFFBD12AB017D031
p2672
aVSOLXFNY12AAA15E7D1
p2673
aa(lp2674
VSORJWIK12AB0181419
p2675
aVSOHIOWK12A67AE1317
p2676
aVSOCEEQV12A58A79861
p2677
aVSORHXGO12A58A7B541
p2678
aa(lp2679
VSOUFOBC12AB0185331
p2680
aVSOBXNUD12A6D4F851C
p2681
aVSOVEUQB12A6D4F4928
p2682
aVSOUTQYD12A6D4F50FE
p2683
aa(lp2684
VSOBQLWO12A8AE48212
p2685
aVSOKHZPE12A8C14392F
p2686
aa(lp2687
VSONNBUM12A6D4FDDB4
p2688
aVSOUVXAE12AF72A2D56
p2689
aVSOCVERS12A8C136ABF
p2690
aa(lp2691
VSOYPWKK12A8C136494
p2692
aVSOAOPCG12AC468D27E
p2693
aVSOVQCCR12A58A7A481
p2694
aa(lp2695
VSOTQXPS12AB0184341
p2696
aVSOMHMHL12AF729DD44
p2697
aa(lp2698
VSOYZQRY12A6702030F
p2699
aVSOWWPGF12A6D4F841F
p2700
aVSOLGFXC12A8C140A37
p2701
aa(lp2702
VSORQJVE12AB018184F
p2703
aVSOVBHPX12A67ADA2A6
p2704
aa(lp2705
VSOSKELC12AC3DF60C5
p2706
aVSOUTQYD12A6D4F50FE
p2707
aVSOWCEQC12AF72A2B64
p2708
aVSOONYSQ12A8AE46098
p2709
aVSOQNXBA12A8C143B11
p2710
aVSOKJKGL12A58A7AE0D
p2711
aVSOQCYFG12A8AE48BE7
p2712
aVSOVVYBK12A8C13BEC6
p2713
aa(lp2714
VSOAFTRR12AF72A8D4D
p2715
aVSOWWPGF12A6D4F841F
p2716
aVSOXYIPS12A8C1325F7
p2717
aVSODYJYD12AB01855E3
p2718
aa(lp2719
VSONQDDJ12A8C13AA67
p2720
aVSOTTWJP12A8C13D6BE
p2721
aVSOAGYNF12AB0187EEE
p2722
aa(lp2723
VSORFVGD12A58A79EBF
p2724
aVSOTTSMK12A6D4F8AD1
p2725
aVSOTWUUV12A8C137C5E
p2726
aa(lp2727
VSOAZKAS12AB0189B95
p2728
aVSOXEXNN12A6D4FAE71
p2729
aa(lp2730
VSOAYLRC12A8C138C32
p2731
aVSOBWWUF12A8C13AC82
p2732
aa(lp2733
VSOEAQRZ12AB0180BDF
p2734
aVSOBYETE12A8C13B984
p2735
aa(lp2736
VSOLMZMB12A6D4F8A11
p2737
aVSONQYGL128F9C2D337
p2738
aVSOOJRVW12A8C13F8F1
p2739
aVSOYWBPL12B0B80BD74
p2740
aa(lp2741
VSOWSXCI12A67020171
p2742
aVSORDKQF12A8C13D407
p2743
aa(lp2744
VSOENAVX12A6D4FB5B4
p2745
aVSOVIWYL12A6D4FB414
p2746
aa(lp2747
VSODLAFT12AB01883BA
p2748
aVSOGQTXZ12AB018323A
p2749
aVSOUILNG12AB01838CB
p2750
aa(lp2751
VSOVEKRV12AB01861B6
p2752
aVSOKXLTD12AB0183679
p2753
aa(lp2754
VSOLQDJI12A8C145A85
p2755
aVSOWXLDX12A6D4FBA17
p2756
aVSOSTVPU12AB01864AC
p2757
aa(lp2758
VSOFIXJA12AB0183487
p2759
aVSODOWQF12A81C2371B
p2760
aVSODWVYV12AC468B2DA
p2761
aa(lp2762
VSOOLPFK12A58A7BDE3
p2763
aVSOSOXJK12A8AE47120
p2764
aa(lp2765
VSOCSKDY12A6D4FBD96
p2766
aVSOJMBXY12AB0180D9B
p2767
aa(lp2768
VSOOZLUI12A6310E9E7
p2769
aVSOWEWRL12A58A7961F
p2770
aa(lp2771
VSOSSPNL12AB018289B
p2772
aVSOHKILQ12A8C13E841
p2773
aVSOTRBNH12A8C1437CA
p2774
aa(lp2775
VSOWFVXZ12AB017BB60
p2776
aVSOIWMDS12AB017E8D2
p2777
aVSOWFNCJ12A8C133A16
p2778
aa(lp2779
VSOWCABM12A67AE24A1
p2780
aVSOQLLQI12A8C137FF2
p2781
aa(lp2782
VSOBXWRK12A6D4F77BA
p2783
aVSOWFPPG12AB018884F
p2784
aa(lp2785
VSOFFLWA12A81C237DA
p2786
aVSOAUFFO12A670214BA
p2787
aa(lp2788
VSOOKLWU12A6D4FA2D0
p2789
aVSOTPFVN12AB01896BF
p2790
aVSOVJBFJ12A67ADBD63
p2791
aa(lp2792
VSOYRSLT12A67ADA69D
p2793
aVSOUQRYX12AF72A45AF
p2794
aVSOWNALB12A58A7932C
p2795
aa(lp2796
VSOEFTKF12A6D4F4F80
p2797
aVSOCMQFQ12A81C2098C
p2798
aVSOUEOFS12A6D4F4F88
p2799
aa(lp2800
VSOETDKA12AB0186BF0
p2801
aVSOKMGYC12A6D4F4F82
p2802
aVSOQZYEO12A6D4F9E9D
p2803
aVSOFNMFX12A58A7C383
p2804
aa(lp2805
VSOKHZPE12A8C14392F
p2806
aVSOBBCWD12A6D4F7BE1
p2807
aVSORMISM12A8C13FEA9
p2808
aVSOCRWBN12AB0182B64
p2809
aVSOEFZEX12AB0187677
p2810
aa(lp2811
VSODYBTP12AB0188C0F
p2812
aVSOZJKIH12A8C13C9A7
p2813
aa(lp2814
VSOTOMTG12A67020378
p2815
aVSOAQNPP12A8C13EBF6
p2816
aa(lp2817
VSOPUARH12AB0180E23
p2818
aVSOIWBJU12A6701CBE7
p2819
aVSOALROV12A6D4F91F9
p2820
aa(lp2821
VSORZOXP12CF582754C
p2822
aVSOIAVJR12A8C13FFE0
p2823
aVSODWZZQ12A6D4FA7B7
p2824
aVSOJTZDM12A8C13CA6A
p2825
aVSOHYTHX12A8C13E04E
p2826
aVSOTIQSF12A8C140A31
p2827
aa(lp2828
VSOCXWEN12AC46896E5
p2829
aVSOWIHNA12AC9097704
p2830
aa(lp2831
VSOLXMNR12AB0181A30
p2832
aVSOQXVYT12AB017AE94
p2833
aa(lp2834
VSOBRGIZ12A6D4FA021
p2835
aVSOOJBJI12AB0189024
p2836
aVSOQJLWB12A6701E7B3
p2837
aVSOYPEIB12AB017D91F
p2838
aVSOKTXEZ12A6310D7C5
p2839
aa(lp2840
VSODLVDX12A6310DF22
p2841
aVSOEIQDH12A58A7684A
p2842
aVSOUXFQE12AB018A751
p2843
aVSORUZKY12AAF3B22A3
p2844
aVSOSEJSI12AB0184F55
p2845
aa(lp2846
VSOUPGOL12B0B809F10
p2847
aVSORJRBR12AB01887EE
p2848
aVSOEITFB12AB017BD6F
p2849
aVSOSWMIC12AB0185604
p2850
aVSOZUGIG12AB018356C
p2851
aa(lp2852
VSOWLDWW12A6D4F6D6F
p2853
aVSOVNGWS12A58A7C0D9
p2854
aa(lp2855
VSOYYOKM12A8C13BD07
p2856
aVSOZQDXM12A8C1402C2
p2857
aVSOIDPRL12AB017EC07
p2858
aa(lp2859
VSOSJNDX12AB017E7CD
p2860
aVSOPEIBO12AB018D524
p2861
aa(lp2862
VSOEGZHJ12A8C1443E0
p2863
aVSOSRXER12A8AE474BB
p2864
aa(lp2865
VSOXJQNR12A8C13B385
p2866
aVSOVEYSU12A6D4F88F8
p2867
aa(lp2868
VSOPMUZX12AC3DF5B21
p2869
aVSOREXLG12AB0185623
p2870
aa(lp2871
VSODLWYP12A6701E0AE
p2872
aVSOKQBDZ12AB018019D
p2873
aVSOGVEJN12A6D4F9D83
p2874
aa(lp2875
VSOZGASJ12A670214A3
p2876
aVSOBXUKX12A6D4FA85D
p2877
aVSOCEVGD12A679D7E8B
p2878
aVSOMVUKM12AB01876E1
p2879
aa(lp2880
VSOKHZPE12A8C14392F
p2881
aVSOLJTDG12A6701DEA2
p2882
aVSOZEVSX12AC3DFA012
p2883
aa(lp2884
VSOLLEGI12AB0183296
p2885
aVSOEEMBX12A8C13E821
p2886
aVSOQZQZU12A67020FAF
p2887
aVSOTRBNH12A8C1437CA
p2888
aVSOGDQKV12AB0188177
p2889
aVSOCUNLS12A67ADF93D
p2890
aVSONIGKY12A8C145175
p2891
aa(lp2892
VSOHMIFL12AB0181184
p2893
aVSOCMIPA12A6310E961
p2894
aVSOGLVBV12A8C1425D5
p2895
aa(lp2896
VSOFNXPL12A6D4FABD6
p2897
aVSOFDDTQ12AB0181C0B
p2898
aa(lp2899
VSOLSODY12A8C1348AA
p2900
aVSOSMSEU12AB0186D4E
p2901
aVSOWQJUV12A6701FA45
p2902
aa(lp2903
VSOALVHV12AB01818DC
p2904
aVSOOXXXS12A8C139AC9
p2905
aa(lp2906
VSOIXXYB12A8C139206
p2907
aVSOOOHGK12A6D4FC2D3
p2908
aa(lp2909
VSOFFWZZ12A6D4F66F0
p2910
aVSOINTXZ12AF729FB66
p2911
aa(lp2912
VSOHQOJR12A8C14438F
p2913
aVSOJQVPT12A6D4F7CD6
p2914
aa(lp2915
VSODHZSM12A58A7B5D9
p2916
aVSOYTSLR12A6D4F94DC
p2917
aVSOGKTSK12A6D4FA1E3
p2918
aa(lp2919
VSOWUBXC12A8C132682
p2920
aVSOBJALT12A6D4F71E3
p2921
aa(lp2922
VSOJJYOD12A8C134256
p2923
aVSORAQHM12A8C13A2CC
p2924
aVSOWEBRO12A8C13CEAB
p2925
aVSOVOUAW12A6D4F88AD
p2926
aa(lp2927
VSOEWYLX12A6D4F8E5F
p2928
aVSOPVXJB12A6D4F47A1
p2929
aVSOGEXJR12AB017E993
p2930
aVSOTHHRB12AC3DF7141
p2931
aa(lp2932
VSOFYAHD12AAF3B1BFA
p2933
aVSOSNCKC12A6D4F7150
p2934
aVSOVJNYR12AAF3B3E5F
p2935
aVSORAVOL12A6D4F592E
p2936
aVSOWHTFY12A6702184E
p2937
aa(lp2938
VSOZRJWA12AF729EC47
p2939
aVSOQDVUC12A67ADF7ED
p2940
aa(lp2941
VSOSKKUE12AB0180108
p2942
aVSOOCEKO12A67ADF6D9
p2943
aVSOJMBXY12AB0180D9B
p2944
aa(lp2945
VSODYJYD12AB01855E3
p2946
aVSOSZPDX12A6701FA47
p2947
aVSOTELBF12A6701FA4A
p2948
aVSOWHSBW127D977CFA2
p2949
aVSOXKOBC12A8C13F842
p2950
aVSOFSCOR12A6701D193
p2951
aa(lp2952
VSOPDYOH12A67020ACF
p2953
aVSOSWKJK12A6BD4FE31
p2954
aa(lp2955
VSOZYNNT12A81C22E0F
p2956
aVSOKWULH12AF72AAF46
p2957
aa(lp2958
VSOQXGDO12D021B22AC
p2959
aVSOZGZOC12AF729CEC1
p2960
aa(lp2961
VSOTITQM12AF72A1C5D
p2962
aVSOCCMZA12A6D4F88BF
p2963
aa(lp2964
VSOWBLSJ12A8C13AC01
p2965
aVSOEWVDH12A67AD94D0
p2966
aa(lp2967
VSOPVXJB12A6D4F47A1
p2968
aVSOJJOSJ12A6D4F6ECA
p2969
aVSOCQFTJ12A8C13BC63
p2970
aVSOYOGCH12A6701F708
p2971
aa(lp2972
VSOSEURN12A58A7B187
p2973
aVSOLMGQF12AB017B8C1
p2974
aVSOPKTJF12A6310F24A
p2975
aa(lp2976
VSONECEI12A58A77C4E
p2977
aVSOWIFYE12A8C143B85
p2978
aa(lp2979
VSOBJIUB12A58A7C552
p2980
aVSOVBSON12AC3DF92DC
p2981
aa(lp2982
VSOVUJDO12A8C139155
p2983
aVSODNQHW12A8AE47F91
p2984
aVSOWDFNK12A8C132658
p2985
aVSOBTBBK12AB0187917
p2986
aVSORIEJQ12AC468F0E3
p2987
aa(lp2988
VSORAVOL12A6D4F592E
p2989
aVSOQXWAX12AB0180355
p2990
aa(lp2991
VSOUDQKF12A6BD53715
p2992
aVSOINTXZ12AF729FB66
p2993
aa(lp2994
VSOITHVX12A6D4F97B7
p2995
aVSOVSWNN12A6D4F989B
p2996
aa(lp2997
VSOOINJS12A8C13CCCD
p2998
aVSOSRXER12A8AE474BB
p2999
aa(lp3000
VSOPTFRS12AB0183370
p3001
aVSODKVFX12A8C13A1FD
p3002
aa(lp3003
VSOFPQSC12A58A7B165
p3004
aVSODJWNB12A8AE45C22
p3005
aa(lp3006
VSOVOWMF12AF72A3369
p3007
aVSONPBDW12A8AE48A03
p3008
aVSOROVGA12AF72A3E23
p3009
aVSOKWOUK12D02199979
p3010
aa(lp3011
VSOSYMNT12A6310F24C
p3012
aVSOFMREE12A8C13BAE9
p3013
aa(lp3014
VSODALMO12A6310E8CE
p3015
aVSOCQFPV12A8C13BACD
p3016
aa(lp3017
VSOBIKPR12A6D4FAF1E
p3018
aVSOEEBVK12AB017E4F1
p3019
aa(lp3020
VSOIYDCP12A67AE1D16
p3021
aVSOLCRVA12AB018380C
p3022
aa(lp3023
VSOQTGDO12AB0188C24
p3024
aVSOLYJVR12A6701F6F7
p3025
aVSOVOPBR12A6D4F9590
p3026
aa(lp3027
VSOCANFS12B0B80C758
p3028
aVSOEXBQF12A8C133A5E
p3029
aVSONHCZL12AF729E50C
p3030
aa(lp3031
VSOENSUH12A67ADC877
p3032
aVSOIABPS12A6D4F69DA
p3033
aVSOIZZCU12A6D4FA700
p3034
aVSOFCBJH12A6D4F94E5
p3035
aVSOGYSLY12A67ADE65E
p3036
aa(lp3037
VSOJCDEO12A6D4F6D73
p3038
aVSOWEWRL12A58A7961F
p3039
aa(lp3040
VSOWQJUV12A6701FA45
p3041
aVSOVRMXY12A8C131A42
p3042
aVSOJMUHV12A8C13BCDD
p3043
aVSOLSODY12A8C1348AA
p3044
aVSONSDOI12CF5F89029
p3045
aa(lp3046
VSOROXHZ12A8151D350
p3047
aVSOJKGZW12A6D4F66EE
p3048
aVSOEGQWM12A6D4F48A8
p3049
aVSOIQHPL12A6701F061
p3050
aVSOVQCCR12A58A7A481
p3051
aa(lp3052
VSOCJCVE12A8C13CDDB
p3053
aVSOMOLIZ12A6310EC70
p3054
aVSOBXIIX12A6D4FA32F
p3055
aVSOJXOEH12A8C13ABB5
p3056
aa(lp3057
VSOVFQFD12A8C13791E
p3058
aVSOOLJJP12AB017AE27
p3059
aa(lp3060
VSOBQLWO12A8AE48212
p3061
aVSOITHVX12A6D4F97B7
p3062
aa(lp3063
VSOOLJJP12AB017AE27
p3064
aVSOLJWFX12A58A79FB3
p3065
aVSOHXJDG12A6D4FA33F
p3066
aVSOCNWPX12A6D4FA348
p3067
aVSOOGLIK12AB0180A3C
p3068
aVSOUAXVX12AB017A07F
p3069
aa(lp3070
VSOVHGVX12AB0183618
p3071
aVSOCJEFW12AB0183626
p3072
aa(lp3073
VSOKPBAG12A6D4FA2E8
p3074
aVSOYIQNZ12AB01830CE
p3075
aa(lp3076
VSOLQPHE12A8C13F4CB
p3077
aVSOULJSK12A58A7B674
p3078
aa(lp3079
VSOTWQVL12A6D4F6F36
p3080
aVSOGATGD12A8C142D58
p3081
aVSOEVYAN12A8C140133
p3082
aa(lp3083
VSOWYVKL12A8C13F6AD
p3084
aVSOUDJTG12A67021853
p3085
aVSOMFMMV12A8C1330C1
p3086
aVSOHHJMB12AB0183C39
p3087
aa(lp3088
VSOPNZBU12A8C13E2A4
p3089
aVSOPWFDL12A67AD8F0D
p3090
aVSOYAKIB12A81C23202
p3091
aa(lp3092
VSODUQFK12AB018EB80
p3093
aVSOIDEJQ12AB01888CD
p3094
aVSOOMTET12CF5CFC381
p3095
aa(lp3096
VSOTYOZM12A6D4F915D
p3097
aVSOHRJBB12AB018848C
p3098
aa(lp3099
VSOTGGKE12A6BD55CAF
p3100
aVSODXFKK12A8C13B9FB
p3101
aa(lp3102
VSOLAWJU12AB017F78F
p3103
aVSOHNYNL12A6D4FA020
p3104
aa(lp3105
VSOTFIZR12A8151CD78
p3106
aVSOTENEO12A6701F28F
p3107
aVSODADNL12AB0185DA9
p3108
aVSOJHIYJ12AB018BCAC
p3109
aa(lp3110
VSOEEBVK12AB017E4F1
p3111
aVSOALIEL12A8C13CD2C
p3112
aa(lp3113
VSOURZRM12A6D4F8882
p3114
aVSOJGMOG12A8C13A0F8
p3115
aa(lp3116
VSOQGYHF12AB0180D59
p3117
aVSODUHAW12A58A771D0
p3118
aa(lp3119
VSOHGJXA12AB0182D7F
p3120
aVSOWRUTR12AB01860BE
p3121
aa(lp3122
VSOGCRXA12A6310D996
p3123
aVSOYCFXA12A8AE484CF
p3124
aVSOWXZBQ12A6701D997
p3125
aa(lp3126
VSOQHKTB12A6D4F2981
p3127
aVSOIATIA12A8C13BCC1
p3128
aa(lp3129
VSOBNPLZ12A81C2394C
p3130
aVSOATSGC12AB018739B
p3131
aa(lp3132
VSOJABWL12A6701F12B
p3133
aVSOZECSK12AB017F590
p3134
aVSOPRTWZ12AB017D664
p3135
aa(lp3136
VSONXIIW12AF72A5D85
p3137
aVSOOPRQI12A8C135DF9
p3138
aVSOFHCPM12AB018B6B5
p3139
aVSOIYXAD12A6D4F807A
p3140
aVSOENPOI12A6D4FA2EC
p3141
aVSOJNFWQ12AB0183445
p3142
aVSOMMYOY12A6D4F6D46
p3143
aa(lp3144
VSOIKTRP12A81C219C9
p3145
aVSOYVPTR12AF72A28BA
p3146
aVSOEDKNE12AC46899B5
p3147
aVSONBGOT12A6701DC53
p3148
aVSONEQFJ12A58A7C55A
p3149
aVSOTTMUL12CF5827339
p3150
aVSOHEOHS12AC9DCF572
p3151
aVSOVDJIU12AB018B447
p3152
aVSOHRRSU12AB017EE85
p3153
aVSOJNQNN12A6D4FA2F6
p3154
aVSOMEEEW12AC468DEF4
p3155
aa(lp3156
VSODFTWB12AF72AD839
p3157
aVSOHFLHO12A8C135E05
p3158
aa(lp3159
VSODXFKK12A8C13B9FB
p3160
aVSONBOUL12A6D4F85FF
p3161
aa(lp3162
VSOJWQUJ12AB017D326
p3163
aVSOSTVPU12AB01864AC
p3164
aa(lp3165
VSOWWAUI12A6D4FB4F5
p3166
aVSOLFNIX12AB018284F
p3167
aVSOBXOYU12AB017EBEA
p3168
aa(lp3169
VSOSHYRW12A8AE47BD6
p3170
aVSODMASJ12AF729E6FA
p3171
aVSOJMXIM12A6D4FB4FC
p3172
aVSODLOFG12AB0184FD9
p3173
aa(lp3174
VSOJDMXM12A6701EEEF
p3175
aVSOLDXGX12AB017D53A
p3176
aa(lp3177
VSOROZPS12AC4688C7D
p3178
aVSOJTUSH12A8C1393A4
p3179
aa(lp3180
VSOONYSQ12A8AE46098
p3181
aVSOGVKOR12A6D4FB67D
p3182
aVSOEKSLB12AB017AB44
p3183
aVSOXEFSB12AB0183CA6
p3184
aVSOGJKVV12A8AE460E0
p3185
aVSOGQPAE12A6D4FB67E
p3186
aa(lp3187
VSOMACTH12AB01815AD
p3188
aVSOUQULK12A6D4FA76B
p3189
aVSOYKECU12A6D4FB67A
p3190
aVSOBCMHY12AB0179F60
p3191
aa(lp3192
VSOHOSWQ12AB0185C37
p3193
aVSOKUEBK12A8C140F06
p3194
aa(lp3195
VSOQQTVL12A8C130EB6
p3196
aVSOEUPYR12AAF3B2F05
p3197
aa(lp3198
VSOGLQLL12A8C13F032
p3199
aVSOTJDDY12AB017DC5B
p3200
aa(lp3201
VSOEXZOM12A6D4F740F
p3202
aVSOYJHAO12A6D4F62E3
p3203
aVSONGFBK12A8C1425BC
p3204
aVSOLDAWL12AB017F461
p3205
aVSONRNMQ12AB0182224
p3206
aa(lp3207
VSOZAFHN12A8AE44F07
p3208
aVSOFCHVH12AB01884A0
p3209
aVSOIYBYP12A6D4F7761
p3210
aa(lp3211
VSOFYTTJ12AB0183E8D
p3212
aVSOJGYGW12A6D4F818A
p3213
aa(lp3214
VSOEKSLB12AB017AB44
p3215
aVSOFXFZO12AB017ADFA
p3216
aa(lp3217
VSOLGBEF12A8C1406B1
p3218
aVSOVLDZB12A81C206F5
p3219
aa(lp3220
VSOWCRQQ12A58A7CE23
p3221
aVSOHIVCV12A8C142E17
p3222
aVSOAUWYT12A81C206F1
p3223
aVSOBMQVM12A81C2070D
p3224
aVSOHOQTV12AB0184E5B
p3225
aVSOWJRIQ12AB017C5D2
p3226
aa(lp3227
VSONTXRY12A81C20F0A
p3228
aVSOQLGZU12AF729FD04
p3229
aa(lp3230
VSOWGPWA12A8C138051
p3231
aVSOJVDAH12A58A79CAE
p3232
aVSOKWNMF12AB018AEAE
p3233
aa(lp3234
VSOPQCVK12A8C138D2E
p3235
aVSOVITAC12A8C13BDFA
p3236
aa(lp3237
VSOKHZPE12A8C14392F
p3238
aVSOBQLWO12A8AE48212
p3239
aa(lp3240
VSOLSODY12A8C1348AA
p3241
aVSOVRMXY12A8C131A42
p3242
aa(lp3243
VSOQTQKH12A6D4F66EC
p3244
aVSOPGINA12A67020F1C
p3245
aa(lp3246
VSOJTWXI12AB0185775
p3247
aVSODLVDX12A6310DF22
p3248
aa(lp3249
VSOEEBVK12AB017E4F1
p3250
aVSOMZYJG12A8C14138C
p3251
aVSOVYVPA12CF5F87B4A
p3252
aVSORPXBG12AC4689714
p3253
aVSONODPK12A8C13F63B
p3254
aVSOWZZTA12AF729E2E8
p3255
aVSOZRHFX12A6701CD8A
p3256
aVSOPTQTD12AC468CF35
p3257
aa(lp3258
VSOIVNGD12A8AE48043
p3259
aVSOIMHNG12A8C139CC9
p3260
aa(lp3261
VSOECOJC12A6D4FA329
p3262
aVSOSYWDF12A8C1408F5
p3263
aa(lp3264
VSOQIGOF12AB0184EFC
p3265
aVSOXTOUC12AB0185A31
p3266
aa(lp3267
VSONECYN12A6D4F7467
p3268
aVSORPFPB12A6D4F8173
p3269
aVSOYOQHR12A6D4F5FD6
p3270
aVSOHOZUX12AB0185A42
p3271
aVSOARYKB12A8C1367EE
p3272
aa(lp3273
VSOSHQWM12AC3DF84B8
p3274
aVSOJJYOD12A8C134256
p3275
aVSODLVHD12A8C141CC6
p3276
aa(lp3277
VSOJLTUS12AB017DE03
p3278
aVSOGYLPF12AB0185610
p3279
aVSORUJSU12AB018F508
p3280
aVSOZZYAO12A6701FF36
p3281
aVSOSCVMZ12A8C14392B
p3282
aa(lp3283
VSOAPEGN12A8C1309AA
p3284
aVSOEYXYW12A6D4FAD24
p3285
aVSOSTKJQ12A6D4FBF34
p3286
aVSONHDPO12A8C13BCBB
p3287
aa(lp3288
VSOSRMNW12AB0186E68
p3289
aVSOWDWMU12AB017E323
p3290
aa(lp3291
VSOENQMK12A81C212D5
p3292
aVSOJUVXX12AB017CD86
p3293
aa(lp3294
VSOHECHH12AB018493E
p3295
aVSOYCWCO12A6D4F969E
p3296
aa(lp3297
VSOFRGBL12A6701E348
p3298
aVSOXOUMN12AF72A01F5
p3299
aVSODLVDX12A6310DF22
p3300
aa(lp3301
VSOWHTFY12A6702184E
p3302
aVSOZSTCP12D0219910F
p3303
aa(lp3304
VSOGSAQF12A8C13FBBB
p3305
aVSOFBAZD12A6702184D
p3306
aa(lp3307
VSOHBTUH12AB0185DC8
p3308
aVSOLENSY12A6D4FA2FA
p3309
aa(lp3310
VSOQOSSD12AC4687C9A
p3311
aVSOTXAFZ12AB018B184
p3312
aVSOZNJWZ12A8C13F17C
p3313
aVSOMDYZW12A582A26E3
p3314
aa(lp3315
VSOMFAQW12AB017F56A
p3316
aVSODIGID12A8C139ED7
p3317
aa(lp3318
VSOQBIOF12AC9E16A0B
p3319
aVSOMKYVO12A8AE48147
p3320
aa(lp3321
VSOLHLYM12AB018534F
p3322
aVSOWKEUN12AF72AB837
p3323
aVSOKFMHQ12AB0182051
p3324
aa(lp3325
VSOVBZJO12AB017BF63
p3326
aVSODMLIR12A6D4FA2F1
p3327
aa(lp3328
VSOUVYOI12A8C13EA98
p3329
aVSODUHAW12A58A771D0
p3330
aVSOYRGRV12AB01880F0
p3331
aVSOAINXH12A6D4F66F4
p3332
aVSODLVDX12A6310DF22
p3333
aVSOOCGKF12A8C1443F7
p3334
aVSOWIMYH12A6D4FA2F9
p3335
aVSOHWEKY12A58A817A5
p3336
aa(lp3337
VSOAIQBZ12A67ADBCE1
p3338
aVSOFCLET12A6701C96A
p3339
aVSOJTWXI12AB0185775
p3340
aa(lp3341
VSOUZANW12AB0187651
p3342
aVSOIEPHH12AF729F2FB
p3343
aa(lp3344
VSOMVZGW12A58A7C3C4
p3345
aVSOLXOPD12AB0182D9E
p3346
aVSOPAARY12AF72A582C
p3347
aVSOILRIM12AB017BE1D
p3348
aVSOLQUQN12A58A7B69D
p3349
aa(lp3350
VSOVYVPA12CF5F87B4A
p3351
aVSOKEMEF12A6D4F9403
p3352
aVSOBJTOA12AB017B7AE
p3353
aVSOPIVNU12A6D4FA6EA
p3354
aa(lp3355
VSOCSKDY12A6D4FBD96
p3356
aVSOSGBZH12A58A7C856
p3357
aa(lp3358
VSOJBONL12A8C13FD4A
p3359
aVSOSLCRU12A6701DB0B
p3360
aa(lp3361
VSOEYXYW12A6D4FAD24
p3362
aVSOWEWRL12A58A7961F
p3363
aa(lp3364
VSOEOHSD12A6701DB16
p3365
aVSOCEKTM12A6701DB05
p3366
aVSOTKVYT12A6701EEAD
p3367
aa(lp3368
VSOFIZRR12A6701EEF1
p3369
aVSOTVFIU12AC46878B7
p3370
aVSOADISH12AB018DFAC
p3371
aVSOKTWXU12CF5827557
p3372
aa(lp3373
VSONQKLN12AB0182458
p3374
aVSOSYJJL12B0B80B28D
p3375
aa(lp3376
VSOUDXTH12A6D4F80D5
p3377
aVSODVPYI12AB017B0D2
p3378
aa(lp3379
VSOHDEFD12A6D4FD302
p3380
aVSOWXDVT12B0B80BFA3
p3381
aa(lp3382
VSOOWOSS12A67ADE2D3
p3383
aVSOOCPUL12AB0188C56
p3384
aVSOUITGD12A6D4F79EC
p3385
aa(lp3386
VSONIXBL12A6D4F7D80
p3387
aVSOGRHUH12AB017ED7A
p3388
aa(lp3389
VSOSYHME12A8C135DD8
p3390
aVSOJTUEZ12A6D4F8A4D
p3391
aVSOKJSGT12AB0183D54
p3392
aVSOLGOSD12A8C131E2B
p3393
aVSODTAFR12AC4689409
p3394
aVSONJBQX12A6D4F8382
p3395
aa(lp3396
VSOBXNUD12A6D4F851C
p3397
aVSOOINJS12A8C13CCCD
p3398
aa(lp3399
VSORPFPB12A6D4F8173
p3400
aVSONVPVP12AF72A6851
p3401
aa(lp3402
VSONDQOC12A6D4F9C26
p3403
aVSORUTGZ12A81C238B9
p3404
aa(lp3405
VSOJVFKY12A8C13B9FF
p3406
aVSOHWDKN12A6D4F94F4
p3407
aa(lp3408
VSOVYVPA12CF5F87B4A
p3409
aVSOSMMEW12A8C134F96
p3410
aVSOEBUGS12A8C137C9A
p3411
aaa(lp3412
g3092
ag3096
ag2736
ag1329
ag1332
ag1235
ag1239
ag2602
ag2170
ag2174
a(lp3413
VSOWEWQW12AB017EEA5
p3414
aVSOSBHLR12A8C132259
p3415
aa(lp3416
VSOPVGPL12A6D4F8515
p3417
aVSOINTXZ12AF729FB66
p3418
aa(lp3419
VSOMVYNM12A6310E81D
p3420
aVSOJGSOF12A8C13A277
p3421
aVSOICAZH12A6D4F9864
p3422
aa(lp3423
VSONSOXK12A6D4F7A46
p3424
aVSOPCPYI12A6D4FD36D
p3425
aag1804
ag1807
a(lp3426
VSORWJHX12AB01878BA
p3427
aVSOWOZJP12AAA15D8B3
p3428
aVSOCEKTM12A6701DB05
p3429
aa(lp3430
VSOOEETZ12A6D4F8254
p3431
aVSODTUIZ12A6D4FC358
p3432
aag1617
ag1622
ag1625
a(lp3433
VSONSNRE12A6D4FA2F7
p3434
aVSOCPCNY12AB0183CCD
p3435
aag1186
ag1190
ag263
ag1001
ag1004
ag1007
ag273
ag279
ag2355
ag2495
ag2500
ag193
ag196
ag166
ag3325
ag976
ag2730
ag2733
ag1641
ag1648
ag1535
ag1541
ag1545
ag1550
ag1553
ag1229
ag1232
ag3408
ag342
ag347
a(lp3436
VSODLVDX12A6310DF22
p3437
aVSOUQAFR12A6D4FB616
p3438
aa(lp3439
VSOZKHZD12AB018C7B2
p3440
aVSOSVBON12AB017B780
p3441
aa(lp3442
VSOHCBGC12A6D4FA858
p3443
aVSOFBAZD12A6702184D
p3444
aVSOHVETT12AC3DF84C5
p3445
aa(lp3446
VSODMASJ12AF729E6FA
p3447
aVSOBMQVM12A81C2070D
p3448
aa(lp3449
VSOMDEVX12AF72A4880
p3450
aVSOTEXKZ12A6D4FA2EF
p3451
aag2273
ag2278
a(lp3452
VSOBNPLZ12A81C2394C
p3453
aVSOATSGC12AB018739B
p3454
aVSOPTBQZ12A6D4FA35D
p3455
aa(lp3456
VSOJABWL12A6701F12B
p3457
aVSOZECSK12AB017F590
p3458
aa(lp3459
VSOLUGMY12AB017F74C
p3460
aVSOWXDVT12B0B80BFA3
p3461
aVSOKTLWI12AC3DF8512
p3462
aVSODXFKK12A8C13B9FB
p3463
aa(lp3464
VSOLTOFZ12AB0186520
p3465
aVSONDUWO12A8C13712C
p3466
aVSORQJVE12AB018184F
p3467
aVSOWCEMD12A8C137121
p3468
aVSONQQMT12A8C13711A
p3469
aVSOFUZMG12A8C137116
p3470
aVSOAKMDU12A8C1346A9
p3471
aVSOMCWAZ12A67ADBCE3
p3472
aVSOSJFDH12A8C143096
p3473
aVSODPNXZ12A8C13E6C4
p3474
aag1168
ag2300
ag3376
ag3379
ag1508
ag906
ag909
ag913
a(lp3475
VSOXVMRM12A58A78417
p3476
aVSODCONX12AB0184BAF
p3477
aVSONCIHL12AB017D06C
p3478
aVSOAYGIE12A6D4F74E2
p3479
aVSOJHUUC12A6D4F71FF
p3480
aa(lp3481
VSOVCSYK12AB0183129
p3482
aVSOGCQNN12A6701DB12
p3483
aa(lp3484
VSONQKLN12AB0182458
p3485
aVSOTMSAQ12CF5CFD6E4
p3486
aVSOCFIUI12A81C23E48
p3487
aVSOAKWRQ12CF5F87F91
p3488
aa(lp3489
VSOSHMDF12AF72ACFEB
p3490
aVSOSFJHM12A81C20F7D
p3491
aag2543
ag2547
ag3405
ag1373
ag557
ag560
ag563
ag3180
ag3187
ag1589
ag1592
ag1595
ag1598
ag1602
ag1605
ag468
ag472
ag476
ag2195
ag2198
ag648
ag651
ag2283
a(lp3492
VSOLZHRO12A58A77674
p3493
aVSOLLVGE12AB017ECAD
p3494
aa(lp3495
VSOHWFRJ12AAF3B3269
p3496
aVSOMGJKD12A67ADA293
p3497
aag258
ag1307
ag1310
ag1313
ag2314
ag2317
ag2320
ag2592
ag2595
ag2107
ag2110
ag2113
ag2117
ag1389
ag1392
ag1395
ag852
ag855
ag858
a(lp3498
VSOLNTAM12A6D4F7928
p3499
aVSOOADJC12A8C130652
p3500
aVSOTPYOC12A8AE469EA
p3501
aVSOJEHFV12A8C13E038
p3502
aa(lp3503
VSOSENAK12A6D4F6229
p3504
aVSOWLDWW12A6D4F6D6F
p3505
aa(lp3506
VSOINIUZ12A67ADF6D8
p3507
aVSOAPEGN12A8C1309AA
p3508
aVSOBPEGX12B0B8095F3
p3509
aag2906
ag2286
ag2289
ag2292
a(lp3510
VSOTGGKE12A6BD55CAF
p3511
aVSOPWGRT12A8C133B4D
p3512
aag2445
ag2451
ag25
ag29
ag1708
ag1712
ag1767
ag1775
a(lp3513
VSOCKWWY12A58A7FB3D
p3514
aVSOJWRTI12A8AE449AE
p3515
aVSOFSGAA12A6D4FC11E
p3516
aa(lp3517
VSOQMFSM12AB017BCEB
p3518
aVSOXITZY12A8C13B99C
p3519
aa(lp3520
VSOHHJYE12A8AE47599
p3521
aVSOMOLIZ12A6310EC70
p3522
aVSOOJUZY12A6D4F5816
p3523
aVSOTEJTP12A8C13647D
p3524
aVSONNBUM12A6D4FDDB4
p3525
aa(lp3526
VSOFIYRU12AB0180185
p3527
aVSOCVERS12A8C136ABF
p3528
aVSOYPWKK12A8C136494
p3529
aVSOEAEEA12A8AE465C9
p3530
aVSOFTQOV12AB0187753
p3531
aag834
ag67
ag70
ag2982
ag2988
ag1785
ag1792
ag1800
ag339
ag994
ag1028
ag1463
ag248
ag252
ag255
ag2303
ag2307
ag2311
ag2779
ag2782
ag2785
ag1194
ag1197
ag2650
a(lp3532
VSOSAENK12AB0181276
p3533
aVSOBNRWI12A8C13CB2F
p3534
aVSOPNVWH12AC90972B8
p3535
aVSOZGAMM12A8C13C69D
p3536
aag1568
ag1571
ag244
ag440
a(lp3537
VSORHJAS12AB0187D3F
p3538
aVSOEQHZO12AB017E4DC
p3539
aa(lp3540
VSOBPYQC12A8C1364B9
p3541
aVSOKQILJ12AB018CD38
p3542
aa(lp3543
VSORNQMB12AB01832E2
p3544
aVSORUDBY12AB0184CC1
p3545
aVSOPFTLS12A81C21A11
p3546
aa(lp3547
VSOOJUZY12A6D4F5816
p3548
aVSOTLKXK12A8C141B62
p3549
aVSOPLUOT12A6D4F7AC3
p3550
aa(lp3551
VSODZYOU12A8C13496D
p3552
aVSOFDNCD12A8C13F245
p3553
aag2805
ag2811
ag482
ag287
ag295
ag298
ag303
ag2460
a(lp3554
VSOLKRFH12A8C13C08D
p3555
aVSOEUJGQ12AB0188D8A
p3556
aa(lp3557
VSOSDFUC12A6D4F8503
p3558
aVSOICVTJ12A58A79596
p3559
aa(lp3560
VSODMAOP12A8C143254
p3561
aVSOEBUGS12A8C137C9A
p3562
aa(lp3563
VSOPIVNU12A6D4FA6EA
p3564
aVSOLQRCE12A6D4F8381
p3565
aVSOENQMK12A81C212D5
p3566
aVSOHHJYE12A8AE47599
p3567
aVSOLMGQF12AB017B8C1
p3568
aVSOGCCGB12D021B107F
p3569
aag104
ag107
ag1386
ag311
ag315
ag319
ag2003
ag2008
ag2011
ag2695
ag897
a(lp3570
VSOQIVTK12A8C132FD7
p3571
aVSOCNPOI12A67AD85DF
p3572
aag3217
ag3220
a(lp3573
VSOJCROV12A8C133A2F
p3574
aVSOXXKFL12A8C131E01
p3575
aa(lp3576
VSOXMYKA12A8C131A44
p3577
aVSOEBHSK12AB018A4EF
p3578
aa(lp3579
VSOWKEUN12AF72AB837
p3580
aVSOGPYAQ12A8C132293
p3581
aag870
a(lp3582
VSOCGVNZ12A8C13FDDA
p3583
aVSOKMYYV12AB0185B6D
p3584
aVSOVWGXJ12A8C13E11B
p3585
aa(lp3586
VSODCEMC12AB018B164
p3587
aVSOQCRTY12AB01800CA
p3588
aag1288
ag2120
a(lp3589
VSOZABXU12A6D4F856F
p3590
aVSOAQOMZ12A6310D831
p3591
aVSOHMVNU12AC468D26E
p3592
aVSONZIAR12A8AE48D0D
p3593
aVSOOJRVW12A8C13F8F1
p3594
aa(lp3595
VSODMAOP12A8C143254
p3596
aVSOYOGCH12A6701F708
p3597
aa(lp3598
VSOXJZGQ12A8C131A4B
p3599
aVSOEBUGS12A8C137C9A
p3600
aVSOUDQKF12A6BD53715
p3601
aag1929
ag2201
ag2204
ag2123
a(lp3602
VSOZRNRG12A8C141C09
p3603
aVSOZECSK12AB017F590
p3604
aa(lp3605
VSOVOXXY12AB017BAC1
p3606
aVSOYYOKM12A8C13BD07
p3607
aVSOPZLMM12A67AD85E4
p3608
aVSONGMID12A58A7E07D
p3609
aag1325
ag1966
ag1969
ag873
ag876
a(lp3610
VSOTJDBL12A6D4F75E0
p3611
aVSOJMBXY12AB0180D9B
p3612
aVSOOJRVW12A8C13F8F1
p3613
aag3099
ag1336
ag1339
ag376
ag379
ag384
ag387
ag2463
ag2039
ag2042
ag2045
ag3037
ag3040
ag137
a(lp3614
VSOPRHZX12A58A80211
p3615
aVSOYEDQA12A6D4F70A6
p3616
aVSOGQUIN12A6701F2C4
p3617
aVSOTDTOK12A6310EF6E
p3618
aa(lp3619
VSOEHZQB12A6702016D
p3620
aVSODOJHI12A58A78C95
p3621
aVSOGXBUI12A8C139541
p3622
aVSOUQULK12A6D4FA76B
p3623
aag3116
ag3119
ag3162
ag3165
a(lp3624
VSOPGIIA12AAFF4413A
p3625
aVSOYAVWE12A8C13AEF4
p3626
aa(lp3627
VSOVJNYR12AAF3B3E5F
p3628
aVSOVOUAW12A6D4F88AD
p3629
aag2915
ag2919
ag2373
ag2378
ag1932
ag1935
ag1938
ag1941
ag536
ag543
ag549
a(lp3630
VSOFZJJX12A8C1448DA
p3631
aVSOVSDZQ12A8C1448E1
p3632
aVSOYFHLJ12A58A7A63D
p3633
aag3315
ag1174
ag2606
ag1678
ag1681
ag1684
a(lp3634
VSOKTLWI12AC3DF8512
p3635
aVSOTQVVZ12A6D4FC295
p3636
aVSOAUFFO12A670214BA
p3637
aag1124
ag1972
ag1975
ag1739
ag3328
ag3337
ag3341
ag3344
ag3350
ag3355
a(lp3638
VSOENPOI12A6D4FA2EC
p3639
aVSOEGEFR12AB0186FBA
p3640
aag1812
ag1815
ag3358
ag3361
ag2586
ag2589
a(lp3641
VSOFZJLL12AB017FFBE
p3642
aVSOGKZSK12AB018BDC6
p3643
aVSOVZRRK12A81C2379D
p3644
aa(lp3645
VSOLFFHF12A6701DC56
p3646
aVSOIVOKR12A6D4F9416
p3647
aag2852
ag2855
ag1042
ag1045
ag2325
ag2329
ag2420
ag3389
ag3396
ag3079
ag2687
ag2691
ag2865
ag2868
ag2871
ag3070
ag2788
ag2792
a(lp3648
VSODMAOP12A8C143254
p3649
aVSOTVEQQ12AB01852C4
p3650
aag1316
ag1321
a(lp3651
VSODJJAQ12AB01814FF
p3652
aVSOVLFUZ12A8C137962
p3653
aag1575
ag1578
ag1581
ag2267
ag2270
ag73
a(lp3654
VSOLMCHF12A6701FD42
p3655
aVSODWDXF12AB01809FB
p3656
aa(lp3657
VSOFYTTJ12AB0183E8D
p3658
aVSOQEXTW12A81C22070
p3659
aVSOKXWQP12A8C131A53
p3660
aVSOQUPTU12AC468E17F
p3661
aa(lp3662
VSOOMIPK12AB01803E9
p3663
aVSOVJTTZ12AB017F48F
p3664
aa(lp3665
VSOBFGLR12A8C13F7F6
p3666
aVSOWWPGF12A6D4F841F
p3667
aag2263
a(lp3668
VSOGPZNV12A6D4F7871
p3669
aVSOJCHXF12A81C2357C
p3670
aVSOYHNWL12A8C13CDF0
p3671
aa(lp3672
VSOZRWMA12A8C137EA1
p3673
aVSOJWFXM12A3F1EBE8B
p3674
aVSOYLDUK12A6701F407
p3675
aag3060
ag1343
a(lp3676
VSOPXGSZ12AB018D289
p3677
aVSOZTDEY12AB018CC29
p3678
aag2073
ag2076
a(lp3679
VSOROVGA12AF72A3E23
p3680
aVSOWQJUV12A6701FA45
p3681
aVSOMCNAX12A6D4FB07A
p3682
aag2611
ag1778
ag1781
ag1011
ag1015
ag151
ag155
ag159
a(lp3683
VSOCXBOG12AF72A0DA4
p3684
aVSORXPRL12AB018178A
p3685
aVSOHNYNL12A6D4FA020
p3686
aag2922
ag2927
ag2932
ag3102
ag3105
a(lp3687
VSORPGEZ12A6D4F896E
p3688
aVSOMZYJG12A8C14138C
p3689
aVSOGGWEJ12AAF3B5318
p3690
aVSOQCBHW12D021997C8
p3691
aVSOILGZL12A8C1413D7
p3692
aa(lp3693
VSOBNPLZ12A81C2394C
p3694
aVSOYISNJ12A8C142DAD
p3695
aa(lp3696
VSORPBQD12A8C13B9DF
p3697
aVSOFPADZ12A8C13BA41
p3698
aa(lp3699
VSOHHUWT12A58A7F3C3
p3700
aVSOYOXOB12AC468BB43
p3701
aag3291
a(lp3702
VSOJRJRG12AB0186047
p3703
aVSOICVTJ12A58A79596
p3704
aag838
ag49
ag54
ag702
ag706
ag712
ag1715
ag1879
ag1883
ag32
ag35
ag2938
ag2941
ag2945
a(lp3705
VSOFZQDO12A6D4FB4F4
p3706
aVSOPQKUW12A81C20551
p3707
aVSOIDUBJ12A6310E2B2
p3708
aa(lp3709
VSOXMDVI12A6D4F8AA3
p3710
aVSORDJJS12A8C13E056
p3711
aa(lp3712
VSODMLIR12A6D4FA2F1
p3713
aVSOTOFOI12AB0183CE8
p3714
aag1446
ag1847
ag1850
ag1855
ag1858
a(lp3715
VSOTKIHU12A6D4F697A
p3716
aVSODOWBP12AB01860E3
p3717
aag238
ag241
ag3177
ag639
ag643
ag2015
ag2019
ag2023
ag2027
ag2032
a(lp3718
VSOLXOPD12AB0182D9E
p3719
aVSOCMDFN12A58A7824B
p3720
aag3000
ag58
ag61
ag64
ag1279
ag1282
ag3364
ag3368
ag3373
a(lp3721
VSODJNOG12A8C138EF1
p3722
aVSOUMDYT12A8C137E91
p3723
aa(lp3724
VSOUNHLB12AB01830EE
p3725
aVSOYTPNB12A6D4F8221
p3726
aa(lp3727
VSOJLAES12AAF3B4907
p3728
aVSONQGAU12AB0182F28
p3729
aag2643
ag2646
a(lp3730
VSOAGPYL12A67AE0ED1
p3731
aVSORUDQJ12A6D4F7465
p3732
aa(lp3733
VSOVGRWP12A6D4F85F8
p3734
aVSOEHTSV12A6D4F7A62
p3735
aa(lp3736
VSORQMWI12A6D4FB4FD
p3737
aVSOJWQUJ12AB017D326
p3738
aVSOGJKVV12A8AE460E0
p3739
aVSOTPBYC12A6310D8C5
p3740
aag1982
ag1987
ag1990
ag1994
ag2765
ag2768
ag394
ag397
a(lp3741
VSOPPICO12A58A77238
p3742
aVSOQUMFW12AB018001D
p3743
aa(lp3744
VSOAFTRR12AF72A8D4D
p3745
aVSOTSNDR12A8AE47599
p3746
aVSOJPQZX12A6D4FBC17
p3747
aVSOBRLTS12AB0183382
p3748
aa(lp3749
VSOKQBDZ12AB018019D
p3750
aVSOMLAVM12A8C1321B4
p3751
aVSOVQCCR12A58A7A481
p3752
aa(lp3753
VSOOLMGJ12A81C22275
p3754
aVSOTEJTP12A8C13647D
p3755
aVSOSLCRU12A6701DB0B
p3756
aVSOTBAAJ12AB0181047
p3757
aag973
ag634
ag2657
ag2660
ag595
ag602
ag1840
ag1843
ag3277
a(lp3758
VSOYAEZW12A58A819A8
p3759
aVSOIAGFX12A8C1402DD
p3760
aa(lp3761
VSOJWXEF12A8C142846
p3762
aVSOYYRVM12AB017BC77
p3763
aa(lp3764
VSOXEJWM12A6D4F983E
p3765
aVSOZIYPD12A8AE484F7
p3766
aVSONNUQP12AB018999D
p3767
aVSOCMUKY12D02194EE0
p3768
aVSOJOYRP12A6D4FA28B
p3769
aag3057
a(lp3770
VSOFZJLL12AB017FFBE
p3771
aVSOHLNGM12A67020721
p3772
aag1608
ag1613
a(lp3773
VSOQPPSI12AB018F798
p3774
aVSOCDXPC12A6D4FA8B6
p3775
aVSOVPWRO12A8C13BE4E
p3776
aVSOPFOEP12A6D4F6C3D
p3777
aag3399
ag592
ag754
ag758
ag761
ag1759
ag1979
ag2698
ag2702
ag1899
ag1905
ag2967
ag2972
ag1511
ag1514
ag1517
ag1997
ag2000
ag3246
ag3249
a(lp3778
VSOWQXHG12AB0189D1A
p3779
aVSOEHQTN12A6310E243
p3780
aVSODOJHI12A58A78C95
p3781
aVSOAMHWE12AB0185CF3
p3782
aVSODVJBY12A6D4F6F75
p3783
aVSOFYAHD12AAF3B1BFA
p3784
aag788
a(lp3785
VSOAFTRR12AF72A8D4D
p3786
aVSOKTLWI12AC3DF8512
p3787
aVSOOIVAD12A670210D8
p3788
aa(lp3789
VSOLIRJM12A8AE46D66
p3790
aVSOPIZPF12AB018540C
p3791
aag2618
ag2621
ag2358
ag1696
ag1699
ag2875
ag2880
ag3321
ag2103
a(lp3792
VSOJFNBO12A6D4F7D7A
p3793
aVSOQYTHE12A8C13824E
p3794
aag1114
ag1117
ag1862
ag1818
ag2862
ag775
ag1346
ag1888
ag1893
ag1896
a(lp3795
VSORKCOJ12AF72A8B6C
p3796
aVSOYBYEV12A6D4F97BE
p3797
aa(lp3798
VSOKTUXF12AB0179D7B
p3799
aVSOJMUHV12A8C13BCDD
p3800
aag955
ag958
a(lp3801
VSOLMGQF12AB017B8C1
p3802
aVSODYJYD12AB01855E3
p3803
aa(lp3804
VSOXKGUD12A58A7C687
p3805
aVSONWHQP12A6310E8CB
p3806
aa(lp3807
VSOYDKLU12A6D4FB731
p3808
aVSOKJSGT12AB0183D54
p3809
aa(lp3810
VSOUQMGU12A6D4F8A52
p3811
aVSOPXKYD12A6D4FA876
p3812
aag2361
ag2070
ag2404
ag3237
ag3240
ag3243
ag1457
ag1460
ag350
ag353
ag356
ag359
ag362
ag619
ag622
ag3020
a(lp3813
VSOEBHSK12AB018A4EF
p3814
aVSOCTNCE12A8C1439B6
p3815
aa(lp3816
VSOYNCPX12AC3DF5D52
p3817
aVSODWOUC12AB0186292
p3818
aag3261
ag434
ag437
a(lp3819
VSOGIEOU12A8C134815
p3820
aVSOXTUHX12AF72AA41A
p3821
aa(lp3822
VSOVJDJM12A6D4FA719
p3823
aVSORPUNK12AB017F2E6
p3824
aag1291
a(lp3825
VSOSFIUU12AB0181DFE
p3826
aVSOCZGRA12A6D4F6230
p3827
aag200
ag203
ag206
ag209
ag3301
ag3304
a(lp3828
VSORFVGD12A58A79EBF
p3829
aVSOEHEMQ12A81C23298
p3830
aa(lp3831
VSOMKCDA12A81C20E7C
p3832
aVSORSJRG12A67AE2396
p3833
aag3169
ag3174
a(lp3834
VSOHQOEZ12AC468B5EB
p3835
aVSOINKVP12A8C13BF5D
p3836
aVSOWNVKK12A6D4F95A6
p3837
aVSOUSAXA12AF72A73F5
p3838
aa(lp3839
VSOCFMFS12A8C13CE3B
p3840
aVSOIXWHH12A8151CB1D
p3841
aVSOFWABC12AB018490D
p3842
aVSOLUYVM12AB0187251
p3843
aVSOXSWCO12AF729B42B
p3844
aa(lp3845
VSOCEJQC12AB018DA26
p3846
aVSOGCRXA12A6310D996
p3847
aVSOFRRWU12A8C13694F
p3848
aag1087
ag1096
ag1099
ag1102
ag1108
ag2093
ag657
ag660
ag1586
ag680
ag683
ag687
ag690
ag2976
ag2979
ag2132
ag2135
ag2183
ag2186
ag2189
ag2192
ag2442
ag1153
a(lp3849
VSOBTJLL12A8C13A4BC
p3850
aVSOPZTSV12AB0188991
p3851
aa(lp3852
VSOWTXUB12AC4685FDC
p3853
aVSOEVTSI12AB01898CF
p3854
aa(lp3855
VSOPTQTD12AC468CF35
p3856
aVSOLMGQF12AB017B8C1
p3857
aa(lp3858
VSOXPNMX12AC4685FF4
p3859
aVSOLSODY12A8C1348AA
p3860
aVSOKGOUQ12AF72A9B39
p3861
aVSOMIIGX12AB0188F96
p3862
aag141
a(lp3863
VSOBVKBE12A67ADF372
p3864
aVSOPIVNU12A6D4FA6EA
p3865
aVSOINQNL12A8C13ADD1
p3866
aVSOQTGDO12AB0188C24
p3867
aVSOKQBDZ12AB018019D
p3868
aVSOTJQZN12AF72AA288
p3869
aVSOTCUVX12A81C2358A
p3870
aa(lp3871
VSONJBQX12A6D4F8382
p3872
aVSOQLIZI12A8AE471C6
p3873
aVSOTSNDR12A8AE47599
p3874
aag626
a(lp3875
VSOAYZRP12A58A7DF84
p3876
aVSOZVTHC12AB017F8C3
p3877
aag2242
ag2245
a(lp3878
VSOACJZU12AB017F76E
p3879
aVSOJRZOD12AB0187B7D
p3880
aVSONJBQX12A6D4F8382
p3881
aag3156
ag939
ag948
ag952
a(lp3882
VSOVYVPA12CF5F87B4A
p3883
aVSOILBPW12B0B806A0E
p3884
aVSOFBGNM12AF72A315E
p3885
aVSOTJDBL12A6D4F75E0
p3886
aVSOINTXZ12AF729FB66
p3887
aa(lp3888
VSOFXPZA12A8C13DD8A
p3889
aVSOOJRVW12A8C13F8F1
p3890
aVSOEMQRX12AF729BFA4
p3891
aVSOKMUDA12AF72A38A3
p3892
aVSOJMUHV12A8C13BCDD
p3893
aa(lp3894
VSODLVDX12A6310DF22
p3895
aVSOICXDQ12B0B80AF87
p3896
aag819
ag1294
ag1300
ag1304
ag805
ag808
ag811
ag816
ag1364
ag1367
ag15
ag22
ag2599
a(lp3897
VSOROZPS12AC4688C7D
p3898
aVSOZUMVJ12AAF3B3E25
p3899
aa(lp3900
VSOJJLVI12AB01860BD
p3901
aVSOVMVYG12AB0182D1A
p3902
aag1180
a(lp3903
VSOMDJRE12AF72A7325
p3904
aVSOPCVKB12A6701D2E2
p3905
aa(lp3906
VSOWBHAR12A8C14146F
p3907
aVSOAFSMG12A8C140B52
p3908
aVSOZJSAD12A6310F322
p3909
aVSODYHHG12A6D4F7F7A
p3910
aVSOPRCAG12A58290FAC
p3911
aa(lp3912
VSOQGBBX12A58A7ED75
p3913
aVSONIHVC12AB0184AD6
p3914
aa(lp3915
VSOWDFGG12A6D4F9863
p3916
aVSOFSAMO12AB017EAB7
p3917
aa(lp3918
VSOFUZFF12AF72AC5B2
p3919
aVSOGZSUS12AF72A6C00
p3920
aVSOIEAMA12AAA8C5A4C
p3921
aa(lp3922
VSOQYEAU12AB01893AC
p3923
aVSOMHCFJ12A6D4FAFEA
p3924
aag2457
ag1080
ag1084
ag1821
ag1824
ag1828
ag1831
a(lp3925
VSOMCWAZ12A67ADBCE3
p3926
aVSOJJINB12AF72A35F5
p3927
aag2208
ag1018
ag1021
ag3
ag8
ag461
ag2634
ag2637
ag2640
ag3063
ag2952
ag2955
ag2138
ag2141
ag1834
ag2831
ag2834
ag611
ag2152
ag2155
a(lp3928
VSOYKECU12A6D4FB67A
p3929
aVSOGIBTB12A6310F206
p3930
aVSORZCNB12AF72A3B00
p3931
aa(lp3932
VSOUMDYT12A8C137E91
p3933
aVSODSCIQ12AF72A0319
p3934
aag11
a(lp3935
VSOZYYIC12A8C137180
p3936
aVSOITHVX12A6D4F97B7
p3937
aVSOJFBKJ12A6310D8ED
p3938
aVSOOTKHV12A8AE47B54
p3939
aa(lp3940
VSOXHWQO12A58A7AD15
p3941
aVSOTPBYC12A6310D8C5
p3942
aVSOZWCTI12A8C13AAAE
p3943
aa(lp3944
VSOPVXJB12A6D4F47A1
p3945
aVSORPKBP12A58A7B33A
p3946
aag1216
a(lp3947
VSOTFFHN12AC3DF7220
p3948
aVSOGYLPF12AB0185610
p3949
aVSORUJSU12AB018F508
p3950
aVSOTIARN12A58A7B1C0
p3951
aVSOEGIIP12B0B80AFC4
p3952
aag1031
ag1038
ag174
a(lp3953
VSOJJINB12AF72A35F5
p3954
aVSOHNOOC12A8C13BF35
p3955
aVSOUWHDP12A8151AACF
p3956
aag1956
ag1959
ag1963
ag861
ag1120
a(lp3957
VSOJVFKY12A8C13B9FF
p3958
aVSOJAERF12A8C13C55E
p3959
aag225
ag230
ag234
ag982
ag991
ag3073
ag3076
a(lp3960
VSOBCRSV12A6D4F3C93
p3961
aVSODYJYD12AB01855E3
p3962
aVSOLSODY12A8C1348AA
p3963
aa(lp3964
VSOMTQNR12A6D4F6986
p3965
aVSOMQJYW12A8C132673
p3966
aVSOWQJUV12A6701FA45
p3967
aVSOWCHGC12A8C13F848
p3968
aVSOGJMTM12A6310E17B
p3969
aag778
ag782
ag785
ag323
ag326
ag329
a(lp3970
VSOJRZOD12AB0187B7D
p3971
aVSOHKSTC12A8C141B90
p3972
aVSOWZFYT12AB0181434
p3973
aa(lp3974
VSOINKKD12AB0189453
p3975
aVSOOJCID12A6D4F7C14
p3976
aa(lp3977
VSOWHTFY12A6702184E
p3978
aVSOYRFBS12A8C12FF0F
p3979
aag2036
a(lp3980
VSOAPCFB12A8C13E5C1
p3981
aVSOZCOEW12A8C13FB91
p3982
aVSOHUXLX12A8C13CD88
p3983
aa(lp3984
VSOBFLKO12AB018433F
p3985
aVSODYJOE12A6D4FA040
p3986
aag552
ag2248
ag2364
ag2368
ag411
a(lp3987
VSOTVBNK12A58A7A661
p3988
aVSOQVJYO12AC3DF9B84
p3989
aa(lp3990
VSOTAOSE12A8C14362B
p3991
aVSOFCGLB12AB01879B6
p3992
aVSOKFLBR12A6D4FC5D3
p3993
aag2626
ag2630
ag1668
ag1672
ag1874
ag3318
ag694
ag699
ag110
a(lp3994
VSONOEUY12A8C142D85
p3995
aVSOSBKSL12A6D4FB62C
p3996
aa(lp3997
VSODHIYL12A6D4F8595
p3998
aVSOHNYNL12A6D4FA020
p3999
aa(lp4000
VSOEXZQB12D021B2493
p4001
aVSOXFTSF12A6D4F7278
p4002
aa(lp4003
VSOHHJYE12A8AE47599
p4004
aVSOUTQYD12A6D4F50FE
p4005
aVSOWCEQC12AF72A2B64
p4006
aag2564
ag2958
ag2961
ag1350
ag1242
ag1247
ag1631
ag3110
ag3113
ag1475
ag1482
ag2428
ag1414
ag1417
a(lp4007
VSOHLOZF12A8C13ECAC
p4008
aVSOFWSOO12A4280627E
p4009
aVSONHNSQ12A67020949
p4010
aag519
ag522
ag2671
ag2674
ag332
ag336
ag2504
ag2540
ag1071
ag1056
ag1061
ag1068
ag2529
a(lp4011
VSOGQLPK12A6D4F4ABC
p4012
aVSOPOOXU12A58A7B963
p4013
aVSOEPFXK12A8C13ADE1
p4014
aVSOFSTXF12AB0181BE9
p4015
aVSOASYSL12A6310D898
p4016
aVSOQDHAS12A8C14266D
p4017
aa(lp4018
VSOPZWGL12A6D4FA2C2
p4019
aVSOHJJXK12A6D4F80E8
p4020
aVSOHCJSL12A8C1367BD
p4021
aag630
ag2567
ag2570
a(lp4022
VSOAVBFB12A6310D903
p4023
aVSOBENFI12AB018B09A
p4024
aVSOGTXAO12A6D4F87C5
p4025
aa(lp4026
VSOCJIEC12A58A76CAF
p4027
aVSOWDFGG12A6D4F9863
p4028
aVSOFFDGE12A6310F216
p4029
aVSOJGFPE12A8C135B9D
p4030
aVSONUIIS12A6D4F75EF
p4031
aVSOXBEYM12AC4689A64
p4032
aVSODGWQO12A58A7DE28
p4033
aVSOPAOYJ12A81C23E41
p4034
aVSOCFIUI12A81C23E48
p4035
aVSOICAZH12A6D4F9864
p4036
aag3122
ag605
ag608
ag3195
ag2576
ag2580
ag2583
ag1687
ag1690
ag2796
ag2800
ag499
ag2997
ag997
ag2653
ag936
ag1719
ag1722
ag1490
ag3198
ag3201
ag3207
ag961
ag964
ag967
ag970
ag2532
ag2535
ag2814
ag2817
ag2821
ag2723
ag2727
a(lp4037
VSOIMCDE12A6D4F8383
p4038
aVSOHQOJR12A8C14438F
p4039
aa(lp4040
VSOTGGKE12A6BD55CAF
p4041
aVSOATSGC12AB018739B
p4042
aag616
a(lp4043
VSOZRJWA12AF729EC47
p4044
aVSOQDVUC12A67ADF7ED
p4045
aa(lp4046
VSOSKKUE12AB0180108
p4047
aVSOOCEKO12A67ADF6D9
p4048
aVSOJMBXY12AB0180D9B
p4049
aa(lp4050
VSODYJYD12AB01855E3
p4051
aVSOSZPDX12A6701FA47
p4052
aVSOTELBF12A6701FA4A
p4053
aVSOWHSBW127D977CFA2
p4054
aVSOXKOBC12A8C13F842
p4055
aVSOFSCOR12A6701D193
p4056
aag1171
ag1908
ag1914
a(lp4057
VSONSQDD12A8C13C93C
p4058
aVSOPADLT12A6D4F6AA3
p4059
aag3129
ag3132
a(lp4060
VSOMVQNP12A67ADE496
p4061
aVSODGZOG12A67ADE48C
p4062
aVSOWOZJP12AAA15D8B3
p4063
aVSOOWOSS12A67ADE2D3
p4064
aVSOSAGCZ12A6D4F7FC6
p4065
aa(lp4066
VSOMUCFP12A6701F28E
p4067
aVSOWEWRL12A58A7961F
p4068
aVSOWLJDA12A6D4FCAC5
p4069
aag1729
ag1732
ag1735
ag1268
ag408
a(lp4070
VSOEXZQB12D021B2493
p4071
aVSOHQOJR12A8C14438F
p4072
aa(lp4073
VSOPKNYC12AF72A4BB0
p4074
aVSOCUXRT12A58A76100
p4075
aVSOXBZNR12A679D7E8E
p4076
aVSODWDDO12D02199ED3
p4077
aVSOKBTLR12AAA8C6656
p4078
aa(lp4079
VSOSJYDL12A679D7E6E
p4080
aVSOVFTKT12AC4687074
p4081
aag1433
ag1436
ag39
ag42
ag46
a(lp4082
VSOOOJIS12AB017FCD0
p4083
aVSORPKBP12A58A7B33A
p4084
aa(lp4085
VSOSJYDL12A679D7E6E
p4086
aVSOVSWNN12A6D4F989B
p4087
aVSOBWBEF12A6310D830
p4088
aVSOLWWVK12A6310E010
p4089
aa(lp4090
VSOWHTFY12A6702184E
p4091
aVSOIFTBM12A58A7A3E8
p4092
aa(lp4093
VSOGGCST12A58A7C5D1
p4094
aVSOWOZJP12AAA15D8B3
p4095
aa(lp4096
VSOILGZL12A8C1413D7
p4097
aVSOMONYZ12AB017EB66
p4098
aVSONUABH12AC46890E6
p4099
aag1865
ag1869
a(lp4100
VSOSJYAG12A6310F243
p4101
aVSOQNXBA12A8C143B11
p4102
aa(lp4103
VSOKZUTC12A6D4F8BD4
p4104
aVSODZFBX12A6D4F81C8
p4105
aVSOXHWQO12A58A7AD15
p4106
aVSOJBNPE12A8AE47B59
p4107
aa(lp4108
VSOQPOBG12A67AE024A
p4109
aVSOSRQFL12A8C143945
p4110
aVSOULDME12AB01887C6
p4111
aVSODLOFG12AB0184FD9
p4112
aag664
ag671
ag675
ag2392
ag2395
ag2398
ag2401
ag486
ag490
ag496
a(lp4113
VSOONJAI12A8C135254
p4114
aVSOKFKMY12A6D4FA872
p4115
aag526
ag529
ag2215
ag2218
ag3294
ag3297
a(lp4116
VSOKHCYM12A6D4FC596
p4117
aVSORPAAI12A8C14312F
p4118
aag216
ag219
ag222
ag1726
a(lp4119
VSOXPALC12A6701EF32
p4120
aVSOHQOJR12A8C14438F
p4121
aVSOPVGPL12A6D4F8515
p4122
aVSOVEUQB12A6D4F4928
p4123
aVSOWEWQW12AB017EEA5
p4124
aVSOIMCDE12A6D4F8383
p4125
aVSOUTQYD12A6D4F50FE
p4126
aVSOSCVMZ12A8C14392B
p4127
aVSOXYIPS12A8C1325F7
p4128
aVSONJBQX12A6D4F8382
p4129
aVSONIYIU12AB017EEB9
p4130
aag2840
ag2846
ag1451
ag1454
ag3159
ag3264
ag721
ag724
ag727
ag734
ag177
ag180
ag1523
ag1527
ag1530
a(lp4131
VSOIQNXU12AC3DF446B
p4132
aVSOSKUIH12A6310D85B
p4133
aag2233
ag2238
ag1926
ag1133
a(lp4134
VSOEBCBI12AF72A154F
p4135
aVSOMXRPZ12A67ADE61C
p4136
aVSOODXQA12A8C132677
p4137
aa(lp4138
VSOWOZJP12AAA15D8B3
p4139
aVSOQUOXF12A6310EE68
p4140
aVSOEFGFO12A8C13F658
p4141
aVSOMUJHM12A8C13FED5
p4142
aVSOYUSWX12A6701C535
p4143
aVSOVRNUB12A8C14544D
p4144
aa(lp4145
VSOGLZSU12A6701BE5E
p4146
aVSOLTHCV12A8C133A52
p4147
aa(lp4148
VSOOKGSA12CF5F88F90
p4149
aVSOJPBAS12A6D4F7616
p4150
aVSOKBZES12AB018C090
p4151
aa(lp4152
VSOSWMIC12AB0185604
p4153
aVSOTFABB12AF72A7ACE
p4154
aVSODLWYP12A6701E0AE
p4155
aVSODUUOO12A6310F353
p4156
aVSOZKLHS12AB018018F
p4157
aag128
a(lp4158
VSOSJOIR12AB018937D
p4159
aVSOHBTUH12AB0185DC8
p4160
aVSOOLJJP12AB017AE27
p4161
aVSOFUNPN12A8C13B387
p4162
aVSOBHUXH12AB0182BEC
p4163
aVSOOKLWU12A6D4FA2D0
p4164
aag842
ag846
ag849
a(lp4165
VSOXJZGQ12A8C131A4B
p4166
aVSOEBUGS12A8C137C9A
p4167
aa(lp4168
VSOJTNID12A8AE47AF7
p4169
aVSOQTQKH12A6D4F66EC
p4170
aVSOLEYNW12A8C13C630
p4171
aag131
ag134
ag2434
ag2439
ag1628
ag2884
ag2892
ag3031
ag1947
ag1950
ag1953
ag113
a(lp4172
VSOMTTAD12A6D4FB921
p4173
aVSONFHRB12A8C13EE75
p4174
aVSORXICU12AB018074A
p4175
aa(lp4176
VSOITJIK12A6D4F989F
p4177
aVSOLIEAJ12AB018923F
p4178
aVSOCUXRT12A58A76100
p4179
aa(lp4180
VSONRUUX12AF72A4830
p4181
aVSOQYRUF12AC3DF7136
p4182
aag2332
ag2336
aa(lp4183
g3310
ag2152
ag2155
ag1466
ag1469
ag3679
ag917
ag921
ag927
ag58
ag61
ag64
ag1343
ag1422
ag1425
ag1430
ag2551
ag2557
ag2561
ag151
ag155
ag159
ag2982
ag2988
ag2741
ag2744
ag4007
ag4000
ag4003
ag2529
ag2468
ag2472
ag2475
ag4057
ag1186
ag1190
ag3547
ag2107
ag2110
ag2113
ag2117
ag3267
ag3273
ag578
ag581
ag394
ag397
ag2242
ag2245
ag1219
ag1222
ag1225
ag4172
ag4176
ag1696
ag1699
ag3328
ag3337
ag3341
ag3344
ag3350
ag3355
ag3718
ag3957
ag1439
ag1442
ag177
ag180
ag721
ag724
ag727
ag734
ag3464
ag414
ag422
ag2039
ag2042
ag2045
ag2409
ag2413
ag2416
ag3389
ag3396
ag2373
ag2378
ag434
ag437
ag3761
ag3764
ag2003
ag2008
ag2011
ag2831
ag2834
ag1346
ag2814
ag2817
ag2821
ag2779
ag2782
ag2785
ag4037
ag2730
ag2733
ag3773
a(lp4184
VSOKJSGT12AB0183D54
p4185
aVSOGLNJS12A6D4F71C4
p4186
aVSOVVCON12A6D4F775F
p4187
aVSOBBCWD12A6D4F7BE1
p4188
aa(lp4189
VSOFVCOM12AB0185995
p4190
aVSORJTJO12AC4688933
p4191
aVSOFFWZZ12A6D4F66F0
p4192
aVSOLSODY12A8C1348AA
p4193
aVSOLWUDG12AB0183961
p4194
aVSOEWZVB12A6D4F6235
p4195
aVSONZVVM12A6D4FA2FC
p4196
aVSONBGOT12A6701DC53
p4197
aVSOSKKUE12AB0180108
p4198
aag502
ag506
ag511
ag516
ag3589
ag3595
ag3598
ag2611
a(lp4199
VSOAHZIE12AB0181D50
p4200
aVSOMHCFJ12A6D4FAFEA
p4201
aag1373
ag1812
ag1815
ag3928
ag3932
ag2201
ag2204
ag740
ag747
ag751
ag1272
ag1276
ag1446
a(lp4202
VSOXQKEH12A8C137F45
p4203
aVSOGOAGM12AB017E99E
p4204
aa(lp4205
VSOSMSEU12AB0186D4E
p4206
aVSOYWBPL12B0B80BD74
p4207
aag11
ag1641
ag1648
ag2431
ag3520
ag3526
ag411
ag376
ag379
ag384
ag387
ag1080
ag1084
ag2899
ag2903
ag1739
ag1862
ag350
ag353
ag356
ag359
ag362
ag605
ag608
ag1018
ag1021
ag2404
a(lp4208
VSOGWQSX12A6D4F9882
p4209
aVSOFFKHA12AB01862CD
p4210
aa(lp4211
VSOTLRXZ12A6D4F9ED9
p4212
aVSOFAVYA12A6701F9C7
p4213
aag886
ag889
ag892
ag3413
ag3416
ag3405
ag339
a(lp4214
VSOCECBN12A67ADE48D
p4215
aVSOTJQZN12AF72AA288
p4216
aag3828
ag3831
ag3878
ag2938
ag2941
ag2945
ag267
ag3953
ag3741
ag3744
ag3849
ag3852
ag3855
ag3858
ag2073
ag2076
ag342
ag347
ag2015
ag2019
ag2023
ag2027
ag2032
ag592
ag193
ag196
ag3624
ag3627
ag3641
ag3645
ag3510
ag2445
ag2451
ag2358
ag332
ag336
a(lp4217
VSOAUXQN12AB018D2F6
p4218
aVSOFAIVL12AB0185386
p4219
aag263
ag3602
ag3605
ag1631
ag49
ag54
ag2576
ag2580
ag2583
ag1658
ag1661
ag1665
ag1114
ag1117
ag4113
ag1353
ag1357
ag1361
ag3922
ag184
ag187
ag190
ag2159
ag2163
ag1655
ag4134
ag4138
ag3318
ag3557
ag3513
ag3517
a(lp4220
VSOTYUAW12AB017CEB7
p4221
aVSOVPMIJ12A8C13A698
p4222
aa(lp4223
VSOBARJH12AB0182155
p4224
aVSOHEOSJ12A6D4F9049
p4225
aVSOQAWXV12AB017ED78
p4226
aVSOATFKF12A8C142E94
p4227
aag3092
ag3096
ag1268
ag3795
ag3798
ag842
ag846
ag849
ag131
ag134
ag3419
ag3423
a(lp4228
VSODPIRJ12A8C13CD2A
p4229
aVSOTLKXK12A8C141B62
p4230
aa(lp4231
VSOYDPOQ12A8C13CD64
p4232
aVSOHQIBR12A6310E0ED
p4233
aa(lp4234
VSONBGOT12A6701DC53
p4235
aVSOHIZYZ12A6D4FC352
p4236
aa(lp4237
VSOFTTOP12AB0182A49
p4238
aVSOVLDZB12A81C206F5
p4239
aag2248
ag258
ag2884
ag2892
ag1183
ag1575
ag1578
ag1581
ag200
ag203
ag206
ag209
a(lp4240
VSOFZQDO12A6D4FB4F4
p4241
aVSOXQYSC12A6310E908
p4242
aVSOFZOTX12A67ADF6DB
p4243
aVSOKJSGT12AB0183D54
p4244
aVSODZFBX12A6D4F81C8
p4245
aVSOVQCCR12A58A7A481
p4246
aVSODYJYD12AB01855E3
p4247
aVSOIPXXX12A67ADD3E7
p4248
aVSOKEUYU12A67ADF7E6
p4249
aVSOAJNGD12AC468DCD5
p4250
aVSOTLKXK12A8C141B62
p4251
aVSOZKLHS12AB018018F
p4252
aVSOBGPEH12A6D4F818B
p4253
aVSOPAOYJ12A81C23E41
p4254
aVSOXKOBC12A8C13F842
p4255
aVSOATQYE12A6D4F8167
p4256
aag2567
ag2570
ag834
a(lp4257
VSOPRLTE12A6D4F6F7B
p4258
aVSOYKPCW12CF51A9557
p4259
aVSOADWHB12A8C13E1D5
p4260
aa(lp4261
VSONBAWH12A8AE49D51
p4262
aVSOVYDPE12A58A7DFCF
p4263
aVSOTEIIL12AB018A918
p4264
aag1028
ag3433
ag2671
ag2674
ag3358
ag3361
ag2852
ag2855
a(lp4265
VSOMUCFP12A6701F28E
p4266
aVSORLZNS12A6D4FA5B5
p4267
aag1074
ag2788
ag2792
ag2070
ag1899
ag1905
ag1378
ag1383
ag595
ag602
ag788
ag1011
ag1015
ag4145
ag4148
ag4152
ag15
ag22
ag3994
ag3997
ag284
ag526
ag529
ag1279
ag1282
ag2859
ag3960
ag3964
ag3785
ag3789
ag2653
ag1865
ag1869
ag3364
ag3368
ag3373
ag39
ag42
ag46
ag141
ag3126
ag1608
ag1613
ag819
ag3634
ag3277
ag1451
ag1454
ag2460
ag3020
ag2325
ag2329
ag3935
ag104
ag107
ag2339
ag2343
ag2347
a(lp4268
VSOVCHXZ12AB0181D2C
p4269
aVSOREKUX12AB0182ECB
p4270
aVSOODEBD12A6D4FA68A
p4271
aa(lp4272
VSOPZSFB12A8C141423
p4273
aVSOOHSGP12AB017F7F5
p4274
aag1982
ag1987
ag1990
ag1994
ag2592
ag2595
ag2719
ag2964
ag1678
ag1681
ag1684
ag1325
ag801
ag873
ag876
ag1329
ag1332
ag3573
ag3576
ag3579
ag976
ag3307
ag1433
ag1436
ag1668
ag1672
ag3376
ag3379
ag897
ag3693
ag3696
ag3699
ag2626
ag2630
ag3498
ag3503
ag3506
ag2361
ag870
ag3721
ag3724
ag3727
a(lp4275
VSOCECWN12A58A7A30A
p4276
aVSOBNYQI12A6D4F5F60
p4277
aVSOAVZDO12A8AE47FE2
p4278
aa(lp4279
VSONXSLH12A6BD50DF4
p4280
aVSOFUKLE12A58A77DBC
p4281
aVSOGQKLV12AB0185D9F
p4282
aVSOVLACU12A8C13B049
p4283
aVSOEEUPQ12A6701DAFE
p4284
aa(lp4285
VSOXNOYN12A6D4FB4B4
p4286
aVSOIWBJU12A6701CBE7
p4287
aVSOIRIYH12A6D4F968F
p4288
aag1535
ag1541
ag1545
ag1550
ag1553
a(lp4289
VSOBVLQI12A8C13C291
p4290
aVSOHKNMA12AB018400B
p4291
aa(lp4292
VSOIOOCI12A8C13B86D
p4293
aVSOKQBRB12A6D4F813A
p4294
aa(lp4295
VSOEOFQS12AC3DFA6E5
p4296
aVSOVHJKH12AF72A057E
p4297
aVSOULLCE12A58A799B6
p4298
aVSOKJZGM12A58A7C8E9
p4299
aa(lp4300
VSOOHERI12AB0184B25
p4301
aVSOQAECM12AF729D791
p4302
aa(lp4303
VSOYAWEC12A6D4FCE66
p4304
aVSOPCJFG12AB01858CC
p4305
aVSOQXVHS12A58A78837
p4306
aVSONFAIU12AB0184A90
p4307
aag831
ag1932
ag1935
ag1938
ag1941
ag973
a(lp4308
VSOPUROF12A8C1389D3
p4309
aVSOMDEVX12AF72A4880
p4310
aVSOGOWYQ12A8151AACE
p4311
aag2208
ag2504
ag3875
ag1294
ag1300
ag1304
ag1847
ag1850
ag1855
ag1858
ag3099
ag3730
ag3733
ag3736
ag2952
ag2955
ag2967
ag2972
ag468
ag472
ag476
ag4180
ag2862
ag428
ag431
a(lp4312
VSOZRJWA12AF729EC47
p4313
aVSOQDVUC12A67ADF7ED
p4314
aa(lp4315
VSOSKKUE12AB0180108
p4316
aVSOOCEKO12A67ADF6D9
p4317
aVSOJMBXY12AB0180D9B
p4318
aa(lp4319
VSODYJYD12AB01855E3
p4320
aVSOSZPDX12A6701FA47
p4321
aVSOTELBF12A6701FA4A
p4322
aVSOWHSBW127D977CFA2
p4323
aVSOXKOBC12A8C13F842
p4324
aVSOFSCOR12A6701D193
p4325
aag3819
ag3822
ag852
ag855
ag858
ag3778
ag2695
a(lp4326
VSOSEXSN12A8C13B75E
p4327
aVSOSKQLO12B0B80C759
p4328
aa(lp4329
VSOIEPYL12A8C13D225
p4330
aVSOKWQQT12A6701DC54
p4331
aVSOKHZPE12A8C14392F
p4332
aag805
ag808
ag811
ag816
ag2915
ag2919
ag3610
ag67
ag70
ag169
ag3234
ag619
ag622
ag3452
ag3456
ag2355
ag499
ag1879
ag1883
ag1386
ag3705
ag3709
ag3046
ag3052
ag3687
ag1364
ag1367
ag2736
ag3863
ag3871
ag2747
ag2751
ag2754
ag1742
ag3834
ag3839
ag3845
ag955
ag958
ag1120
ag557
ag560
ag563
ag2364
ag2368
ag3582
ag3586
ag3
ag8
ag657
ag660
ag3408
ag994
ag2909
ag2912
ag754
ag758
ag761
ag1651
a(lp4333
VSOCJLNE12AC3DF6DAB
p4334
aVSOWCEQC12AF72A2B64
p4335
aVSOIMCDE12A6D4F8383
p4336
aVSODLOFG12AB0184FD9
p4337
aa(lp4338
VSOCZGRA12A6D4F6230
p4339
aVSOHCHRL12A58A78F8E
p4340
aa(lp4341
VSOPIVNU12A6D4FA6EA
p4342
aVSOFAGDP12A8C13D138
p4343
aa(lp4344
VSOMKFIB12A6310F109
p4345
aVSOBLJNM12AB01816DE
p4346
aag1494
ag1498
ag1501
ag1505
ag1370
ag1168
ag680
ag683
ag687
ag690
ag3217
ag3220
ag1235
ag1239
ag2618
ag2621
ag2507
ag2511
ag2515
ag2520
ag3129
ag3132
ag827
ag1997
ag2000
ag3570
ag1042
ag1045
ag2096
ag2099
ag244
ag1398
ag1401
ag1404
ag1409
ag2146
ag2132
ag2135
ag4119
ag2233
ag2238
ag116
ag119
ag124
ag1715
ag2922
ag2927
ag2932
ag248
ag252
ag255
ag3801
ag3804
ag3807
ag3810
ag3947
ag2615
ag2828
ag1785
ag1792
ag1800
ag982
ag991
a(lp4347
VSOQBNNY12AB01816F6
p4348
aVSOZRNRG12A8C141C09
p4349
aVSOKBTNK12A6D4F859E
p4350
aVSOEDGPC12A67ADE6FB
p4351
aVSOXGRDD12AB0186B03
p4352
aag1414
ag1417
ag1837
ag3495
ag2523
ag2526
ag2351
ag1124
ag2586
ag2589
ag2657
ag2660
ag3283
ag3288
ag3136
ag3144
ag3532
ag639
ag643
ag3083
ag3088
ag2215
ag2218
ag2103
ag3825
ag3977
ag2698
ag2702
ag94
ag99
ag1759
ag3648
ag2314
ag2317
ag2320
ag702
ag706
ag712
a(lp4353
VSOAHKFJ12A67ADE492
p4354
aVSOXRFUX12A6D4FA0B7
p4355
aVSOPUGAJ12AC468B2E1
p4356
aag1180
ag1490
ag694
ag699
ag2195
ag2198
ag2123
ag2303
ag2307
ag2311
ag764
ag772
ag1719
ag1722
ag1589
ag1592
ag1595
ag1598
ag1602
ag1605
ag2906
ag2283
ag3614
ag3619
ag1194
ag1197
ag3110
ag3113
ag2540
ag1804
ag1807
ag3079
ag273
ag279
ag1979
ag2263
ag4158
a(lp4357
VSOUTQYD12A6D4F50FE
p4358
aVSOJABWL12A6701F12B
p4359
aag144
ag147
ag212
ag1001
ag1004
ag1007
ag1133
ag3177
ag4100
ag4103
ag4108
a(lp4360
VSOMCTDG12AB0180682
p4361
aVSOQXBEE12A8C13AA98
p4362
aa(lp4363
VSOKXCTY12A8C13AC45
p4364
aVSODYSGJ12A8AE460B0
p4365
aag3264
ag3063
ag1972
ag1975
ag2997
a(lp4366
VSOMLAVM12A8C1321B4
p4367
aVSOEXFZQ12A6D4FC33E
p4368
aag3459
ag3651
a(lp4369
VSOLQPHE12A8C13F4CB
p4370
aVSOULDME12AB01887C6
p4371
aag216
ag219
ag222
ag3903
ag3906
ag3912
ag3915
ag536
ag543
ag549
ag1242
ag1247
ag464
ag3060
ag2080
ag2085
ag1475
ag1482
ag1511
ag1514
ag1517
ag1307
ag1310
ag1313
ag482
ag1520
ag3882
ag3888
ag3894
ag3475
ag1617
ag1622
ag1625
ag3813
ag3816
ag519
ag522
ag3261
ag3436
ag3439
ag3116
ag3119
ag3770
ag425
ag4070
ag4073
ag4079
ag1726
ag2564
ag616
ag1127
ag1130
ag1389
ag1392
ag1395
ag3925
ag2386
ag2389
ag25
ag29
ag2332
ag2336
ag2120
ag440
ag3198
ag3201
ag3207
ag4011
ag4018
ag3180
ag3187
ag323
ag326
ag329
ag1908
ag1914
ag3399
ag1917
ag1921
ag4116
ag3792
ag2434
ag2439
ag3011
ag3014
ag3017
ag2489
ag2492
ag3057
ag3712
ag3237
ag3240
ag3243
a(lp4372
VSOFRLTQ12AB018B4C8
p4373
aVSOFHKVZ12A6310E157
p4374
aag3070
ag3980
ag3984
ag3000
ag3291
ag3023
ag3027
ag1747
ag1751
ag1755
ag792
ag795
ag798
ag445
ag453
ag456
ag1947
ag1950
ag1953
ag3442
ag3446
ag3449
ag2991
ag2994
ag861
ag2634
ag2637
ag2640
ag4082
ag4085
ag2765
ag2768
ag137
a(lp4375
VSORKRXT12AB0184C09
p4376
aVSOOHSGP12AB017F7F5
p4377
aag2532
ag2535
ag2048
ag2052
ag2056
ag2059
ag3227
ag3230
ag1840
ag1843
ag961
ag964
ag967
ag970
ag3676
ag2796
ag2800
ag2606
ag3426
ag3430
ag3382
ag3386
ag461
ag3246
ag3249
ag3195
ag3715
ag238
ag241
ag3159
ag1174
ag1508
ag2183
ag2186
ag2189
ag2192
ag2958
ag2961
ag390
ag2457
ag3537
ag3540
ag3543
ag2224
ag2227
ag2230
ag1203
ag1209
ag1136
ag2495
ag2500
ag2543
ag2547
ag486
ag490
ag496
ag2177
ag2180
ag3301
ag3304
ag2664
ag2667
ag2705
ag2714
ag162
ag2602
ag174
a(lp4378
VSOQUKFS12A8AE476FA
p4379
aVSODSCIQ12AF72A0319
p4380
aVSOIOLCD12AB018D3F5
p4381
aa(lp4382
VSOANSXL12A8C13C3E2
p4383
aVSOLZAXJ12A6D4F8AEB
p4384
aag936
ag1693
aa(lp4385
g244
ag2303
ag2307
ag2311
ag2805
ag2811
ag2852
ag2855
ag1668
ag1672
ag144
ag147
ag4347
ag1272
ag1276
ag1171
ag715
ag718
ag616
ag3198
ag3201
ag3207
ag2248
ag3758
ag2551
ag2557
ag2561
ag1056
ag1061
ag1068
ag578
ag581
ag1433
ag1436
ag3195
ag1001
ag1004
ag1007
ag3169
ag3174
ag3083
ag3088
ag2615
ag3875
ag2404
ag3953
ag2256
ag2259
ag3977
ag2159
ag2163
ag1966
ag1969
ag3614
ag3619
ag1490
ag997
ag1229
ag1232
ag3413
ag3416
ag2300
ag2687
ag2691
ag411
ag1028
ag162
ag2529
ag4184
ag4189
ag2982
ag2988
ag1350
ag838
ag886
ag889
ag892
ag3277
ag1494
ag1498
ag1501
ag1505
ag4378
ag4382
ag15
ag22
ag3687
ag2015
ag2019
ag2023
ag2027
ag2032
ag4199
ag4208
ag4211
ag3475
ag2286
ag2289
ag2292
ag2532
ag2535
ag4312
ag4315
ag4319
ag2489
ag2492
ag2602
ag1575
ag1578
ag1581
ag1183
ag390
ag1617
ag1622
ag1625
ag2392
ag2395
ag2398
ag2401
ag3582
ag3586
ag2543
ag2547
ag2504
ag3715
ag2576
ag2580
ag2583
ag1291
ag2967
ag2972
ag2859
ag434
ag437
ag2211
ag428
ag431
ag1124
ag3882
ag3888
ag3894
ag2775
ag982
ag991
ag464
ag1475
ag1482
ag4217
ag3693
ag3696
ag3699
ag1186
ag1190
ag3419
ag3423
ag4070
ag4073
ag4079
ag1693
ag248
ag252
ag255
ag3217
ag3220
ag4375
ag2611
ag4326
ag4329
ag1174
ag1874
ag1389
ag1392
ag1395
ag499
ag2599
ag788
ag3849
ag3852
ag3855
ag3858
ag4100
ag4103
ag4108
ag1511
ag1514
ag1517
ag3436
ag3439
ag3283
ag3288
ag3813
ag3816
ag2267
ag2270
ag3070
ag3761
ag3764
ag1153
ag764
ag772
ag3925
ag4043
ag4046
ag4050
ag3520
ag3526
ag3092
ag3096
ag680
ag683
ag687
ag690
ag4240
ag1804
ag1807
ag3261
ag3264
ag3162
ag3165
ag1414
ag1417
ag2862
ag1080
ag1084
ag2741
ag2744
ag2373
ag2378
ag2814
ag2817
ag2821
ag4372
ag1767
ag1775
ag1840
ag1843
ag3382
ag3386
ag2664
ag2667
ag2523
ag2526
ag702
ag706
ag712
ag4172
ag4176
ag2224
ag2227
ag2230
ag584
ag587
ag3126
ag3237
ag3240
ag3243
ag110
ag2468
ag2472
ag2475
ag2048
ag2052
ag2056
ag2059
ag258
a(lp4386
VSOPMKEB12A58A7D906
p4387
aVSOGKAKN12A8C13C784
p4388
aag1759
ag657
ag660
ag801
ag3679
ag225
ag230
ag234
ag2899
ag2903
ag3037
ag3040
ag238
ag241
ag976
ag3589
ag3595
ag3598
ag2364
ag2368
ag3718
ag3918
ag3648
ag2138
ag2141
ag2758
ag2762
ag2460
ag2233
ag2238
a(lp4389
VSOBXNVD12AB0181E9A
p4390
aVSOGCDRE12A58A7B42A
p4391
aVSOWONGK12A8AE454BB
p4392
aa(lp4393
VSOTUPBA12A6D4F71CA
p4394
aVSOKLDES12AB017EC99
p4395
aVSOCROLF12AB018202A
p4396
aa(lp4397
VSOWBSGX12A8C1338FB
p4398
aVSOOZGZE12A6D4F99F9
p4399
aag1535
ag1541
ag1545
ag1550
ag1553
ag2564
ag3602
ag3605
ag11
ag2386
ag2389
ag955
ag958
ag67
ag70
ag3
ag8
ag1216
ag2840
ag2846
ag3668
ag3672
ag2409
ag2413
ag2416
ag1715
ag2358
ag1520
ag3947
ag1834
ag3156
ag1329
ag1332
ag4131
ag174
ag1457
ag1460
ag2080
ag2085
ag4000
ag4003
ag1398
ag1401
ag1404
ag1409
ag664
ag671
ag675
ag4158
ag3321
ag3408
ag1074
ag3922
ag778
ag782
ag785
ag25
ag29
ag3180
ag3187
ag1235
ag1239
ag2747
ag2751
ag2754
ag2428
ag2003
ag2008
ag2011
ag2698
ag2702
ag1018
ag1021
ag634
ag2070
ag414
ag422
ag3000
ag1719
ag1722
ag2351
ag2730
ag2733
ag2922
ag2927
ag2932
ag2152
ag2155
ag2339
ag2343
ag2347
ag482
ag94
ag99
ag3513
ag3517
ag4096
ag2736
ag1071
ag2567
ag2570
ag4057
ag4214
ag502
ag506
ag511
ag516
ag116
ag119
ag124
ag4134
ag4138
ag870
ag2170
ag2174
ag3129
ag3132
ag3291
ag1821
ag1824
ag1828
ag1831
ag2976
ag2979
ag1982
ag1987
ag1990
ag1994
ag2273
ag2278
ag3234
ag1294
ag1300
ag1304
ag39
ag42
ag46
ag619
ag622
ag3046
ag3052
ag1114
ag1117
ag1729
ag1732
ag1735
ag1658
ag1661
ag1665
ag1136
ag961
ag964
ag967
ag970
ag2073
ag2076
ag3828
ag3831
ag1634
ag1638
ag3749
ag3753
ag3399
ag4265
ag2831
ag2834
ag3676
ag212
ag1451
ag1454
ag897
ag2626
ag2630
ag1651
ag3863
ag3871
ag805
ag808
ag811
ag816
ag2361
ag572
ag575
ag3426
ag3430
ag3960
ag3964
ag3315
ag3897
ag3900
ag3063
ag4202
ag4205
ag216
ag219
ag222
ag3641
ag3645
ag365
ag372
ag3560
ag3563
ag3537
ag3540
ag3543
ag3442
ag3446
ag3449
ag1608
ag1613
ag831
ag3099
ag3654
ag3657
ag1932
ag1935
ag1938
ag1941
ag2884
ag2892
ag3318
ag3683
ag2909
ag2912
ag3328
ag3337
ag3341
ag3344
ag3350
ag3355
ag58
ag61
ag64
ag4308
ag1997
ag2000
a(lp4400
VSOJHFGR12A6D4FB6A7
p4401
aVSOGLNUC12AB018767A
p4402
aVSOPPYRB12AB017E159
p4403
aag1127
ag1130
ag3405
ag461
ag2096
ag2099
ag2195
ag2198
ag4357
ag2606
ag2208
ag4037
ag3957
ag1042
ag1045
ag2540
ag3935
ag3116
ag3119
ag1972
ag1975
ag3638
ag1879
ag1883
ag2457
ag3773
ag2671
ag2674
ag2093
ag2938
ag2941
ag2945
ag440
ag3325
ag3795
ag3798
ag1785
ag1792
ag1800
ag1628
ag169
ag2653
ag3928
ag3932
ag2146
ag1250
ag1259
ag104
ag107
ag394
ag397
ag2991
ag2994
ag2723
ag2727
ag3994
ag3997
ag1979
ag323
ag326
ag329
ag1742
ag2875
ag2880
ag1956
ag1959
ag1963
ag284
ag1353
ag1357
ag1361
ag1325
ag2695
ag3792
ag3452
ag3456
ag3570
ag200
ag203
ag206
ag209
ag1687
ag1690
ag1764
ag2062
ag2065
ag1862
ag973
ag311
ag315
ag319
ag1641
ag1648
ag3721
ag3724
ag3727
ag2283
ag3227
ag3230
ag611
ag4268
ag4272
ag1562
ag1565
ag4257
ag4261
a(lp4404
VSOEYVAO12AB0189F20
p4405
aVSOQVVIA12AC90758D5
p4406
aVSOHHJMB12AB0183C39
p4407
aa(lp4408
VSOFASVS12A8C1336B9
p4409
aVSOGQVBA12A8C140DB8
p4410
aag557
ag560
ag563
ag3554
ag4011
ag4018
ag2952
ag2955
ag3211
ag3214
ag3294
ag3297
ag3177
ag468
ag472
ag476
ag4119
ag1279
ag1282
ag754
ag758
ag761
ag3389
ag3396
ag3610
ag4344
ag1568
ag1571
ag3433
ag332
ag336
ag1364
ag1367
ag1120
ag1678
ag1681
ag1684
ag73
ag166
ag917
ag921
ag927
ag2201
ag2204
ag2657
ag2660
ag792
ag795
ag798
ag3878
ag4007
ag2779
ag2782
ag2785
ag939
ag948
ag952
ag4228
ag4231
ag4234
ag4237
ag4168
ag648
ag651
ag2650
ag4353
ag425
ag4022
ag4026
ag2103
ag1818
ag49
ag54
ag3801
ag3804
ag3807
ag3810
ag3136
ag3144
ag819
ag1696
ag1699
ag1708
ag1712
a(lp4411
VSOFSVLQ12A8C141D94
p4412
aVSOAVZZE12AB018795E
p4413
aa(lp4414
VSOJMJHO12A8C142C85
p4415
aVSOHMXAW12A58A7BEDA
p4416
aa(lp4417
VSOTWPPZ12AB018DF27
p4418
aVSOGJXYT12AC3DFA647
p4419
aVSOCSZSL12A6D4F693B
p4420
aag4082
ag4085
ag1031
ag1038
ag2177
ag2180
ag287
ag295
ag298
ag303
ag1011
ag1015
ag2828
ag4040
ag1747
ag1751
ag1755
ag2906
ag1812
ag1815
ag906
ag909
ag913
ag2332
ag2336
ag536
ag543
ag549
ag2997
ag2592
ag2595
ag2355
ag2788
ag2792
ag1133
ag861
ag3903
ag3906
ag3912
ag3915
ag3102
ag3105
ag3402
ag3464
ag1168
ag827
ag1219
ag1222
ag1225
ag2420
ag3741
ag3744
ag1373
ag3031
ag3770
ag350
ag353
ag356
ag359
ag362
ag1466
ag1469
ag263
ag4165
ag4090
ag4093
ag3267
ag3273
ag408
ag3192
ag834
ag3712
ag3778
ag3079
ag1631
ag3376
ag3379
ag4369
ag1947
ag1950
ag1953
ag2039
ag2042
ag2045
ag267
ag3246
ag3249
ag605
ag608
ag1739
ag1899
ag1905
ag4116
ag1139
ag1143
ag1148
ag2618
ag2621
ag2442
ag639
ag643
ag694
ag699
ag4220
ag4223
ag1194
ag1197
ag3630
aa(lp4421
g3003
ag3006
ag1446
ag4372
ag3994
ag3997
ag2657
ag2660
ag3464
ag1879
ag1883
ag1726
ag1888
ag1893
ag1896
ag58
ag61
ag64
ag3358
ag3361
ag4240
ag2532
ag2535
ag1715
ag342
ag347
ag258
ag1370
ag3283
ag3288
ag2664
ag2667
ag3227
ag3230
ag4040
ag3987
ag3990
ag499
ag4347
ag1171
ag1729
ag1732
ag1735
ag200
ag203
ag206
ag209
ag1739
ag2896
ag2859
ag3376
ag3379
ag2741
ag2744
ag2976
ag2979
ag3180
ag3187
ag3693
ag3696
ag3699
ag2195
ag2198
ag1133
ag1279
ag1282
ag2003
ag2008
ag2011
ag4228
ag4231
ag4234
ag4237
ag1325
ag2599
ag25
ag29
ag4369
ag2339
ag2343
ag2347
ag3662
ag3665
ag3960
ag3964
ag997
ag2938
ag2941
ag2945
ag414
ag422
ag3947
ag2523
ag2526
ag1194
ag1197
ag1288
ag4057
ag1764
ag630
a(lp4422
VSOKBSLX12A6D4FA1A4
p4423
aVSOHUMHB12A8C1337D1
p4424
aag2991
ag2994
ag2036
ag842
ag846
ag849
ag1693
ag464
ag1767
ag1775
ag440
ag2093
ag1837
ag4389
ag4393
ag4397
ag2015
ag2019
ag2023
ag2027
ag2032
ag2775
ag3513
ag3517
ag1520
ag4199
ag852
ag855
ag858
ag873
ag876
ag721
ag724
ag727
ag734
ag3436
ag3439
ag174
ag1174
ag3046
ag3052
ag3570
ag4100
ag4103
ag4108
ag2215
ag2218
ag425
ag1272
ag1276
ag39
ag42
ag46
ag3792
ag1268
ag764
ag772
ag4070
ag4073
ag4079
ag702
ag706
ag712
ag2103
ag2747
ag2751
ag2754
ag1466
ag1469
ag1071
ag3547
ag502
ag506
ag511
ag516
ag3217
ag3220
ag2719
ag3294
ag3297
ag339
ag2529
ag3897
ag3900
ag3011
ag3014
ag3017
ag2602
ag2120
ag3264
ag4257
ag4261
ag3402
ag939
ag948
ag952
ag1229
ag1232
ag128
ag2096
ag2099
ag1028
ag2758
ag2762
ag1378
ag1383
ag3687
ag1947
ag1950
ag1953
ag166
ag3551
ag2373
ag2378
ag4131
ag2906
ag2242
ag2245
ag1696
ag1699
ag2442
ag3481
ag3484
ag3489
ag2170
ag2174
ag557
ag560
ag563
ag1719
ag1722
ag1678
ag1681
ag1684
ag1087
ag1096
ag1099
ag1102
ag1108
ag3715
ag3267
ag3273
ag657
ag660
ag2159
ag2163
ag4090
ag4093
ag4134
ag4138
ag778
ag782
ag785
ag3834
ag3839
ag3845
ag428
ag431
ag169
ag131
ag134
ag2468
ag2472
ag2475
ag1001
ag1004
ag1007
ag3498
ag3503
ag3506
ag1668
ag1672
ag263
ag1153
ag1997
ag2000
ag3648
ag3705
ag3709
ag4217
ag639
ag643
ag2736
ag2386
ag2389
ag2351
ag1018
ag1021
ag2070
ag754
ag758
ag761
ag592
ag3442
ag3446
ag3449
ag2107
ag2110
ag2113
ag2117
ag1250
ag1259
ag238
ag241
ag3277
ag3828
ag3831
ag1463
ag2062
ag2065
ag3023
ag3027
ag1186
ag1190
ag1139
ag1143
ag1148
ag976
ag2482
ag2486
ag3630
ag1641
ag1648
ag3126
ag3712
ag3922
ag1804
ag1807
ag1821
ag1824
ag1828
ag1831
ag4022
ag4026
ag1917
ag1921
ag1655
ag1353
ag1357
ag1361
ag1982
ag1987
ag1990
ag1994
ag3083
ag3088
ag3073
ag3076
ag1812
ag1815
ag3614
ag3619
ag2263
ag2211
ag284
ag2540
ag1589
ag1592
ag1595
ag1598
ag1602
ag1605
ag2964
ag2177
ag2180
ag3875
ag2138
ag2141
ag1966
ag1969
ag110
ag1631
ag3741
ag3744
ag1307
ag1310
ag1313
ag572
ag575
ag2576
ag2580
ag2583
ag1242
ag1247
ag1535
ag1541
ag1545
ag1550
ag1553
ag2325
ag2329
ag3718
ag4268
ag4272
ag3683
ag1373
ag4404
ag4408
ag2788
ag2792
ag2915
ag2919
a(lp4425
VSOMNKXS12A58A79668
p4426
aVSORUGXO12AB0180AEA
p4427
aVSOMRFHJ12A8C1334AB
p4428
aa(lp4429
VSOKULLX12A8AE4609D
p4430
aVSOLYJVR12A6701F6F7
p4431
aa(lp4432
VSOLSIHN12A670209C5
p4433
aVSOKJESY12AF72A5018
p4434
aVSOGCMWR12A670209CA
p4435
aag2958
ag2961
ag4180
ag2771
ag3037
ag3040
ag3315
ag2831
ag2834
ag955
ag958
ag32
ag35
ag2445
ag2451
ag2048
ag2052
ag2056
ag2059
ag4375
ag376
ag379
ag384
ag387
ag3702
ag1862
ag4208
ag4211
ag2875
ag2880
ag2431
ag184
ag187
ag190
ag3426
ag3430
ag1562
ag1565
ag3676
ag3918
ag3211
ag3214
ag2997
ag3957
ag3057
ag1475
ag1482
ag3234
ag3459
ag2730
ag2733
ag861
ag390
ag1136
ag2551
ag2557
ag2561
ag1687
ag1690
ag1874
ag2828
ag3116
ag3119
ag805
ag808
ag811
ag816
ag917
ag921
ag927
ag3000
ag76
ag84
ag287
ag295
ag298
ag303
ag3258
ag2687
ag2691
ag4158
ag4011
ag4018
ag3668
ag3672
ag4145
ag4148
ag4152
ag2967
ag2972
ag4096
ag1586
ag3980
ag3984
ag2618
ag2621
ag3863
ag3871
ag267
ag3770
ag3307
a(lp4436
VSOFMREE12A8C13BAE9
p4437
aVSOFCAWX12A8C13AA57
p4438
aa(lp4439
VSONSDOI12CF5F89029
p4440
aVSORAZQF12AB01840E9
p4441
aVSOPVGPL12A6D4F8515
p4442
aVSOLSODY12A8C1348AA
p4443
aag4220
ag4223
ag4378
ag4382
ag1979
ag116
ag119
ag124
ag4184
ag4189
ag3321
ag2695
ag113
ag3537
ag3540
ag3543
ag3408
ag3758
ag3582
ag3586
ag1389
ag1392
ag1395
ag244
ag3301
ag3304
ag1080
ag1084
ag2909
ag2912
ag3382
ag3386
ag1847
ag1850
ag1855
ag1858
ag468
ag472
ag476
ag1439
ag1442
ag4308
ag212
ag4172
ag4176
ag3031
ag1523
ag1527
ag1530
ag680
ag683
ag687
ag690
ag445
ag453
ag456
ag2626
ag2630
ag2814
ag2817
ag2821
ag1422
ag1425
ag1430
ag3785
ag3789
ag519
ag522
ag411
ag4037
ag4119
ag4275
ag4279
ag4285
ag2489
ag2492
ag1651
ag3624
ag3627
ag2457
ag982
ag991
ag1042
ag1045
ag3970
ag3974
ag2495
ag2500
ag394
ag397
ag2364
ag2368
ag1778
ag1781
ag1216
ag3882
ag3888
ag3894
ag3801
ag3804
ag3807
ag3810
ag3159
ag3169
ag3174
ag2840
ag2846
ag1747
ag1751
ag1755
ag2643
ag2646
ag3413
ag3416
ag4000
ag4003
ag3749
ag3753
ag3520
ag3526
ag2355
ag2248
ag461
ag2300
ag2434
ag2439
ag1336
ag1339
ag3532
ag4265
ag1759
ag1074
ag2392
ag2395
ag2398
ag2401
ag3364
ag3368
ag3373
ag595
ag602
ag578
ag581
ag3177
ag2256
ag2259
ag3813
ag3816
ag536
ag543
ag549
ag648
ag651
ag2267
ag2270
ag2073
ag2076
ag2653
ag350
ag353
ag356
ag359
ag362
ag1414
ag1417
ag4043
ag4046
ag4050
ag1865
ag1869
ag1180
ag3195
ag4400
ag3557
ag3162
ag3165
ag3554
ag3237
ag3240
ag3243
ag248
ag252
ag255
ag3977
ag1608
ag1613
ag1617
ag1622
ag1625
ag2606
ag1031
ag1038
ag3328
ag3337
ag3341
ag3344
ag3350
ag3355
ag1956
ag1959
ag1963
ag4060
ag4066
ag3261
ag4360
ag4363
ag3878
ag1899
ag1905
ag1056
ag1061
ag1068
ag2698
ag2702
ag151
ag155
ag159
ag3928
ag3932
ag2420
a(lp4444
VSOBPEGX12B0B8095F3
p4445
aVSOVYVPA12CF5F87B4A
p4446
aVSOQDWQN12A6310DF29
p4447
aVSOJTNID12A8AE47AF7
p4448
aVSOINTXZ12AF729FB66
p4449
aa(lp4450
VSOZKDMB12B0B80C4AC
p4451
aVSOQAWJC12A6D4F66F2
p4452
aVSOMZYJG12A8C14138C
p4453
aa(lp4454
VSONBGOT12A6701DC53
p4455
aVSOKEUYU12A67ADF7E6
p4456
aa(lp4457
VSOLBOOB12AF72AB451
p4458
aVSOLSODY12A8C1348AA
p4459
aag3452
ag3456
ag15
ag22
ag2283
ag4366
ag2273
ag2278
ag3589
ag3595
ag3598
ag4326
ag4329
ag3433
ag1628
ag936
ag1972
ag1975
ag4333
ag4338
ag4341
ag3654
ag3657
ag605
ag608
ag1818
ag906
ag909
ag913
ag2183
ag2186
ag2189
ag2192
ag1840
ag1843
ag3246
ag3249
ag616
ag740
ag747
ag751
ag3122
ag1494
ag1498
ag1501
ag1505
ag2586
ag2589
ag104
ag107
ag365
ag372
ag2460
ag3903
ag3906
ag3912
ag3915
ag2922
ag2927
ag2932
ag2723
ag2727
ag1124
ag2592
ag2595
ag1329
ag1332
ag49
ag54
ag3495
ag3079
ag2332
ag2336
ag775
ag1457
ag1460
ag3773
ag94
ag99
ag584
ag587
ag1575
ag1578
ag1581
ag177
ag180
ag2224
ag2227
ag2230
ag1511
ag1514
ag1517
ag3318
ag3560
ag3563
ag1932
ag1935
ag1938
ag1941
ag1834
ag273
ag279
ag486
ag490
ag496
ag3389
ag3396
ag1451
ag1454
ag4312
ag4315
ag4319
ag3641
ag3645
ag2303
ag2307
ag2311
ag3136
ag3144
ag3651
ag1490
ag141
ag3325
ag2564
ag2862
ag311
ag315
ag319
ag2286
ag2289
ag2292
ag2865
ag2868
ag2871
ag3156
ag792
ag795
ag798
ag788
aa(lp4460
g1364
ag1367
ag3
ag8
ag4257
ag4261
ag1174
ag2529
ag3328
ag3337
ag3341
ag3344
ag3350
ag3355
ag1874
ag870
ag1575
ag1578
ag1581
ag982
ag991
ag3715
ag461
ag1865
ag1869
ag1494
ag1498
ag1501
ag1505
ag2664
ag2667
ag4425
ag4429
ag4432
ag3177
ag3977
ag15
ag22
ag2195
ag2198
ag3813
ag3816
ag284
ag3283
ag3288
ag805
ag808
ag811
ag816
ag4119
ag3099
ag3389
ag3396
ag267
ag2208
ag3211
ag3214
ag4090
ag4093
ag3679
ag2070
ag394
ag397
ag792
ag795
ag798
ag2123
ag2138
ag2141
ag2915
ag2919
ag200
ag203
ag206
ag209
ag630
ag4165
ag1439
ag1442
ag2976
ag2979
ag775
ag3083
ag3088
ag1139
ag1143
ag1148
ag3987
ag3990
ag4180
ag3648
ag3683
ag2048
ag2052
ag2056
ag2059
ag955
ag958
ag619
ag622
ag1535
ag1541
ag1545
ag1550
ag1553
ag961
ag964
ag967
ag970
ag2796
ag2800
ag3573
ag3576
ag3579
ag2788
ag2792
ag917
ag921
ag927
ag2248
ag4168
ag3020
ag819
ag1279
ag1282
ag3570
ag131
ag134
ag1353
ag1357
ag1361
ag4057
ag2332
ag2336
ag3730
ag3733
ag3736
ag2062
ag2065
ag4326
ag4329
ag3237
ag3240
ag3243
ag2671
ag2674
ag4131
ag1250
ag1259
ag2967
ag2972
ag177
ag180
ag3849
ag3852
ag3855
ag3858
ag3953
ag1929
ag1899
ag1905
ag2567
ag2570
ag2442
ag2096
ag2099
ag997
ag2273
ag2278
ag4375
ag4022
ag4026
ag3957
ag3310
ag3011
ag3014
ag3017
ag1466
ag1469
ag861
ag2183
ag2186
ag2189
ag2192
ag2211
ag3687
ag2840
ag2846
ag3264
ag2730
ag2733
ag1617
ag1622
ag1625
ag2952
ag2955
ag4436
ag4439
ag3602
ag3605
ag58
ag61
ag64
ag4100
ag4103
ag4108
ag4378
ag4382
ag3520
ag3526
ag2373
ag2378
ag4000
ag4003
ag3156
ag906
ag909
ag913
ag2003
ag2008
ag2011
ag184
ag187
ag190
ag2576
ag2580
ag2583
ag1272
ag1276
ag3159
ag1475
ag1482
ag1056
ag1061
ag1068
ag1373
ag3492
ag2177
ag2180
ag4357
ag1001
ag1004
ag1007
ag3408
ag3878
ag1631
ag801
ag1216
ag1628
ag2592
ag2595
ag3070
ag1818
ag2828
ag3610
ag3828
ag3831
ag2159
ag2163
ag4220
ag4223
ag1153
ag1186
ag1190
ag499
ag113
ag3741
ag3744
ag2434
ag2439
ag1523
ag1527
ag1530
ag3261
ag1729
ag1732
ag1735
ag39
ag42
ag46
ag1726
ag852
ag855
ag858
ag116
ag119
ag124
ag2303
ag2307
ag2311
ag831
ag2409
ag2413
ag2416
ag2386
ag2389
ag3495
ag1329
ag1332
ag144
ag147
ag3513
ag3517
ag25
ag29
ag634
ag2073
ag2076
ag350
ag353
ag356
ag359
ag362
ag3162
ag3165
ag1888
ag1893
ag1896
ag1171
ag3634
ag2814
ag2817
ag2821
ag1242
ag1247
ag1608
ag1613
ag1414
ag1417
ag3903
ag3906
ag3912
ag3915
ag1778
ag1781
ag3668
ag3672
ag1687
ag1690
ag3960
ag3964
ag4333
ag4338
ag4341
ag1759
ag1678
ag1681
ag1684
ag3073
ag3076
ag842
ag846
ag849
ag2606
ag1696
ag1699
ag605
ag608
ag2896
ag4199
ag3426
ag3430
ag225
ag230
ag234
ag1520
ag721
ag724
ag727
ag734
ag2300
ag1087
ag1096
ag1099
ag1102
ag1108
ag2431
ag2997
ag3376
ag3379
ag1350
ag2201
ag2204
ag414
ag422
ag238
ag241
ag339
ag2170
ag2174
ag1031
ag1038
ag4060
ag4066
ag1124
ag2468
ag2472
ag2475
ag4158
ag2909
ag2912
ag390
ag1288
ag1658
ag1661
ag1665
ag1837
ag2653
ag3537
ag3540
ag3543
ag2233
ag2238
ag2615
ag2457
ag595
ag602
ag1219
ag1222
ag1225
ag3136
ag3144
ag3676
ag3547
ag3217
ag3220
ag2428
ag973
ag2650
ag4096
ag3307
ag174
ag1080
ag1084
ag1655
ag3778
ag2224
ag2227
ag2230
ag1926
ag3464
ag4360
ag4363
ag3110
ag3113
ag1071
ag2611
ag3721
ag3724
ag3727
ag3301
ag3304
ag2899
ag2903
ag3192
ag2747
ag2751
ag2754
ag4082
ag4085
ag3498
ag3503
ag3506
ag2938
ag2941
ag2945
ag1589
ag1592
ag1595
ag1598
ag1602
ag1605
ag3000
ag1747
ag1751
ag1755
ag408
ag3031
ag3402
ag3405
ag4202
ag4205
ag2626
ag2630
ag3358
ag3361
ag3702
ag3554
ag552
ag263
ag2831
ag2834
ag3773
ag464
ag3560
ag3563
ag3875
ag536
ag543
ag549
ag1183
ag838
ag3063
ag3654
ag3657
ag2286
ag2289
ag2292
ag3436
ag3439
ag1291
ag702
ag706
ag712
ag162
ag2242
ag2245
ag151
ag155
ag159
ag584
ag587
ag2741
ag2744
ag1457
ag1460
ag3928
ag3932
ag3325
ag680
ag683
ag687
ag690
ag287
ag295
ag298
ag303
ag2263
ag248
ag252
ag255
ag2964
ag1785
ag1792
ag1800
ag1708
ag1712
ag616
ag3897
ag3900
ag2364
ag2368
ag1268
ag1325
ag2463
ag3551
ag3122
ag4404
ag4408
ag2355
ag3922
ag3399
ag2543
ag2547
ag32
ag35
ag323
ag326
ag329
ag258
ag1370
ag3651
ag1715
ag1168
ag1451
ag1454
ag1568
ag1571
ag3819
ag3822
ag3792
ag332
ag336
ag67
ag70
ag1840
ag1843
ag3277
ag1879
ag1883
ag578
ag581
ag2775
ag1562
ag1565
ag1490
ag3918
ag3169
ag3174
ag2991
ag2994
ag3970
ag3974
ag2540
ag1336
ag1339
ag1834
ag4400
ag1378
ag1383
ag2679
ag2684
ag3198
ag3201
ag3207
ag3801
ag3804
ag3807
ag3810
ag3761
ag3764
ag4444
ag4450
ag4454
ag4457
ag482
ag4113
ag2723
ag2727
ag939
ag948
ag952
ag592
ag3693
ag3696
ag3699
ag4389
ag4393
ag4397
ag1229
ag1232
ag572
ag575
ag3433
ag3863
ag3871
ag445
ag453
ag456
ag2982
ag2988
ag3442
ag3446
ag3449
ag311
ag315
ag319
ag2687
ag2691
ag3364
ag3368
ag3373
ag3382
ag3386
ag2314
ag2317
ag2320
ag4422
ag2460
ag2765
ag2768
ag1433
ag1436
ag2080
ag2085
ag2146
ag2551
ag2557
ag2561
ag3057
ag1042
ag1045
ag1821
ag1824
ag1828
ag1831
ag3481
ag3484
ag3489
ag740
ag747
ag751
ag2618
ag2621
ag4289
ag4292
ag4295
ag4300
ag4303
ag1114
ag1117
ag405
ag3825
ag2758
ag2762
ag886
ag889
ag892
ag2705
ag2714
ag3589
ag3595
ag3598
ag434
ag437
ag3614
ag3619
ag3582
ag3586
ag936
ag3834
ag3839
ag3845
ag3882
ag3888
ag3894
ag827
ag1641
ag1648
ag4070
ag4073
ag4079
ag2862
ag2445
ag2451
ag3770
ag2852
ag2855
ag1804
ag1807
ag3758
ag4372
ag4265
ag4214
ag2657
ag2660
ag4116
ag1956
ag1959
ag1963
ag2267
ag2270
ag2586
ag2589
ag2643
ag2646
ag3318
ag1586
ag2695
ag3321
ag2875
ag2880
ag3935
ag1947
ag1950
ag1953
ag3258
ag4366
ag3267
ag3273
ag2107
ag2110
ag2113
ag2117
ag715
ag718
ag425
ag2958
ag2961
ag4386
ag4369
ag3003
ag3006
ag557
ag560
ag563
ag1389
ag1392
ag1395
ag1979
ag1446
ag1194
ag1197
ag3227
ag3230
ag3638
ag1316
ag1321
ag4275
ag4279
ag4285
ag694
ag699
ag754
ag758
ag761
ag4007
ag2523
ag2526
ag657
ag660
ag2504
ag3705
ag3709
ag639
ag643
ag2015
ag2019
ag2023
ag2027
ag2032
ag2906
ag1966
ag1969
ag1693
ag4043
ag4046
ag4050
ag1997
ag2000
ag2103
ag994
ag2215
ag2218
ag976
ag788
ag2495
ag2500
ag611
ag1180
ag2404
ag4344
ag4411
ag4414
ag4417
ag1294
ag1300
ag1304
ag1028
ag2120
ag2339
ag2343
ag2347
ag137
ag2599
ag2779
ag2782
ag2785
aa(lp4461
g1042
ag1045
ag1414
ag1417
ag861
ag1136
ag169
ag2195
ag2198
ag2215
ag2218
ag1966
ag1969
ag4265
ag595
ag602
ag886
ag889
ag892
ag1847
ag1850
ag1855
ag1858
ag1028
ag557
ag560
ag563
ag4411
ag4414
ag4417
ag2420
ag1114
ag1117
ag11
ag3020
ag4268
ag4272
ag499
ag468
ag472
ag476
ag4208
ag4211
ag3358
ag3361
ag680
ag683
ag687
ag690
ag2814
ag2817
ag2821
ag2606
ag2386
ag2389
ag1433
ag1436
ag3399
ag3819
ag3822
ag2671
ag2674
ag2859
ag3557
ag1634
ag1638
ag3433
ag2138
ag2141
ag1439
ag1442
ag184
ag187
ag190
ag3402
ag332
ag336
ag3442
ag3446
ag3449
ag1523
ag1527
ag1530
ag339
ag3310
ag376
ag379
ag384
ag387
ag1124
ag1874
ag715
ag718
ag1932
ag1935
ag1938
ag1941
ag110
ag1350
ag3495
ag225
ag230
ag234
ag2747
ag2751
ag2754
ag162
ag2273
ag2278
ag1080
ag1084
ag2653
ag2599
ag4100
ag4103
ag4108
ag2576
ag2580
ag2583
ag3073
ag3076
ag2771
ag3834
ag3839
ag3845
ag764
ag772
ag1018
ag1021
ag3
ag8
ag193
ag196
ag3318
ag73
ag394
ag397
ag1031
ag1038
ag3475
ag3408
ag1127
ag1130
ag939
ag948
ag952
ag3702
ag2899
ag2903
ag2634
ag2637
ag2640
ag3825
ag1168
ag4090
ag4093
ag1183
ag3683
ag1715
ag852
ag855
ag858
ag2643
ag2646
ag2592
ag2595
ag2779
ag2782
ag2785
ag2177
ag2180
ag3246
ag3249
ag2695
ag2242
ag2245
ag1389
ag1392
ag1395
ag486
ag490
ag496
ag2875
ag2880
ag3863
ag3871
ag238
ag241
ag3057
ag502
ag506
ag511
ag516
ag4096
ag3651
ag3211
ag3214
ag3011
ag3014
ag3017
ag3426
ag3430
ag4217
ag1562
ag1565
ag1678
ag1681
ag1684
ag3801
ag3804
ag3807
ag3810
ag1216
ag3267
ag3273
ag1490
ag3940
ag3944
ag2543
ag2547
ag3092
ag3096
ag2482
ag2486
ag3795
ag3798
ag141
ag3560
ag3563
ag2434
ag2439
ag3970
ag3974
ag2445
ag2451
ag3602
ag3605
ag267
ag4184
ag4189
ag1804
ag1807
ag1917
ag1921
ag3325
ag1729
ag1732
ag1735
ag3712
ag1641
ag1648
ag1174
ag311
ag315
ag319
ag1739
ag4082
ag4085
ag4134
ag4138
ag3264
ag4360
ag4363
ag2723
ag2727
ag3110
ag3113
ag464
ag1370
ag1343
ag2211
ag536
ag543
ag549
ag3687
ag3301
ag3304
ag1475
ag1482
ag3258
ag3925
ag1398
ag1401
ag1404
ag1409
ag721
ag724
ag727
ag734
ag2070
ag3159
ag1899
ag1905
ag104
ag107
ag4444
ag4450
ag4454
ag4457
ag664
ag671
ag675
ag1726
ag461
ag3291
ag4060
ag4066
ag1291
ag405
ag2159
ag2163
ag2896
ag3003
ag3006
ag4119
ag1979
ag1288
ag428
ag431
ag982
ag991
ag174
ag3589
ag3595
ag3598
ag778
ag782
ag785
ag2457
ag3721
ag3724
ag3727
ag842
ag846
ag849
ag1074
ag873
ag876
ag151
ag155
ag159
ag3436
ag3439
ag3498
ag3503
ag3506
ag917
ag921
ag927
ag694
ag699
ag1463
ag4425
ag4429
ag4432
ag2489
ag2492
ag4131
ag605
ag608
ag3882
ag3888
ag3894
ag4040
ag2120
ag2705
ag2714
ag4257
ag4261
ag3878
ag1655
ag2325
ag2329
ag2586
ag2589
ag657
ag660
ag2036
ag3237
ag3240
ag3243
ag3321
ag2103
ag4357
ag1171
ag284
ag4168
ag200
ag203
ag206
ag209
ag1947
ag1950
ag1953
ag3520
ag3526
ag2611
ag1929
ag212
ag1272
ag1276
ag1001
ag1004
ag1007
ag2615
ag3668
ag3672
ag4404
ag4408
ag3547
ag3953
ag1494
ag1498
ag1501
ag1505
ag4037
ag67
ag70
ag1120
ag1307
ag1310
ag1313
ag4214
ag3532
ag3875
ag166
ag2428
ag3116
ag3119
ag1575
ag1578
ag1581
ag3492
ag3277
ag1696
ag1699
ag1651
ag3849
ag3852
ag3855
ag3858
ag4070
ag4073
ag4079
ag3177
ag2529
ag4422
ag3180
ag3187
ag2286
ag2289
ag2292
ag2679
ag2684
ag15
ag22
ag3083
ag3088
ag2788
ag2792
ag244
ag1865
ag1869
ag1617
ag1622
ag1625
ag2080
ag2085
ag2183
ag2186
ag2189
ag2192
ag4202
ag4205
ag2409
ag2413
ag2416
ag4308
ag1508
ag144
ag147
ag1378
ag1383
ag754
ag758
ag761
ag2964
ag263
ag2093
ag1466
ag1469
ag740
ag747
ag751
ag2495
ag2500
ag792
ag795
ag798
ag2431
ag4369
ag2958
ag2961
ag1879
ag1883
ag3573
ag3576
ag3579
ag1186
ag1190
ag788
ag2865
ag2868
ag2871
ag3452
ag3456
ag2831
ag2834
ag2523
ag2526
ag552
ag2201
ag2204
ag2991
ag2994
ag2650
ag3169
ag3174
ag4180
ag3641
ag3645
ag2373
ag2378
ag2355
ag626
ag3662
ag3665
ag961
ag964
ag967
ag970
ag1229
ag1232
ag4172
ag4176
ag2404
ag3947
ag3510
ag2602
ag408
ag3198
ag3201
ag3207
ag3614
ag3619
ag1586
ag2256
ag2259
ag3749
ag3753
ag4000
ag4003
ag1764
ag1329
ag1332
ag2664
ag2667
ag1056
ag1061
ag1068
ag2687
ag2691
ag2351
ag3960
ag3964
ag2339
ag2343
ag2347
ag1972
ag1975
ag1687
ag1690
ag1719
ag1722
ag3935
ag3217
ag3220
ag2657
ag2660
ag2048
ag2052
ag2056
ag2059
ag1631
ag1982
ag1987
ag1990
ag1994
ag3389
ag3396
ag4289
ag4292
ag4295
ag4300
ag4303
ag1956
ag1959
ag1963
ag3315
ag4057
ag3060
ag1279
ag1282
ag2507
ag2511
ag2515
ag2520
ag619
ag622
ag3705
ag3709
ag997
ag1785
ag1792
ag1800
ag4022
ag4026
ag3037
ag3040
ag3099
ag3903
ag3906
ag3912
ag3915
ag1997
ag2000
ag2314
ag2317
ag2320
ag2884
ag2892
ag1668
ag1672
ag1336
ag1339
ag411
ag2736
ag2982
ag2988
ag1219
ag1222
ag1225
ag3551
ag584
ag587
ag440
ag1747
ag1751
ag1755
ag2003
ag2008
ag2011
ag578
ag581
ag3283
ag3288
ag1908
ag1914
ag936
ag273
ag279
ag4240
ag4436
ag4439
ag258
ag3307
ag4312
ag4315
ag4319
ag3570
ag1535
ag1541
ag1545
ag1550
ag1553
ag1268
ag2938
ag2941
ag2945
ag4344
ag616
ag2540
ag3638
ag870
ag3513
ag3517
ag1628
ag4113
ag2618
ag2621
ag2796
ag2800
ag3922
ag1194
ag1197
ag3758
ag1087
ag1096
ag1099
ag1102
ag1108
ag3718
ag3192
ag3063
ag994
ag445
ag453
ag456
ag2361
ag49
ag54
ag1011
ag1015
ag3405
ag3630
ag2504
ag572
ag575
ag482
ag4326
ag4329
ag3582
ag3586
ag1250
ag1259
ag3761
ag3764
ag1862
ag4333
ag4338
ag4341
ag3102
ag3105
ag2062
ag2065
ag3481
ag3484
ag3489
ag116
ag119
ag124
ag128
ag3000
ag1133
ag2132
ag2135
ag2224
ag2227
ag2230
ag4011
ag4018
ag648
ag651
ag2364
ag2368
ag3031
ag342
ag347
ag1364
ag1367
ag3328
ag3337
ag3341
ag3344
ag3350
ag3355
ag1242
ag1247
ag1203
ag1209
ag2463
ag32
ag35
ag2300
ag819
ag3227
ag3230
ag1294
ag1300
ag1304
ag775
ag801
ag2442
ag3261
ag1153
ag3679
ag3046
ag3052
ag1520
ag3928
ag3932
ag3610
ag3648
ag2303
ag2307
ag2311
ag1821
ag1824
ag1828
ag1831
ag1451
ag1454
ag3980
ag3984
ag3785
ag3789
ag39
ag42
ag46
ag3464
ag2828
ag3770
ag137
ag2852
ag2855
ag1708
ag1712
ag2909
ag2912
ag3918
ag2233
ag2238
ag3813
ag3816
ag1834
ag2107
ag2110
ag2113
ag2117
ag4375
ag2392
ag2395
ag2398
ag2401
ag2123
ag4165
ag2862
ag1180
ag3537
ag3540
ag3543
aa(lp4462
g248
ag252
ag255
ag4214
ag2991
ag2994
ag721
ag724
ag727
ag734
ag3654
ag3657
ag1398
ag1401
ag1404
ag1409
ag4199
ag4060
ag4066
ag1307
ag1310
ag1313
ag1294
ag1300
ag1304
ag2489
ag2492
ag1457
ag1460
ag1268
ag3364
ag3368
ag3373
ag1729
ag1732
ag1735
ag193
ag196
ag1535
ag1541
ag1545
ag1550
ag1553
ag2664
ag2667
ag740
ag747
ag751
ag3267
ag3273
ag3557
ag2618
ag2621
ag2093
ag1865
ag1869
ag3315
ag3935
ag1908
ag1914
ag3749
ag3753
ag1378
ag1383
ag3918
ag955
ag958
ag3310
ag2523
ag2526
ag3003
ag3006
ag212
ag2606
ag3023
ag3027
ag1767
ag1775
ag3234
ag2495
ag2500
ag468
ag472
ag476
ag1373
ag2938
ag2941
ag2945
ag3301
ag3304
ag1947
ag1950
ag1953
ag3551
ag2657
ag2660
ag3630
ag4090
ag4093
ag4422
ag2875
ag2880
ag502
ag506
ag511
ag516
ag4037
ag3358
ag3361
ag2592
ag2595
ag3662
ag3665
ag2233
ag2238
ag611
ag2723
ag2727
ag2409
ag2413
ag2416
ag2177
ag2180
ag411
ag1847
ag1850
ag1855
ag1858
ag3495
ag3328
ag3337
ag3341
ag3344
ag3350
ag3355
ag1250
ag1259
ag2909
ag2912
ag2695
ag2765
ag2768
ag2840
ag2846
ag2576
ag2580
ag2583
ag4145
ag4148
ag4152
ag3730
ag3733
ag3736
ag1589
ag1592
ag1595
ag1598
ag1602
ag1605
ag2796
ag2800
ag3227
ag3230
ag2504
ag1494
ag1498
ag1501
ag1505
ag1862
ag2096
ag2099
ag1747
ag1751
ag1755
ag1879
ag1883
ag4000
ag4003
ag552
ag2208
ag3547
ag519
ag522
ag838
ag144
ag147
ag2314
ag2317
ag2320
ag2599
ag311
ag315
ag319
ag1651
ag3073
ag3076
ag2775
ag1346
ag619
ag622
ag1183
ag764
ag772
ag3258
ag2952
ag2955
ag3126
ag939
ag948
ag952
ag376
ag379
ag384
ag387
ag1336
ag1339
ag4119
ag4158
ag1979
ag131
ag134
ag1693
ag2967
ag2972
ag2364
ag2368
ag1291
ag1926
ag834
ag1353
ag1357
ag1361
ag3520
ag3526
ag499
ag2964
ag2758
ag2762
ag3
ag8
ag3770
ag2267
ag2270
ag110
ag1837
ag3813
ag3816
ag3922
ag4326
ag4329
ag3705
ag3709
ag3718
ag3801
ag3804
ag3807
ag3810
ag3264
ag1475
ag1482
ag4425
ag4429
ag4432
ag1641
ag1648
ag3570
ag1203
ag1209
ag4372
ag3641
ag3645
ag2831
ag2834
ag2420
ag2103
ag2884
ag2892
ag2705
ag2714
ag58
ag61
ag64
ag827
ag1982
ag1987
ag1990
ag1994
ag4353
ag2982
ag2988
ag3758
ag595
ag602
ag1785
ag1792
ag1800
ag482
ag113
ag1074
ag3261
ag2283
ag1997
ag2000
ag1011
ag1015
ag648
ag651
ag1818
ag1687
ag1690
ag4022
ag4026
ag3634
ag1056
ag1061
ag1068
ag2507
ag2511
ag2515
ag2520
ag169
ag3211
ag3214
ag3198
ag3201
ag3207
ag1272
ag1276
ag1956
ag1959
ag1963
ag3498
ag3503
ag3506
ag4116
ag831
ag3582
ag3586
ag3778
ag2325
ag2329
ag2351
ag2263
ag323
ag326
ag329
ag350
ag353
ag356
ag359
ag362
ag3110
ag3113
ag3057
ag1414
ag1417
ag3102
ag3105
ag2611
ag557
ag560
ag563
ag4344
ag4208
ag4211
ag3079
ag4375
ag2183
ag2186
ag2189
ag2192
ag3953
ag2529
ag141
ag3940
ag3944
ag3192
ag2358
ag2132
ag2135
ag3162
ag3165
ag1329
ag1332
ag861
ag1316
ag1321
ag137
ag1778
ag1781
ag461
ag238
ag241
ag2788
ag2792
ag897
ag2899
ag2903
ag1364
ag1367
ag4168
ag1168
ag3459
ag2779
ag2782
ag2785
ag1812
ag1815
ag4257
ag4261
ag1834
ag2602
ag390
ag4217
ag961
ag964
ag967
ag970
ag428
ag431
ag2003
ag2008
ag2011
ag2392
ag2395
ag2398
ag2401
ag2482
ag2486
ag2859
ag405
ag1071
ag3554
ag526
ag529
ag3294
ag3297
ag1972
ag1975
ag4436
ag4439
ag2159
ag2163
ag116
ag119
ag124
ag2814
ag2817
ag2821
ag3687
ag4357
ag2146
ag775
ag3947
ag4096
ag3177
ag2852
ag2855
ag4444
ag4450
ag4454
ag4457
ag365
ag372
ag216
ag219
ag222
ag2457
ag4220
ag4223
ag1242
ag1247
ag2736
ag3442
ag3446
ag3449
ag166
ag2997
ag287
ag295
ag298
ag303
ag1655
ag2015
ag2019
ag2023
ag2027
ag2032
ag3092
ag3096
ag67
ag70
ag2434
ag2439
ag3819
ag3822
ag3070
ag1087
ag1096
ag1099
ag1102
ag1108
ag2355
ag2896
ag3676
ag2138
ag2141
ag3715
ag630
ag2564
ag1389
ag1392
ag1395
ag49
ag54
ag263
ag2120
ag754
ag758
ag761
ag3785
ag3789
ag3903
ag3906
ag3912
ag3915
ag2256
ag2259
ag2073
ag2076
ag3668
ag3672
ag2242
ag2245
ag1932
ag1935
ag1938
ag1941
ag3638
ag4043
ag4046
ag4050
ag1715
ag104
ag107
ag267
ag3987
ag3990
ag3436
ag3439
ag2201
ag2204
ag805
ag808
ag811
ag816
ag4113
ag2747
ag2751
ag2754
ag842
ag846
ag849
ag1804
ag1807
ag3116
ag3119
ag2551
ag2557
ag2561
ag2730
ag2733
ag578
ag581
ag973
ag3795
ag3798
ag2062
ag2065
ag3970
ag3974
ag3419
ag3423
ag1511
ag1514
ag1517
ag1608
ag1613
ag1568
ag1571
ag4082
ag4085
ag2922
ag2927
ag2932
ag3849
ag3852
ag3855
ag3858
ag3925
ag4308
ag3246
ag3249
ag3928
ag3932
ag434
ag437
ag2152
ag2155
ag3702
ag1508
ag3957
ag2332
ag2336
ag1042
ag1045
ag2286
ag2289
ag2292
ag1114
ag1117
ag886
ag889
ag892
ag2567
ag2570
ag2671
ag2674
ag1466
ag1469
ag536
ag543
ag549
ag2463
ag715
ag718
ag32
ag35
ag3464
ag2540
ag3000
ag2248
ag4389
ag4393
ag4397
ag1888
ag1893
ag1896
ag906
ag909
ag913
ag394
ag397
ag3122
ag258
ag1678
ag1681
ag1684
ag4378
ag4382
ag2428
ag3589
ag3595
ag3598
ag3060
ag3452
ag3456
ag3099
ag2650
ag3136
ag3144
ag2070
ag1634
ag1638
ag2048
ag2052
ag2056
ag2059
ag657
ag660
ag3560
ag3563
ag3712
ag2170
ag2174
ag3129
ag3132
ag1028
ag1120
ag3475
ag3046
ag3052
ag1194
ag1197
ag1370
ag1617
ag1622
ag1625
ag339
ag1186
ag1190
ag3405
ag3980
ag3984
ag1463
ag2586
ag2589
ag3277
ag1696
ag1699
ag572
ag575
ag3624
ag3627
ag3863
ag3871
ag1840
ag1843
ag873
ag876
ag3402
ag464
ag1139
ag1143
ag1148
ag2865
ag2868
ag2871
ag3307
ag1490
ag616
ag1325
ag3792
ag1628
ag2224
ag2227
ag2230
ag440
ag4265
ag2615
ag3037
ag3040
ag2698
ag2702
ag2215
ag2218
ag3977
ag3217
ag3220
ag1562
ag1565
ag994
ag1288
ag4289
ag4292
ag4295
ag4300
ag4303
ag4400
ag3321
ag1523
ag1527
ag1530
ag2634
ag2637
ag2640
ag694
ag699
ag4040
ag1631
ag3825
ag2828
ag2468
ag2472
ag2475
ag3828
ag3831
ag4240
ag4134
ag4138
ag3408
ag4228
ag4231
ag4234
ag4237
ag1350
ag4007
ag2080
ag2085
ag2915
ag2919
ag174
ag2039
ag2042
ag2045
ag177
ag180
ag3834
ag3839
ag3845
ag2123
ag1658
ag1661
ag1665
ag3159
ag3011
ag3014
ag3017
ag3651
ag4057
ag414
ag422
ag936
ag1422
ag1425
ag1430
ag1575
ag1578
ag1581
ag3376
ag3379
ag1229
ag1232
ag1719
ag1722
ag3156
ag1180
ag3031
ag2741
ag2744
ag2679
ag2684
ag3325
ag3994
ag3997
ag73
ag151
ag155
ag159
ag1739
ag332
ag336
ag1708
ag1712
ag4360
ag4363
ag4184
ag4189
ag3413
ag3416
ag3721
ag3724
ag3727
ag1451
ag1454
ag2719
ag3283
ag3288
ag408
aa(lp4463
g3318
ag1398
ag1401
ag1404
ag1409
ag3023
ag3027
ag3849
ag3852
ag3855
ag3858
ag4333
ag4338
ag4341
ag3234
ag339
ag2976
ag2979
ag11
ag2434
ag2439
ag4400
ag4308
ag1847
ag1850
ag1855
ag1858
ag3402
ag414
ag422
ag3408
ag1929
ag162
ag3903
ag3906
ag3912
ag3915
ag3825
ag461
ag2445
ag2451
ag4070
ag4073
ag4079
ag639
ag643
ag3935
ag1837
ag3
ag8
ag1056
ag1061
ag1068
ag982
ag991
ag2967
ag2972
ag3180
ag3187
ag2602
ag3413
ag3416
ag3801
ag3804
ag3807
ag3810
ag2442
ag2107
ag2110
ag2113
ag2117
ag2698
ag2702
ag4007
ag4116
ag2325
ag2329
ag39
ag42
ag46
ag3878
ag3264
ag2884
ag2892
ag827
ag3778
ag1917
ag1921
ag1171
ag1272
ag1276
ag2899
ag2903
ag1899
ag1905
ag1979
ag3267
ag3273
ag323
ag326
ag329
ag2551
ag2557
ag2561
ag2120
ag1655
ag3987
ag3990
ag1133
ag3638
ag2626
ag2630
ag248
ag252
ag255
ag1370
ag3582
ag3586
ag2736
ag428
ag431
ag3003
ag3006
ag3136
ag3144
ag3294
ag3297
ag3634
ag144
ag147
ag284
ag216
ag219
ag222
ag3630
ag1028
ag177
ag180
ag2592
ag2595
ag1834
ag2747
ag2751
ag2754
ag1759
ag225
ag230
ag234
ag870
ag1168
ag2170
ag2174
ag2618
ag2621
ag1821
ag1824
ag1828
ag1831
ag4372
ag2775
ag4344
ag2283
ag2952
ag2955
ag1307
ag1310
ag1313
ag4168
ag3498
ag3503
ag3506
ag151
ag155
ag159
ag1451
ag1454
ag3977
ag1203
ag1209
ag184
ag187
ag190
ag2671
ag2674
ag3773
ag3261
ag1127
ag1130
ag2687
ag2691
ag273
ag279
ag2070
ag2586
ag2589
ag4217
ag611
ag3246
ag3249
ag1982
ag1987
ag1990
ag1994
ag3070
ag1216
ag838
ag212
ag4172
ag4176
ag3156
ag939
ag948
ag952
ag1120
ag1389
ag1392
ag1395
ag141
ag1124
ag2741
ag2744
ag630
ag1966
ag1969
ag3651
ag3819
ag3822
ag3922
ag94
ag99
ag778
ag782
ag785
ag58
ag61
ag64
ag3364
ag3368
ag3373
ag801
ag1862
ag104
ag107
ag1080
ag1084
ag4389
ag4393
ag4397
ag526
ag529
ag3376
ag3379
ag754
ag758
ag761
ag2208
ag3624
ag3627
ag1018
ag1021
ag917
ag921
ag927
ag425
ag2875
ag2880
ag616
ag2758
ag2762
ag464
ag861
ag3217
ag3220
ag1932
ag1935
ag1938
ag1941
ag3020
ag2361
ag2814
ag2817
ag2821
ag445
ag453
ag456
ag2358
ag350
ag353
ag356
ag359
ag362
ag3730
ag3733
ag3736
ag4060
ag4066
ag3307
ag1562
ag1565
ag434
ag437
ag1523
ag1527
ag1530
ag4369
ag2332
ag2336
ag1888
ag1893
ag1896
ag1378
ag1383
ag2392
ag2395
ag2398
ag2401
ag3813
ag3816
ag2779
ag2782
ag2785
ag3749
ag3753
ag2103
ag3198
ag3201
ag3207
ag3011
ag3014
ag3017
ag1658
ag1661
ag1665
ag4378
ag4382
ag3834
ag3839
ag3845
ag2420
ag3718
ag1719
ag1722
ag3554
ag1386
ag4202
ag4205
ag1804
ag1807
ag1708
ag1712
ag572
ag575
ag3237
ag3240
ag3243
ag2606
ag3301
ag3304
ag110
ag2215
ag2218
ag4180
ag819
ag578
ag581
ag2862
ag2788
ag2792
ag258
ag3211
ag3214
ag1186
ag1190
ag3110
ag3113
ag3648
ag2073
ag2076
ag4275
ag4279
ag4285
ag499
ag1183
ag408
ag3770
ag3315
ag2183
ag2186
ag2189
ag2192
ag1194
ag1197
ag1071
ag3702
ag2460
ag1433
ag1436
ag1812
ag1815
ag1114
ag1117
ag3925
ag3741
ag3744
ag3947
ag2657
ag2660
ag3863
ag3871
ag2093
ag4043
ag4046
ag4050
ag552
ag2611
ag973
ag1947
ag1950
ag1953
ag3795
ag3798
ag4040
ag332
ag336
ag2351
ag3358
ag3361
ag2938
ag2941
ag2945
ag721
ag724
ag727
ag734
ag4158
ag32
ag35
ag4375
ag2991
ag2994
ag2865
ag2868
ag2871
ag1291
ag1747
ag1751
ag1755
ag3918
ag1575
ag1578
ag1581
ag2404
ag4131
ag390
ag1972
ag1975
ag3570
ag3557
ag2543
ag2547
ag2152
ag2155
ag2958
ag2961
ag3679
ag2906
ag3046
ag3052
ag4436
ag4439
ag3715
ag287
ag295
ag298
ag303
ag2482
ag2486
ag113
ag2096
ag2099
ag2705
ag2714
ag2233
ag2238
ag2679
ag2684
ag3073
ag3076
ag2997
ag1668
ag1672
ag976
ag3602
ag3605
ag2840
ag2846
ag3060
ag2529
ag3970
ag3974
ag4347
ag664
ag671
ag675
ag486
ag490
ag496
ag3177
ag4386
ag1767
ag1775
ag1651
ag482
ag3654
ag3657
ag2314
ag2317
ag2320
ag3560
ag3563
ag2664
ag2667
ag2457
ag1617
ag1622
ag1625
ag2256
ag2259
ag1568
ag1571
ag4011
ag4018
ag2355
ag792
ag795
ag798
ag994
ag842
ag846
ag849
ag2224
ag2227
ag2230
ag3419
ag3423
ag1764
ag4366
ag1520
ag4113
ag4357
ag2599
ag2982
ag2988
ag2634
ag2637
ag2640
ag1628
ag4214
ag2062
ag2065
ag1288
ag3328
ag3337
ag3341
ag3344
ag3350
ag3355
ag1136
ag2504
ag3452
ag3456
ag3683
ag2080
ag2085
ag4411
ag4414
ag4417
ag3792
ag1589
ag1592
ag1595
ag1598
ag1602
ag1605
ag1696
ag1699
ag3721
ag3724
ag3727
ag267
ag2964
ag2852
ag2855
ag137
ag3442
ag3446
ag3449
ag1294
ag1300
ag1304
ag1586
ag3758
ag2719
ag2495
ag2500
ag2922
ag2927
ag2932
ag4165
ag3513
ag3517
ag1874
ag2532
ag2535
ag3573
ag3576
ag3579
ag1329
ag1332
ag3227
ag3230
ag3828
ag3831
ag1180
ag1457
ag1460
ag2003
ag2008
ag2011
ag3662
ag3665
ag3875
ag4022
ag4026
ag2489
ag2492
ag3761
ag3764
ag2831
ag2834
ag1174
ag634
ag2123
ag238
ag241
ag1508
ag1235
ag1239
ag311
ag315
ag319
ag1042
ag1045
ag342
ag347
ag961
ag964
ag967
ag970
ag834
ag116
ag119
ag124
ag3668
ag3672
ag788
ag4199
ag1535
ag1541
ag1545
ag1550
ag1553
ag3897
ag3900
ag3614
ag3619
ag2643
ag2646
ag76
ag84
ag2146
ag405
ag4326
ag4329
ag2915
ag2919
ag1422
ag1425
ag1430
ag2373
ag2378
ag2650
ag2463
ag2303
ag2307
ag2311
ag2177
ag2180
ag1494
ag1498
ag1501
ag1505
ag584
ag587
ag2300
ag3129
ag3132
ag4360
ag4363
ag1153
ag740
ag747
ag751
ag4268
ag4272
ag1778
ag1781
ag1268
ag1475
ag1482
ag3520
ag3526
ag49
ag54
ag411
ag3389
ag3396
ag2828
ag2242
ag2245
ag2195
ag2198
ag4119
ag2540
ag169
ag4289
ag4292
ag4295
ag4300
ag4303
ag997
ag2409
ag2413
ag2416
ag2263
ag2771
ag1001
ag1004
ag1007
ag502
ag506
ag511
ag516
ag2267
ag2270
ag3532
ag4000
ag4003
ag376
ag379
ag384
ag387
ag3687
ag2653
ag605
ag608
ag73
ag3031
ag3994
ag3997
ag3063
ag2805
ag2811
ag3980
ag3984
ag468
ag472
ag476
ag648
ag651
ag3079
ag200
ag203
ag206
ag209
ag2364
ag2368
ag3589
ag3595
ag3598
ag3258
ag3099
ag1414
ag1417
ag2386
ag2389
ag4145
ag4148
ag4152
ag1316
ag1321
ag3610
ag4422
ag1997
ag2000
ag2909
ag2912
ag1350
ag1742
ag4228
ag4231
ag4234
ag4237
ag25
ag29
ag1908
ag1914
ag4425
ag4429
ag4432
ag1631
ag2796
ag2800
ag3310
ag536
ag543
ag549
ag3000
ag1219
ag1222
ag1225
ag3510
ag3712
ag1364
ag1367
ag1463
ag2507
ag2511
ag2515
ag2520
ag3475
ag4257
ag4261
ag4134
ag4138
ag193
ag196
ag4404
ag4408
ag1279
ag1282
aa(lp4464
g1908
ag1914
ag526
ag529
ag2170
ag2174
ag4228
ag4231
ag4234
ag4237
ag4289
ag4292
ag4295
ag4300
ag4303
ag961
ag964
ag967
ag970
ag1329
ag1332
ag4096
ag273
ag279
ag740
ag747
ag751
ag4037
ag886
ag889
ag892
ag4369
ag834
ag25
ag29
ag3977
ag2442
ag1074
ag2615
ag1767
ag1775
ag634
ag2650
ag1729
ag1732
ag1735
ag2602
ag4268
ag4272
ag3741
ag3744
ag113
ag2325
ag2329
ag1631
ag1708
ag1712
ag788
ag1979
ag2865
ag2868
ag2871
ag1386
ag873
ag876
ag2723
ag2727
ag248
ag252
ag255
ag1687
ag1690
ag3614
ag3619
ag2831
ag2834
ag1250
ag1259
ag1414
ag1417
ag3283
ag3288
ag1087
ag1096
ag1099
ag1102
ag1108
ag3570
ag3957
ag1932
ag1935
ag1938
ag1941
ag3020
ag1194
ag1197
ag1291
ag3046
ag3052
ag1031
ag1038
ag2428
ag2409
ag2413
ag2416
ag2698
ag2702
ag365
ag372
ag842
ag846
ag849
ag2457
ag3399
ag1668
ag1672
ag169
ag1457
ag1460
ag263
ag2434
ag2439
ag2611
ag4040
ag2431
ag3294
ag3297
ag3156
ag1183
ag3875
ag3234
ag3715
ag2386
ag2389
ag3031
ag212
ag578
ag581
ag1617
ag1622
ag1625
ag1475
ag1482
ag3630
ag1336
ag1339
ag557
ag560
ag563
ag619
ag622
ag2208
ag3928
ag3932
ag3433
ag3878
ag137
ag3573
ag3576
ag3579
ag1899
ag1905
ag2507
ag2511
ag2515
ag2520
ag4347
ag657
ag660
ag2967
ag2972
ag3801
ag3804
ag3807
ag3810
ag4333
ag4338
ag4341
ag3651
ag2909
ag2912
ag4070
ag4073
ag4079
ag193
ag196
ag4060
ag4066
ag1279
ag1282
ag3749
ag3753
ag1742
ag3246
ag3249
ag2177
ag2180
ag1917
ag1921
ag499
ag3712
ag1180
ag1346
ag1888
ag1893
ag1896
ag2080
ag2085
ag2070
ag536
ag543
ag549
ag3481
ag3484
ag3489
ag3589
ag3595
ag3598
ag3291
ag3532
ag4057
ag1535
ag1541
ag1545
ag1550
ag1553
ag1272
ag1276
ag2096
ag2099
ag1463
ag2884
ag2892
ag94
ag99
ag3770
ag861
ag4131
ag4119
ag3925
ag3237
ag3240
ag3243
ag2015
ag2019
ag2023
ag2027
ag2032
ag2215
ag2218
ag3610
ag2159
ag2163
ag3602
ag3605
ag4444
ag4450
ag4454
ag4457
ag1466
ag1469
ag2540
ag1186
ag1190
ag2964
ag3116
ag3119
ag906
ag909
ag913
ag1575
ag1578
ag1581
ag184
ag187
ag190
ag3307
ag792
ag795
ag798
ag3702
ag3092
ag3096
ag1294
ag1300
ag1304
ag1216
ag2828
ag425
ag2392
ag2395
ag2398
ag2401
ag1834
ag2779
ag2782
ag2785
ag3376
ag3379
ag664
ag671
ag675
ag1508
ag1658
ag1661
ag1665
ag1389
ag1392
ag1395
ag2300
ag2489
ag2492
ag584
ag587
ag4145
ag4148
ag4152
ag3063
ag4113
ag332
ag336
ag4184
ag4189
ag2504
ag3073
ag3076
ag2183
ag2186
ag2189
ag2192
ag1678
ag1681
ag1684
ag2551
ag2557
ag2561
ag414
ag422
ag4386
ag1651
ag3419
ag3423
ag1608
ag1613
ag4082
ag4085
ag1316
ag1321
ag1011
ag1015
ag3849
ag3852
ag3855
ag3858
ag1523
ag1527
ag1530
ag3654
ag3657
ag4372
ag411
ag2314
ag2317
ag2320
ag11
ag244
ag1219
ag1222
ag1225
ag2730
ag2733
ag4090
ag4093
ag611
ag4172
ag4176
ag2899
ag2903
ag1778
ag1781
ag3083
ag3088
ag1568
ag1571
ag2765
ag2768
ag110
ag2373
ag2378
ag3513
ag3517
ag572
ag575
ag4308
ag3897
ag3900
ag2332
ag2336
ag3551
ag2339
ag2343
ag2347
ag2567
ag2570
ag311
ag315
ag319
ag2132
ag2135
ag4366
ag3537
ag3540
ag3543
ag3668
ag3672
ag2036
ag1972
ag1975
ag350
ag353
ag356
ag359
ag362
ag2695
ag2586
ag2589
ag3730
ag3733
ag3736
ag2267
ag2270
ag639
ag643
ag3863
ag3871
ag1865
ag1869
ag2404
ag141
ag4389
ag4393
ag4397
ag2982
ag2988
ag2796
ag2800
ag2460
ag440
ag3136
ag3144
ag1364
ag1367
ag3122
ag3940
ag3944
ag461
ag1268
ag3129
ag3132
ag4100
ag4103
ag4108
ag1821
ag1824
ag1828
ag1831
ag605
ag608
ag1018
ag1021
ag3648
ag287
ag295
ag298
ag303
ag2788
ag2792
ag128
ag390
ag4400
ag976
ag3813
ag3816
ag482
ag2201
ag2204
ag955
ag958
ag2523
ag2526
ag39
ag42
ag46
ag870
ag897
ag4220
ag4223
ag1422
ag1425
ag1430
ag1124
ag2303
ag2307
ag2311
ag4422
ag3408
ag2358
ag3634
ag4199
ag1862
ag3426
ag3430
ag1350
ag3495
ag2741
ag2744
ag2618
ag2621
ag4202
ag4205
ag1759
ag2351
ag174
ag486
ag490
ag496
ag3102
ag3105
ag2643
ag2646
ag1056
ag1061
ag1068
ag2599
ag3442
ag3446
ag3449
ag3464
ag994
ag4425
ag4429
ag4432
ag2420
ag3389
ag3396
ag2495
ag2500
ag1929
ag1343
ag1042
ag1045
ag3828
ag3831
ag1520
ag4353
ag2364
ag2368
ag2859
ag2195
ag2198
ag3778
ag1764
ag3882
ag3888
ag3894
ag778
ag782
ag785
ag3918
ag2634
ag2637
ag2640
ag3970
ag3974
ag2093
ag3693
ag3696
ag3699
ag4214
ag2606
ag2248
ag2242
ag2245
ag76
ag84
ag819
ag1956
ag1959
ag1963
ag1874
ag595
ag602
ag3492
ag3261
ag2120
ag4011
ag4018
ag1153
ag1127
ag1130
ag1490
ag3211
ag3214
ag177
ag180
ag630
ag3310
ag2543
ag2547
ag2468
ag2472
ag2475
ag166
ag2224
ag2227
ag2230
ag2771
ag3922
ag2679
ag2684
ag4240
ag1071
ag2592
ag2595
ag445
ag453
ag456
ag4265
ag2991
ag2994
ag2906
ag1235
ag1239
ag3547
ag1114
ag1117
ag648
ag651
ag3110
ag3113
ag4208
ag4211
ag2814
ag2817
ag2821
ag3679
ag1715
ag1879
ag1883
ag3382
ag3386
ag67
ag70
ag3402
ag1785
ag1792
ag1800
ag1947
ag1950
ag1953
ag376
ag379
ag384
ag387
ag3705
ag3709
ag775
ag267
ag502
ag506
ag511
ag516
ag4000
ag4003
ag408
ag3321
ag3475
ag982
ag991
ag1982
ag1987
ag1990
ag1994
ag1847
ag1850
ag1855
ag1858
ag2529
ag3498
ag3503
ag3506
ag1171
ag2896
ag2355
ag2576
ag2580
ag2583
ag1433
ag1436
ag973
ag3169
ag3174
ag3560
ag3563
ag58
ag61
ag64
ag2976
ag2979
ag626
ag2146
ag1840
ag1843
ag1812
ag1815
ag1966
ag1969
ag2958
ag2961
ag2463
ag1242
ag1247
ag3000
ag434
ag437
ag3364
ag3368
ag3373
ag3676
ag3328
ag3337
ag3341
ag3344
ag3350
ag3355
ag2719
ag3683
ag2862
ag3758
ag1001
ag1004
ag1007
ag2875
ag2880
ag4007
ag3162
ag3165
ag721
ag724
ag727
ag734
ag3198
ag3201
ag3207
ag4326
ag4329
ag3057
ag131
ag134
ag3195
ag3953
ag917
ag921
ag927
ag428
ag431
ag2653
ag801
ag2048
ag2052
ag2056
ag2059
ag258
ag339
ag4344
ag1353
ag1357
ag1361
ag3180
ag3187
ag1168
ag1494
ag1498
ag1501
ag1505
ag216
ag219
ag222
ag200
ag203
ag206
ag209
ag3825
ag2211
ag805
ag808
ag811
ag816
ag1726
ag3315
ag1139
ag1143
ag1148
ag4378
ag4382
ag4375
ag73
ag936
ag3980
ag3984
ag151
ag155
ag159
ag3960
ag3964
ag3994
ag3997
ag1136
ag3638
ag4116
ag3227
ag3230
ag1439
ag1442
ag2671
ag2674
ag592
ag2997
ag3301
ag3304
ag3947
ag464
ag2747
ag2751
ag2754
ag754
ag758
ag761
ag3358
ag3361
ag1370
ag3459
ag552
ag2445
ag2451
ag3624
ag3627
ag4158
ag519
ag522
aa.