(lp1
(lp2
(lp3
VSOPZVRY12A8C1339DF
p4
aVSOOFYFP12A6D4F7902
p5
aVSOTVYTQ12A8C14461B
p6
aVSOMRYYN12A6310F0F3
p7
aVSOPNWXV12AC90718F5
p8
aa(lp9
VSOAUPXB12AB0188EBF
p10
aVSOUMOMJ12A6701DFDC
p11
aVSOCAAWX12A6D4F7901
p12
aa(lp13
VSOSBWDI12A6701F6B6
p14
aVSOHJQRF12A8C13D625
p15
aa(lp16
VSOAXNWB12AB0183F1D
p17
aVSOCCMFR12AB0186F91
p18
aVSOKXSXF12AB017D539
p19
aa(lp20
VSOHCXTS12A58A75681
p21
aVSOVIZKK12AB018459D
p22
aVSOCDPGR12AB0184078
p23
aVSOMLUNM12AC4686FA7
p24
aVSOCKAQC12AB0187F68
p25
aa(lp26
VSOHSJYA12A6D4FB529
p27
aVSOZINSB12AB017B54E
p28
aVSOQEEMR12A6D4F7C5E
p29
aa(lp30
VSOWHJNB12A8C139BB9
p31
aVSOZKDJV12AB018AD6E
p32
aVSOBAVYV12AF729DB47
p33
aa(lp34
VSOBDZUO12A8C140C6A
p35
aVSORULKG12A6D4FB3D6
p36
aa(lp37
VSONPBJL12A6D4F74C2
p38
aVSOWWBZK12A6701F8E1
p39
aa(lp40
VSOYRWDH12A8C1373C0
p41
aVSOBAEPH12AF729D8A4
p42
aa(lp43
VSOKRDWT12A8C139242
p44
aVSONCBID12A8C136646
p45
aVSOMLBAB12A6D4FA5F2
p46
aa(lp47
VSODRQUV12A8C137B0B
p48
aVSOESOCJ12A8C135B00
p49
aVSOEQMWO12AAF3B3BE2
p50
aa(lp51
VSONMNYH12A8C131C99
p52
aVSOLXXQY12A58A7E877
p53
aa(lp54
VSOFESXI12A8C133B17
p55
aVSOUOKFY12AB0184812
p56
aVSORELVF12AF72A22DF
p57
aVSOHWPPS12A670205ED
p58
aa(lp59
VSOHTTNB12A8C1357E9
p60
aVSORGVYS12A8AE48882
p61
aVSOPMKOE12A8C141ED8
p62
aa(lp63
VSOMCCPL12B0B8093BD
p64
aVSOXYUVR12A67020490
p65
aa(lp66
VSOXTNEG12A8C139823
p67
aVSONWELL12A8151CA0D
p68
aVSOKRDWT12A8C139242
p69
aa(lp70
VSOPHICZ12A6D4F9C87
p71
aVSOXNMQN12AB01831AA
p72
aa(lp73
VSOMBNVR12AF72A736E
p74
aVSOUEDIC12A6D4FA587
p75
aa(lp76
VSOILYQF12A8C131DF7
p77
aVSOFCVTY12AF72A493B
p78
aa(lp79
VSOKHQUE12AB0181925
p80
aVSOXSFJW12A58A76113
p81
aa(lp82
VSOMRXHH12A8C133BDE
p83
aVSODRUKP12AB018E66A
p84
aVSOMPXWC12A6310E058
p85
aVSOCVHGI12A8C134F77
p86
aVSOJBCLP12AB0185454
p87
aa(lp88
VSOGJNHO12A8C133CDA
p89
aVSOEOICF12AB0180EDA
p90
aVSOCUSSV12A8C1430F5
p91
aa(lp92
VSOZMGGF12D0219A98C
p93
aVSOPPKUG12A8C132E6E
p94
aa(lp95
VSOJBKPS12A8AE4962C
p96
aVSOIJJSV12A6D4FB179
p97
aa(lp98
VSOAJGSO12A58A7C602
p99
aVSOOTVLP12A81C218A7
p100
aVSOVHIGB12A8AE46CB0
p101
aa(lp102
VSOOMHPX12A8C13FF6E
p103
aVSOKGERN12A6D4F8195
p104
aVSOZKWCG12A6D4FB78C
p105
aa(lp106
VSOXWIWP12A67020CDB
p107
aVSOWTICW12A6D4FB01C
p108
aa(lp109
VSODBEJB12A8C1394CB
p110
aVSOKHHQG12AB0184C61
p111
aVSOQJGHR12A6310EF50
p112
aa(lp113
VSOCMAFV12AB01849ED
p114
aVSORLVOO12A8C133862
p115
aa(lp116
VSORGTNE12D02193408
p117
aVSONJZFD12AB0184E92
p118
aa(lp119
VSOSMUNR12A58A7B3F4
p120
aVSOSMNKX12AB01836A8
p121
aa(lp122
VSOQYDRD12CF4E258AE
p123
aVSOOMZVN12D0219A475
p124
aVSOSQOVC12A8C133ECF
p125
aa(lp126
VSOGAZDR12A58A79781
p127
aVSOGDCOS12AB0186BE2
p128
aVSORHLAO12A679AE5B9
p129
aVSOHEOSJ12A6D4F9049
p130
aVSOIEDMT12A6D4F9A09
p131
aVSOZTUAT12A6D4F9A36
p132
aVSOZFTLF12AB0185FAE
p133
aa(lp134
VSOXKDJD12AB0186BFD
p135
aVSOSOCWZ12AF72A3862
p136
aVSOTBYQW12A6D4FE74B
p137
aVSOKMFQY12A6D4F904A
p138
aa(lp139
VSODKTET12A8C13125A
p140
aVSOAUVAW12A81C205AB
p141
aa(lp142
VSOVQPUM12A6D4F8F18
p143
aVSOPKZZN12A58A79E50
p144
aVSOKSDRB12A6D4FB150
p145
aa(lp146
VSOFRQKQ12A6D4F8F2E
p147
aVSORPLFM12D02192FDC
p148
aVSOZAFIC12A8C137AD4
p149
aa(lp150
VSORVMJU12AB017D3C6
p151
aVSOJCRUY12A67ADA4C2
p152
aa(lp153
VSOAVHVP12AB01843DF
p154
aVSOMEJEK12AB017E386
p155
aa(lp156
VSOZXEGV12AB018903D
p157
aVSOWBXZR12A6D4FAAD4
p158
aVSODXGYD12AB018D9DF
p159
aa(lp160
VSODRNXQ12AB0180714
p161
aVSOMBBSI12A6D4FB9C9
p162
aa(lp163
VSOXOJVK12A6D4F869C
p164
aVSOOGMJX12AAF3B3F51
p165
aa(lp166
VSODPFME12A8AE48968
p167
aVSORIIXS12AB017EC74
p168
aa(lp169
VSOHHDSU12AAF3B3627
p170
aVSORLJZY12A670208D3
p171
aa(lp172
VSOICQOM12A6D4FA767
p173
aVSOICTOM12A6D4FCE8F
p174
aa(lp175
VSOJAFFL12A6D4F8F68
p176
aVSOZOHLV12A6D4FB9CF
p177
aVSOAHWBL12AC3DF5C8E
p178
aVSOFPKWE12AB017D532
p179
aa(lp180
VSOUBEHQ12A6D4FBED4
p181
aVSOCTAYJ12A8C13ED56
p182
aa(lp183
VSOMFPCO12AF72ABFC2
p184
aVSOCIAVY12AB0183F71
p185
aVSOBVOIU12AB018540C
p186
aVSOIVHYJ12A8C137332
p187
aa(lp188
VSOUEXWX12AF72A5FBC
p189
aVSOIRSSR12A67020372
p190
aVSOBLANY12A8C14382E
p191
aVSOHWBGO12A6D4FA87A
p192
aVSOSXLTC12AF72A7F54
p193
aVSOPRUNG12AB01861FF
p194
aVSOWAUHF12D02193C26
p195
aa(lp196
VSOYNVXH12A8C13B025
p197
aVSOMFTUN12A6D4F60A5
p198
aVSOGLOXC12A8C143C29
p199
aVSOEDRVL12A81C239BD
p200
aVSOIRJUJ12CF5F88C90
p201
aVSOIFGCB12A8C134160
p202
aa(lp203
VSOQQECF12A6D4FCDFF
p204
aVSOCSXPO12AB0187855
p205
aa(lp206
VSORZNQK12A8C144AEE
p207
aVSOUEYTJ12A6D4F6E1C
p208
aVSOYUEMW12A8C1382AC
p209
aa(lp210
VSOKUBBZ12A58A80CA7
p211
aVSOOLOXE12A81C238D2
p212
aa(lp213
VSOLSZAO12A8C142605
p214
aVSOMDKBT12A8C134151
p215
aa(lp216
VSOOXBAM12A8C141E4B
p217
aVSOEIRDY12A8C1436F1
p218
aVSOSKBJK12A67AE10F6
p219
aa(lp220
VSOQKWRL12A58A7FB41
p221
aVSOGYCGY12AB018056C
p222
aa(lp223
VSONDXIH12AB017D78E
p224
aVSORDJJS12A8C13E056
p225
aa(lp226
VSOAXHAL12AB017D83E
p227
aVSOREBCJ12A8C13570F
p228
aVSOYUJVL12AB017DCCD
p229
aa(lp230
VSOMUIUE12A8C136A05
p231
aVSOFNKXM12A8AE49616
p232
aa(lp233
VSOQMAAA12A8C13EBE6
p234
aVSOXZUNZ12A8C13FB43
p235
aVSOITHLO12AB0181D19
p236
aa(lp237
VSOMDKBT12A8C134151
p238
aVSOWIQXC12AB0181CD4
p239
aVSOGYELC12D021B12AB
p240
aVSOHHJJV12AB017D3B1
p241
aVSOUJSAW12AB0181CC6
p242
aa(lp243
VSOYQVDF12AF729F676
p244
aVSOCDFIW12AB018C26C
p245
aa(lp246
VSOZHFAJ12A8C13FA9F
p247
aVSOKXXBE12AF72A4034
p248
aa(lp249
VSOTYPUV12A8C144D37
p250
aVSOVURXK12A6701F929
p251
aVSOJABKC12A8C13B2BA
p252
aa(lp253
VSOTFVZN12AC9075997
p254
aVSODJUAS12A8C1335D4
p255
aVSOMHOBV12A6701DEC6
p256
aa(lp257
VSOHJELO12A8C13BD67
p258
aVSOCDNPH12AB017C89A
p259
aa(lp260
VSOXUYLF12A8C1455B9
p261
aVSOCRZKM12A8151B84D
p262
aa(lp263
VSOWCCOD12A8C1350EF
p264
aVSODUXCO12A8C13FCBD
p265
aa(lp266
VSOMSSIB12AB017F838
p267
aVSONSSOB12A679AE579
p268
aa(lp269
VSOGDORP12A6D4F8E3C
p270
aVSOJLXXO12A58A7BD0D
p271
aa(lp272
VSORUIHX12A58A7AA9F
p273
aVSOBXGEK12AB018FDC6
p274
aa(lp275
VSOFMSPM12AB01858E1
p276
aVSOTDNCS12A8C13DC1F
p277
aVSOHKHTK12A8AE46616
p278
aa(lp279
VSOCQYRH12A8C142537
p280
aVSOWAUHF12D02193C26
p281
aVSOXSCBO12A6D4F758E
p282
aVSODRFRJ12A8C144167
p283
aVSOJVBPD12A6D4F4CB7
p284
aVSOUOKFY12AB0184812
p285
aVSOXFZXW12AB017C773
p286
aa(lp287
VSOSLQQJ12AB017BDCC
p288
aVSOBGYNC12A6D4FBFAD
p289
aVSOQJNKS12A6D4FBF52
p290
aVSOIBYJC12AB017C771
p291
aa(lp292
VSOBRRHF12AB0181335
p293
aVSOANVQU12A58A7B722
p294
aVSOWCGAL12A6D4F9050
p295
aVSOLUXQK12A8C13E179
p296
aa(lp297
VSONAGVH12A6701DE0B
p298
aVSOGCGEI12AC468D8D4
p299
aVSOMMGJE12A58A793DD
p300
aa(lp301
VSOOUBSU12AB018E385
p302
aVSOFCURG12A8C144003
p303
aa(lp304
VSOESISO12AC468A078
p305
aVSOFKSFK12A58A7EF44
p306
aVSOFLKYE12A6701F925
p307
aa(lp308
VSOAQAZY12AB01850E6
p309
aVSODZAPO12A8C132EE9
p310
aa(lp311
VSOVXGTM12AB018B91A
p312
aVSOROSIS12A58A803A5
p313
aa(lp314
VSOPMZRD12AB017BB68
p315
aVSOSLHFN12AC4685CEB
p316
aa(lp317
VSOLGWAO12A6D4F91E9
p318
aVSOVEHNC12A6D4F955D
p319
aVSOCEQCH12A6D4F81F9
p320
aVSOLCZVD12A3F1ED109
p321
aa(lp322
VSOKYYQU12A8AE46E26
p323
aVSOFIHIL12A6701FFF8
p324
aVSOSCIDN12AB0189750
p325
aVSOSNAVD12A6D4F7579
p326
aa(lp327
VSOOGTNS12A8C138F68
p328
aVSOXPWMJ12A6701F4E7
p329
aVSOMXVDL12A6D4F5A0C
p330
aa(lp331
VSOGDMHP12A5891F9FA
p332
aVSOIDVCR12A6D4F7268
p333
aa(lp334
VSOYIESR12AB0183299
p335
aVSOHLGEG12A8C141B26
p336
aa(lp337
VSOVOXAS12A8C132C99
p338
aVSOYLTNN12A58A7CD33
p339
aa(lp340
VSOFQTGP12B0B806CAE
p341
aVSOFLLNJ12A6D4FA78A
p342
aa(lp343
VSOQUKPI12CF5F873EF
p344
aVSOFSTBP12A8AE476BF
p345
aVSOGAINY12A8C13501D
p346
aVSOEVEHL12A670202E5
p347
aVSOCSOTS12A6D4FAED3
p348
aa(lp349
VSOGBYUP12A8C1390B1
p350
aVSOEMFCM12CF5F86F1E
p351
aa(lp352
VSODKHND12A6D4F9DCB
p353
aVSOPTQIE12A8C138A91
p354
aa(lp355
VSOOXSDD12A58A79168
p356
aVSOBXGEK12AB018FDC6
p357
aa(lp358
VSONQZLZ12A8C135609
p359
aVSOPBJFH12A6D4F9E6C
p360
aa(lp361
VSOHJQHC12A8C13896E
p362
aVSOMZCSG12A8C1322CA
p363
aa(lp364
VSOCYPHL12A8C13B2AA
p365
aVSOCEYHY12AB018191D
p366
aa(lp367
VSOYYWMD12A58A7BCC9
p368
aVSODWXWV12AB018904C
p369
aVSOJPXBT12A8C137814
p370
aVSOZOVSN12AB017C19E
p371
aa(lp372
VSOPQXUK12A58A7A58E
p373
aVSOSHOTN12A8C140471
p374
aVSOOBCHD12A58291A3F
p375
aVSOWEJCW12A6BD56C27
p376
aa(lp377
VSOGSEMZ12A6D4F795A
p378
aVSOHVYRP12AB018719D
p379
aVSOQIXJV12A6D4FA120
p380
aa(lp381
VSODFSIH12AC468AFB7
p382
aVSOXCKJH12A8C13C79A
p383
aa(lp384
VSOSBHXV12A8C139221
p385
aVSOCPGNS12A8C1326D4
p386
aVSOCAUNV12A58A78380
p387
aa(lp388
VSOUYRMZ12A6D4FBDDF
p389
aVSOIGPUP12AB017F18F
p390
aVSODQVEJ12AB01824E3
p391
aa(lp392
VSODJUAS12A8C1335D4
p393
aVSOTFVZN12AC9075997
p394
aVSONDAFG12AF72ACEEC
p395
aa(lp396
VSOPXVZA12A58A7BA60
p397
aVSOYGHTX12A6D4F8E8A
p398
aa(lp399
VSOBVTRM12AAF3B2153
p400
aVSOERMPT12AB017D394
p401
aa(lp402
VSOJTXIO12A6D4FA422
p403
aVSOXMHBN12AC468E59A
p404
aa(lp405
VSOWJJSJ12AB0186C80
p406
aVSOAKCFL12A6D4F9CC5
p407
aa(lp408
VSOXXTFW12AB017CFF3
p409
aVSOXNXSO12AF72A4CE1
p410
aVSOEWFWM12A8C1308BA
p411
aVSOKYVVZ12A8C13CC1F
p412
aVSOPQAZJ12A58A7E90A
p413
aVSOHWHSB12A670205EA
p414
aa(lp415
VSOIOKGW12AB018356D
p416
aVSOODGER12A8C1325D9
p417
aa(lp418
VSOFYCVA12A58A77D38
p419
aVSOGFDEI12A58A78FB0
p420
aa(lp421
VSOBDQLZ12AB017C0E7
p422
aVSOJQWRH12A6701D47D
p423
aa(lp424
VSOFLSNN12A58A7E5FA
p425
aVSOODKVP12A58A7F3E8
p426
aVSOROSCX12A81C2372C
p427
aa(lp428
VSOHLFPM12A6701D9DF
p429
aVSOGQOPN12A6D4F8F1B
p430
aa(lp431
VSOHZYVO12A8C1402B2
p432
aVSOTZOSS12AAA15E933
p433
aa(lp434
VSOYHPFI12D0219A467
p435
aVSOQQCET12A8C133CAB
p436
aa(lp437
VSOCFCDJ12A6D4F637C
p438
aVSOETCSA12A6D4F78A0
p439
aa(lp440
VSOHHPQT12A58A7AC63
p441
aVSONGDLI12A8C142A7C
p442
aa(lp443
VSOBTKXS12A6D4F8FF1
p444
aVSOPZJRC12A8AE47A30
p445
aa(lp446
VSOMPGCW12A8AE495D7
p447
aVSOBHMUT12A8C1393C3
p448
aa(lp449
VSOQOGNK12A58A7A7C3
p450
aVSOHSJYA12A6D4FB529
p451
aVSOBLIPN12AB017C9F7
p452
aa(lp453
VSOMEPSS12A8C131C80
p454
aVSOYVNHZ12AB018A970
p455
aa(lp456
VSOVTMQY12AB0184D2E
p457
aVSOCDPGR12AB0184078
p458
aa(lp459
VSORRYYZ12A8C131B42
p460
aVSOGDWUF12A6D4FD201
p461
aa(lp462
VSOILABI12A8C13554B
p463
aVSOFMXON12A6D4F93D8
p464
aa(lp465
VSOJAJVT12AB017E891
p466
aVSOBAPYO12AB0182D5F
p467
aa(lp468
VSOOPGJQ12A81C219C1
p469
aVSOHBLNE12A8C13DBEF
p470
aVSOBSNNU12A8C140F01
p471
aa(lp472
VSOQNLUL12A8C1307AE
p473
aVSOKKZYI12AF72A9B64
p474
aa(lp475
VSOGYRGX12AB017B8BF
p476
aVSOKFMIN12A8C13C0EE
p477
aa(lp478
VSOBUTUF12AF72A1F65
p479
aVSOLABNV12A8C13D698
p480
aVSONQLUO12A6D4FBBDB
p481
aa(lp482
VSOIFGCB12A8C134160
p483
aVSOPQJKW12A58A7AB38
p484
aa(lp485
VSOACYUL12A6D4F9C79
p486
aVSOGCHXO12A8C13E64D
p487
aa(lp488
VSODTRWG12A8C133493
p489
aVSOSGHFM12A6D4FBBE1
p490
aVSOWSEHM12A8C131290
p491
aVSOLABNV12A8C13D698
p492
aa(lp493
VSOJIYIZ12A58A7D197
p494
aVSOLSEEY12A679AE5C6
p495
aVSOAJODS12A8C138A23
p496
aVSOITTJY12A8C1453A3
p497
aa(lp498
VSOGSVNW12A6D4F6869
p499
aVSOONEYB12AB0186F84
p500
aVSOMLLUL12A8AE46796
p501
aa(lp502
VSOPHRWN12A81C213D1
p503
aVSORIWIO12AB0189F6F
p504
aa(lp505
VSOEVIFS12AF72AA3AB
p506
aVSOJIMOL12A8C1351C9
p507
aa(lp508
VSOEGFYO12AB0186DBF
p509
aVSOWWYVW12AB0189288
p510
aa(lp511
VSOWHUJD12A8C133C9A
p512
aVSOEPHAK12A8C1383D5
p513
aa(lp514
VSOWHCUL12D02199D88
p515
aVSOIWCAT12AF72A12CC
p516
aVSONBGLC12AC90712E5
p517
aVSONRWVX12AF72A5897
p518
aa(lp519
VSOZNDIX12A8C133C82
p520
aVSOGZYJJ12AB0181A08
p521
aVSOXCXKO12A8C13D693
p522
aVSOSYMOP12AB01891B9
p523
aa(lp524
VSOHLXPJ12A8C13269A
p525
aVSOPHGKL12AB0181CE2
p526
aa(lp527
VSOYKXQY12A58A7E938
p528
aVSOXUYUZ12A8C13A67E
p529
aa(lp530
VSOGZTJI12A6701E100
p531
aVSOXNRIJ12AF72A1EDE
p532
aVSOHJOTN12AF72A1250
p533
aVSOUYDFT12AB01821B5
p534
aa(lp535
VSOXBQDJ12A6D4F93CC
p536
aVSOPRMWR12A8C139047
p537
aa(lp538
VSOGXGNM12AB01806A2
p539
aVSODCAFA12AB0180762
p540
aVSOPPJQO12AB0180699
p541
aVSOPRQLC12AB0180773
p542
aVSOBOJYP12AB017DAC2
p543
aVSOZQVWV12AB0180781
p544
aa(lp545
VSOXAAKS12AB018076B
p546
aVSOLSZTX12AB01806B6
p547
aa(lp548
VSOVQYKK12A58A79F95
p549
aVSORABRJ12AB017DA95
p550
aVSONSUPD12AB017DAA5
p551
aVSONUXNC12A58291787
p552
aa(lp553
VSOCKVXP12AB01806A8
p554
aVSOBZGSU12A582A20C9
p555
aa(lp556
VSOMZBOC12A6D4F93C2
p557
aVSOHAGHW12A6310E90E
p558
aVSOSRRKO12A8C13CA3B
p559
aa(lp560
VSOFBSDX12A8C138E3F
p561
aVSOKHQUE12AB0181925
p562
aa(lp563
VSOMPHJW12A6701CDFE
p564
aVSOECBPA12AB018E48A
p565
aa(lp566
VSOBNPAR12A8AE46A3E
p567
aVSONCHXL12A58A7EAF9
p568
aa(lp569
VSONQCHR12AAFF4418D
p570
aVSOAVWZR12A8C14492D
p571
aa(lp572
VSONITIL12A58A7CA32
p573
aVSODBCWA12A8C142AF3
p574
aa(lp575
VSOBMEER12A8C138B4E
p576
aVSOUYPJA12A8C136D51
p577
aa(lp578
VSOMATVS12A6701DA9A
p579
aVSOZHFAJ12A8C13FA9F
p580
aa(lp581
VSOXTBUE12AF72A27CD
p582
aVSOLZUOI12AB018713E
p583
aa(lp584
VSOKRFEJ12AAF3B15AD
p585
aVSOGGLLD12AB01899EB
p586
aVSOPTBPD12A8C134415
p587
aa(lp588
VSOGNMQB12A58A7B8BF
p589
aVSOBZXFI12AB017AF24
p590
aVSOLBHAC12D02198DA7
p591
aVSOPRBTA12D02198D9E
p592
aa(lp593
VSOFATTQ12A6D4FA60F
p594
aVSOWHUFA12AB0189E4C
p595
aVSOVQSZA12AF72A3633
p596
aVSOUEKRN12A6D4F5411
p597
aVSOLWRJK12A8C143A23
p598
aa(lp599
VSOREHGH12AB0180A13
p600
aVSOKGZWL12A8C136127
p601
aa(lp602
VSOOXXLY12A8AE4610F
p603
aVSOYRBKL12AB017CD6F
p604
aVSOEEHNT12AB0184C90
p605
aVSOPRBTA12D02198D9E
p606
aVSOFAUUE12AAFF429FB
p607
aVSOZGJMU12A8C135C77
p608
aVSOMZBOC12A6D4F93C2
p609
aa(lp610
VSOJZBTU12A58A7B348
p611
aVSOBYDAA12A6D4F8847
p612
aa(lp613
VSOYJPKO12A8C134151
p614
aVSOOESBP12AB01815C7
p615
aa(lp616
VSOQJPHL12A8C13C160
p617
aVSOBBHDJ12A8C133C7D
p618
aa(lp619
VSOMZBOC12A6D4F93C2
p620
aVSOESOCJ12A8C135B00
p621
aa(lp622
VSOMXOYT12A8AE46E10
p623
aVSOPQJKW12A58A7AB38
p624
aVSOZSHHJ12A8151CA10
p625
aVSOEKVQQ12A6D4FC38B
p626
aVSOKVXQY12AB017B946
p627
aVSOKEVCM12A8C13AFF2
p628
aVSOMTMKQ12A6D4FA3A7
p629
aVSORZAZH12AF72A5FBE
p630
aa(lp631
VSOOIQZG12A6D4F9E97
p632
aVSOTCPVW12A6D4F44FC
p633
aVSOKDBRN12AB0183E56
p634
aVSOVQSZA12AF72A3633
p635
aa(lp636
VSODODXE12A6701FA54
p637
aVSOGFWPF12A8C132B52
p638
aVSOGEZWS12A58A7BC0E
p639
aa(lp640
VSOLOJQS12A8C132C27
p641
aVSOYECLW12A8AE46CCC
p642
aa(lp643
VSOCASIV12AB0186E64
p644
aVSOBYNMU12A6D4F8B84
p645
aa(lp646
VSOUBNNS12A8C142128
p647
aVSOKHHVK12A8AE48182
p648
aVSOQCCOM12A8C14363C
p649
aVSODWNTS12A6310D98C
p650
aa(lp651
VSOLOZRE12A8C133256
p652
aVSOXQWTB12AB01842F6
p653
aa(lp654
VSOWVELM12A8C13194F
p655
aVSOPLBYW12A8C132AD7
p656
aa(lp657
VSOFQIDA12A8C134E75
p658
aVSOUKXIN12A8C133C7F
p659
aVSOJXELR12A6D4FA409
p660
aa(lp661
VSOKHHQG12AB0184C61
p662
aVSOYKZEB12A8C132273
p663
aa(lp664
VSOMATVS12A6701DA9A
p665
aVSOLNVZW12A582A2C28
p666
aa(lp667
VSOHNAZJ12AF72AB4D1
p668
aVSOSERZH12A8C142A38
p669
aa(lp670
VSOXNDXG12A6D4F78EB
p671
aVSOCESFW12A58A7DC8C
p672
aa(lp673
VSOWQEZV12CF5F88AD6
p674
aVSOHNHEL12AF729E72D
p675
aVSOWZEWT12B0B80855C
p676
aa(lp677
VSOCYQDT12A6D4F8F98
p678
aVSOBQKPT12A58A7B797
p679
aa(lp680
VSOGRCBF12A8C13233B
p681
aVSOLHQTH12A6310E86F
p682
aa(lp683
VSODEGRK12A6D4F8AD0
p684
aVSOBFYTZ12A58A7D879
p685
aVSOSMARC12A6D4F793C
p686
aVSOCXMWS12AB017DE39
p687
aa(lp688
VSONFIZE12AB018A3DB
p689
aVSOHMCXS12AC3DF5F9D
p690
aa(lp691
VSOBCOZN12A8C13F8BE
p692
aVSOAOTJQ12A58A77F4A
p693
aVSOWRCIO12AC95F0170
p694
aVSOIQOQS12A8C1363D9
p695
aVSOJIAWZ12A8C13D3B7
p696
aa(lp697
VSOAEYCR12AC468C880
p698
aVSOIVRMG12A58A7DA6F
p699
aVSOALYOT12A8C142567
p700
aa(lp701
VSOGCAIV12A6D4FA797
p702
aVSOMMGQX12A8C141261
p703
aa(lp704
VSOZXEGV12AB018903D
p705
aVSOEKHCJ12A8C13ECF9
p706
aVSOZGMWR12AB017E6E0
p707
aa(lp708
VSORVMJU12AB017D3C6
p709
aVSOOEFFM12AB017CFFE
p710
aa(lp711
VSOOLQUH12AB01838AE
p712
aVSOKZRJA12A8C13BD64
p713
aVSOYOFST12D0219B4BA
p714
aVSOWHYMX12A6310F91F
p715
aa(lp716
VSOXNVLP12AB0180A6A
p717
aVSORLXWO12A6D4F652C
p718
aa(lp719
VSOQATII12A670203B8
p720
aVSOTUDWJ12A8C136D26
p721
aa(lp722
VSOHSDHS12AB0187EB9
p723
aVSOQDNPC12A58A76FBF
p724
aa(lp725
VSOANIOE12A58A78756
p726
aVSOBVCQT12A6701F930
p727
aVSOSKICX12A6701F932
p728
aa(lp729
VSOVBNHG12A6D4F7C6E
p730
aVSOZOSTH12A6D4FB48E
p731
aVSOBGMVL12A58533A32
p732
aa(lp733
VSOYEZQN12AB017E42D
p734
aVSOXTYMJ12A6D4F6987
p735
aa(lp736
VSOKHHVK12A8AE48182
p737
aVSOUGTOK12A58A7C139
p738
aa(lp739
VSOVXYGW12A6D4F6F72
p740
aVSOWINYZ12A679D8AF3
p741
aa(lp742
VSOLTQZY12A8C13262F
p743
aVSOKHTYK12AF72A46AF
p744
aa(lp745
VSOILEOW12AB0182B89
p746
aVSORPUNK12AB017F2E6
p747
aVSOMZWQQ12AAFF416CB
p748
aa(lp749
VSOYHRRP12A81C21910
p750
aVSOTJIWS12A6D4F9B33
p751
aa(lp752
VSOYHFMC12A6D4F857D
p753
aVSOUKVQX12AB01835F9
p754
aVSOVZVLG12A6D4F5243
p755
aVSODDQKX12A6D4F86CA
p756
aa(lp757
VSOBXUCO12A6D4FB3A4
p758
aVSOTYLIF12A8C13A822
p759
aa(lp760
VSOAPXHS12AB01881DD
p761
aVSOXNXSO12AF72A4CE1
p762
aa(lp763
VSOHFCSN12A67ADA4D8
p764
aVSOPGKBE12A58A7AF5A
p765
aa(lp766
VSOYRBKL12AB017CD6F
p767
aVSOQIWOL12A8C13AD00
p768
aVSOULBUG12A58A7A87B
p769
aVSOKLIPX12AB017C35B
p770
aa(lp771
VSOGGBYJ12A8C13CE4E
p772
aVSOTOCBE12AB017AEF5
p773
aa(lp774
VSODHZVG12A8C1404DD
p775
aVSOGOLIO12A6D4F9944
p776
aa(lp777
VSOYHLBG12A8C139398
p778
aVSOWNSHQ12AB01806D1
p779
aVSODUWRY12AB0189983
p780
aVSOJURRC12AB0186348
p781
aVSONRDLR12AB0184767
p782
aa(lp783
VSOGBPVN12AB017F207
p784
aVSOQXWET12A6D4F7689
p785
aa(lp786
VSOWEJCW12A6BD56C27
p787
aVSOOTLSK12A8C13F68C
p788
aa(lp789
VSOHHGXJ12B0B80735F
p790
aVSOMKQUD12A8C144676
p791
aa(lp792
VSOJVCYN12A8C138A1F
p793
aVSOUKFXO12A8C1383BE
p794
aVSORQOKM12D021930FF
p795
aa(lp796
VSOZNBUK12A8C1383E3
p797
aVSOCPGZT12A8C138FEB
p798
aa(lp799
VSOMBQJN12A8C13936B
p800
aVSOUAWSV12D02191B38
p801
aa(lp802
VSOVGWOO12A5891F805
p803
aVSOSSDRT12A8C133C88
p804
aa(lp805
VSOYEELX12AB0183425
p806
aVSONATOD12AB017C510
p807
aa(lp808
VSOQOAIZ12A8C1437BE
p809
aVSOKAFRQ12AB017F64E
p810
aa(lp811
VSOTSPCS12CF5827443
p812
aVSOFPZIL12A8C136BB3
p813
aa(lp814
VSOCQLBA12A8C13C460
p815
aVSOXREWC12A6D4FAD3C
p816
aa(lp817
VSOYBEUS12AF72A781E
p818
aVSOISWLC12A6D4F93C9
p819
aa(lp820
VSOFGIKI12A6D4F93CA
p821
aVSOQGVMZ12A8C13C432
p822
aa(lp823
VSOXBQDJ12A6D4F93CC
p824
aVSOYRKGE12AF729D6A3
p825
aVSODIDHX12A8C13C43E
p826
aVSOLSTFB12A6D4FAD44
p827
aa(lp828
VSOYUFSH12A6D4F93D5
p829
aVSOKBIKT12A8C138A36
p830
aa(lp831
VSOVFYBQ12A6D4FD429
p832
aVSOISLRC12B0B8090CE
p833
aa(lp834
VSOPURKV12A8C14379C
p835
aVSOPRAEC12A8C136409
p836
aa(lp837
VSOLDPFG12AB018AEA6
p838
aVSOKMQCB12A81C22D42
p839
aa(lp840
VSOXHRUB12A58A7B828
p841
aVSOSXJYF12D021B39D5
p842
aa(lp843
VSOUQXRQ12AB017E893
p844
aVSOITFIU12A8C13164B
p845
aa(lp846
VSOFYCVA12A58A77D38
p847
aVSOGIXRG12A8C135536
p848
aVSODOFWM12AB018119C
p849
aVSODGIJZ12AB018EB2B
p850
aa(lp851
VSOINEDY12A6D4FB48C
p852
aVSOQERRM12AB0181E6A
p853
aa(lp854
VSONEJWG12A8C137828
p855
aVSOPKUOG12A8C13FAAF
p856
aVSOANCYA12A6701E5EF
p857
aVSOMQBRT12AB0182EC7
p858
aa(lp859
VSOPLAHI12A8C13FAB6
p860
aVSOQGYCA12A8C13BF7F
p861
aa(lp862
VSOCEERU12A670215F1
p863
aVSONSLPJ12A8C13FAB9
p864
aa(lp865
VSOFIVMP12A6D4FB250
p866
aVSOYDXNG12A8C1319DA
p867
aa(lp868
VSORNFTR12AAF3B2176
p869
aVSOMLSSO12AB0182154
p870
aVSOJSUJT12AB0181D2F
p871
aa(lp872
VSOZDNVT12CF5F88244
p873
aVSOCZHUL12AB018CFFB
p874
aa(lp875
VSOPFEEJ12A6D4FB2D9
p876
aVSOVIVCT12A8C141422
p877
aVSOKHCQZ12A8C13E16F
p878
aa(lp879
VSOIKUOU12A8C13AF47
p880
aVSOKQVLX12A6D4FB2EA
p881
aVSOYULRE12AB01845BE
p882
aa(lp883
VSOJAFFL12A6D4F8F68
p884
aVSOZURRL12A8AE46E0D
p885
aa(lp886
VSOKDJVA12A58A7ABE2
p887
aVSOFFHAH12AB018466D
p888
aVSOMYFFB12AB018521A
p889
aVSOWRWDK12A8C13EF3C
p890
aa(lp891
VSOKZKPD12A670208E3
p892
aVSOXPFMW12A6D4F88A5
p893
aVSOJSUJT12AB0181D2F
p894
aa(lp895
VSOLSZAO12A8C142605
p896
aVSOMDKBT12A8C134151
p897
aa(lp898
VSOPGLQJ12AB018AEC1
p899
aVSOCXCGG12A6701F2B2
p900
aa(lp901
VSOTEBWE12A81C2365A
p902
aVSOSYARO12A6D4F7001
p903
aVSOKENTD12AB01818F2
p904
aVSOPYIUW12A81C2206B
p905
aa(lp906
VSOKIUGA12A6701F73B
p907
aVSOBMWXO12A8C132120
p908
aa(lp909
VSOANJTB12D02197619
p910
aVSOSJNTV12A58A791FE
p911
aa(lp912
VSOFSEUA12A8C1432B5
p913
aVSOEJWCU12A8AE461FF
p914
aa(lp915
VSONCNWH12AF72A430D
p916
aVSOEEIIE12A6D4FA25E
p917
aVSORXJMK12CF5465171
p918
aVSOFXPJJ12AB0187354
p919
aVSOZKNOA12AF72A69AA
p920
aa(lp921
VSOYDHRV12AB0182B37
p922
aVSOIVELI12A6D4FA581
p923
aa(lp924
VSOOQKHB12AB01851F9
p925
aVSOLPEBM12AB0185B0D
p926
aa(lp927
VSOHEOSJ12A6D4F9049
p928
aVSOWMCEE12A8C13EF63
p929
aa(lp930
VSOESOCJ12A8C135B00
p931
aVSOJYOEX12A6D4F9043
p932
aa(lp933
VSOVURXK12A6701F929
p934
aVSORQBZE12A8C1345CA
p935
aa(lp936
VSODPIEU12AB0182B2F
p937
aVSOSEPFB12AC3DF7F65
p938
aVSOFTAEM12AB018516D
p939
aa(lp940
VSOOLBTH12A8C1337F5
p941
aVSOMDXQX12AB017B280
p942
aa(lp943
VSOUYIZE12A8C1315C5
p944
aVSONUNUX12A8C13436A
p945
aVSOSZBJV12AB01809DC
p946
aVSOBRTLI12A6701F9CB
p947
aVSOFLGWU12A6701D482
p948
aVSOVUFWU12A3F1ECA3C
p949
aa(lp950
VSOSTFZC12AB0184510
p951
aVSOSONJT12A6D4F6E0E
p952
aa(lp953
VSOFCCRQ12AB0183759
p954
aVSOJSUJT12AB0181D2F
p955
aa(lp956
VSOEBNYF12D02198918
p957
aVSOMJZLT12A8C140186
p958
aVSOOEJIA12A67020E2D
p959
aa(lp960
VSOCDIGR12A6D4F6A46
p961
aVSOGMUTF12A6D4FC606
p962
aVSOKJCAR12A8C1316F6
p963
aVSOTBUKP12A8C13F26D
p964
aVSOIJLEM12AB01887F1
p965
aVSOHKDFN12A8C136CE8
p966
aVSOKPTCZ12A8C13772E
p967
aa(lp968
VSORIMNB12AB017FFA5
p969
aVSOGVVWO12A8C13306C
p970
aa(lp971
VSOOAPSW12AB0188F05
p972
aVSOYOBUA12AB0181DCE
p973
aa(lp974
VSOHDCGR12AB018518B
p975
aVSOLIMDY12A6D4F4E6F
p976
aVSOEKHCJ12A8C13ECF9
p977
aVSOWVELM12A8C13194F
p978
aVSODYHMD12A6D4FDA8B
p979
aVSOYITRT12A6D4FA789
p980
aa(lp981
VSOOMEJL12D0219A295
p982
aVSOKVIVS12A6BD55C97
p983
aa(lp984
VSOYCZLK12A6D4FA7B4
p985
aVSOFOZYL12AB017CDED
p986
aVSOUXBNY12A8C13BADB
p987
aa(lp988
VSOBBHDJ12A8C133C7D
p989
aVSOHGYZA12AAA8C5A03
p990
aVSOQFSNA12A8C138520
p991
aa(lp992
VSOPLBYW12A8C132AD7
p993
aVSOQBJFD12AB017A27E
p994
aa(lp995
VSOBXGEK12AB018FDC6
p996
aVSOIDSRL12AF729F4BF
p997
aVSOGCTRI12A8C1326B5
p998
aa(lp999
VSOCKNZK12A6D4FA565
p1000
aVSORVMJU12AB017D3C6
p1001
aa(lp1002
VSOPHGKL12AB0181CE2
p1003
aVSOJSYXR12AB017C2AD
p1004
aVSOKZKPD12A670208E3
p1005
aa(lp1006
VSOSMARC12A6D4F793C
p1007
aVSOITHLO12AB0181D19
p1008
aa(lp1009
VSOMGLTN12AB017D511
p1010
aVSOPQAZJ12A58A7E90A
p1011
aa(lp1012
VSOUVTPS12AB00EF752
p1013
aVSOZSYTL12AAFF43E9C
p1014
aVSOQNJZZ12A6D4F523E
p1015
aa(lp1016
VSOMAGFF12A6D4F7231
p1017
aVSOTAOTB12AAFF43E81
p1018
aa(lp1019
VSOWWWTT12A8C135EC8
p1020
aVSOXUYUZ12A8C13A67E
p1021
aa(lp1022
VSOFBFVG12A6D4F61A7
p1023
aVSOEFHAF12A6D4FB311
p1024
aVSONLJGB12A6D4F6E20
p1025
aVSOFLLNJ12A6D4FA78A
p1026
aVSOWVELM12A8C13194F
p1027
aVSOQMXPG12AB018EC7A
p1028
aVSOLTQZY12A8C13262F
p1029
aa(lp1030
VSOBQFXM12AB017E229
p1031
aVSODOIOQ12A6D4F797D
p1032
aVSOLNTPB12A8C13F8CB
p1033
aa(lp1034
VSOLUBZH12AC468DC3A
p1035
aVSOQHDGK12A8C1430B0
p1036
aa(lp1037
VSOFJXDH12A3F1ED20A
p1038
aVSOOIQZG12A6D4F9E97
p1039
aa(lp1040
VSOJWGLQ12AB01836E8
p1041
aVSOILOHD12A6D4FB171
p1042
aa(lp1043
VSOOXXLY12A8AE4610F
p1044
aVSOEEHNT12AB0184C90
p1045
aa(lp1046
VSOSHILB12A6D4FD1F2
p1047
aVSOOXSEA12AB0181A20
p1048
aa(lp1049
VSOJOZGX12A58A79AEC
p1050
aVSOGWOQL12A6D4FBF55
p1051
aa(lp1052
VSOCSLWF12AB01843FC
p1053
aVSOZJPVH12AAFF43E86
p1054
aa(lp1055
VSOVDHBN12A6D4F61AF
p1056
aVSOPOAOO12AB0185863
p1057
aVSOXYLVK12AF72A13ED
p1058
aa(lp1059
VSORQORF12A6D4F954F
p1060
aVSOCXDJM12AB0189E47
p1061
aa(lp1062
VSOZTFJQ12A6D4F9EEF
p1063
aVSOUJZFT12AB018139E
p1064
aVSODZHVJ12A8C13DB29
p1065
aVSONXPLE12AB0189047
p1066
aa(lp1067
VSOWIOOI12AB01858E1
p1068
aVSOSJLSI12A8C13FB69
p1069
aa(lp1070
VSOPYJJA12AF729BBFD
p1071
aVSOCFDCL12A8C141679
p1072
aVSOOPCEP12A6701C4DA
p1073
aa(lp1074
VSOUTJPJ12A8C138221
p1075
aVSOCNLFS12AB0180662
p1076
aa(lp1077
VSOPEAMI12A6701E94B
p1078
aVSOUOOCR12A8C136C70
p1079
aVSOLEXSH12D021B2052
p1080
aVSOBZVFP12A58A8129D
p1081
aa(lp1082
VSOGUNMG12A8C13FC66
p1083
aVSOPQJKW12A58A7AB38
p1084
aa(lp1085
VSOGZSPS12A6D4F8418
p1086
aVSOLSGAY12A8C13E752
p1087
aVSOVBBFD12A67ADA297
p1088
aVSOMGBRL12A8C143FF5
p1089
aa(lp1090
VSOKZRJA12A8C13BD64
p1091
aVSOWQCNQ12A8C13387D
p1092
aa(lp1093
VSOZNXMN12A8C1439A9
p1094
aVSOFUGUK12A58A77EE2
p1095
aa(lp1096
VSOFSTCX12A8C139C09
p1097
aVSOWZMGC12AB018612C
p1098
aVSOISRKD12A8C13E6BA
p1099
aa(lp1100
VSOUCXOY12A8C137BAF
p1101
aVSOBSLOJ12A6702069C
p1102
aVSOBBJKR12A6D4FA788
p1103
aVSOZFKSW12A8C13634D
p1104
aa(lp1105
VSOVIVCT12A8C141422
p1106
aVSOKATDZ12A8C13D185
p1107
aa(lp1108
VSOBXGEK12AB018FDC6
p1109
aVSOGBYUP12A8C1390B1
p1110
aa(lp1111
VSOUQCYQ12CF5F87A93
p1112
aVSOBLNAT12A6310DFDF
p1113
aa(lp1114
VSOWKXXX12A6D4FA798
p1115
aVSOMDTRB12B34F1C292
p1116
aa(lp1117
VSOPNWXV12AC90718F5
p1118
aVSOLDBDO12A8C13F4C5
p1119
aa(lp1120
VSOQQWBT12A8C144DE4
p1121
aVSOISEPK12A8C133604
p1122
aVSODECVE12AB018E47E
p1123
aVSOVMWUC12A8C13750B
p1124
aa(lp1125
VSOLMGCM12A58A7878A
p1126
aVSOLVMNV12A58A7E4A9
p1127
aa(lp1128
VSOQZKFH12AC90719F4
p1129
aVSOBOMQO12CF5F88767
p1130
aa(lp1131
VSOGVWBQ12AB017FBA7
p1132
aVSOOJPYX12AF729C8C0
p1133
aa(lp1134
VSOIINKI12A58A78DE6
p1135
aVSOCYVVO12AB01886A0
p1136
aa(lp1137
VSOSPIAF12A8C13EDD3
p1138
aVSOZLVHE12A8C13BED2
p1139
aVSOJDHGS12A6310D85E
p1140
aVSOLKIAM12B0B809BAE
p1141
aa(lp1142
VSOAYVUP12D02199E41
p1143
aVSOTOHWO12A8C1386EF
p1144
aVSOVECKO12A8C14231E
p1145
aVSOBFSKY12AB0182C6F
p1146
aVSOZMBXQ12A8C134AA6
p1147
aVSOMHVXQ12A8C13D67E
p1148
aVSOOHSKI12A8C13B790
p1149
aa(lp1150
VSOAQOQP12A8AE4679E
p1151
aVSOSQQZE12A8C13A578
p1152
aa(lp1153
VSOHKDBS12A8C131903
p1154
aVSOBTBLE12A67020E36
p1155
aVSOEKFJS12A8C133CE9
p1156
aa(lp1157
VSOZISCC12A8C13EA5F
p1158
aVSOWLZDD12A8C13AB53
p1159
aVSOAWIGP12A8AE47B60
p1160
aa(lp1161
VSOYAPMX12A8C13CB1F
p1162
aVSOIRGOJ12A8C13D064
p1163
aVSOTKCTK12AC468E80B
p1164
aVSOORCVJ12A6D4FA79F
p1165
aVSOWWWTT12A8C135EC8
p1166
aVSOEPHAK12A8C1383D5
p1167
aVSOXMFSC12A8C134B49
p1168
aVSOGFEOL12A6D4F937C
p1169
aVSOAOHXZ12A6D4FBC78
p1170
aa(lp1171
VSOOIHFO12AB0182248
p1172
aVSOOJPIF12A6701DA9C
p1173
aa(lp1174
VSOEMAIM12AC90759AC
p1175
aVSOIXQGN12AB018098A
p1176
aa(lp1177
VSOVMWUC12A8C13750B
p1178
aVSOYMSZG12A8C133069
p1179
aa(lp1180
VSOKZHVF12AF72A77E7
p1181
aVSOZUMNX12AB0184C8F
p1182
aa(lp1183
VSOKRYXH12A6701D468
p1184
aVSOESOCJ12A8C135B00
p1185
aVSOLRMEX12A58A7E117
p1186
aa(lp1187
VSOHZWUD12AF72AAA0C
p1188
aVSOECUYI12AF729DC3A
p1189
aVSOTDQDP12CF5F86B46
p1190
aa(lp1191
VSOVJXYI12D0219A6BB
p1192
aVSOMUPJE12A6D4F84DE
p1193
aVSOBIWEH12D021B32A4
p1194
aVSOELQEU12A6D4F62EE
p1195
aVSOKYCNY12A6D4F74F5
p1196
aVSOVHIGB12A8AE46CB0
p1197
aVSOKZPQJ12AB0183C04
p1198
aVSOSGZNS12AB0180226
p1199
aa(lp1200
VSOMYELF12AB017E963
p1201
aVSOLFOAD12A6701D483
p1202
aVSOMDKBT12A8C134151
p1203
aVSOIOKJW12AB017F47D
p1204
aVSOHUUFD12A6701DBD7
p1205
aVSOFKQOB12A8C142FEB
p1206
aVSOJGEIS12AF729B2F5
p1207
aVSODHELE12A8C135EEC
p1208
aa(lp1209
VSOILMAD12A6D4F9D4A
p1210
aVSODJMLM12AAA15E95F
p1211
aa(lp1212
VSODTRWG12A8C133493
p1213
aVSOBMLYV12AB018485E
p1214
aa(lp1215
VSOLQLHX12A8C13B296
p1216
aVSOXNXSO12AF72A4CE1
p1217
aVSOTGERL12A8C142CE0
p1218
aVSOYUJVL12AB017DCCD
p1219
aVSORZJNJ12AB01806EF
p1220
aa(lp1221
VSOOFMXF12A6D4F99C3
p1222
aVSOXEUHC12A8159E8AA
p1223
aa(lp1224
VSOZXEGV12AB018903D
p1225
aVSOIVJDH12AB0188960
p1226
aa(lp1227
VSOJHYTV12A8C1345CD
p1228
aVSONTSUL12AB0185B5E
p1229
aVSOBSKYA12AB017E12E
p1230
aVSOWNZOP12A8C13BDCE
p1231
aa(lp1232
VSODDXDU12AB017B51D
p1233
aVSOMZBOC12A6D4F93C2
p1234
aa(lp1235
VSOMNULF12A8C135F65
p1236
aVSOOCDFI12A8C13170D
p1237
aVSOPQJKW12A58A7AB38
p1238
aa(lp1239
VSOODZRY12A6D4F81A0
p1240
aVSOFWDCB12A6D4F9E11
p1241
aa(lp1242
VSOWUZVU12A6D4F914D
p1243
aVSOKGFMX12A6D4F634F
p1244
aVSOQATIZ12AB017CFF5
p1245
aVSOIPHIT12A58A7ECF8
p1246
aVSOZOEFS12CF5F87968
p1247
aa(lp1248
VSOLZABY12AC3DF6F4B
p1249
aVSOMHHKG12A8C133C3B
p1250
aVSOCFKHP12A8C13B931
p1251
aVSOSERZH12A8C142A38
p1252
aVSOXRFIS12A8C13F8C6
p1253
aa(lp1254
VSOASIRD12A6D4F90A2
p1255
aVSOWMFNS12AAF3B216E
p1256
aa(lp1257
VSOYZWYD12A8C134922
p1258
aVSOZWKGN12A8C130065
p1259
aVSOQNLSJ12A6D4FBBC8
p1260
aa(lp1261
VSOGMKGT12A6701F931
p1262
aVSOFRYFW12AB018189E
p1263
aa(lp1264
VSOAFNTJ12AB0180957
p1265
aVSOPKUOG12A8C13FAAF
p1266
aa(lp1267
VSONEJWG12A8C137828
p1268
aVSOEIVZW12AB0189AB9
p1269
aa(lp1270
VSOQHOKU12AB0185267
p1271
aVSOCZTMT12AF72A078E
p1272
aVSOETBOJ12A8C137A1E
p1273
aVSOEVMJC12A6D4FAED1
p1274
aVSOTTQAF12A6310F21D
p1275
aVSOQHBCM12A8C13D672
p1276
aVSOTQWBD12A8C134D1B
p1277
aa(lp1278
VSOBDGQD12A58A7C5DF
p1279
aVSOHNOLQ12AAF3B1C55
p1280
aVSOTBZTU12A6D4F86F7
p1281
aVSOMDMAX12A63110846
p1282
aa(lp1283
VSOGIXWL12A58A76C5A
p1284
aVSONYLCO12AB01858C3
p1285
aVSOVQSZA12AF72A3633
p1286
aVSOZMCPU12A8C1405F0
p1287
aa(lp1288
VSOLDQKT12A8C132E6F
p1289
aVSOBHHFX12AC468F5D7
p1290
aaa(lp1291
g805
ag246
ag249
ag166
ag895
ag1034
ag1037
ag1040
ag1043
ag683
ag729
ag733
ag1150
ag1153
a(lp1292
VSODLDMA12A8C13D5BB
p1293
aVSOUXPVA12AB01876F2
p1294
aag1019
ag1022
ag106
ag109
ag113
ag792
ag796
ag799
ag578
ag488
a(lp1295
VSOVHIGB12A8AE46CB0
p1296
aVSODOFWM12AB018119C
p1297
aVSODECVE12AB018E47E
p1298
aVSOGVKTC12A8C131787
p1299
aa(lp1300
VSOVUJRJ12D0219A386
p1301
aVSONJNQI12A6310EDEE
p1302
aag1161
ag631
ag636
ag314
ag317
ag322
ag13
ag16
a(lp1303
VSOAOGZN12AB017EEDD
p1304
aVSORNSXM12AB01888B7
p1305
aVSOIVRVI12A58A76248
p1306
aa(lp1307
VSOAOJHN12AB017C7A8
p1308
aVSOSCIUO12A6D4F9E98
p1309
aa(lp1310
VSOAAXFF12AB017DA80
p1311
aVSOVAODP12AB01839DD
p1312
aVSOYTVNG12A8C1316F9
p1313
aag213
ag20
ag428
ag431
ag434
ag377
ag381
ag384
ag560
a(lp1314
VSOZYUOK12A679AE5AE
p1315
aVSOURMTG12A8C13B478
p1316
aa(lp1317
VSOGJKBS12A679AE5AD
p1318
aVSOUDGEV12A8C135FC9
p1319
aa(lp1320
VSODSJMI12A6D4F91EC
p1321
aVSOICKQJ12A8C1338CA
p1322
aVSOCRRDX12AB017BCF8
p1323
aVSOLCXGQ12A58A7F15D
p1324
aag584
ag588
ag657
ag661
ag725
ag139
ag1270
a(lp1325
VSOMATVS12A6701DA9A
p1326
aVSOIMTFP12AC907599E
p1327
aag424
ag1117
ag1055
ag1059
ag169
ag992
ag995
a(lp1328
VSOTAQTI12A8C13D04B
p1329
aVSOTWWNE12D02198A87
p1330
aa(lp1331
VSOJBLSL12AC468E28E
p1332
aVSODDQKX12A6D4F86CA
p1333
aVSOIORQF12A8C13DEFF
p1334
aVSOOQHZP12A8C13A6E0
p1335
aag708
ag711
ag1212
ag1215
ag1221
ag757
ag760
ag156
ag160
ag392
ag396
ag399
ag402
ag493
ag498
ag831
ag834
ag37
ag40
a(lp1336
VSOGAPFH12A8C1381A0
p1337
aVSOLKFBK12AB0188A01
p1338
aa(lp1339
VSOTSABS12A67ADE658
p1340
aVSOHEUPZ12A8C13C570
p1341
aa(lp1342
VSOMKZDW12A8C13FF5A
p1343
aVSOMBBSI12A6D4FB9C9
p1344
aa(lp1345
VSOKXTQJ12A58A7A265
p1346
aVSOADSII12AB0187A19
p1347
aVSOGHLWK12AB018E49A
p1348
aag742
ag745
ag749
ag752
a(lp1349
VSOETCSA12A6D4F78A0
p1350
aVSOXBQDJ12A6D4F93CC
p1351
aVSOETHEK12A8C13D667
p1352
aa(lp1353
VSOMBGTL12A8C133038
p1354
aVSOMOKCH12A8159E8A0
p1355
aa(lp1356
VSOVHAVI12AF72A71E4
p1357
aVSOFACIM12A6D4FBAD9
p1358
aa(lp1359
VSODGYPK12AB0181949
p1360
aVSOIMTFP12AC907599E
p1361
aag116
ag1090
ag1093
ag1096
ag891
a(lp1362
VSOJKGIW12A58A7F14D
p1363
aVSOAJXFG12A6D4F4A92
p1364
aa(lp1365
VSOMEHNF12A8C13FB0E
p1366
aVSONDOBB12A58A7A89F
p1367
aa(lp1368
VSOJSTYO12A8C13F200
p1369
aVSOBVCGC12A8C13BD5A
p1370
aVSOBVDMZ12A8AE48E12
p1371
aVSONAXGB12A8C13F0CC
p1372
aVSOYCLOM12A6701F5EA
p1373
aVSONNRXT12A8C137A23
p1374
aag572
ag575
a(lp1375
VSONULCN12AB017F8F9
p1376
aVSOTEOYY12AB0180143
p1377
aa(lp1378
VSODJCTM12A8C1345B6
p1379
aVSOOFOAP12AF72A06EB
p1380
aVSORTBLM12A8C140261
p1381
aag1046
ag1049
ag1052
ag771
ag774
ag462
a(lp1382
VSOLSZAO12A8C142605
p1383
aVSOMDKBT12A8C134151
p1384
aag79
ag988
ag514
ag519
ag556
a(lp1385
VSOBGKQC12AF72A9432
p1386
aVSOPTREH12D021B0E6D
p1387
aag898
ag901
ag906
ag292
ag297
ag257
a(lp1388
VSORYWFI12A6D4F6FC4
p1389
aVSOPAOQL12A6D4F9EC2
p1390
aa(lp1391
VSOUTMZC12A8AE46F10
p1392
aVSOOWZUW12A58A77F3C
p1393
aVSORCKMN12A8C139DD2
p1394
aa(lp1395
VSOSMKPO12A8C13C9F5
p1396
aVSOSONNB12A8AE46D89
p1397
aVSOZIATL12AB01832EC
p1398
aVSOQERFC12A8C13C669
p1399
aVSORENXW12A8C13D2C3
p1400
aVSOTUMVJ12A6D227297
p1401
aag736
ag599
ag602
ag610
ag163
ag808
ag340
ag126
ag134
ag263
ag909
ag912
ag915
ag405
ag408
a(lp1402
VSOJFYFB12AB0181720
p1403
aVSOUISCH12AB01852D8
p1404
aa(lp1405
VSOKDUXC12A58A7C037
p1406
aVSOLJXYA12AB0185D93
p1407
aVSOPUECE12AB018A9D0
p1408
aag840
ag843
ag846
ag851
a(lp1409
VSOTZOSS12AAA15E933
p1410
aVSOKDBRN12AB0183E56
p1411
aag1100
ag1105
ag802
ag459
ag953
ag1187
ag581
ag266
ag269
ag272
ag933
ag646
ag651
ag654
ag527
ag530
ag535
a(lp1412
VSOBURKM12A6D4F8DA5
p1413
aVSOQLWDK12A8C13C13B
p1414
aa(lp1415
VSOESFQZ12A8C134D7F
p1416
aVSOASIRD12A6D4F90A2
p1417
aag716
ag719
ag722
ag1030
ag119
ag1157
ag701
ag704
ag936
ag940
ag943
ag172
a(lp1418
VSOYBEUS12AF72A781E
p1419
aVSONSBLZ12A6D4FAD3D
p1420
aa(lp1421
VSOBLYCD12A6701F343
p1422
aVSOEAIDK12A81C22552
p1423
aVSOSQRQT12A8C1342DB
p1424
aa(lp1425
VSOKVIDV12AB017AFC6
p1426
aVSOARNMW12A8C14093C
p1427
aag968
ag971
ag82
a(lp1428
VSOVVMOP12A8C1348D2
p1429
aVSORKERW12AB0183DA2
p1430
aa(lp1431
VSOENXKO12AB017BCD2
p1432
aVSOPNXUJ12A67021D5B
p1433
aVSONRWVX12AF72A5897
p1434
aVSORLNWJ12A8C141DB1
p1435
aVSOYISPR12A8C134F20
p1436
aag1062
ag1067
ag358
ag361
ag364
ag243
ag763
ag766
ag524
ag664
ag667
a(lp1437
VSOVDEDG12A58A7CB14
p1438
aVSONYBKR12A6701F934
p1439
aVSOGLKSJ12A8C13B88E
p1440
aVSONXENM12AC468C2AE
p1441
aVSORDVKU12B0B806C7D
p1442
aVSOWROHX12AC468E292
p1443
aVSOKHEDX12A6D4FAC70
p1444
aa(lp1445
VSOIMTFP12AC907599E
p1446
aVSOAEZIW12A8C13B292
p1447
aVSOLAYFA12A6D4FD30A
p1448
aag1191
ag1200
ag1209
ag865
ag868
ag175
ag180
ag183
ag1278
ag1283
ag1070
ag1074
ag1077
ag921
a(lp1449
VSOEKEJG12A6D4FBD6B
p1450
aVSOTMJXY12A8C13D099
p1451
aa(lp1452
VSOZOSTH12A6D4FB48E
p1453
aVSODZWND12A8C13E171
p1454
aa(lp1455
VSOBXGEK12AB018FDC6
p1456
aVSODXVXU12AF729E02B
p1457
aag1232
ag1254
a(lp1458
VSOHBOWN12A67ADD6D0
p1459
aVSOOLQUH12AB01838AE
p1460
aa(lp1461
VSOZTZSJ12A8C143646
p1462
aVSOVDYXW12AB017CB97
p1463
aVSOLWTQU12AF72A417E
p1464
aa(lp1465
VSOPCDRW12AB017F61A
p1466
aVSOSOPMH12AB01838E7
p1467
aVSOSWAFD12AF729C75F
p1468
aa(lp1469
VSOVQSZA12AF72A3633
p1470
aVSOOSSVG12A8C140046
p1471
aVSOTMZHD12A67ADAF31
p1472
aVSOGBLPD12A8AE47665
p1473
aVSODIUTT12D02191E74
p1474
aa(lp1475
VSOJILCY12AB0183C91
p1476
aVSOQUXKG12A8C139478
p1477
aag786
ag789
ag739
ag226
ag230
ag777
ag783
ag331
a(lp1478
VSOEDNNS12A6D4F6A3F
p1479
aVSOXCFHA12A8C137F7E
p1480
aa(lp1481
VSOTKWCX12A8C13EB46
p1482
aVSOMNULF12A8C135F65
p1483
aa(lp1484
VSOJIMOL12A8C1351C9
p1485
aVSOYRBKL12AB017CD6F
p1486
aa(lp1487
VSOELPVD12A8C14620A
p1488
aVSOSGBIR12A6701E0E0
p1489
aa(lp1490
VSOXCXKO12A8C13D693
p1491
aVSONEJWG12A8C137828
p1492
aa(lp1493
VSOWHUJD12A8C133C9A
p1494
aVSOUMBUB12AAF3B2CBE
p1495
aag872
a(lp1496
VSOBMPEM12A8C13EC12
p1497
aVSOEGQWR12A8C13202B
p1498
aVSOJOLQN12AB017ED08
p1499
aVSODXHTT12A6D4F8991
p1500
aVSOSQDAV12A8C145FB7
p1501
aa(lp1502
VSOCEERU12A670215F1
p1503
aVSOWKXZP12A8C141FFD
p1504
aag502
a(lp1505
VSOPQELB12AB018D955
p1506
aVSOPOCZC12A8C138C66
p1507
aVSOJVJAU12A8C13CE85
p1508
aag43
ag47
ag51
ag1009
ag1012
ag1016
ag102
a(lp1509
VSOPRPGZ12A6D4FBA01
p1510
aVSOSIUGV12AB0184F45
p1511
aVSOPJLQU12A8C132C78
p1512
aa(lp1513
VSOUGYSR12A8AE479B9
p1514
aVSOAHKDA12AB0181D73
p1515
aVSOCTZEJ12A67020722
p1516
aVSOJHMYI12AB017E6C4
p1517
aVSOTHZHG12A6D4F8A63
p1518
aVSOOXLND12A6D4FE36E
p1519
aa(lp1520
VSOKALAM12AB01852EE
p1521
aVSOMCUQY12A6D4FC829
p1522
aa(lp1523
VSONZZTV12A8C139C92
p1524
aVSOIXFZK12AB017DC8A
p1525
aa(lp1526
VSOJAYZZ12A8C137ADF
p1527
aVSOLTCRX12AB0181FD4
p1528
aa(lp1529
VSOREHGH12AB0180A13
p1530
aVSOMBMGT12A8C136A39
p1531
aVSOIXXVL12A8C13221E
p1532
aVSOEPHAK12A8C1383D5
p1533
aVSOFELFO12A6D4F579A
p1534
aVSOPOAOO12AB0185863
p1535
aa(lp1536
VSOMXOYT12A8AE46E10
p1537
aVSOPQJKW12A58A7AB38
p1538
aa(lp1539
VSOWZMGC12AB018612C
p1540
aVSOZSHHJ12A8151CA10
p1541
aag26
ag30
ag1131
ag1134
ag1137
ag1142
ag337
a(lp1542
VSOCJTPQ12A58A7E212
p1543
aVSOZKSUN12A8C13F2C6
p1544
aa(lp1545
VSORNSWX12AB017ED03
p1546
aVSOOBBAG12A58A77B26
p1547
aa(lp1548
VSORLVXI12A8AE45E37
p1549
aVSOCNPTC12A8C144911
p1550
aVSOLCKKF12A8C13F5C1
p1551
aVSOQWMJV12A58A7CCCC
p1552
aa(lp1553
VSOLNVZW12A582A2C28
p1554
aVSOTQWZH12D02193404
p1555
aVSOYLCKM12A8C1346FF
p1556
aVSOPJMCI12AC468E339
p1557
aVSOEGQWR12A8C13202B
p1558
aVSOQQEZM12A8C136C07
p1559
aag508
ag875
ag879
ag883
ag886
a(lp1560
VSOCWWJQ12A58A783EF
p1561
aVSORQSRC12A8C13420C
p1562
aVSOFTSUN12A8C134B51
p1563
aa(lp1564
VSOUBEAX12CF5465224
p1565
aVSOEDZOA12A6D4F9A6D
p1566
aa(lp1567
VSOSOJGE12A8C1363D6
p1568
aVSOZNXMN12A8C1439A9
p1569
aa(lp1570
VSOEUKVP12D02193414
p1571
aVSOYNEVM12AB018439A
p1572
aVSOGIXBV12A58A7E37F
p1573
aag260
ag1288
ag566
ag569
ag999
ag1002
ag1006
a(lp1574
VSOPTREH12D021B0E6D
p1575
aVSOGIQRK12AC468EF5A
p1576
aa(lp1577
VSOBLIYT12AF72A3FCC
p1578
aVSOBPNSE12AF729E2AE
p1579
aVSOIXXVL12A8C13221E
p1580
aa(lp1581
VSOBFBCM12AB018999A
p1582
aVSOKHKTP12A8C146498
p1583
aVSOAHCJL12A6D4FAEA5
p1584
aa(lp1585
VSOZBNML12A67ADA701
p1586
aVSOAZJZF12A8C133C0C
p1587
aa(lp1588
VSOTKKLU12A8C139AEE
p1589
aVSOKYYQU12A8AE46E26
p1590
aag538
ag545
ag548
ag553
a(lp1591
VSOWMNEQ12A6D4F861E
p1592
aVSOWKYIJ12AB017B0AA
p1593
aVSOZSYYS12A8C13C04F
p1594
aVSOLANPM12AC46895E0
p1595
aa(lp1596
VSOSERZH12A8C142A38
p1597
aVSOAFGCM12A6D4F6D95
p1598
aag1257
a(lp1599
VSOHTKMX12A6D4F3D88
p1600
aVSOUQBYD12A58A79282
p1601
aVSOGJMEF12A8AE473FC
p1602
aVSOHGYZA12AAA8C5A03
p1603
aa(lp1604
VSODHIPM12A6D4F556A
p1605
aVSOBSKYA12AB017E12E
p1606
aa(lp1607
VSOWUQQD12AB018194B
p1608
aVSOVRMVE12A8C142E49
p1609
aag216
a(lp1610
VSOCXUQA12A58A7FE09
p1611
aVSOSXCHW12A8151C915
p1612
aa(lp1613
VSOIXEJR12A8151B85F
p1614
aVSOILOHD12A6D4FB171
p1615
aVSOUFRAV12A8C13AC31
p1616
aa(lp1617
VSOPVHDA12A67020947
p1618
aVSOLKXFU12A8C144B86
p1619
aag924
ag811
ag203
ag437
ag950
ag88
ag92
ag1125
ag1128
ag446
ag449
ag1248
ag505
ag1235
ag1239
ag1242
ag301
ag304
ag308
ag311
ag1224
ag1227
ag1082
ag1085
ag188
ag196
aa(lp1620
g1019
ag1022
ag1120
ag1117
ag599
ag602
ag610
ag1449
ag1452
ag1455
ag771
ag774
ag405
ag408
ag1171
ag1174
ag1375
ag1378
a(lp1621
VSOBTRCD12A6701E976
p1622
aVSOBFGET12AB017DF7D
p1623
aVSODLKFD12A6701F698
p1624
aag992
ag995
ag1264
ag1267
ag166
ag216
ag1248
ag924
ag1428
ag1431
ag578
ag505
ag1505
ag1314
ag1317
ag1320
ag1526
ag1529
ag956
ag960
ag670
ag673
ag677
ag680
ag640
ag643
a(lp1625
VSOADNRV12AB01815BB
p1626
aVSORVMJU12AB017D3C6
p1627
aag263
ag1131
ag1134
ag1137
ag1142
ag953
ag777
ag783
ag927
ag930
ag1437
ag1445
ag563
ag891
ag1288
ag593
ag1049
ag1052
ag1150
ag1153
ag243
ag246
ag249
a(lp1628
VSOQGELR12AB01851EF
p1629
aVSOKXVBM12AB018EB0C
p1630
aa(lp1631
VSOLOSWU12A6310F22E
p1632
aVSORZVLY12A8C1334AC
p1633
aa(lp1634
VSONKQLX12A6D4FA476
p1635
aVSOOUYTP12B0B8094B6
p1636
aag527
ag530
ag535
ag538
ag545
ag548
ag553
ag581
ag1009
ag1012
ag1016
ag1577
ag1581
ag1585
ag1588
ag34
ag37
ag40
ag1574
ag13
ag16
ag424
a(lp1637
VSONRHVL12A8C13725E
p1638
aVSONWWMQ12A8C139E05
p1639
aa(lp1640
VSOCHKKR12AC4687DDA
p1641
aVSOKVFAB12A58A77DA1
p1642
aVSOPJRDQ12AB01894B4
p1643
aVSORCKRZ12A6D4F9064
p1644
aag708
ag711
ag169
ag421
ag119
a(lp1645
VSOIMHAQ12A6D4F9F3F
p1646
aVSOHJKDG12AC468A158
p1647
aa(lp1648
VSOSGWHF12A67020F4D
p1649
aVSOTNLTM12A58A7DDEC
p1650
aag213
ag1421
ag1425
ag936
ag940
ag943
ag786
ag789
ag150
ag153
ag1257
ag502
ag1161
ag102
ag95
ag98
ag82
ag1487
ag327
ag1191
ag1200
ag1209
ag446
ag449
ag1034
ag1037
ag1040
ag1043
ag257
ag1055
ag1059
ag572
ag575
ag478
ag482
ag485
ag220
ag223
ag116
ag1235
ag1239
ag1242
ag875
ag879
ag883
ag886
ag646
ag651
ag654
ag837
ag811
ag349
ag352
ag355
ag1030
ag725
ag459
ag854
ag859
ag862
ag488
ag1125
ag1128
ag26
ag30
ag1542
ag1545
ag1548
ag805
ag865
ag868
ag1496
ag1502
ag156
ag160
ag950
a(lp1651
VSOITFIU12A8C13164B
p1652
aVSOGYELC12D021B12AB
p1653
aag1490
ag1493
ag739
ag1385
ag142
ag146
ag1409
ag172
ag377
ag381
ag384
ag292
ag297
ag999
ag1002
ag1006
ag453
ag456
ag233
ag237
ag1509
ag1513
ag1520
ag1523
ag974
ag981
ag984
ag1604
ag1607
ag1100
ag1105
ag88
ag92
ag1356
ag1359
ag683
ag331
ag1349
ag1353
ag1046
ag1070
ag1074
ag1077
a(lp1654
VSOTKCTK12AC468E80B
p1655
aVSOVOVSC12A6701C5A0
p1656
aVSOOSNUB12A8C134A1B
p1657
aa(lp1658
VSOECIFL12A6D4F78FE
p1659
aVSOFDPZD12A6701F464
p1660
aVSONPNDK12A58A7D0C2
p1661
aag1536
ag1539
a(lp1662
VSOXYSHB12A8C139424
p1663
aVSOSUYOY12A6D4F96A8
p1664
aa(lp1665
VSOIZIME12A6D4FA78F
p1666
aVSOZOYGN12A8C13B983
p1667
aVSOFZJUX12A6D4F8F37
p1668
aVSOBLOXH12AB018E0DC
p1669
aa(lp1670
VSOCZHEM12A67ADE6BE
p1671
aVSOBQNJE12A6310E268
p1672
aag275
ag279
ag287
ag508
ag1328
ag1331
ag736
ag1402
ag1405
ag1591
ag1596
ag465
ag468
ag472
ag475
a(lp1673
VSOIVRVI12A58A76248
p1674
aVSOGHDCR12A8C1395AF
p1675
aVSONBJGL12A58A7EE41
p1676
aag1478
ag1481
ag1484
ag1292
ag560
ag163
ag1610
ag1613
ag1617
ag337
ag3
ag9
ag253
ag1270
ag126
ag134
ag1310
a(lp1677
VSOIXOZT12A6D4FA263
p1678
aVSOXTBUE12AF72A27CD
p1679
aag1212
ag1215
ag1221
ag358
ag361
ag364
ag802
ag1177
ag1180
ag1183
ag1082
ag1085
ag792
ag796
ag799
ag437
ag20
ag314
ag317
ag322
a(lp1680
VSOPMZRD12AB017BB68
p1681
aVSONTSRQ12A8C1340BE
p1682
aVSOVRISG12AF72A04C8
p1683
aVSOBYDAA12A6D4F8847
p1684
aa(lp1685
VSOVJXYI12D0219A6BB
p1686
aVSOGRGJO12A6D4F700E
p1687
aag933
ag1157
ag1295
ag1300
a(lp1688
VSOGMKGT12A6701F931
p1689
aVSOMWWLB12A8C1358C1
p1690
aVSOYQVDF12AF729F676
p1691
aag462
ag1382
ag688
ag691
ag697
ag1303
ag1307
ag613
ag616
ag619
ag622
ag584
ag588
ag1232
ag122
ag524
ag1388
ag1391
ag1395
a(lp1692
VSOOZCRC12AB0180CC2
p1693
aVSOOZDVN12AB01811FA
p1694
aa(lp1695
VSOFTJHG12A8C13B6B5
p1696
aVSOXMZMS12AAF3B51F5
p1697
aa(lp1698
VSOBDQPK12A6D4F74B3
p1699
aVSOCBWRP12A8C1311DB
p1700
aVSOOKMGS12AB0181705
p1701
aVSOMWIQI12AC468A9A6
p1702
aVSOSDXCG12A8151D772
p1703
aa(lp1704
VSOEECZF12A8C13D7A3
p1705
aVSOKJFVL12AB01822E9
p1706
aa(lp1707
VSOVUYNF12AF72AAAD3
p1708
aVSOEHKHS12AB017BD07
p1709
aa(lp1710
VSOPRUYQ12A8C140016
p1711
aVSODEUAL12A8C141B43
p1712
aa(lp1713
VSOYJRZE12AB0184261
p1714
aVSOKKFAV12A81C20715
p1715
aVSOXEAQS12AF729E0EB
p1716
aa(lp1717
VSOBIFLB12AB0180A45
p1718
aVSOOPSDO12A6D4F3DAD
p1719
aVSOWUZVU12A6D4F914D
p1720
aVSOFKHCP12A8AE460AF
p1721
aVSOSZFOX12A81C2230C
p1722
aVSOOWNGP12A8C141C40
p1723
aa(lp1724
VSOODDWO12A8C13CD6C
p1725
aVSOXPMGI12A8C1388E3
p1726
aVSODWUCN12A6701D259
p1727
aVSOBANXX12A8C1388F9
p1728
aag1261
ag392
ag396
ag399
ag402
ag428
ag431
ag434
ag763
ag766
ag808
ag1336
ag831
ag834
ag1254
ag814
ag817
ag820
ag823
ag828
ag73
ag76
aa(lp1729
g266
ag269
ag272
ag358
ag361
ag364
ag646
ag651
ag654
ag808
ag206
ag210
ag340
ag493
ag498
ag837
ag1261
ag1628
ag1631
ag1634
ag126
ag134
ag343
ag1662
ag1665
ag1670
ag1125
ag1128
ag337
ag701
ag704
ag377
ag381
ag384
ag82
ag54
ag59
ag63
ag66
ag70
ag73
ag76
ag1604
ag1607
ag1157
ag875
ag879
ag883
ag886
ag226
ag230
ag1362
ag1365
ag1368
ag921
ag1637
ag1640
ag898
ag901
ag906
ag102
ag1270
ag1645
ag1648
ag1591
ag1596
ag253
ag1526
ag1529
ag478
ag482
ag485
ag814
ag817
ag820
ag823
ag828
ag1062
ag1067
ag508
ag1478
ag1481
ag1484
ag1325
ag933
ag1336
ag974
ag981
ag984
ag1496
ag1502
ag729
ag733
ag1651
ag909
ag912
ag915
ag275
ag279
ag287
ag1117
ag216
ag1574
ag1034
ag1037
ag1040
ag1043
ag220
ag223
ag1131
ag1134
ag1137
ag1142
ag1388
ag1391
ag1395
ag584
ag588
ag1553
ag1019
ag1022
ag1449
ag1452
ag1455
ag514
ag519
ag1108
ag1111
ag1114
ag119
ag1254
ag1536
ag1539
ag736
ag777
ag783
ag1232
ag1264
ag1267
ag538
ag545
ag548
ag553
ag156
ag160
ag566
ag569
ag116
ag763
ag766
ag527
ag530
ag535
ag505
ag831
ag834
ag1375
ag1378
ag139
ag440
ag443
ag854
ag859
ag862
ag1412
ag1415
ag428
ag431
ag434
ag953
ag367
ag372
ag150
ag153
ag1292
ag739
ag1382
ag742
ag745
ag749
ag752
ag88
ag92
ag446
ag449
ag992
ag995
ag1469
ag757
ag760
ag560
ag1625
ag578
ag924
ag437
ag106
ag109
ag113
ag43
ag47
ag51
ag1100
ag1105
ag301
ag304
ag308
ag311
ag802
ag1418
ag1402
ag1405
ag968
ag971
ag950
ag1654
ag1658
ag459
ag1224
ag1227
ag792
ag796
ag799
ag1490
ag1493
ag1177
ag1180
ag1183
ag453
ag456
a(lp1730
VSOWTQBY12A8C137823
p1731
aVSOOEJIA12A67020E2D
p1732
aag163
ag331
ag488
ag999
ag1002
ag1006
ag1070
ag1074
ag1077
ag599
ag602
ag610
ag1120
ag1090
ag1093
ag1096
ag670
ag673
ag677
ag680
ag1692
ag1695
ag563
ag1339
ag1342
ag1345
ag716
ag719
ag722
ag524
ag142
ag146
ag1171
ag1174
ag572
ag575
ag79
ag1688
ag1049
ag1052
ag936
ag940
ag943
ag166
ag1278
ag1283
ag664
ag667
ag175
ag180
ag183
ag1437
ag1445
ag1328
ag1331
ag1356
ag1359
ag292
ag297
ag1295
ag1300
ag613
ag616
ag619
ag622
ag771
ag774
ag172
ag392
ag396
ag399
ag402
ag1303
ag1307
ag1421
ag1425
ag334
ag13
ag16
ag1680
ag1685
ag631
ag636
ag314
ag317
ag322
ag405
ag408
ag462
ag872
ag169
ag511
ag956
ag960
ag688
ag691
ag697
ag95
ag98
ag465
ag468
ag472
ag475
ag263
ag1385
ag1428
ag1431
ag927
ag930
ag725
ag1150
ag1153
ag1577
ag1581
ag1585
ag1588
ag708
ag711
ag1235
ag1239
ag1242
ag657
ag661
ag502
ag257
ag188
ag196
ag260
aa(lp1733
g1437
ag1445
ag216
ag1108
ag1111
ag1114
ag974
ag981
ag984
ag837
ag891
ag1356
ag1359
ag538
ag545
ag548
ag553
ag1325
ag1645
ag1648
ag1232
ag777
ag783
a(lp1734
VSOPRUNG12AB01861FF
p1735
aVSOTSLEU12A6D4F8639
p1736
aag898
ag901
ag906
ag327
ag1362
ag1365
ag1368
ag1385
ag1288
ag1496
ag1502
ag1082
ag1085
ag511
ag1388
ag1391
ag1395
ag1171
ag1174
ag169
ag875
ag879
ag883
ag886
ag1553
ag1278
ag1283
ag757
ag760
ag950
ag1328
ag1331
ag206
ag210
ag1161
ag1478
ag1481
ag1484
ag465
ag468
ag472
ag475
ag220
ag223
ag729
ag733
ag446
ag449
ag377
ag381
ag384
ag126
ag134
ag1212
ag1215
ag1221
ag257
ag367
ag372
ag1070
ag1074
ag1077
ag166
ag1339
ag1342
ag1345
ag1475
ag20
ag233
ag237
ag909
ag912
ag915
ag428
ag431
ag434
ag1692
ag1695
ag808
ag1662
ag1665
ag1670
ag213
ag831
ag834
ag814
ag817
ag820
ag823
ag828
ag1046
ag1295
ag1300
ag1257
ag657
ag661
ag505
ag1303
ag1307
ag1418
ag116
ag811
ag88
ag92
ag122
ag599
ag602
ag610
ag275
ag279
ag287
ag716
ag719
ag722
ag3
ag9
ag933
ag139
ag508
ag102
ag334
ag459
ag895
ag43
ag47
ag51
ag1421
ag1425
ag1248
ag1062
ag1067
ag266
ag269
ag272
ag1314
ag1317
ag1320
ag1125
ag1128
ag1402
ag1405
ag924
ag1688
ag708
ag711
ag725
ag1469
ag1120
ag1505
ag739
ag1090
ag1093
ag1096
a(lp1737
VSOPOKGG12A8C13FEBE
p1738
aVSOPUECE12AB018A9D0
p1739
aVSOKGBPR12AB0184592
p1740
aa(lp1741
VSOZSFKJ12AC3DF9470
p1742
aVSOXUOSS12A81C21DF1
p1743
aag1055
ag1059
ag999
ag1002
ag1006
ag927
ag930
ag340
ag1187
ag203
ag82
ag1117
ag524
ag872
ag1574
ag415
ag418
ag1677
ag1261
ag865
ag868
ag1654
ag1658
ag358
ag361
ag364
ag1235
ag1239
ag1242
ag502
ag1625
ag13
ag16
ag106
ag109
ag113
ag1310
ag992
ag995
ag478
ag482
ag485
ag640
ag643
ag646
ag651
ag654
ag421
ag701
ag704
ag440
ag443
ag1349
ag1353
ag54
ag59
ag63
ag66
ag70
ag34
ag349
ag352
ag355
ag1409
ag226
ag230
ag736
ag331
ag156
ag160
ag742
ag745
ag749
ag752
ag1292
ag921
ag1599
ag1698
ag1704
ag1707
ag1710
ag1713
ag1717
ag1724
ag1019
ag1022
ag26
ag30
ag936
ag940
ag943
ag392
ag396
ag399
ag402
ag150
ag153
ag631
ag636
ag493
ag498
ag763
ag766
ag581
ag805
ag172
ag1628
ag1631
ag1634
ag462
ag73
ag76
ag488
ag664
ag667
ag1009
ag1012
ag1016
ag560
ag175
ag180
ag183
ag578
ag1336
ag1382
ag1150
ag1153
ag527
ag530
ag535
ag1270
ag1536
ag1539
ag246
ag249
ag556
ag437
ag1449
ag1452
ag1455
ag956
ag960
ag301
ag304
ag308
ag311
ag1730
ag314
ag317
ag322
ag1049
ag1052
ag1560
ag1564
ag1567
ag1570
ag1458
ag1461
ag1465
ag1577
ag1581
ag1585
ag1588
ag1621
ag1375
ag1378
aa(lp1744
g988
ag1070
ag1074
ag1077
ag377
ag381
ag384
ag459
ag933
ag1339
ag1342
ag1345
ag453
ag456
ag584
ag588
ag26
ag30
ag514
ag519
ag243
ag581
ag139
ag1046
ag122
ag337
ag613
ag616
ag619
ag622
ag950
ag1131
ag1134
ag1137
ag1142
ag437
ag266
ag269
ag272
ag424
ag1673
ag814
ag817
ag820
ag823
ag828
ag1418
ag840
ag843
ag846
ag851
ag716
ag719
ag722
ag82
ag73
ag76
ag505
ag1662
ag1665
ag1670
ag792
ag796
ag799
ag102
ag1303
ag1307
ag701
ag704
ag664
ag667
ag1469
ag1553
ag1385
ag974
ag981
ag984
ag166
ag777
ag783
ag54
ag59
ag63
ag66
ag70
ag358
ag361
ag364
ag805
ag275
ag279
ag287
ag992
ag995
ag462
ag763
ag766
ag670
ag673
ag677
ag680
ag340
ag578
ag1055
ag1059
ag1100
ag1105
ag511
ag392
ag396
ag399
ag402
ag865
ag868
ag1019
ag1022
ag142
ag146
ag334
ag20
ag327
ag1628
ag1631
ag1634
ag1496
ag1502
ag1677
ag1157
ag1536
ag1539
ag1599
ag1560
ag1564
ag1567
ag1570
ag233
ag237
ag220
ag223
ag1692
ag1695
ag150
ag153
ag837
ag1191
ag1200
ag1209
ag1574
ag1117
ag688
ag691
ag697
ag1288
ag216
ag314
ag317
ag322
ag95
ag98
ag263
ag1625
ag757
ag760
ag203
ag169
ag1651
ag956
ag960
ag1171
ag1174
ag301
ag304
ag308
ag311
ag831
ag834
ag646
ag651
ag654
ag367
ag372
ag802
ag725
ag260
ag428
ag431
ag434
ag1278
ag1283
ag593
ag1161
ag1542
ag1545
ag1548
ag1428
ag1431
ag1421
ag1425
ag1150
ag1153
ag1295
ag1300
ag599
ag602
ag610
ag1212
ag1215
ag1221
ag1187
ag37
ag40
ag1082
ag1085
ag771
ag774
ag872
ag572
ag575
ag1402
ag1405
ag1120
ag742
ag745
ag749
ag752
ag465
ag468
ag472
ag475
ag1505
ag1034
ag1037
ag1040
ag1043
ag1270
ag1328
ag1331
ag1610
ag1613
ag1617
ag119
ag808
ag1254
ag898
ag901
ag906
ag175
ag180
ag183
ag488
ag502
ag253
ag1490
ag1493
ag206
ag210
ag1125
ag1128
ag1257
ag556
ag729
ag733
ag1232
ag1356
ag1359
ag891
ag566
ag569
ag440
ag443
ag811
ag1734
ag895
ag1577
ag1581
ag1585
ag1588
ag1645
ag1648
ag88
ag92
ag968
ag971
ag405
ag408
ag1449
ag1452
ag1455
ag1224
ag1227
ag640
ag643
ag1264
ag1267
ag331
ag343
ag1388
ag1391
ag1395
ag421
ag1654
ag1658
ag1698
ag1704
ag1707
ag1710
ag1713
ag1717
ag1724
ag657
ag661
ag927
ag930
ag1437
ag1445
ag909
ag912
ag915
ag875
ag879
ag883
ag886
ag527
ag530
ag535
ag786
ag789
ag1310
ag1730
ag1409
ag126
ag134
ag163
ag446
ag449
ag292
ag297
ag106
ag109
ag113
ag921
ag1362
ag1365
ag1368
ag3
ag9
ag1235
ag1239
ag1242
ag560
aa(lp1745
g1490
ag1493
ag1082
ag1085
ag1421
ag1425
ag1362
ag1365
ag1368
ag538
ag545
ag548
ag553
ag875
ag879
ag883
ag886
ag150
ag153
ag1599
ag1730
ag736
ag1526
ag1529
ag343
ag808
ag1637
ag1640
ag257
ag1100
ag1105
ag1662
ag1665
ag1670
ag1187
ag1224
ag1227
ag742
ag745
ag749
ag752
ag1591
ag1596
ag3
ag9
ag266
ag269
ag272
ag1235
ag1239
ag1242
ag1349
ag1353
ag421
ag1034
ag1037
ag1040
ag1043
ag891
ag440
ag443
ag95
ag98
ag206
ag210
ag163
ag664
ag667
ag1295
ag1300
ag1428
ag1431
ag1437
ag1445
ag757
ag760
ag792
ag796
ag799
ag909
ag912
ag915
ag514
ag519
ag1046
ag424
ag43
ag47
ag51
ag777
ag783
ag1449
ag1452
ag1455
ag1475
ag1698
ag1704
ag1707
ag1710
ag1713
ag1717
ag1724
ag1604
ag1607
ag657
ag661
ag260
ag233
ag237
ag459
ag786
ag789
ag670
ag673
ag677
ag680
ag1232
ag156
ag160
ag950
ag334
ag593
ag1688
ag837
ag716
ag719
ag722
ag1150
ag1153
ag1610
ag1613
ag1617
ag584
ag588
ag1108
ag1111
ag1114
ag1680
ag1685
ag1692
ag1695
ag126
ag134
ag405
ag408
ag106
ag109
ag113
ag1651
ag1310
ag1090
ag1093
ag1096
ag1125
ag1128
ag465
ag468
ag472
ag475
ag927
ag930
ag1402
ag1405
ag1019
ag1022
ag572
ag575
ag805
ag1120
ag13
ag16
ag865
ag868
ag327
ag1254
ag831
ag834
ag1382
ag488
ag556
ag1385
ag646
ag651
ag654
ag1677
ag349
ag352
ag355
ag175
ag180
ag183
ag1030
ag1645
ag1648
ag1161
ag854
ag859
ag862
ag898
ag901
ag906
ag802
ag599
ag602
ag610
ag203
ag725
ag683
ag1248
ag701
ag704
ag1070
ag1074
ag1077
ag1478
ag1481
ag1484
ag763
ag766
ag20
ag1577
ag1581
ag1585
ag1588
ag1734
ag1314
ag1317
ag1320
ag729
ag733
ag1062
ag1067
ag1325
ag933
ag1496
ag1502
ag314
ag317
ag322
ag566
ag569
ag54
ag59
ag63
ag66
ag70
ag1171
ag1174
ag213
ag253
ag1505
ag169
ag936
ag940
ag943
ag246
ag249
ag968
ag971
ag102
ag956
ag960
ag581
ag1574
ag1328
ag1331
ag1487
ag1131
ag1134
ag1137
ag1142
ag1536
ag1539
ag1418
ag1288
ag840
ag843
ag846
ag851
ag1264
ag1267
ag122
ag340
ag895
ag462
ag508
ag478
ag482
ag485
ag119
ag560
ag88
ag92
ag640
ag643
ag1157
ag263
ag388
ag1049
ag1052
ag82
ag1509
ag1513
ag1520
ag1523
ag188
ag196
ag1055
ag1059
ag437
ag1257
ag1458
ag1461
ag1465
ag811
ag1336
ag563
ag511
ag37
ag40
ag1469
ag1339
ag1342
ag1345
ag331
ag688
ag691
ag697
ag505
ag1553
ag921
ag367
ag372
ag26
ag30
ag953
ag1388
ag1391
ag1395
ag172
aa(lp1746
g1254
ag1604
ag1607
ag1108
ag1111
ag1114
ag581
ag763
ag766
ag556
ag1553
ag566
ag569
ag275
ag279
ag287
ag1591
ag1596
ag891
ag831
ag834
ag1270
ag1191
ag1200
ag1209
ag1542
ag1545
ag1548
ag172
ag122
ag257
ag837
ag792
ag796
ag799
ag1610
ag1613
ag1617
ag1487
ag1412
ag1415
ag1449
ag1452
ag1455
ag166
ag1737
ag1741
ag936
ag940
ag943
ag1131
ag1134
ag1137
ag1142
ag1496
ag1502
ag37
ag40
ag1034
ag1037
ag1040
ag1043
ag716
ag719
ag722
ag1187
ag26
ag30
ag314
ag317
ag322
ag924
ag156
ag160
ag1310
ag1224
ag1227
ag1428
ag1431
ag708
ag711
ag188
ag196
ag54
ag59
ag63
ag66
ag70
ag956
ag960
ag646
ag651
ag654
ag1070
ag1074
ag1077
ag974
ag981
ag984
ag999
ag1002
ag1006
ag340
ag428
ag431
ag434
ag331
ag220
ag223
ag263
ag1117
ag511
ag216
ag508
ag13
ag16
ag1734
ag599
ag602
ag610
ag514
ag519
ag1673
ag243
ag1382
ag478
ag482
ag485
ag670
ag673
ag677
ag680
ag95
ag98
ag1458
ag1461
ag1465
ag82
ag502
ag1692
ag1695
ag757
ag760
ag739
ag1475
ag3
ag9
ag337
ag1339
ag1342
ag1345
ag683
ag701
ag704
ag1150
ag1153
ag119
ag584
ag588
ag20
ag126
ag134
ag578
ag854
ag859
ag862
ag1314
ag1317
ag1320
ag1161
ag139
ag1019
ag1022
ag79
ag631
ag636
ag493
ag498
ag572
ag575
ag1677
ag777
ag783
ag725
ag1125
ag1128
ag405
ag408
ag1278
ag1283
ag771
ag774
ag1082
ag1085
ag415
ag418
ag440
ag443
ag505
ag116
ag358
ag361
ag364
ag1336
ag1469
ag349
ag352
ag355
ag1621
ag1509
ag1513
ag1520
ag1523
ag203
ag43
ag47
ag51
ag334
ag367
ag372
ag246
ag249
ag802
ag664
ag667
ag736
ag742
ag745
ag749
ag752
ag424
ag260
ag1437
ag1445
ag1264
ag1267
ag527
ag530
ag535
ag421
ag142
ag146
ag377
ag381
ag384
ag1577
ag1581
ag1585
ag1588
ag1303
ag1307
ag865
ag868
ag1418
ag811
ag1599
ag1257
ag1388
ag1391
ag1395
ag968
ag971
ag1100
ag1105
ag729
ag733
ag1385
ag1009
ag1012
ag1016
ag1637
ag1640
ag73
ag76
ag488
ag1490
ag1493
ag1628
ag1631
ag1634
ag1478
ag1481
ag1484
ag1375
ag1378
ag213
ag88
ag92
ag898
ag901
ag906
ag1698
ag1704
ag1707
ag1710
ag1713
ag1717
ag1724
ag895
ag950
ag1049
ag1052
ag927
ag930
ag538
ag545
ag548
ag553
ag150
ag153
ag1157
ag233
ag237
ag814
ag817
ag820
ag823
ag828
ag301
ag304
ag308
ag311
ag102
ag909
ag912
ag915
ag1409
ag1062
ag1067
ag106
ag109
ag113
ag657
ag661
ag1261
ag1651
ag1232
ag1574
ag292
ag297
ag1120
ag465
ag468
ag472
ag475
ag1421
ag1425
ag1295
ag1300
ag1645
ag1648
ag1288
aa(lp1747
g854
ag859
ag862
ag1100
ag1105
ag1235
ag1239
ag1242
ag1257
ag428
ag431
ag434
ag1356
ag1359
ag1310
ag102
ag166
ag465
ag468
ag472
ag475
ag1734
ag388
ag683
ag20
ag1688
ag581
ag1604
ag1607
ag927
ag930
ag106
ag109
ag113
ag266
ag269
ag272
ag1610
ag1613
ag1617
ag1131
ag1134
ag1137
ag1142
ag334
ag739
ag599
ag602
ag610
ag872
ag953
ag1108
ag1111
ag1114
ag150
ag153
ag688
ag691
ag697
ag1662
ag1665
ag1670
ag1117
ag736
ag792
ag796
ag799
ag1505
ag126
ag134
ag1628
ag1631
ag1634
ag1009
ag1012
ag1016
ag1599
ag188
ag196
ag421
ag613
ag616
ag619
ag622
ag524
ag1421
ag1425
ag488
ag511
ag340
ag865
ag868
ag578
ag440
ag443
ag1248
ag122
ag560
ag1509
ag1513
ag1520
ag1523
ag909
ag912
ag915
ag3
ag9
ag956
ag960
ag1278
ag1283
ag377
ag381
ag384
ag936
ag940
ag943
ag301
ag304
ag308
ag311
ag82
ag95
ag98
ag777
ag783
ag1019
ag1022
ag275
ag279
ag287
ag1295
ag1300
ag593
ag1349
ag1353
ag314
ag317
ag322
ag246
ag249
ag1314
ag1317
ag1320
ag1409
ag1224
ag1227
ag216
ag924
ag1264
ag1267
ag664
ag667
ag742
ag745
ag749
ag752
ag1254
ag1362
ag1365
ag1368
ag999
ag1002
ag1006
ag437
ag1654
ag1658
ag508
ag1412
ag1415
ag446
ag449
ag875
ag879
ag883
ag886
ag921
ag327
ag1325
ag206
ag210
ag1737
ag1741
ag1458
ag1461
ag1465
ag556
ag405
ag408
ag1191
ag1200
ag1209
ag716
ag719
ag722
ag73
ag76
ag1161
ag1730
ag891
ag584
ag588
ag1082
ag1085
ag26
ag30
ag1339
ag1342
ag1345
ag1212
ag1215
ag1221
ag1428
ag1431
ag1651
ag646
ag651
ag654
ag1261
ag1382
ag337
ag169
ag358
ag361
ag364
ag175
ag180
ag183
ag1385
ag898
ag901
ag906
ag1625
ag119
ag811
ag233
ag237
ag453
ag456
ag933
ag840
ag843
ag846
ag851
ag763
ag766
ag1150
ag1153
ag88
ag92
ag478
ag482
ag485
ag708
ag711
ag1055
ag1059
ag1680
ag1685
ag43
ag47
ag51
ag502
ag1677
ag538
ag545
ag548
ag553
ag257
ag1645
ag1648
ag950
ag37
ag40
ag808
ag725
ag142
ag146
ag1437
ag1445
ag814
ag817
ag820
ag823
ag828
ag1496
ag1502
ag203
ag1030
ag1125
ag1128
ag392
ag396
ag399
ag402
ag493
ag498
ag1560
ag1564
ag1567
ag1570
ag331
ag701
ag704
ag802
ag670
ag673
ag677
ag680
ag1698
ag1704
ag1707
ag1710
ag1713
ag1717
ag1724
ag1187
ag1469
ag260
ag1388
ag1391
ag1395
ag1478
ag1481
ag1484
ag1402
ag1405
ag1574
ag263
ag1621
ag292
ag297
ag1062
ag1067
ag786
ag789
ag1418
ag1487
ag243
ag757
ag760
ag1542
ag1545
ag1548
ag1046
ag226
ag230
ag563
ag1328
ag1331
ag367
ag372
ag1449
ag1452
ag1455
aa(lp1748
g729
ag733
ag213
ag1171
ag1174
ag1577
ag1581
ag1585
ag1588
ag891
ag1108
ag1111
ag1114
ag1662
ag1665
ag1670
ag246
ag249
ag1677
ag1339
ag1342
ag1345
ag1734
ag465
ag468
ag472
ag475
ag968
ag971
ag646
ag651
ag654
ag688
ag691
ag697
ag1100
ag1105
ag349
ag352
ag355
ag1303
ag1307
ag953
ag1120
ag657
ag661
ag1536
ag1539
ag156
ag160
ag1637
ag1640
ag933
ag1673
ag1356
ag1359
ag1505
ag421
ag936
ag940
ag943
ag560
ag266
ag269
ag272
ag988
ag1490
ag1493
ag34
ag1295
ag1300
ag1478
ag1481
ag1484
ag1034
ag1037
ag1040
ag1043
ag73
ag76
ag1654
ag1658
ag1030
ag1232
ag502
ag1737
ag1741
ag566
ag569
ag956
ag960
ag337
ag459
ag1314
ag1317
ag1320
ag1292
ag505
ag1421
ag1425
ag150
ag153
ag1591
ag1596
ag275
ag279
ag287
ag895
ag1362
ag1365
ag1368
ag257
ag1475
ag1730
ag771
ag774
ag1261
ag1526
ag1529
ag831
ag834
ag1437
ag1445
ag1645
ag1648
ag1409
ag757
ag760
ag358
ag361
ag364
ag243
ag1125
ag1128
ag837
ag593
ag556
ag1418
ag203
ag1428
ag1431
ag1560
ag1564
ag1567
ag1570
ag1336
ag292
ag297
ag334
ag992
ag995
ag37
ag40
ag1382
ag1257
ag88
ag92
ag1191
ag1200
ag1209
ag437
ag683
ag921
ag1388
ag1391
ag1395
ag327
ag253
ag865
ag868
ag777
ag783
ag872
ag1235
ag1239
ag1242
ag79
ag1698
ag1704
ag1707
ag1710
ag1713
ag1717
ag1724
ag701
ag704
ag792
ag796
ag799
ag488
ag1487
ag1542
ag1545
ag1548
ag301
ag304
ag308
ag311
ag43
ag47
ag51
ag1161
ag142
ag146
ag226
ag230
ag119
ag1385
ag102
ag26
ag30
ag1082
ag1085
ag739
ag974
ag981
ag984
ag1458
ag1461
ag1465
ag1628
ag1631
ag1634
ag1288
ag343
ag924
ag1599
ag1496
ag1502
ag999
ag1002
ag1006
ag116
ag175
ag180
ag183
ag1131
ag1134
ag1137
ag1142
ag664
ag667
ag233
ag237
ag572
ag575
ag392
ag396
ag399
ag402
ag640
ag643
ag54
ag59
ag63
ag66
ag70
ag1248
ag808
ag927
ag930
ag581
ag13
ag16
ag1469
ag95
ag98
ag708
ag711
ag1651
ag1278
ag1283
ag424
ag950
ag106
ag109
ag113
ag527
ag530
ag535
ag511
ag742
ag745
ag749
ag752
ag1019
ag1022
ag909
ag912
ag915
ag786
ag789
ag405
ag408
ag584
ag588
ag3
ag9
ag1402
ag1405
ag1625
ag578
ag1604
ag1607
ag1254
ag260
ag1375
ag1378
ag1062
ag1067
ag220
ag223
ag1046
ag1224
ag1227
ag440
ag443
ag453
ag456
ag122
ag1449
ag1452
ag1455
ag139
ag736
ag415
ag418
ag1692
ag1695
ag814
ag817
ag820
ag823
ag828
ag599
ag602
ag610
ag340
ag462
ag126
ag134
ag1328
ag1331
aa.