(lp1
(lp2
(lp3
VSOUDGRV12A8C1309E1
p4
aVSOCFWUD12D02198862
p5
aVSOSJYDL12A679D7E6E
p6
aVSODDYLO12A8C134AF3
p7
aVSOXBZNR12A679D7E8E
p8
aVSOUUGCN12A58A7A380
p9
aVSOMBPLA12AB01810CF
p10
aVSOWGBAK12D021921F4
p11
aVSOVBQXG12AB0187A99
p12
aa(lp13
VSOZGUUQ12A8C133FB8
p14
aVSOOVPQR12A8C141382
p15
aVSOYLQGK12A8C13138C
p16
aa(lp17
VSOCEXOL12A6D4F7668
p18
aVSONEVGB12A8AE4672D
p19
aa(lp20
VSOUQATI12AF72A3F68
p21
aVSORUKKN12A67021D65
p22
aa(lp23
VSOSKPYB12AF729D3F0
p24
aVSOXMBKU12A8C13455C
p25
aVSOUQLQU12A8C139703
p26
aVSOPQUTX12A8C131F53
p27
aa(lp28
VSOFVFTH12A8AE46A7F
p29
aVSOFWYKO12A8C13D47B
p30
aVSOIAHHH12A6701EA2D
p31
aVSOWETGI12AF729F9BF
p32
aVSOIKWBX12A8AE47237
p33
aa(lp34
VSOKCTIV12A6D4F8250
p35
aVSOKWMPC12A6D4FA41B
p36
aVSOOLFYE12A58A7BD90
p37
aVSORYPBX12A8AE466AD
p38
aa(lp39
VSOJDTYX12A8C13B4D4
p40
aVSOYSOSV12A8C135B7C
p41
aVSOCQWFC12A6701CD78
p42
aVSOGJMTM12A6310E17B
p43
aa(lp44
VSONPJIJ12A6701F0B0
p45
aVSOTGOSV12A8C133A1F
p46
aVSOTLILL12D02194489
p47
aVSOHQELP12A8C13645A
p48
aa(lp49
VSOTOHHT12A6D4F957B
p50
aVSOVFKTX12AB017FE27
p51
aa(lp52
VSOIXXWH12A8C13478B
p53
aVSOZOUQK12A8C13AD33
p54
aa(lp55
VSOSPNQQ12A8C13F8AA
p56
aVSOECTEL12D0219A6B1
p57
aa(lp58
VSOGGQHZ12AB01818D3
p59
aVSOAULHT12A6D4FA4A6
p60
aVSOUZOHU12A81C22585
p61
aa(lp62
VSOZCRSD12AB0185BBD
p63
aVSOKKMTK12A6D4F71A0
p64
aVSOWUXAM12A58A7C66B
p65
aa(lp66
VSOPYJZS12B0B80BE2F
p67
aVSOXIVCS12A58A7A31F
p68
aVSOQWFXD12A8C13B03B
p69
aa(lp70
VSOHRDBA12A8AE47661
p71
aVSOLKIIS12A6701C7F9
p72
aVSOIDXKR12AB017C04A
p73
aVSOHOJFZ12A8C1347B0
p74
aVSOGHGJP12B34F1EB10
p75
aVSOMZSHY12A8C1343B0
p76
aVSOHRPCQ12A8C133FCD
p77
aVSOTFJYO12A8C1366C8
p78
aa(lp79
VSOIPCGZ12A8C13C805
p80
aVSOOLVBC12AB018231D
p81
aVSOSLSLS12A8C135B5F
p82
aVSOIAHHH12A6701EA2D
p83
aVSOFVBGW12A8C136305
p84
aa(lp85
VSOQXENS12A58A7DD03
p86
aVSOCOXHI12A8C140F4A
p87
aVSOYMDLS12A58A7C26A
p88
aVSOXCWSQ12A6D4FDC8E
p89
aa(lp90
VSOMYRJW12AB018D130
p91
aVSODAWDD12A6D4F825A
p92
aVSOIEWWL12A58A7861D
p93
aa(lp94
VSOENMBW12A6D4FA20D
p95
aVSOQFYXV12AB017EC83
p96
aa(lp97
VSODUBLQ12A8C14360B
p98
aVSOBLDDB12AB0183223
p99
aa(lp100
VSODKJUR12A6D4FA412
p101
aVSOKQBZU12A58A787DC
p102
aa(lp103
VSOKROEE12A6D4FB03C
p104
aVSOFPWOW12A8C1353E4
p105
aa(lp106
VSONSVPC12A6701F6DB
p107
aVSOMCVKM12CF5F87C53
p108
aVSOJMQQX12AB0185046
p109
aa(lp110
VSODUBLQ12A8C14360B
p111
aVSORZIGW12A8C133027
p112
aa(lp113
VSOOSVTO12A8C13EF96
p114
aVSOPGUIN12AB01823B5
p115
aVSOEWKIC12AF72A791B
p116
aVSOULYRF12AB018171A
p117
aVSOCCPYP12A8C13FBEC
p118
aa(lp119
VSONYJFX12A6D4FA638
p120
aVSOHKIOG12AB01848F6
p121
aa(lp122
VSOHTXVR12A8C135799
p123
aVSOQWSTH12A6D4F58E7
p124
aa(lp125
VSOMKOAR12A8C13EDA9
p126
aVSOMCNIO12A8C134D4C
p127
aa(lp128
VSOQAVIN12A6D4F95A2
p129
aVSOENZNF12A8C135A02
p130
aVSOMHHUF12A6D4F9AF6
p131
aa(lp132
VSOCWIWP12AB018D16D
p133
aVSOZLVHE12A8C13BED2
p134
aVSOVSRZJ12A6D4F5902
p135
aVSOTMGVD12A8C13E941
p136
aVSOZCNXX12A8C131FD3
p137
aVSOGEBUJ12AB01874F3
p138
aVSOHUZUQ12A6D4F67CD
p139
aVSOIJBWO12A58A7CA10
p140
aVSOIBNGS12AF72A2E7D
p141
aa(lp142
VSOVOBOF12A6D4F6612
p143
aVSOWZJVB12AB017D0F5
p144
aVSOHYIMI12A6D4F6614
p145
aa(lp146
VSONUVFQ12AB01837AC
p147
aVSOEFXKD12AB01882B4
p148
aa(lp149
VSOWVPRG12AB017F4EB
p150
aVSOYVVRC12A6D4F6610
p151
aVSODGXLF12AB0187E9D
p152
aVSOMFMXV12A6D4F971C
p153
aVSOMYRJW12AB018D130
p154
aVSOPSHYG12A670215BF
p155
aVSOMGWTF12AB0183B0B
p156
aVSOYFGYE12A670215BE
p157
aa(lp158
VSOZWMWO12A8C131F12
p159
aVSOENKQS12A8C13524A
p160
aa(lp161
VSOOYDJU12AB0186FD5
p162
aVSOSVMCJ12A6310E292
p163
aVSOEVRKK12AC9071B6B
p164
aVSODXLRR12A6D4F71BB
p165
aa(lp166
VSOCQJYB12AB017E855
p167
aVSOOHJTL12AB0185497
p168
aVSOMTOHR12AB01832A0
p169
aVSOWEKPT12A6D4FA432
p170
aa(lp171
VSOXHYVQ12AB0187949
p172
aVSORYTUM12A6D4F91E2
p173
aVSOVVHYA12A8C1429D9
p174
aa(lp175
VSOXFMAQ12A6D4F91E0
p176
aVSOZSMVS12AAF3B4FAA
p177
aVSOPJGEM12AF72A0729
p178
aa(lp179
VSOEPGZU12A6D4F91E1
p180
aVSORYTUM12A6D4F91E2
p181
aVSOLZMIL12A8C135BCA
p182
aVSOLTRXI12A6D4F814A
p183
aVSOEEEEH12AAF3B4606
p184
aVSOEPGZU12A6D4F91E1
p185
aVSONIWWJ12A8C134912
p186
aVSOOGQVE12A6D4F814F
p187
aa(lp188
VSOZGASJ12A670214A3
p189
aVSOLDJEZ12A81C216CD
p190
aVSOXLVRT12A58A7E8F5
p191
aVSOWGJLE12A679AE5A7
p192
aa(lp193
VSOZIGHO12AB018B6B3
p194
aVSOZLNAW12AB018BC71
p195
aVSOGBVUJ12A81C22BA7
p196
aVSOIFPIJ12A8C13E6DD
p197
aVSOYCLHB12A6D4F9623
p198
aa(lp199
VSOWNWCS12A8C13418B
p200
aVSOXYSXW12A8AE471D8
p201
aVSOUHYXW12A8C13BD17
p202
aVSORLMFL12A81C22CDF
p203
aVSOLMIKQ12A8C13FBDF
p204
aVSOQKZJO12A8C13FC12
p205
aVSOXDOBJ12AC468C461
p206
aa(lp207
VSOVDLJK12A58A7D5E3
p208
aVSOCCZCH12AB018509B
p209
aVSOZUKNS12A6D4FDA65
p210
aVSOLMKMO12AC95F06CF
p211
aVSOZXZVP12A58A79167
p212
aa(lp213
VSOOVSYR12A8C141C44
p214
aVSOHGXWV12A8C13B0B6
p215
aa(lp216
VSOCWIWP12AB018D16D
p217
aVSOOPVPR12A8C1353FE
p218
aVSOSTPPX12A8C138CAC
p219
aa(lp220
VSONAEJC12A8AE45BB4
p221
aVSOAJFAS12A8C137CA4
p222
aVSOSJDMN12AB017C3FC
p223
aa(lp224
VSOKQDCS12AF72A920F
p225
aVSOBSHGD12A8C13BFFA
p226
aa(lp227
VSOZPKGK12AB0189B90
p228
aVSOCEXOL12A6D4F7668
p229
aVSOISMNQ12A6D4FE992
p230
aVSOROUDG12A8C13B1ED
p231
aa(lp232
VSOKCNGS12AB0183B23
p233
aVSOJSRYJ12A6D4F824C
p234
aa(lp235
VSOLLPZR12A8AE46BE7
p236
aVSOVGVBE12A58A7C62D
p237
aa(lp238
VSOZHHWK12A8C13F4E8
p239
aVSOTEDPG12A8C140A32
p240
aVSOCWIWP12AB018D16D
p241
aVSOZAOSF12A58A81702
p242
aa(lp243
VSOJLFTF12A8C13B677
p244
aVSOWGVNU12AC95F03F9
p245
aVSOFAXHX12A6D4FA4AB
p246
aa(lp247
VSOFNBEY12AB018107F
p248
aVSOPUHTW12A8C14222F
p249
aa(lp250
VSOJAMER12AB0182825
p251
aVSOHXJFM12A6D4F98DF
p252
aVSOBYOST12A6D4F9AEE
p253
aVSOWAOSH12AB018A330
p254
aVSOKLMPZ12A8C13DAF9
p255
aVSOHRHQM12A58A80EDC
p256
aVSOIYRVK12A6D4FBF0C
p257
aa(lp258
VSOCKXOI12A6D4F9085
p259
aVSOFNYAO12A6D4F8029
p260
aVSOKXPBY12A58A7E89D
p261
aa(lp262
VSOYUDXD12A6D4FF06A
p263
aVSOUBLNQ12A58A7A2D0
p264
aVSOLPLKD12A6D4FC5F9
p265
aVSOXMGWT12AB018DF57
p266
aVSOMAWSE12A8C1347EF
p267
aa(lp268
VSOCBODX12A67ADC804
p269
aVSOTLYFW12AF72A22F5
p270
aa(lp271
VSOZDRQA12AB0187E61
p272
aVSOPDKTK12A8C1391AE
p273
aa(lp274
VSOODDWO12A8C13CD6C
p275
aVSOIXYNB12AF72A86AF
p276
aVSOCWAVM12A8C1320D5
p277
aa(lp278
VSOAOUDT12AF72A2B37
p279
aVSOVBMWZ12A6D4F9410
p280
aVSODQWZT12AB018156B
p281
aVSOESALW12A6D4F7BBD
p282
aa(lp283
VSOXFWWT12AC468CDC2
p284
aVSOTDNCK12A6D4F338F
p285
aVSOIPCGZ12A8C13C805
p286
aa(lp287
VSOWOGQD12AB018EBC6
p288
aVSOSIRMX12AB0180509
p289
aa(lp290
VSOGKNUI12AB01811FD
p291
aVSOEWLPD12AB01856B6
p292
aVSOZQFLF12A6D4FADA2
p293
aVSOHPTKT12AC46851C5
p294
aVSOFEZPE12AB0180FF5
p295
aVSOEPGDM12A8C1377E6
p296
aVSOVZGGU12AB0183BE2
p297
aa(lp298
VSOLVJPU12A6D4FA637
p299
aVSOFLOPU12A67ADD91B
p300
aa(lp301
VSOGMNKM12A6D4F9C9B
p302
aVSOTBVWN12A6D4FBCDC
p303
aa(lp304
VSOBARPU12A6701DF95
p305
aVSOOUPUD12AB0185263
p306
aa(lp307
VSOMJVNF12AB01833FB
p308
aVSOGCTMJ12A8C13FDD9
p309
aVSOQDHTX12A8C139CEB
p310
aVSOWJSHL12A8AE46405
p311
aa(lp312
VSOAXLMV12A67ADE7A0
p313
aVSOIJEMR12A8C13489A
p314
aVSOSJDMN12AB017C3FC
p315
aa(lp316
VSOYHMYP12A8C13BFDC
p317
aVSOBBZZS12AB018EC5C
p318
aVSOCWKHI12AB017DFAA
p319
aVSOGDCCA12A6D4FA410
p320
aa(lp321
VSOOIATS12A8C141304
p322
aVSORRQLS12A81C20B79
p323
aVSOUVGHJ12A8C141167
p324
aa(lp325
VSOPPWHZ12A6D4FA416
p326
aVSORYKHD12A6D4F9716
p327
aa(lp328
VSOYBROB12A8C13A900
p329
aVSORKCFA12AB018926E
p330
aa(lp331
VSOQZYMG12AB0187E5D
p332
aVSOLNDEY12A67021436
p333
aVSOXBEZV12AB0187CEE
p334
aVSOSCTCT12A81C2249B
p335
aVSODTQSR12A8C14157E
p336
aa(lp337
VSOLWHDY12A6310DFE5
p338
aVSOVMYWP12AF72A4C7C
p339
aa(lp340
VSOIEWWL12A58A7861D
p341
aVSOKKIZH12A8C140DFD
p342
aa(lp343
VSOCCZCH12AB018509B
p344
aVSOLNEWQ12A6D4FF051
p345
aVSONAEUM12AF72A3B9A
p346
aVSOBZBPR12A8BEEEAED
p347
aVSOTJPZQ12A6D4FD7D3
p348
aVSOIPTIG12A8C13E99E
p349
aVSOTZZAJ12A8C1402A5
p350
aa(lp351
VSONDORY12A6D4F7B22
p352
aVSORUOMR12A6D4FDC3E
p353
aa(lp354
VSOXZKKZ12A8C13D5BA
p355
aVSONPKXI12A8AE4672B
p356
aa(lp357
VSOEDXPC12A6D4F9335
p358
aVSOGLMVD12A8C133978
p359
aa(lp360
VSONEVGB12A8AE4672D
p361
aVSONTIPD12A8C13F653
p362
aa(lp363
VSOUEABS12A8AE4671C
p364
aVSOUTBHL12A8AE46724
p365
aVSOWANCZ12A8C13399B
p366
aa(lp367
VSOLMEBF12A6D4FC711
p368
aVSOUOXAN12AB01829CD
p369
aa(lp370
VSOGCFTG12AF72A4C4B
p371
aVSOLZEHG12A8C13D348
p372
aVSORHOGQ12A8AE46A82
p373
aa(lp374
VSOKXZGK12A81C23BAD
p375
aVSOUFEUL12A8C130EC2
p376
aa(lp377
VSOJGTPT12A8AE483FD
p378
aVSOYSEZS12D021937F0
p379
aVSOTFCSZ12AC46881D6
p380
aa(lp381
VSOVZAMX12AB01849C5
p382
aVSOYBPSA12A8C13A4A4
p383
aVSODWACK12A8C14356C
p384
aVSOYFQNA12A6D4F8B88
p385
aa(lp386
VSOIWLQZ12AB0188DDE
p387
aVSOOXNQE12A58A7C50D
p388
aa(lp389
VSOTFJYO12A8C1366C8
p390
aVSOXHYVQ12AB0187949
p391
aa(lp392
VSOBNTMC12A6D4FA422
p393
aVSOHQAKK12A8C131323
p394
aa(lp395
VSOWGBAK12D021921F4
p396
aVSOMTGTY12AF72A7165
p397
aVSOTOHHT12A6D4F957B
p398
aa(lp399
VSOTYXNL12AB01828B1
p400
aVSOSZMTO12AB01828E3
p401
aVSOSBIKP12AB0181B06
p402
aa(lp403
VSOBARPU12A6701DF95
p404
aVSONAHZX12AB0186514
p405
aVSOOZHWC12AB0182D3B
p406
aVSODMZVQ12A6D4F6C4A
p407
aVSOAKUTD12AF72A42B6
p408
aa(lp409
VSOWGBAK12D021921F4
p410
aVSOGWRHH12A8C1312F0
p411
aVSOCQPNK12A58A7841E
p412
aVSOPYROP12AF72A4768
p413
aa(lp414
VSONDLET12AB018A152
p415
aVSOMTVEC12A6D4FA66B
p416
aVSOOWQXI12AB0182D34
p417
aVSOZLPVU12A6D4FD279
p418
aVSORFDDE12A58A778E1
p419
aa(lp420
VSOAHVAU12A6D4F966D
p421
aVSODAQAS12A67AE227A
p422
aa(lp423
VSOSGDBI12A58A795B1
p424
aVSOLERYI12D0219A205
p425
aVSOSXOTX12A8C13790F
p426
aVSOXJLES12A58A7B7C5
p427
aVSOAHEKL12A58A7B19C
p428
aVSOTVDJD12A58A7DACE
p429
aVSORZUFU12AB018DCA3
p430
aVSOJTCUH12A8C13DA93
p431
aVSOTOQPN12A6D4FD25D
p432
aVSOVKIEE12A8C135A5D
p433
aVSOTKPDC12A6D4FDC89
p434
aVSONSBOE12A8C144148
p435
aVSOUGNMB12A8C13C58B
p436
aa(lp437
VSOQHLAT12A58A7EE93
p438
aVSOMUHTN12AF72A0D1A
p439
aVSOEDHUS12AB0182C36
p440
aVSOGEOAH12AB017B3F8
p441
aa(lp442
VSOVFTOT12A81C1FCD8
p443
aVSOCTDFD12A8C139654
p444
aVSOOGQVE12A6D4F814F
p445
aa(lp446
VSOQZCOQ12B0B8067AA
p447
aVSOLSAUH12A6D4F297F
p448
aVSOFXPZA12A8C13DD8A
p449
aa(lp450
VSOICDPQ12A679D8AC5
p451
aVSOWLLGH12A6D4F889F
p452
aa(lp453
VSOPZGNQ12A8C139697
p454
aVSOSCZRL12AB017E202
p455
aa(lp456
VSORESTI12A8C134A62
p457
aVSOMUXGX12A6D4F7ADA
p458
aa(lp459
VSOQYDMT12A6D4F9101
p460
aVSOOKCYP12AF72A3C6D
p461
aVSOVDLJK12A58A7D5E3
p462
aVSOJDQSR12A58A7AEF8
p463
aa(lp464
VSOOVBEG12A6D4FEAE6
p465
aVSOAZXRS12A6D4FA616
p466
aVSODUQTA12A8C13ADDB
p467
aVSONWWRA12A6D4FA36B
p468
aa(lp469
VSOTMVYK12A67ADE754
p470
aVSOVNLMK12A8135657E
p471
aa(lp472
VSOBWDJL12A6D4F825B
p473
aVSOMZLMO12A8C13CA95
p474
aa(lp475
VSOZLHYZ12A8C13F66B
p476
aVSOVPRBU12A8C13B9D1
p477
aVSOYYDWH12A58A76E75
p478
aa(lp479
VSODJABA12A8AE46FF2
p480
aVSOYHNXY12A6D228304
p481
aVSOSQJVS12A8C14589B
p482
aVSOFHBUV12A8AE468FB
p483
aVSOPFUPI12A8C134F7D
p484
aa(lp485
VSOIFIDI12A8C13D9EC
p486
aVSOOUDTH12A6D4F60A6
p487
aVSOVTZZW12A8C137919
p488
aa(lp489
VSOWGBAK12D021921F4
p490
aVSOMAKIT12A58A7E292
p491
aVSOIAHHH12A6701EA2D
p492
aVSOZFXSE12AAFF438D5
p493
aVSOFIORO12A6701E97A
p494
aa(lp495
VSOVMNCJ12A6D4FA235
p496
aVSOTAYFE12A6D4FA202
p497
aVSOIFFBE12A6D4FB4E6
p498
aa(lp499
VSOYACUS12A8C13567F
p500
aVSOMLQEO12A8C1326A8
p501
aa(lp502
VSOGEICE12AF72A557C
p503
aVSOVEHQH12A6D4F5F56
p504
aa(lp505
VSOHMJIL12AB01816F9
p506
aVSOXMBKU12A8C13455C
p507
aVSOHJRKR12AB0188738
p508
aVSOLMWNQ12AB0187324
p509
aa(lp510
VSOYEQAR12A58A7E456
p511
aVSOEVDIT12A8C137E63
p512
aa(lp513
VSOWBOAH12A8C134559
p514
aVSOUGCIQ12AB018824E
p515
aVSOVXOYX12AC468849E
p516
aVSOOSCVF12A8C137E14
p517
aVSOOSVTO12A8C13EF96
p518
aa(lp519
VSODRWPG12A8AE48A52
p520
aVSODGJNB12A6D4FB4F2
p521
aVSOSRIHB12A8C13608B
p522
aVSOVNJZT12A8AE4505E
p523
aVSORZIGW12A8C133027
p524
aVSOQSLHV12A8AE44FBD
p525
aVSOAESHR12A8AE48CF5
p526
aVSODRZNN12A81C2005E
p527
aVSOYBFPP12AB01830FA
p528
aVSOAXNLP12A8AE47BDE
p529
aa(lp530
VSOQYJPZ12A6D4F63C0
p531
aVSOOCKPO12A67021D10
p532
aVSOMAKIT12A58A7E292
p533
aVSOKKCZM12A8C13B5A1
p534
aVSOOPNJB12AB017EFD4
p535
aa(lp536
VSOBIGKJ12AB017D9F2
p537
aVSOZXSEC12A67020AB5
p538
aa(lp539
VSOGAQYH12AB018AFDA
p540
aVSOBCGRY12A6701DE8E
p541
aVSOXFKPE12A8C1319D6
p542
aa(lp543
VSOTDNCK12A6D4F338F
p544
aVSOQZCOQ12B0B8067AA
p545
aVSOMBAVX12AF72AC99C
p546
aVSOQOCEP12A8C1442DF
p547
aa(lp548
VSOTORET12AB0184B0B
p549
aVSOQORGS12AF72A0332
p550
aa(lp551
VSOLRYVH12AB0188061
p552
aVSOTTKNV12A6D4FC9D4
p553
aa(lp554
VSOLVJPU12A6D4FA637
p555
aVSOQAMNQ12A6D4FA63A
p556
aa(lp557
VSOYMDLS12A58A7C26A
p558
aVSOIWTST12D02197A27
p559
aa(lp560
VSOWHZAU12AB0181CB3
p561
aVSOJEKCV12AB018475F
p562
aa(lp563
VSOWCGDJ12A81C1FCD0
p564
aVSOWGRPO12AB0182803
p565
aVSOPVGKP12A8AE45182
p566
aVSOVPVPS12AF72A8F9C
p567
aVSOKQLSV12A6D4FDCC6
p568
aVSOXTTFX12A8BEEEAEF
p569
aVSORCKMS12A81C21BA8
p570
aa(lp571
VSOQIGTF12AAA15EB04
p572
aVSORSSNQ12AAA15FDEA
p573
aa(lp574
VSOXYYBE12A6D4F6DF4
p575
aVSOXBZNR12A679D7E8E
p576
aa(lp577
VSOEIXYH12A8C13CCB9
p578
aVSOYBYBR12A8C13B508
p579
aVSODIOGF12A6D4F9A52
p580
aa(lp581
VSOZVNRS12AB017E293
p582
aVSOOSJMU12A8C144FDF
p583
aVSOGHMNY12A8AE48129
p584
aa(lp585
VSOKHCMP12A58A7A6A4
p586
aVSOKQVOE12AC3923C82
p587
aa(lp588
VSONFCLD12AB018018C
p589
aVSOOCWSL12A58A7A764
p590
aa(lp591
VSOEEOHN12AB0183533
p592
aVSOKRKWA12A8AE46058
p593
aVSOZXLNE12AB018BC83
p594
aVSOLWHDY12A6310DFE5
p595
aVSOEEFGQ12AB0182C27
p596
aVSOSYYVU12AC4689ED1
p597
aa(lp598
VSOFENWZ12A6701E2A4
p599
aVSOSBGSZ12A81C21E63
p600
aa(lp601
VSOMDNYJ12A8C140C5B
p602
aVSONKRYM12A6D4F5264
p603
aVSOYQMSD12A8C13B2A4
p604
aa(lp605
VSOCFCJU12A8C14424E
p606
aVSOONIOG12AB0183964
p607
aVSOSAAPR12A8AE48CE7
p608
aa(lp609
VSOWQGQW12A6701D021
p610
aVSOBBZZS12AB018EC5C
p611
aa(lp612
VSOHZFCQ12A8C1427E3
p613
aVSOXHVRV12A8C13E93D
p614
aa(lp615
VSOYVUII12AB018A5DC
p616
aVSOEKAWQ12AAF3B29FB
p617
aa(lp618
VSOYJWUR12A6D4FACEE
p619
aVSONWGAV12A8C1394E1
p620
aVSOQOICG12AB017A57D
p621
aa(lp622
VSOIVBCQ12A8C1386E1
p623
aVSOWZHOY12A6701F9FC
p624
aa(lp625
VSOHCYJJ12A8C142C12
p626
aVSOPYZXO12A6D4FA206
p627
aa(lp628
VSOIWGMF12A58A7A2BB
p629
aVSOUIVMA12AAF3B2C67
p630
aa(lp631
VSOMVMOT12AF72A5EAD
p632
aVSORYPBX12A8AE466AD
p633
aa(lp634
VSOFHZOF12A8C13600E
p635
aVSORPFCL12A6D4FB185
p636
aVSOTYAEE12AB017EA1C
p637
aa(lp638
VSOUJZBN12D021977A3
p639
aVSOEHUIJ12A8AE45006
p640
aa(lp641
VSOFIOIH12A8C13F8EF
p642
aVSOAZGLL12AB017D62A
p643
aa(lp644
VSOIWTST12D02197A27
p645
aVSOSPQDZ12AB0184671
p646
aVSOQMBHE12AB0183633
p647
aVSOIQAGJ12A6310D7CB
p648
aVSOMIXQU12A58A753D7
p649
aVSONMTGW12A6D4F95CD
p650
aVSOULCKP12A6D4F95BD
p651
aa(lp652
VSOBHXYB12A58A7972A
p653
aVSODKOVU12AB017E80F
p654
aa(lp655
VSOZCZGN12AB017E897
p656
aVSOZKFER12A8C1352FD
p657
aa(lp658
VSONFAPZ12A6D4F81A4
p659
aVSOGEBUJ12AB01874F3
p660
aa(lp661
VSOPHMLO12AF729DA92
p662
aVSOWQCYC12A8C13D4D1
p663
aVSOIUMYQ12A8AE47046
p664
aVSOENZNF12A8C135A02
p665
aVSOIZUNH12A8C13AD7A
p666
aVSOXMGWT12AB018DF57
p667
aVSORRVGP12A8C13EFB9
p668
aa(lp669
VSOTNMXG12AB0181DD0
p670
aVSOPCIIT12A6D4F95D3
p671
aa(lp672
VSOEARKX12A81C20CCD
p673
aVSOPWMVC12A8C13C636
p674
aVSOUCBXU12A6D4F6DF2
p675
aVSOXYYBE12A6D4F6DF4
p676
aa(lp677
VSOGAUIQ12A6D4F8262
p678
aVSOJSRYJ12A6D4F824C
p679
aa(lp680
VSOGNWNO12AB0185590
p681
aVSOJPXOA12AB0180E1E
p682
aa(lp683
VSOQZACO12AB01872E6
p684
aVSOGSZBS12A8C13113D
p685
aa(lp686
VSOXEHMJ12A6D4F71B7
p687
aVSOSCKDM12A8C135928
p688
aa(lp689
VSORYPBX12A8AE466AD
p690
aVSOPGACU12A6701C5FF
p691
aVSOPMEHU12A8C1386D5
p692
aa(lp693
VSOCFWUD12D02198862
p694
aVSOMEMZY12A8AE45BB8
p695
aVSOZBJRC12A8AE4966B
p696
aa(lp697
VSOAESHR12A8AE48CF5
p698
aVSOSTVTX12A8AE48A45
p699
aVSOBLNPW12A58A78B95
p700
aa(lp701
VSOMAKIT12A58A7E292
p702
aVSOLLASW12AB017B6D8
p703
aVSOHDOJE12A6D4F957E
p704
aa(lp705
VSOGIAKS12A6D4F814B
p706
aVSOIAEXG12A8C13967B
p707
aa(lp708
VSOGGZMQ12A6D4F95CF
p709
aVSOZWPTF12A6D4F9559
p710
aVSORPCFC12A8C13FA13
p711
aa(lp712
VSOHRICL12A6D4FD116
p713
aVSOXIVCS12A58A7A31F
p714
aVSOARTSG12AB017FB86
p715
aa(lp716
VSOWUXAM12A58A7C66B
p717
aVSOIUMYQ12A8AE47046
p718
aa(lp719
VSOCXWJA12AB0189D52
p720
aVSOTQFQB12AB0184DC6
p721
aa(lp722
VSOIUXEF12A8AE479A3
p723
aVSONUUAO12A6D4FA40B
p724
aVSOSFNDX12AF729F917
p725
aa(lp726
VSOUHDYS12AB01813BF
p727
aVSOEBRFL12AB018B4F6
p728
aa(lp729
VSOBPMBX12A6D4FA229
p730
aVSOLCQLD12A6D4FA40C
p731
aa(lp732
VSOJRKEH12AB018104C
p733
aVSONQVLD12A58A797DF
p734
aVSOEQYMW12A6D4F6E51
p735
aa(lp736
VSODOQGG12AB018D749
p737
aVSOJBTXX12AC468E74D
p738
aa(lp739
VSOLHZMD12AB018AB0D
p740
aVSOXEHMJ12A6D4F71B7
p741
aVSODOXHW12A8C137EC3
p742
aVSOCWIWP12AB018D16D
p743
aa(lp744
VSORYBIN12A8C13A480
p745
aVSOUZAXA12AB017F0C9
p746
aa(lp747
VSOJJWEP12A58A7987D
p748
aVSOWSEHM12A8C131290
p749
aa(lp750
VSOZXPMD12A8C13327C
p751
aVSOXMXML12A6D4FBEE7
p752
aa(lp753
VSOKCTIV12A6D4F8250
p754
aVSOKWMPC12A6D4FA41B
p755
aVSOOLFYE12A58A7BD90
p756
aVSORYPBX12A8AE466AD
p757
aa(lp758
VSOJDTYX12A8C13B4D4
p759
aVSOYSOSV12A8C135B7C
p760
aVSOCQWFC12A6701CD78
p761
aVSOGJMTM12A6310E17B
p762
aa(lp763
VSOWXEXD12B0B80BCED
p764
aVSOCUXHU12A8C139696
p765
aa(lp766
VSOSRIHB12A8C13608B
p767
aVSOYHMYP12A8C13BFDC
p768
aVSOISUON12A8C1322D2
p769
aa(lp770
VSOCVQYV12A8C1341F4
p771
aVSOYXSRR12A8C1322E4
p772
aVSOZFLAU12AF729B9D1
p773
aa(lp774
VSOCUHGK12A8C134202
p775
aVSOKWMPC12A6D4FA41B
p776
aVSOSYHME12A8C135DD8
p777
aa(lp778
VSOSYQCG12AB018A42C
p779
aVSOUKADA12AB018A1ED
p780
aVSOVMWYB12D0219A97E
p781
aa(lp782
VSOTBHFM12A8C13CA8A
p783
aVSOXSLEA12A8AE468C2
p784
aa(lp785
VSOHCUMW12A8AE487CA
p786
aVSOBYMRL12A8C134793
p787
aVSOWNGGB12AB0180423
p788
aVSOMWBGT12A6D4F9F3A
p789
aVSOWSNCT12A6D4F6527
p790
aVSONYELH12AF72A2C15
p791
aVSOFPPOM12A6D4FC5C4
p792
aVSONYYSO12A8C13C10B
p793
aa(lp794
VSOLFSDA12A8AE48392
p795
aVSOVYSKZ12A58A7992D
p796
aVSOMCWMZ12A8C13E85B
p797
aa(lp798
VSOZCPRC12A8C13CCC2
p799
aVSOHETAO12AF72A748E
p800
aa(lp801
VSOQOVAN12A8C1321B1
p802
aVSOABBHO12AF729FE72
p803
aa(lp804
VSOOWMTD12AC468AB21
p805
aVSOVUBVZ12AB0188CF3
p806
aVSODITFE12A6D4FD74E
p807
aa(lp808
VSOTIXWX12AC468A0BF
p809
aVSOSOOGB12AB0182497
p810
aVSOXYEBP12AB018BE4B
p811
aVSOBUMQC12AB0180B87
p812
aVSOJVOXV12AB0185FAB
p813
aVSOJIENI12A6D4FC41A
p814
aVSOPMLHV12A8AE46A5E
p815
aVSONEVGB12A8AE4672D
p816
aa(lp817
VSOQXPPN12A81C2251D
p818
aVSOHCYAE12A58A7A1B3
p819
aVSOUMHRV12A6D4FA353
p820
aVSOEAUMK12A8AE47141
p821
aVSOQTAGD12A8AE471DC
p822
aa(lp823
VSOPNUFA12AB017F5C6
p824
aVSOQOVAN12A8C1321B1
p825
aa(lp826
VSOLCVKA12AB017F597
p827
aVSOZTXOS12A58A7ADF0
p828
aa(lp829
VSOKBNRT12A8C145FA6
p830
aVSOHKQJJ12AB0181050
p831
aVSOZCXVT12AF729E146
p832
aVSOBMWAE12AB017DC45
p833
aa(lp834
VSOBYUTN12A8C13E74A
p835
aVSONNEGD12A8C13EC36
p836
aa(lp837
VSOYWQSL12A67020A21
p838
aVSOLMZMB12A6D4F8A11
p839
aa(lp840
VSOCGAMH12A81C228DD
p841
aVSORXPGE12AB01826DF
p842
aa(lp843
VSOULCKP12A6D4F95BD
p844
aVSODDPXJ12A6D4F95C2
p845
aa(lp846
VSOQQTFV12A6701C5F6
p847
aVSONUMBN12A6D4F95A0
p848
aVSOSWTPM12AF72A5AC6
p849
aa(lp850
VSOUSIOT12A6D4FDC83
p851
aVSOBJYTI12AF72A109A
p852
aVSOEDRJB12A8AE46A59
p853
aVSOLCQMX12AC468BFC5
p854
aa(lp855
VSODODBG12A8C133CC0
p856
aVSOZGAUH12A8C13DA68
p857
aa(lp858
VSORFJWR12A6D4F65A6
p859
aVSOHHXBP12A6D4F95A5
p860
aa(lp861
VSOKYOBT12A6D4FBBB0
p862
aVSOTBHFM12A8C13CA8A
p863
aa(lp864
VSOJFJDW12A6D4F81AF
p865
aVSODWNPP12A58A79824
p866
aVSOHNKEU12B0B80C9B1
p867
aa(lp868
VSOJWJAE12CF4E03F70
p869
aVSOHWWLP12AB0181072
p870
aVSOJKDQL12A6701EAF3
p871
aVSOTTNDK12A8C1339CB
p872
aa(lp873
VSOZDGEW12A8C13E748
p874
aVSOWSGBU12A8C13222E
p875
aa(lp876
VSOWCFXC12A8C135F35
p877
aVSOCKOGU12A8C135F36
p878
aa(lp879
VSOXUHDU12AB018DA8E
p880
aVSOPEBKQ12AF72A8389
p881
aVSOISVBJ12A6D4FC3D2
p882
aa(lp883
VSOTFIDF12AC468A08C
p884
aVSOELLIT12A6D4FC667
p885
aVSOUDZJN12AC468518B
p886
aa(lp887
VSOLMBIR12A5891F907
p888
aVSOLLFGR12A58A79C06
p889
aa(lp890
VSOJVSTJ12A67ADC84A
p891
aVSOSBOAE12A6D4F7957
p892
aVSOPQJDH12A58A79F85
p893
aa(lp894
VSOYTQYA12A8AE47BF4
p895
aVSOHEZFI12A58A7E84F
p896
aa(lp897
VSOYPMAP12A8C13FB7D
p898
aVSOEHLYV12A8C13FE74
p899
aVSOWUFQU12A8C13E6B3
p900
aa(lp901
VSOCPIQO12A8C13104B
p902
aVSODKZPU12A58A7EBDC
p903
aVSOLBZNU12A8C135A33
p904
aVSOWQAXR12A58A7C8C6
p905
aa(lp906
VSOBCRPM12A8C13104C
p907
aVSODNISG12A8C13104E
p908
aVSOYBYCH12A8C135A29
p909
aVSOHOKTN12AF72A4253
p910
aa(lp911
VSOAFTLX12A6D4F8FC2
p912
aVSOAJIPM12A6D4F7888
p913
aVSOQFSHC12A6701FC3A
p914
aVSOVFMSF12A6310D7E3
p915
aa(lp916
VSOKUPEJ12A6D4FB6F2
p917
aVSOPJLFV12A6701C797
p918
aVSOVOIIH12A6D4FB700
p919
aa(lp920
VSOTZLCB12A6D4F96EE
p921
aVSOMUXFT12A6D4F96ED
p922
aa(lp923
VSOQCISR12AB0186CAD
p924
aVSODQYNH12AB018AEEA
p925
aa(lp926
VSOUHYXW12A8C13BD17
p927
aVSOTPYNK12AB0187417
p928
aVSOTKMOB12AF72A5F87
p929
aa(lp930
VSOODDWO12A8C13CD6C
p931
aVSOYMDLS12A58A7C26A
p932
aVSOSFPLA12A6D4FA63B
p933
aVSOWHZAU12AB0181CB3
p934
aVSOZOPEH12AB0181A2B
p935
aa(lp936
VSOSVEAD12A8AE46FFA
p937
aVSOIEIZV12A8C142C3F
p938
aa(lp939
VSOQOVAN12A8C1321B1
p940
aVSOSPDLY12A6310EC1A
p941
aVSONYAWP12AB017B400
p942
aa(lp943
VSOXYBHK12A8C131049
p944
aVSORJNFY12A81C20A51
p945
aVSOQQTFV12A6701C5F6
p946
aVSOPFUPI12A8C134F7D
p947
aa(lp948
VSOMHMHK12A58A795A1
p949
aVSOLMURJ12AB0184A21
p950
aVSOBSQGJ12A6D4FA40A
p951
aVSONFROS12A8C135B79
p952
aVSOXOURR12AB0186379
p953
aVSOMDZLO12AF729A7C1
p954
aVSOPPEIA12AB018EC2B
p955
aVSOHVEKY12A6D4FE9B5
p956
aa(lp957
VSOVPSLP12AB0188696
p958
aVSOERPGE12A8C13950A
p959
aVSOLGJOR12A67ADC7F7
p960
aVSOQTXHU12AB018836D
p961
aVSOSMVXA12A6D4FC3FC
p962
aa(lp963
VSOZSYPY12A6310DF1C
p964
aVSOAWDYR12AC90725D3
p965
aVSOVAKDL12A67ADE61E
p966
aVSOWIHMQ12A6D4FAAF8
p967
aVSOUFOBC12AB0185331
p968
aa(lp969
VSORXEMR12AF729E517
p970
aVSOHLECL12A6D4FA8CF
p971
aVSOPWBOA12A6D4FA84D
p972
aVSODNLFV12A8C13AAC6
p973
aa(lp974
VSOENKQS12A8C13524A
p975
aVSOSDXWP12A8C143E12
p976
aVSOZYBRW12A8C134D7F
p977
aVSOKQVOE12AC3923C82
p978
aa(lp979
VSOEDFBH12A8C13924F
p980
aVSOYWYEM12A8C13A147
p981
aa(lp982
VSOYBPBW12A8C139CB6
p983
aVSOCTNUT12AF72AAEA9
p984
aa(lp985
VSOHZWLT12A8C137333
p986
aVSOMTRKO12A8C134D55
p987
aVSOQCLEP12A58A7FAE1
p988
aa(lp989
VSOSXDRR12A58A7BF50
p990
aVSOTVTNR12AB017AC94
p991
aa(lp992
VSOEXMRA12AF729CD69
p993
aVSOHPSTM12AB0188B50
p994
aa(lp995
VSOYOLVT12A8C141234
p996
aVSOIDZCR12A8C1352E0
p997
aVSORPRPM12A58A7F5C3
p998
aa(lp999
VSONNWHC12AB01873E5
p1000
aVSOLWDWR12A6D4FE3D7
p1001
aVSOZXKAN12A6D4FB1DE
p1002
aVSOHNVBG12A8C137E93
p1003
aa(lp1004
VSOVOANJ12A58A789D5
p1005
aVSOKLMGI12A8AE47048
p1006
aa(lp1007
VSOUMXMR12A6D4FDAC3
p1008
aVSONSIHD12A6D4FBCE0
p1009
aa(lp1010
VSOUSIOT12A6D4FDC83
p1011
aVSOCCZCH12AB018509B
p1012
aVSOIPCFM12A8C13DC8C
p1013
aVSOIRUOR12A6D4FDC56
p1014
aa(lp1015
VSOSHSIM12AC468C59C
p1016
aVSOXMBBO12D0219A9AF
p1017
aa(lp1018
VSOGVZTN12AAF3B45A1
p1019
aVSOHOPJI12A6D4F932C
p1020
aa(lp1021
VSOHADIN12A58A791FA
p1022
aVSOUNKEZ12AB0180204
p1023
aa(lp1024
VSODENMQ12A6D4F8D48
p1025
aVSOBEQZF12AB0181BAE
p1026
aa(lp1027
VSOHUGFM12A58A7E956
p1028
aVSOGXEOC12A6D4FB6C9
p1029
aa(lp1030
VSOHPYSA12AC4687457
p1031
aVSOUYDFT12AB01821B5
p1032
aa(lp1033
VSONZSGE12AAA8C4F89
p1034
aVSORBMRY12A6D4FA230
p1035
aa(lp1036
VSOTOQPN12A6D4FD25D
p1037
aVSOJMQPN12A6D4F9C9C
p1038
aVSODVYAC12A8C13A4EF
p1039
aa(lp1040
VSOCFWUD12D02198862
p1041
aVSOZSHNI12D02198801
p1042
aa(lp1043
VSOHOJFZ12A8C1347B0
p1044
aVSONRZJU12AAF3B36D0
p1045
aVSOVLGTO12A8C1348EE
p1046
aVSONIWWJ12A8C134912
p1047
aVSOTFJYO12A8C1366C8
p1048
aVSOZSMVS12AAF3B4FAA
p1049
aVSOTKFLY12AF72A73C3
p1050
aa(lp1051
VSOYMUZC12A8C136301
p1052
aVSOMTGTY12AF72A7165
p1053
aa(lp1054
VSOEEEEH12AAF3B4606
p1055
aVSOMIXXT12D021B27DE
p1056
aVSOLZMIL12A8C135BCA
p1057
aa(lp1058
VSOXPOKH12A8C13F6F8
p1059
aVSOYVFNX12A8AE49328
p1060
aa(lp1061
VSOIHICU12AB018476E
p1062
aVSONETTP12A6D4FE995
p1063
aa(lp1064
VSODYPNA12A8C13EF7A
p1065
aVSOOWYMT12AC4688E6A
p1066
aa(lp1067
VSOPLJIK12A8C132A9F
p1068
aVSOVGHIZ12A6D4F90E0
p1069
aVSOGVBGN12AAA8C878E
p1070
aa(lp1071
VSOTRJPW12A8C142D96
p1072
aVSOCUXRT12A58A76100
p1073
aa(lp1074
VSOCHYVZ12A6D4F5908
p1075
aVSOCEVGD12A679D7E8B
p1076
aVSOSHZYN12A6D4F5925
p1077
aVSOCACOZ12A81C216D1
p1078
aVSOVZVGK12A8C142DB7
p1079
aVSONCTTK12D021904D7
p1080
aVSOFHAKP12A8C142DA0
p1081
aa(lp1082
VSOTSOUT12AB01814A5
p1083
aVSOBEAWH12A8C13D56A
p1084
aa(lp1085
VSOFVARD12AF72A0CFD
p1086
aVSOHKMBJ12D02198E1D
p1087
aa(lp1088
VSOJOSHT12A8AE464D6
p1089
aVSOLDKVJ12AB017B3DD
p1090
aa(lp1091
VSOHKMBB12AB01825AE
p1092
aVSOMFRUU12A81C2221D
p1093
aa(lp1094
VSOZRQQV12AF72A15B4
p1095
aVSODGOZT12A6D4FCE88
p1096
aa(lp1097
VSOBCGRY12A6701DE8E
p1098
aVSOGAQYH12AB018AFDA
p1099
aa(lp1100
VSOQGLCI12AF72A150E
p1101
aVSOTZZAJ12A8C1402A5
p1102
aa(lp1103
VSOMMLNY12AB0187B60
p1104
aVSOUZHGE12AB018F4E4
p1105
aVSODFFEE12AF72A19A9
p1106
aa(lp1107
VSOXYSXW12A8AE471D8
p1108
aVSOGFXYG12A8AE469DB
p1109
aa(lp1110
VSOYBPSA12A8C13A4A4
p1111
aVSOMDISA12AB017DD8D
p1112
aVSOZUKZP12A67ADB3BA
p1113
aa(lp1114
VSOZHXLP12A8C14092E
p1115
aVSOYAHBC12AB0182DAD
p1116
aa(lp1117
VSOCEXOL12A6D4F7668
p1118
aVSONEVGB12A8AE4672D
p1119
aa(lp1120
VSOOSVTO12A8C13EF96
p1121
aVSOXZHMR12A8C13D468
p1122
aVSOWLJRX12A6D4F7BBB
p1123
aa(lp1124
VSODNHCC12AB017AE00
p1125
aVSOGXKFR12A3F1ECDEB
p1126
aVSOWDTPU12A8C13B66D
p1127
aa(lp1128
VSOWUJWY12A8C1399DC
p1129
aVSOQICBF12AB017ADF5
p1130
aa(lp1131
VSOIOFGM12A67ADE79B
p1132
aVSOWQCYC12A8C13D4D1
p1133
aa(lp1134
VSOZEYTN12A6D4FAF35
p1135
aVSOVGHIZ12A6D4F90E0
p1136
aa(lp1137
VSOWUFQU12A8C13E6B3
p1138
aVSOXMDHZ12A6D4F6E20
p1139
aVSOHLTHW12AC4688435
p1140
aa(lp1141
VSOBBZZS12AB018EC5C
p1142
aVSOKWMPC12A6D4FA41B
p1143
aa(lp1144
VSOWMOHU12AB01869FB
p1145
aVSOYMSFZ12A8C143DFE
p1146
aa(lp1147
VSOGLQLN12A8C142D3A
p1148
aVSOTIHNY12AB0184742
p1149
aVSOGTIHR12AF72A4932
p1150
aVSOSRIHB12A8C13608B
p1151
aVSOXBZNR12A679D7E8E
p1152
aa(lp1153
VSOOAYDX12AF72A67AD
p1154
aVSOTQCKB12AB018C45D
p1155
aa(lp1156
VSODONCS12A8C136F7C
p1157
aVSOSAVTQ12AF729BB74
p1158
aa(lp1159
VSOTOZQZ12A8C13FC42
p1160
aVSONUMBN12A6D4F95A0
p1161
aa(lp1162
VSOIOAKP12AF72A7156
p1163
aVSOHJXWJ12A58A7ED45
p1164
aa(lp1165
VSOPOACQ12A6D4FA234
p1166
aVSOPMVTW12AF72A720A
p1167
aVSOHJRKR12AB0188738
p1168
aVSODIOGF12A6D4F9A52
p1169
aVSORSZML12AB018391D
p1170
aVSOLMWNQ12AB0187324
p1171
aa(lp1172
VSOSLSLS12A8C135B5F
p1173
aVSOITRTA12A6D4F8261
p1174
aVSONQVLD12A58A797DF
p1175
aVSOQDMXT12A6D4F8255
p1176
aVSOERPGE12A8C13950A
p1177
aVSOHURZD12D02193F0E
p1178
aa(lp1179
VSOOPUGS12A58A78408
p1180
aVSONVVIO12A58A793E3
p1181
aa(lp1182
VSOXKDPI12A6D228263
p1183
aVSOADDVH12A67ADC7EE
p1184
aVSOAIAHS12A6D228267
p1185
aVSOVZHZZ12AB0183B38
p1186
aVSOMORDY12A67ADC7F4
p1187
aVSOPEQAU12A67ADC7FB
p1188
aVSOFWCMX12A67AE248D
p1189
aa(lp1190
VSOVKHTJ12AF72A7E15
p1191
aVSOYAHBC12AB0182DAD
p1192
aVSOWEHWQ12A58A769D2
p1193
aVSOVQUXN12AF72ACE05
p1194
aVSOGVTMI12AB0182F37
p1195
aVSOZVLIV12AB0184775
p1196
aVSOPVICW12AB0180200
p1197
aVSOUNKEZ12AB0180204
p1198
aa(lp1199
VSODJJIU12A58A7EBCD
p1200
aVSOPBLLP12A8AE4705B
p1201
aa(lp1202
VSOVNVAP12A6D4F9206
p1203
aVSOPCIIT12A6D4F95D3
p1204
aVSOEMEUQ12A6D4FD197
p1205
aVSONYAWP12AB017B400
p1206
aa(lp1207
VSOBMYXO12A8C13C6C6
p1208
aVSOIRKYT12A6701F94C
p1209
aa(lp1210
VSOZNJSS12AB0185B6A
p1211
aVSOBLLSE12AB018223B
p1212
aVSOGDCCA12A6D4FA410
p1213
aVSOZSXAO12A6D4FA411
p1214
aa(lp1215
VSOOZOEW12A8C1438C6
p1216
aVSOBJMMQ12A67020932
p1217
aVSOSHAJP12AB0184848
p1218
aa(lp1219
VSOLISQK12A8C1416AF
p1220
aVSOHUUFD12A6701DBD7
p1221
aVSOHHNPT12A58A7F9FD
p1222
aa(lp1223
VSOSYMNF12A6D4F9090
p1224
aVSOSTHNK12A6310D8FA
p1225
aa(lp1226
VSOYHPFI12D0219A467
p1227
aVSOHIQOY12D02197AB5
p1228
aVSOGLFPS12A67020F4E
p1229
aVSOZTUIS12A8AE46A4D
p1230
aa(lp1231
VSOXIVCS12A58A7A31F
p1232
aVSOBHXYB12A58A7972A
p1233
aa(lp1234
VSOOJLHF12A6D4FBEAE
p1235
aVSOMHDCY12A6D4F85A0
p1236
aa(lp1237
VSOPDXLN12CF5F86FEA
p1238
aVSOSCGFN12AF729B231
p1239
aVSOSCBML12AB018587B
p1240
aVSOOBSMX12AB0187549
p1241
aa(lp1242
VSOAUYOZ12A8C138B2C
p1243
aVSOGFFIF12A6D4F983D
p1244
aa(lp1245
VSOZHPFP12A6D4F85AB
p1246
aVSOAWJEA12A6D4F65A9
p1247
aa(lp1248
VSOQWLGX12A6D4FB183
p1249
aVSOXLBRL12A58A795B3
p1250
aVSOOVBQR12AB018DF7A
p1251
aa(lp1252
VSOTQBKC12A8C13E961
p1253
aVSOOXCRU12AB017FC62
p1254
aa(lp1255
VSOVVRFC12AB0186362
p1256
aVSOIBWRG12A8C141117
p1257
aVSOKFYFE12A6701D104
p1258
aVSOALWJY12A8AE46EE2
p1259
aa(lp1260
VSOIRVQT12A6D4F84EF
p1261
aVSOQAMNQ12A6D4FA63A
p1262
aVSOEOEJQ12A8C132AAB
p1263
aVSOGEBUJ12AB01874F3
p1264
aa(lp1265
VSOAYZNR12A8C13BC50
p1266
aVSONJVNJ12A8C13FF81
p1267
aa(lp1268
VSOQQHOR12A58A7DC8E
p1269
aVSOINPCB12A81C22D2E
p1270
aVSOPXDPO12A8C143691
p1271
aa(lp1272
VSOFLPXN12A8C13B3B9
p1273
aVSOVBXST12AB018AD03
p1274
aa(lp1275
VSOERPRE12A58A7E653
p1276
aVSOBBZZS12AB018EC5C
p1277
aVSOVVUOH12A81C23875
p1278
aVSOMEMZY12A8AE45BB8
p1279
aVSOTTPDV12A8C13B4DC
p1280
aVSOQCAWT12A81C23883
p1281
aVSOHNRJO12A8AE44A2B
p1282
aVSOBMHSI12A8AE45B9E
p1283
aa(lp1284
VSOCGYKU12A8C13B4D9
p1285
aVSOPLKXK12A8AE45BA7
p1286
aVSOUBHNI12A58A7B600
p1287
aa(lp1288
VSOKTDOI12AB018A1A8
p1289
aVSOSXTNT12A58A809DC
p1290
aa(lp1291
VSOVNZVV12AB017DC71
p1292
aVSOWDGTN12A8C144307
p1293
aa(lp1294
VSONIWWJ12A8C134912
p1295
aVSODSIMX12A6D4F6E4F
p1296
aVSOKXBCZ12A8C1367AF
p1297
aa(lp1298
VSODLLOG12AB01821AC
p1299
aVSOEMJOD12A6D4F766B
p1300
aVSOSWTPM12AF72A5AC6
p1301
aa(lp1302
VSOEMIAW12A6D4FDABA
p1303
aVSOXZEWL12A8AE47353
p1304
aa(lp1305
VSOUWQIW12A8C132BCA
p1306
aVSOVLEEA12A6D4F6DF8
p1307
aa(lp1308
VSOCPCBA12A81C23BB3
p1309
aVSOCKYFP12A6D4F95BA
p1310
aa(lp1311
VSODUMPR12A6D4FB82E
p1312
aVSOWFKEQ12A8C135670
p1313
aVSOZRMAK12A8C13B9FF
p1314
aVSOYTPEM12AB017E7EA
p1315
aa(lp1316
VSOZXQGQ12A8C133A0C
p1317
aVSOWNJYY12A81C20010
p1318
aa(lp1319
VSOOXPVT12A58A78491
p1320
aVSOWNFXB12A8C1300C3
p1321
aa(lp1322
VSODDYXX12AB0187159
p1323
aVSOYYOHT12AF72A3B2B
p1324
aa(lp1325
VSOIPVFF12A6D4F9F9F
p1326
aVSOIWJHC12A8C1370C3
p1327
aa(lp1328
VSOBEGIZ12A8C13A59A
p1329
aVSOUTUFO12A8C136EEE
p1330
aVSOFSZRZ12AB0189B90
p1331
aVSOFKAWF12A8C13A28B
p1332
aa(lp1333
VSOHXRXS12A58A7F6C6
p1334
aVSOGHLKA12AB0188C89
p1335
aVSOXEXED12A8C137694
p1336
aa(lp1337
VSOCSHJJ12A6D4FD110
p1338
aVSOTKAST12AC4688E92
p1339
aa(lp1340
VSOYVFNX12A8AE49328
p1341
aVSOOFLJB12A6D4FB5CF
p1342
aa(lp1343
VSOFBIEF12A8C13A887
p1344
aVSOPURIG12A67ADD627
p1345
aVSONDSPS12A58A7837A
p1346
aVSOOUPTT12A8AE46A82
p1347
aVSOVOTPA12A8C141EE4
p1348
aa(lp1349
VSOXEHMJ12A6D4F71B7
p1350
aVSOJLMLL12A8C132112
p1351
aVSOGQZSE12A6D4F612C
p1352
aa(lp1353
VSONSXBY12AB0182284
p1354
aVSOZRKLE12A8C13D287
p1355
aa(lp1356
VSOPUXKY12AB018C0D5
p1357
aVSOHJCFL12A8C139694
p1358
aa(lp1359
VSORJONN12AB0184F71
p1360
aVSODGFBA12A8C13242A
p1361
aa(lp1362
VSOSNARG12AB0181739
p1363
aVSOYZYYY12A6701C432
p1364
aa(lp1365
VSODHBPX12A8C1348A1
p1366
aVSORCQRX12AF72AC4CC
p1367
aa(lp1368
VSONHLTP12A8C139E7F
p1369
aVSONZZYO12A6D4F6494
p1370
aVSOWRUWU12D021931EF
p1371
aa(lp1372
VSOFLOPU12A67ADD91B
p1373
aVSOMDJRE12AF72A7325
p1374
aVSOSRIHB12A8C13608B
p1375
aVSOGWRHH12A8C1312F0
p1376
aVSOXHYVQ12AB0187949
p1377
aVSOCXRIE12A6310E111
p1378
aVSOXNJHP12A58A7B8D1
p1379
aa(lp1380
VSOXIKKF12AB01850D4
p1381
aVSOWSNCT12A6D4F6527
p1382
aVSOBRJNF12A8C13B63D
p1383
aVSOMRZMI12A6D4F8F25
p1384
aVSONQXEU12A58A7DEC8
p1385
aVSOHETAO12AF72A748E
p1386
aVSOWGRYA12A81C2176C
p1387
aVSOMAKIT12A58A7E292
p1388
aVSOIPCGZ12A8C13C805
p1389
aa(lp1390
VSOFIIVZ12A8C134698
p1391
aVSOKONNC12A6D4F7BC8
p1392
aa(lp1393
VSOZDRQA12AB0187E61
p1394
aVSOOOEBT12A58A7ADCC
p1395
aVSODGBDR12AB0183C11
p1396
aa(lp1397
VSOSMPWJ12AB0186C73
p1398
aVSOJUQTM12A58A7B945
p1399
aVSOCMCCZ12A8C136573
p1400
aa(lp1401
VSORGNSQ12A58A7AC0A
p1402
aVSOQZCYV12AF72A909B
p1403
aa(lp1404
VSOOFTSD12D02190414
p1405
aVSOPINCK12AB017DDD0
p1406
aa(lp1407
VSOFPIKS12A8C132DDA
p1408
aVSOAIYZT12AB018AABC
p1409
aa(lp1410
VSOSVCMS12A6D4F522E
p1411
aVSOTZZAJ12A8C1402A5
p1412
aVSOKSHPO12A6D4FC3C0
p1413
aa(lp1414
VSONQAGO12A6D4FB140
p1415
aVSOHXEMU12A8C13FE6E
p1416
aVSOOHYZC12AC3DF92D3
p1417
aVSOMZSHY12A8C1343B0
p1418
aa(lp1419
VSODBLDC12A8C13C253
p1420
aVSOVLTHX12AF72A1669
p1421
aVSOQIGTF12AAA15EB04
p1422
aa(lp1423
VSOVMNCJ12A6D4FA235
p1424
aVSOCEXOL12A6D4F7668
p1425
aa(lp1426
VSOUCBXU12A6D4F6DF2
p1427
aVSODHPFB12A67020295
p1428
aVSOZPKGK12AB0189B90
p1429
aVSOFADKH12AB01822F1
p1430
aVSOFRUWY12D021B5796
p1431
aa(lp1432
VSOUQATI12AF72A3F68
p1433
aVSOURJXB12A8C135845
p1434
aa(lp1435
VSOXKSUI12AB0188EC6
p1436
aVSOXMRCV12AB018DBE1
p1437
aa(lp1438
VSOLHZMD12AB018AB0D
p1439
aVSOEVJJC12A58A7948B
p1440
aVSOMHZVC12A58A77118
p1441
aVSOZAGGZ12A6D4FB970
p1442
aVSOFDNYR12AB018D1F8
p1443
aVSOPVSKY12AB0187CA6
p1444
aVSOALSCK12AB01878F6
p1445
aa(lp1446
VSOREZIW12A8C13CB80
p1447
aVSOCDYBN12A58A7B4FC
p1448
aa(lp1449
VSOJUTFZ12A6D4F834A
p1450
aVSOYSGYJ12A6D4F9F92
p1451
aVSOOFFJU12A8C13CAD9
p1452
aVSOOGBTU12AB0187CB9
p1453
aVSOHYYMV12AB0185879
p1454
aa(lp1455
VSOTGCZC12A8BEEEAE8
p1456
aVSOFVNPC12A6D4F9D51
p1457
aVSOQHFJQ12A6D4FDD32
p1458
aa(lp1459
VSOJVQLR12A6D4FB9B8
p1460
aVSOICJSZ12D0219B17D
p1461
aa(lp1462
VSOPZLQK12A8C136017
p1463
aVSOGRYJE12AB017CB5F
p1464
aa(lp1465
VSOCWALI12A8C1375AC
p1466
aVSOULPIF12A8C13DF76
p1467
aa(lp1468
VSOYBSRT12A6701D459
p1469
aVSOIAHHH12A6701EA2D
p1470
aVSOBBZZS12AB018EC5C
p1471
aVSOJEUAB12A6701D938
p1472
aa(lp1473
VSOICAYG12A8C140718
p1474
aVSOUWCKH12A6D4FA4A8
p1475
aa(lp1476
VSOVVUOH12A81C23875
p1477
aVSOXLRKG12AB0185B15
p1478
aVSOCQJYB12AB017E855
p1479
aa(lp1480
VSOTLZFL12AF729EFB2
p1481
aVSOKGMRI12A6D4FBEF3
p1482
aVSOFTWXY12A58A7A175
p1483
aa(lp1484
VSOTOXFV12AB01815C8
p1485
aVSOAFTRR12AF72A8D4D
p1486
aVSOLUXSQ12AB017D19D
p1487
aa(lp1488
VSOHGIGW12A6D4F6199
p1489
aVSOQSXVR12A8C137106
p1490
aa(lp1491
VSOUZXLB12A8C138499
p1492
aVSOBWRTZ12AF72AA26E
p1493
aa(lp1494
VSOEVRKK12AC9071B6B
p1495
aVSOBRPKS12AB018AC85
p1496
aVSOGOSCY12A8C13B9A1
p1497
aVSOGXSZG12A8C13A1C1
p1498
aa(lp1499
VSORYPBX12A8AE466AD
p1500
aVSODCVHD12AF729F22F
p1501
aa(lp1502
VSOOSFGE12AB018A13D
p1503
aVSORYYRQ12AB017E015
p1504
aVSOOMYWA12A58A78C8F
p1505
aVSOLJQPF12A67020924
p1506
aa(lp1507
VSOBNONE12A58A7842D
p1508
aVSOPMAVO12A6D4FDA00
p1509
aa(lp1510
VSOHGXWV12A8C13B0B6
p1511
aVSOGDTWN12A8C1384FD
p1512
aa(lp1513
VSOOOJYW12A58A7B82B
p1514
aVSOADLJQ12A6D4F8452
p1515
aVSOLJTDG12A6701DEA2
p1516
aVSOHNOLQ12AAF3B1C55
p1517
aVSOJZJKJ12A6701E080
p1518
aVSOWJRXY12AF72A5FD1
p1519
aVSOXSYVD12AB018431C
p1520
aVSOVVHYA12A8C1429D9
p1521
aa(lp1522
VSOEQWNZ12A6D4F787C
p1523
aVSOSMTVN12A6701E910
p1524
aVSOKQCET12A6310F0F0
p1525
aVSOFFWZZ12A6D4F66F0
p1526
aVSOAAXAK12A8C13C030
p1527
aVSOCLSLO12A8C137815
p1528
aa(lp1529
VSOIAKYH12A8C13805F
p1530
aVSOCKNUX12A6D4FBEEE
p1531
aa(lp1532
VSOFCHIX12A8C139CEB
p1533
aVSOSLBEG12A8AE47E42
p1534
aVSOJHLXL12A6D4F826A
p1535
aa(lp1536
VSOBUWZJ12A58A7EFAC
p1537
aVSORLMFL12A81C22CDF
p1538
aVSOEWAYK12A8C142D83
p1539
aa(lp1540
VSOQXLRP12D021B3FF9
p1541
aVSOSCCAK12AB017BBA6
p1542
aVSOUEABS12A8AE4671C
p1543
aVSOWDWCG12A81C22155
p1544
aVSORBMRY12A6D4FA230
p1545
aVSODPDER12AB0188343
p1546
aVSOBUPJO12AB018FFC0
p1547
aVSOVXOYX12AC468849E
p1548
aa(lp1549
VSOIAUJJ12A58A7FD28
p1550
aVSOKTWXQ12A8C14569B
p1551
aVSOLKHHW12A6D4F6E4B
p1552
aVSOZUSJU12AB01835D4
p1553
aa(lp1554
VSOZXUFG12AB0180D87
p1555
aVSOEDDLL12A81C20B36
p1556
aa(lp1557
VSOBRRHG12A8AE46DE7
p1558
aVSOYZSRY12A67ADAE93
p1559
aa(lp1560
VSOZFPKU12A6D4F6A50
p1561
aVSOWETQR12A58A7DD29
p1562
aVSOJASOX12A6D4F6E5C
p1563
aVSOQTBWH12AB0189872
p1564
aa(lp1565
VSOLDTBJ12A6D4FA4AD
p1566
aVSOOPUYC12A8C13A2DC
p1567
aVSOBSRCN12AF729F61B
p1568
aVSOBGXYL12A8C136F02
p1569
aVSOBCTCX12AB018EFE9
p1570
aVSOBDKGC12A8C139361
p1571
aa(lp1572
VSOLHPPH12A8C135426
p1573
aVSOTPQFM12AB017AC9E
p1574
aa(lp1575
VSOQHZPR12A8C13E1DA
p1576
aVSOIGUDT12A8C14166D
p1577
aa(lp1578
VSOXFKPE12A8C1319D6
p1579
aVSOIOAKP12AF72A7156
p1580
aa(lp1581
VSOJJCPA12AB017E9E3
p1582
aVSOZSQYV12AB018B652
p1583
aa(lp1584
VSOUFMZI12AB01867AB
p1585
aVSOHRPCQ12A8C133FCD
p1586
aVSOUAWQF12AB017DE15
p1587
aa(lp1588
VSOCFWUD12D02198862
p1589
aVSOEQWNZ12A6D4F787C
p1590
aa(lp1591
VSOSPLHN12AF72A2897
p1592
aVSOXSTPJ12A8AE4503F
p1593
aa(lp1594
VSOQZRIM12A582917DD
p1595
aVSOJALZX12AB018BBE6
p1596
aVSOCUXRT12A58A76100
p1597
aVSOUVXAE12AF72A2D56
p1598
aa(lp1599
VSOYLLAE12A6D4F9643
p1600
aVSOCURKJ12AB018AFC4
p1601
aa(lp1602
VSOJXNVM12A8C136FF9
p1603
aVSODXLRR12A6D4F71BB
p1604
aa(lp1605
VSOHJEMG12AB018A33F
p1606
aVSOTFJYO12A8C1366C8
p1607
aVSOWTXCN12A6701DFAF
p1608
aVSOXGAOF12A8AE48685
p1609
aa(lp1610
VSOFOAIA12A8C136186
p1611
aVSOEATBP12AB0183032
p1612
aVSOVEXKN12A58A7A043
p1613
aa(lp1614
VSOLMLQF12A6D4FA42F
p1615
aVSONZKUP12A8AE466BA
p1616
aa(lp1617
VSODORVA12A8C13B259
p1618
aVSOIDWAI12AB0180FE0
p1619
aa(lp1620
VSONUWHX12A6D228264
p1621
aVSOKVJZH12A6310EC12
p1622
aa(lp1623
VSOVVCLM12A6D4F83F1
p1624
aVSOBAVZH12AB017D362
p1625
aVSOVCZSG12A8C132E7D
p1626
aVSOXKDPI12A6D228263
p1627
aVSOOMPZN12AB01849D3
p1628
aa(lp1629
VSOMLAVM12A8C1321B4
p1630
aVSOGCZFW12A81C22054
p1631
aVSOBFUOC12A81C2176B
p1632
aa(lp1633
VSOMBAVX12AF72AC99C
p1634
aVSORLCBC12AB0182231
p1635
aa(lp1636
VSODJZGV12A6D4F91D0
p1637
aVSOXSYVD12AB018431C
p1638
aVSOKHZPE12A8C14392F
p1639
aVSOEWWJF12A6310E262
p1640
aa(lp1641
VSOUMAEC12A8AE47E84
p1642
aVSOXMBBO12D0219A9AF
p1643
aa(lp1644
VSOJIEJL12A8AE46F6B
p1645
aVSOTOQPN12A6D4FD25D
p1646
aVSOTXRDQ12A8C13704C
p1647
aa(lp1648
VSOZDRQA12AB0187E61
p1649
aVSODLVUW12A8C1414BD
p1650
aa(lp1651
VSORKVEE12A8C13DD2A
p1652
aVSOKCFDH12A58A7D3B1
p1653
aVSOVUSHF12A6D4F9732
p1654
aa(lp1655
VSOLJQPF12A67020924
p1656
aVSONZKUP12A8AE466BA
p1657
aVSOOSPXA12D02198BD1
p1658
aVSOADBXL12A8AE47005
p1659
aa(lp1660
VSOQUTUF12A8C1371FA
p1661
aVSOTFVEF12A8C1423B4
p1662
aVSOHMXPV12A8C143893
p1663
aVSOYXPNR12A58A7E2A2
p1664
aa(lp1665
VSOYUAAN12A81C22BC1
p1666
aVSOCKMRB12A8C1396E6
p1667
aVSOZNOMS12A6310D7B3
p1668
aVSOESOXZ12AF72A7535
p1669
aVSOTFJYO12A8C1366C8
p1670
aa(lp1671
VSODKJUR12A6D4FA412
p1672
aVSORWUKL12A6D4FCE8B
p1673
aVSOLJQPF12A67020924
p1674
aVSOESTZQ12A67021556
p1675
aa(lp1676
VSOSCCAK12AB017BBA6
p1677
aVSOYKARC12A6310DA04
p1678
aVSONOMQS12A6701E945
p1679
aVSOTVLAM12A6D4F8F2B
p1680
aVSOOCKPO12A67021D10
p1681
aVSOQZZRL12AAF3B5BB4
p1682
aa(lp1683
VSOHAVWB12A8C138C9E
p1684
aVSOLKIIS12A6701C7F9
p1685
aVSOOHYZC12AC3DF92D3
p1686
aVSOIJNUF12B34F1C0B5
p1687
aVSOCUXRT12A58A76100
p1688
aa(lp1689
VSOGCKET12A81C221CF
p1690
aVSOYBZPI12A6D4FAB81
p1691
aa(lp1692
VSOITKLV12A8C137E6B
p1693
aVSOEAPYF12AB0180A21
p1694
aa(lp1695
VSOYDUGA12A6D4F8543
p1696
aVSOWGVNU12AC95F03F9
p1697
aVSOMADOL12A6D4F7AD9
p1698
aa(lp1699
VSONQAGO12A6D4FB140
p1700
aVSOMORDY12A67ADC7F4
p1701
aVSOEOKOK12AC95F0419
p1702
aa(lp1703
VSOVFAVF12AB017B5E0
p1704
aVSOJQZSQ12A8C13C73A
p1705
aa(lp1706
VSOYWGJT12AB0186C9A
p1707
aVSOVTXOE12A582A2626
p1708
aVSOLKVKS12AB0188952
p1709
aa(lp1710
VSOTOQPN12A6D4FD25D
p1711
aVSOGOFYM12A6310EC13
p1712
aa(lp1713
VSODZHZY12AB01822D6
p1714
aVSOQIWDA12AB01835E8
p1715
aVSOVDEBT12A6701F7A5
p1716
aVSOWNZMK12AC4685799
p1717
aa(lp1718
VSOXYJHK12A6D4F610B
p1719
aVSOMZLMO12A8C13CA95
p1720
aVSOGBJCK12AB017B6F5
p1721
aVSOPIAQT12AB01886A0
p1722
aVSOIOAKP12AF72A7156
p1723
aVSOSGDSM12A67ADE77E
p1724
aa(lp1725
VSOXHYVQ12AB0187949
p1726
aVSOHOJFZ12A8C1347B0
p1727
aa(lp1728
VSOLLMFO12A81C21749
p1729
aVSOHRPCQ12A8C133FCD
p1730
aa(lp1731
VSODJZGV12A6D4F91D0
p1732
aVSOSPTOE12A6D4F938C
p1733
aVSOKSZVW12A6D4F9207
p1734
aVSOFFJXF12A8C144307
p1735
aa(lp1736
VSOULRVQ12A8C138CD0
p1737
aVSOICREC12AF72A265D
p1738
aa(lp1739
VSONOMQS12A6701E945
p1740
aVSONDDYK12A58A77C62
p1741
aa(lp1742
VSOYPZRX12A8C13BA2E
p1743
aVSOMXDZI12A58A7F2D3
p1744
aVSOKXHZA12A6D4FA434
p1745
aVSOSXWHR12A6701FFFC
p1746
aVSOQQHAW12A670204A3
p1747
aa(lp1748
VSOAXHZQ12AB018CB50
p1749
aVSOSLBEG12A8AE47E42
p1750
aVSOUFTTQ12A67AE2282
p1751
aVSOVLGTO12A8C1348EE
p1752
aVSOOVWCW12A8C13D16B
p1753
aa(lp1754
VSOQEDIK12A8AE46BA6
p1755
aVSOVDCGI12A8AE453F3
p1756
aa(lp1757
VSOQGLIV12A8C13A273
p1758
aVSORYGWN12A58A7B53F
p1759
aVSOJYNSA12A8AE469C4
p1760
aa(lp1761
VSORNXHL12A6D4FB4EE
p1762
aVSOKCLVZ12A6D4FB4FB
p1763
aVSOQNVTB12AB01869AB
p1764
aa(lp1765
VSOJXRYG12AB018A2DB
p1766
aVSOUDLLQ12A6D228265
p1767
aa(lp1768
VSOIIDPI12AB0185155
p1769
aVSOMCCRV12A6D22820B
p1770
aVSOHREGK12A58A7ED7D
p1771
aa(lp1772
VSOXGWCM12A8C13BBBF
p1773
aVSOTBJRI12A8C13BBA4
p1774
aa(lp1775
VSOCTDRV12A8C13DD2C
p1776
aVSOHWSEO12A8C13DC82
p1777
aa(lp1778
VSODODEZ12AB01808F2
p1779
aVSORGXAR12A8C141DA2
p1780
aa(lp1781
VSOTKMOB12AF72A5F87
p1782
aVSOSUSAU12A58A7A0C8
p1783
aVSOFADKH12AB01822F1
p1784
aVSOSURZF12A6D4F8133
p1785
aa(lp1786
VSOCCPYP12A8C13FBEC
p1787
aVSOTWKOD12A8C13FA24
p1788
aVSOQNNWP12A58A81799
p1789
aa(lp1790
VSOFCRLS12AB0182737
p1791
aVSOFRUWY12D021B5796
p1792
aa(lp1793
VSOIFFBE12A6D4FB4E6
p1794
aVSOKFLTD12A8C142D54
p1795
aVSOXQKWT12A8C140751
p1796
aVSOVEHQH12A6D4F5F56
p1797
aa(lp1798
VSOBCLSR12A58A7D1CC
p1799
aVSOWPWZG12A58A7DC65
p1800
aVSOXVMBE12AB0183314
p1801
aa(lp1802
VSOMVQWD12A8C13BDE7
p1803
aVSOBARPU12A6701DF95
p1804
aVSOUINJN12A6701DF94
p1805
aVSOOEQJW12AB0186244
p1806
aVSOJTCUH12A8C13DA93
p1807
aVSOKOZPV12A6701DF92
p1808
aVSOWXWKZ12A6701DFA2
p1809
aVSOVFBNX12A8C1423C9
p1810
aVSOQCPKR12A6701DF9C
p1811
aVSOQEUVJ12A6D4FD276
p1812
aVSOODTOK12A6701DF97
p1813
aVSONMDNW12A6701DF9A
p1814
aVSORGIGL12A6701DF96
p1815
aVSOTOSAA12A6701DF99
p1816
aa(lp1817
VSOMEMZY12A8AE45BB8
p1818
aVSOONIOG12AB0183964
p1819
aa(lp1820
VSODAOKO12A6D4FDAF9
p1821
aVSOWLBDM12A8C1363C0
p1822
aa(lp1823
VSOFCHIX12A8C139CEB
p1824
aVSOQZCYV12AF72A909B
p1825
aVSOBMYGH12A6D4F66E2
p1826
aa(lp1827
VSOMWVAD12A58A7C951
p1828
aVSOETQSU12A58A7E2A0
p1829
aVSOBNONE12A58A7842D
p1830
aa(lp1831
VSOLIUTU12A6D4FDC5C
p1832
aVSORZQTM12A6D4FA22E
p1833
aVSOVJOEW12AF72A3F13
p1834
aVSOFJDXD12AB0183568
p1835
aa(lp1836
VSOIGFML12AB017F3C7
p1837
aVSORFDSS12AB0181064
p1838
aVSOIBNHE12A58A7C8CC
p1839
aVSOWZAAJ12A8C132AD9
p1840
aVSOSMPFV12AB017E8E5
p1841
aa(lp1842
VSOFENWZ12A6701E2A4
p1843
aVSOSBGSZ12A81C21E63
p1844
aa(lp1845
VSOXWGHN12AB017C844
p1846
aVSOYZNIO12A8C13E0A3
p1847
aa(lp1848
VSOCWIWP12AB018D16D
p1849
aVSOLGWVZ12A8C13D2FE
p1850
aa(lp1851
VSOWZMCS12AB0181CAD
p1852
aVSOYTSSA12AB0181CB8
p1853
aVSOFXDKA12AB0181CC2
p1854
aa(lp1855
VSOEVXJA12A8C1361EF
p1856
aVSOADJND12A8C13BAE1
p1857
aa(lp1858
VSOAZICZ12AB018E7C5
p1859
aVSOUHWAQ12AF729A99C
p1860
aVSOVUYMP12A8C13D0BD
p1861
aVSOYYBEW12AB0184041
p1862
aa(lp1863
VSODKWQU12A6701FED2
p1864
aVSONAJEB12AAF3B2926
p1865
aa(lp1866
VSOPUHTW12A8C14222F
p1867
aVSOXQQWU12CF5F88415
p1868
aVSOJQZGT12AC4684FE4
p1869
aVSOAFHQV12A6D4FA7C3
p1870
aVSOOMNPL12AB017F76C
p1871
aVSOPPESA12AC4689104
p1872
aVSOZZGRT12AB0182625
p1873
aa(lp1874
VSOSHZCS12A81C23B67
p1875
aVSOYMDQQ12A8C13D4E4
p1876
aVSOKQBZU12A58A787DC
p1877
aVSOQWSTH12A6D4F58E7
p1878
aVSODGLOK12A6D4F70B5
p1879
aVSOKUPXF12AB0180E17
p1880
aa(lp1881
VSOVXUGH12AC46857D6
p1882
aVSOQDMNI12AB0180BAA
p1883
aVSOYURQM12A8C143F6A
p1884
aa(lp1885
VSOIDMFO12AB01892F1
p1886
aVSOTGONL12A58A7CB67
p1887
aVSOBGPNS12A6D4FACE4
p1888
aVSOQWLPS12A8AE4818E
p1889
aa(lp1890
VSOMWLBO12A67021628
p1891
aVSOQRJUT12A8AE46A1C
p1892
aa(lp1893
VSOKXSIX12A6310E291
p1894
aVSOSJVCO12A8C136E93
p1895
aa(lp1896
VSOPMTCS12AB0185999
p1897
aVSOSNHCW12AF72A5A1E
p1898
aa(lp1899
VSOTQYOM12A8C141457
p1900
aVSOCEVGD12A679D7E8B
p1901
aVSORYYRQ12AB017E015
p1902
aa(lp1903
VSOLDJRJ12A6D4FAF56
p1904
aVSONRZJU12AAF3B36D0
p1905
aa(lp1906
VSOIZKCR12AF72A8F9F
p1907
aVSOESOMQ12A58A7A87E
p1908
aa(lp1909
VSOIAQRV12A8C139D49
p1910
aVSOTAYSE12A8C13C8C5
p1911
aa(lp1912
VSOLPIQQ12A81C22BBB
p1913
aVSOMADOL12A6D4F7AD9
p1914
aVSOEDZTT12A81C22566
p1915
aa(lp1916
VSOQXENS12A58A7DD03
p1917
aVSOIYAVD12A6D4FA232
p1918
aa(lp1919
VSOJKDKH12A58A761A2
p1920
aVSOUCBXU12A6D4F6DF2
p1921
aa(lp1922
VSORDXPE12A81C1FDE9
p1923
aVSONWCUT12AC468ADC3
p1924
aVSOCPUYK12A81C22417
p1925
aa(lp1926
VSOKQZYZ12A58A7767E
p1927
aVSOTPNCT12A8C13FBA5
p1928
aVSOEBEPH12A8C132643
p1929
aVSOHSUZG12A8C139410
p1930
aa(lp1931
VSOFDKZO12AF72A652C
p1932
aVSORCQRX12AF72AC4CC
p1933
aVSOOIWVW12A6D4FA72B
p1934
aVSOPINCK12AB017DDD0
p1935
aVSODMSAR12A58A7A6D1
p1936
aVSOHUTNF12A8AE47E42
p1937
aVSOXIXRI12AB017F1A7
p1938
aVSOBBKGF12A8C1311EE
p1939
aVSOCBSNC12AB018A1FB
p1940
aVSOMLYJD12A58A7B155
p1941
aVSOMMZXG12D02197F93
p1942
aa(lp1943
VSOZVPGU12A6BD563A0
p1944
aVSOEKSGJ12A67AE227E
p1945
aa(lp1946
VSOSCUYW12A58A7BF6B
p1947
aVSOCCPYP12A8C13FBEC
p1948
aa(lp1949
VSOFIIVZ12A8C134698
p1950
aVSOQWFXD12A8C13B03B
p1951
aVSOZXTKD12A8C13FC43
p1952
aVSORXVTU12A8C13CC49
p1953
aa(lp1954
VSOQFBHP12AB017E896
p1955
aVSORVFRR12AB0181F10
p1956
aa(lp1957
VSOKTNVF12A6D4F794F
p1958
aVSOURUTK12A81C2097C
p1959
aVSOIAUJJ12A58A7FD28
p1960
aVSOOTLZX12AB017DC3F
p1961
aVSOWRWHX12A58A76F37
p1962
aVSORPLLH12A8C13FC0B
p1963
aVSOMCXXE12A6D4FB989
p1964
aa(lp1965
VSOOKLEE12A58A7D0B2
p1966
aVSOUTBHL12A8AE46724
p1967
aVSOKQAMG12A8AE46897
p1968
aa(lp1969
VSOIFEAC12AB018C497
p1970
aVSOURKHI12A8C13F90A
p1971
aVSOULYJM12A6D4FD736
p1972
aa(lp1973
VSOIMTDY12A6D4FC8BA
p1974
aVSONQAGO12A6D4FB140
p1975
aVSOVFRRK12A67AE23FC
p1976
aaa(lp1977
g1337
ag1340
ag1343
ag1605
ag1610
ag1614
ag1617
ag1468
ag1473
ag1476
ag1480
ag644
a(lp1978
VSOPKNYC12AF72A4BB0
p1979
aVSOPWWSS12AC4687BCA
p1980
aVSOKVJZH12A6310EC12
p1981
aa(lp1982
VSOREFIS12A6D4FE12D
p1983
aVSOIDPYS12AF72A2EC8
p1984
aVSOUZJMM12A6D4F5911
p1985
aa(lp1986
VSOMOKUT12AB017B6CA
p1987
aVSORHOGQ12A8AE46A82
p1988
aVSOHBNAC12A8C134968
p1989
aag1725
ag1728
ag1731
ag1957
ag1965
a(lp1990
VSOEDQXJ12A6D22723C
p1991
aVSOTPZCL12A6D4F99B9
p1992
aVSOJQONA12AF72A1268
p1993
aag1899
ag1903
ag581
ag585
ag588
ag591
a(lp1994
VSONJOKS12CF5F87DC6
p1995
aVSOCVQYV12A8C1341F4
p1996
aa(lp1997
VSONSVPC12A6701F6DB
p1998
aVSOAFKIH12A58A7E5E2
p1999
aVSOCSHJJ12A6D4FD110
p2000
aa(lp2001
VSOVTSDU12A58A7D4D6
p2002
aVSOEQWNZ12A6D4F787C
p2003
aVSOOJLSM12AB0180267
p2004
aag1199
ag1202
ag618
ag622
ag625
a(lp2005
VSOQMQXE12A6D4FA0E6
p2006
aVSOQHFWA12AAA8C6662
p2007
aag1207
ag1210
ag897
ag1255
ag1260
ag1265
ag1268
ag1272
ag1906
ag1909
a(lp2008
VSOXFFZO12AB017FD0B
p2009
aVSORYIXQ12AB0186E8E
p2010
aa(lp2011
VSOKCUHN12AB017B155
p2012
aVSOOMGNG12A8C143344
p2013
aa(lp2014
VSOXLVRT12A58A7E8F5
p2015
aVSOYOAAM12AB01841AD
p2016
aVSOHJRKR12AB0188738
p2017
aVSOINJVD12A6D4F91D3
p2018
aag861
ag864
ag485
ag489
ag28
ag1117
ag948
ag957
ag1010
ag1015
ag1018
ag1021
ag1024
ag1027
ag1030
a(lp2019
VSOXLVRT12A58A7E8F5
p2020
aVSORBMRY12A6D4FA230
p2021
aVSODAWDD12A6D4F825A
p2022
aVSOZERJS12AC9070FF3
p2023
aVSOQZRIM12A582917DD
p2024
aVSOLIJXB12A8C13F529
p2025
aVSOPJLQU12A8C132C78
p2026
aa(lp2027
VSOVASMV12A8C13E9BC
p2028
aVSOFLFMX12A58A806D7
p2029
aa(lp2030
VSOQWSTH12A6D4F58E7
p2031
aVSOIPCGZ12A8C13C805
p2032
aVSOLMWNQ12AB0187324
p2033
aa(lp2034
VSOVVHYA12A8C1429D9
p2035
aVSOCQENN12AB017C400
p2036
aVSOYPJUD12A8C142162
p2037
aag283
ag287
ag1641
ag1644
a(lp2038
VSOROUMG12A6D4FD1B9
p2039
aVSOUJZJM12A8C139C07
p2040
aag472
ag1790
ag1793
a(lp2041
VSOZZOKB12D02193475
p2042
aVSOBBZZS12AB018EC5C
p2043
aVSOSJDMN12AB017C3FC
p2044
aVSOJDTYX12A8C13B4D4
p2045
aVSOTMYHL12AAA8C666E
p2046
aVSOWVNPR12AB0182633
p2047
aVSOZSSUB12A58A7C965
p2048
aVSOHQAKK12A8C131323
p2049
aa(lp2050
VSOOTIAI12A6D4FCBE3
p2051
aVSOFVBGW12A8C136305
p2052
aVSOLOFYI12A8C145F8D
p2053
aag686
ag628
a(lp2054
VSOJLFET12A8C13BAB1
p2055
aVSOZXTKD12A8C13FC43
p2056
aVSOTVDJD12A58A7DACE
p2057
aVSOHGXWV12A8C13B0B6
p2058
aVSOGBIBP12AB018445C
p2059
aa(lp2060
VSODYPNA12A8C13EF7A
p2061
aVSOETHRI12A6D4FEACF
p2062
aag250
ag258
ag262
ag268
ag354
ag357
ag360
ag363
ag1231
ag1372
ag1380
ag290
ag1855
ag1858
ag652
ag655
ag843
a(lp2063
VSOCPCBA12A81C23BB3
p2064
aVSODOJAU12AAF3B39E0
p2065
aa(lp2066
VSOKQQGZ12AB017E71B
p2067
aVSOPYNEM12AB018A2E7
p2068
aVSOJZLKB12A6D4F8147
p2069
aVSOEWERY12A81C22D06
p2070
aag1851
ag216
ag1459
ag1462
ag1465
a(lp2071
VSOLJTDG12A6701DEA2
p2072
aVSOFWDCI12A6D4FADC4
p2073
aVSOVCZBU12AB0184C69
p2074
aVSOOFTQI12AB018520F
p2075
aVSOCJHKD12A58A7B85E
p2076
aVSOCSVVA12AB0186D97
p2077
aa(lp2078
VSOHHJYE12A8AE47599
p2079
aVSOIHJML12A6D4F5944
p2080
aVSOBUYOW12A58A7B4FF
p2081
aVSOWFPUV12D0219048C
p2082
aa(lp2083
VSOHFHQQ12A8AE479C9
p2084
aVSOXTOUC12AB0185A31
p2085
aVSOQXNDH12AC9074EC3
p2086
aa(lp2087
VSOJWJFW12AC468D7AF
p2088
aVSOURORV12A6701D018
p2089
aVSOEAJTP12A6310D999
p2090
aag1353
ag1356
ag399
a(lp2091
VSOCHYVZ12A6D4F5908
p2092
aVSOUFTTQ12A67AE2282
p2093
aa(lp2094
VSOHOJFZ12A8C1347B0
p2095
aVSOGHGJP12B34F1EB10
p2096
aVSOBARPU12A6701DF95
p2097
aa(lp2098
VSOLLASW12AB017B6D8
p2099
aVSOJWJAE12CF4E03F70
p2100
aVSOEXQHG12A6D4F6C4B
p2101
aVSOQYHNA12AB017B6D7
p2102
aa(lp2103
VSOMIXXT12D021B27DE
p2104
aVSOKQDCS12AF72A920F
p2105
aVSOPKNYC12AF72A4BB0
p2106
aVSOEKSGJ12A67AE227E
p2107
aag1540
ag1549
ag726
ag729
ag732
ag495
ag499
ag502
ag505
ag1831
ag1836
ag1820
ag1823
ag1827
ag1736
a(lp2108
VSOITJSB12A58A78CE2
p2109
aVSOQYRBR12A8A9D8635
p2110
aa(lp2111
VSOHXOMT12A58A79D9A
p2112
aVSODMXVR12A58A7CF3B
p2113
aa(lp2114
VSOYNEDF12AB0181CE1
p2115
aVSOUPMLF12A6701EAFE
p2116
aa(lp2117
VSOSPLQS12A6701D014
p2118
aVSOZOUVX12A8C133494
p2119
aa(lp2120
VSOBIUDH12A8C141FEA
p2121
aVSOQFUIJ12A67ADE7AD
p2122
aag381
ag386
ag316
ag321
ag325
a(lp2123
VSOXMNLZ12B0B8096A7
p2124
aVSOUITUQ12AB01864C0
p2125
aag1620
ag1623
ag1845
ag1848
ag1141
ag1144
ag1147
ag554
ag557
ag560
ag722
a(lp2126
VSOWZHOY12A6701F9FC
p2127
aVSOSCCAK12AB017BBA6
p2128
aVSOEDTMJ12D02192E6A
p2129
aVSOCEVGD12A679D7E8B
p2130
aVSOFLURK12A8C130037
p2131
aVSOCUXRT12A58A76100
p2132
aVSOWPZBG12CF5F88CAF
p2133
aVSOITRTA12A6D4F8261
p2134
aa(lp2135
VSOKABWZ12A58A79A73
p2136
aVSOKFLTD12A8C142D54
p2137
aag1275
ag1284
ag1817
ag1594
ag1599
ag367
ag712
ag716
ag719
a(lp2138
VSOOSVTO12A8C13EF96
p2139
aVSOETVAZ12A8C13BA02
p2140
aag220
ag224
a(lp2141
VSOKLWNT12A81C2331F
p2142
aVSOAWITH12A8C137054
p2143
aVSODAQTQ12A58A7974A
p2144
aa(lp2145
VSOWCKKC12A6D22721E
p2146
aVSOOMYWA12A58A78C8F
p2147
aa(lp2148
VSOFGSXE12A8C13391B
p2149
aVSOFKKUH12A6D4F855C
p2150
aVSOYXBLH12A8AE45E74
p2151
aag1572
a(lp2152
VSOWETGI12AF729F9BF
p2153
aVSOSGEMS12AB0187EF8
p2154
aa(lp2155
VSORTSYW12A6D4F74E8
p2156
aVSOCKJVP12A6D4F920C
p2157
aag890
ag894
a(lp2158
VSONYJFX12A6D4FA638
p2159
aVSOATHPO12A6D4FA622
p2160
aag70
ag79
ag1435
ag1438
ag1446
ag1449
a(lp2161
VSODAQAS12A67AE227A
p2162
aVSONAHZX12AB0186514
p2163
aVSOHXBBH12A6D4FAEFF
p2164
aa(lp2165
VSOZRQQV12AF72A15B4
p2166
aVSOXYVBL12A8AE46A8A
p2167
aVSOKINDT12A8AE46A29
p2168
aVSOWHMDT12A8C1386DC
p2169
aVSOALHOR12A8C13313F
p2170
aa(lp2171
VSOLWIQA12AB018F464
p2172
aVSONJXOU12AB0187FD5
p2173
aa(lp2174
VSOVLVKY12AB0182839
p2175
aVSOVNGRV12AB01859E9
p2176
aag1922
a(lp2177
VSOHQBVL12A6D4FEAA3
p2178
aVSOTPWBK12A8C13EFC0
p2179
aa(lp2180
VSOUCTDY12AB017E820
p2181
aVSOPDRJT12A58A7FD3C
p2182
aa(lp2183
VSOOMYWA12A58A78C8F
p2184
aVSOCWIWP12AB018D16D
p2185
aVSOHGNYK12A8C13FC28
p2186
aVSOQXENS12A58A7DD03
p2187
aag638
a(lp2188
VSOHOJFZ12A8C1347B0
p2189
aVSOHRPCQ12A8C133FCD
p2190
aVSOBNWSU12AB0187082
p2191
aVSOSEMEI12A58A7C561
p2192
aVSOOYBSP12A6D4FA1C2
p2193
aVSOSBPIQ12A6D4F81ED
p2194
aa(lp2195
VSOLDJLX12A6D4F9A78
p2196
aVSOPDJDP12AF729D061
p2197
aa(lp2198
VSOYOGCH12A6701F708
p2199
aVSOXSYVD12AB018431C
p2200
aVSOIIUFN12A6D4F9392
p2201
aVSOOROBN12AC468D9AD
p2202
aa(lp2203
VSOUNANQ12A8C13570B
p2204
aVSOIDMFO12AB01892F1
p2205
aVSODXTMM12AF729F8F1
p2206
aa(lp2207
VSOCIKSP12A8C141B16
p2208
aVSODXAFL12AB0186224
p2209
aVSOHBFUU12A6D4F9DD8
p2210
aag158
ag161
a(lp2211
VSOUHPXO12A6D4F6DFB
p2212
aVSOSSCZM12CF5F876FC
p2213
aa(lp2214
VSOIJEMR12A8C13489A
p2215
aVSOVCCLO12A67ADE810
p2216
aVSOBZBPR12A8BEEEAED
p2217
aVSOSWAIK12A6D4FD01E
p2218
aa(lp2219
VSOJLMWK12A8C131F05
p2220
aVSOFWCMX12A67AE248D
p2221
aa(lp2222
VSOQTBWH12AB0189872
p2223
aVSOYDQAZ12A67ADE635
p2224
aVSOCNKHO12A8AE487C1
p2225
aag513
ag519
a(lp2226
VSOXJYUM12A6D4FC419
p2227
aVSOGNVRF12A6D4FBEBA
p2228
aVSOIDZCR12A8C1352E0
p2229
aag641
ag1067
ag1302
ag1305
ag1308
ag1311
a(lp2230
VSOICAYG12A8C140718
p2231
aVSOKYOBT12A6D4FBBB0
p2232
aVSOWNFXB12A8C1300C3
p2233
aVSOTFSSW12A6D4FAF50
p2234
aVSOCQJLN12A58A7BD3E
p2235
aVSOZMUPO12A8C141C4B
p2236
aa(lp2237
VSOHFFLS12AB01897A5
p2238
aVSONYJFX12A6D4FA638
p2239
aVSOQXLRP12D021B3FF9
p2240
aVSOOHYZC12AC3DF92D3
p2241
aa(lp2242
VSOGWYHY12A58A7A18C
p2243
aVSOLLASW12AB017B6D8
p2244
aVSOQYHNA12AB017B6D7
p2245
aa(lp2246
VSOBSHGD12A8C13BFFA
p2247
aVSOBLJNC12A8C13B273
p2248
aa(lp2249
VSOLXVCD12A8C1357C4
p2250
aVSOTTKNV12A6D4FC9D4
p2251
aag207
ag213
ag166
ag171
ag175
ag179
ag1153
ag1156
ag1159
ag750
a(lp2252
VSOXZHMR12A8C13D468
p2253
aVSOETNOP12A8C137E42
p2254
aag901
ag906
ag705
ag708
ag1316
ag1319
ag1575
ag1578
ag1581
ag1584
ag1588
ag52
ag55
ag58
ag271
ag274
ag278
ag475
ag479
ag601
ag605
ag609
ag442
ag446
ag450
ag453
ag1234
ag1237
ag1565
ag370
ag374
ag377
ag1874
ag1881
ag1885
ag1890
ag1739
ag1742
ag1748
a(lp2255
VSOVKIEE12A8C135A5D
p2256
aVSOXDABH12A58A79F80
p2257
aa(lp2258
VSORZUFU12AB018DCA3
p2259
aVSOSYTCB12AB018181B
p2260
aa(lp2261
VSOXYJHK12A6D4F610B
p2262
aVSOUECXJ12AB0183AD7
p2263
aa(lp2264
VSOMTRKO12A8C134D55
p2265
aVSOXEHMJ12A6D4F71B7
p2266
aag876
ag829
ag834
ag837
ag1529
ag1532
ag1536
a(lp2267
VSOSRKRK12AB0187E72
p2268
aVSOYMCCZ12A6D4FB19E
p2269
aa(lp2270
VSOGXBBE12A8C13DFAD
p2271
aVSORTXGT12A58A78C42
p2272
aVSOZFLAU12AF729B9D1
p2273
aa(lp2274
VSOLIECS12A6310F220
p2275
aVSOZGGSL12A8C136A34
p2276
aVSOJBXIB12AB017F411
p2277
aVSOPFGEV12A8C1310B6
p2278
aVSOTTUGB12A6D4FBEE1
p2279
aVSOVSRZJ12A6D4F5902
p2280
aVSOBAXOE12A6D4F89EA
p2281
aVSOUXTDJ12A6D4F95B7
p2282
aa(lp2283
VSONETTP12A6D4FE995
p2284
aVSOWNFXB12A8C1300C3
p2285
aVSOGQXYA12A58A7DD57
p2286
aa(lp2287
VSODYPNA12A8C13EF7A
p2288
aVSOBCMWQ12AB0182DD3
p2289
aa(lp2290
VSODWCMM12A8C13FC22
p2291
aVSORUPKQ12A8C133063
p2292
aVSOXPOKH12A8C13F6F8
p2293
aa(lp2294
VSOWUXAM12A58A7C66B
p2295
aVSOYSRAD12A6D4FA4B1
p2296
aa(lp2297
VSODXLRR12A6D4F71BB
p2298
aVSOPHCFS12A8C13A237
p2299
aVSOHHYDD12A8C12FC19
p2300
aVSORFNBB12AB017E7CC
p2301
aa(lp2302
VSOHSDAD12A8C133D4C
p2303
aVSOMXOMA12A8C1339CE
p2304
aa(lp2305
VSOXOEUA12A8C140C38
p2306
aVSOMDNYJ12A8C140C5B
p2307
aa(lp2308
VSOXBZNR12A679D7E8E
p2309
aVSOYOLXA12A6D4F9057
p2310
aVSONFBXS12A6701FD97
p2311
aVSOQFBIB12AB018B34F
p2312
aa(lp2313
VSORFHOZ12A6701E129
p2314
aVSOWLTLV12A6D4F7B29
p2315
aVSONQXEU12A58A7DEC8
p2316
aVSOXRZVW12A5891D696
p2317
aVSOTLZFL12AF729EFB2
p2318
aVSOGDOYR12CF5F87D7E
p2319
aVSOIIZOK12A6D4F6F6F
p2320
aVSOBLKBC12AB017BA14
p2321
aag1124
ag1128
ag1248
ag1252
ag17
ag20
ag23
ag1969
ag1484
ag1695
ag1554
ag1557
ag1560
ag199
ag1407
ag736
ag739
ag744
ag1602
a(lp2322
VSOAIWBX12A8C13E0E1
p2323
aVSODMFXW12A8BEE954F
p2324
aVSOJVSTJ12A67ADC84A
p2325
aVSOUPAYP12AF72A3010
p2326
aVSOQSZJP12AB018182F
p2327
aVSOYBPSA12A8C13A4A4
p2328
aa(lp2329
VSOIBNHE12A58A7C8CC
p2330
aVSOTEMVZ12A58A7CF45
p2331
aVSOVFRRK12A67AE23FC
p2332
aVSOTZKTS12A6D4FAC66
p2333
aVSOHXCVP12A81C1FC64
p2334
aVSOONZQA12A81C1FDB6
p2335
aag90
ag94
ag97
ag1082
ag1085
ag1088
ag1091
a(lp2336
VSOYIHJU12A8C137E5A
p2337
aVSOXFGPX12A8C134135
p2338
aVSOVWALD12A6D4FD1C7
p2339
aa(lp2340
VSOPYYRN12A8C132EA0
p2341
aVSOJZJJZ12AB01874EE
p2342
aa(lp2343
VSOQPTKQ12AB01888C8
p2344
aVSOJCZLD12AB0185080
p2345
aa(lp2346
VSOPFFSY12A8AE45BAF
p2347
aVSOAKRPD12A6D4F9660
p2348
aa(lp2349
VSOXTYQC12B0B80664A
p2350
aVSOHHVCU12A8AE48C66
p2351
aa(lp2352
VSOOUIYM12AB018643C
p2353
aVSOSYKDC12A6D4FAD22
p2354
aa(lp2355
VSOJVNNI12AB0186FD1
p2356
aVSOCTPQN12AAF3B4D16
p2357
aa(lp2358
VSOKHLSV12A6D4F9849
p2359
aVSOCGCZO12B0B80671A
p2360
aag936
ag939
ag943
ag142
ag146
ag149
ag1349
ag1842
ag1071
ag1074
ag598
ag389
ag392
ag395
ag1100
ag1103
ag1107
ag1110
ag1114
ag1162
ag1165
ag1172
ag1179
ag307
ag312
ag689
ag693
ag697
ag701
ag1390
ag1393
ag1397
ag1401
ag1404
ag778
ag782
ag785
ag794
ag510
ag328
ag1410
ag1414
ag1419
ag1926
ag1931
ag1943
ag1648
a(lp2361
VSOWXDBX12AB01889B0
p2362
aVSOQSUON12A6701F8C0
p2363
aa(lp2364
VSOXXFCP12A6D4FA63C
p2365
aVSOGOEAI12A8AE47983
p2366
aVSOTBVWN12A6D4FBCDC
p2367
aVSOGOYOQ12AB018DF5C
p2368
aVSORUKZM12A6D4FEA9A
p2369
aVSOFCFVF12A6D4FD256
p2370
aVSOEXBXV12A8C13B22E
p2371
aag423
ag437
a(lp2372
VSOLUHAO12A8C13DD33
p2373
aVSOAMCVB12AB017F978
p2374
aag911
ag916
ag920
ag548
ag551
ag1651
ag1655
ag1660
ag1710
ag1713
ag1718
ag1242
ag1245
ag963
ag969
ag456
ag459
ag464
ag469
a(lp2375
VSOYVITW12A8C133534
p2376
aVSONPKXI12A8AE4672B
p2377
aVSOUTBHL12A8AE46724
p2378
aVSOPAVDV12A6D4F9333
p2379
aVSOTWYGT12A58A81923
p2380
aVSOPKPSW12AF72A2232
p2381
aa(lp2382
VSOEVRKK12AC9071B6B
p2383
aVSONOXGD12A58A77845
p2384
aag1893
ag1896
ag1131
ag1134
ag1137
ag808
ag817
ag753
ag758
a(lp2385
VSOWZBDK12A8C13A1D2
p2386
aVSOCKCOR12A8C136FEF
p2387
aVSOIGOQQ12AB01810C7
p2388
aVSOSUMIU12AB017C295
p2389
aa(lp2390
VSOJSMRT12A6D4F9846
p2391
aVSOBYMRL12A8C134793
p2392
aVSOIQDTP12A8C1319DC
p2393
aVSOCUXRT12A58A76100
p2394
aVSOXSYVD12AB018431C
p2395
aVSOMBPLA12AB01810CF
p2396
aa(lp2397
VSOTFJYO12A8C1366C8
p2398
aVSOHFQNC12A6D4F984F
p2399
aVSOJDTYX12A8C13B4D4
p2400
aVSOPXCDP12A8C132C59
p2401
aVSOSFNDX12AF729F917
p2402
aVSOFURDI12AF72A2D21
p2403
aVSOCBOGD12AB017FB3B
p2404
aa(lp2405
VSOBWKOS12A8C13B4D7
p2406
aVSOBCFKL12A8C13131E
p2407
aag634
ag343
ag351
ag840
ag563
ag571
ag574
ag577
a(lp2408
VSOUJDXN12A6D4F6580
p2409
aVSOEXMRA12AF729CD69
p2410
aVSODTZVX12A6D4F7B81
p2411
aVSOCYGKJ12A6D4F719F
p2412
aa(lp2413
VSOURWFB12AB0187513
p2414
aVSOTVQQA12A8C13392A
p2415
aVSORRQOC12AF729B2F2
p2416
aVSOSYUBV12A6D4F8531
p2417
aVSODVZOX12A8AE45E52
p2418
aa(lp2419
VSOCCJFV12A8AE45E4C
p2420
aVSOPUGWE12A8C13A839
p2421
aag879
ag883
ag887
ag1778
ag1781
ag1786
ag999
ag1004
ag1007
a(lp2422
VSOGHLKA12AB0188C89
p2423
aVSOLDZSK12AB01830CC
p2424
aVSOTSOUT12AB01814A5
p2425
aa(lp2426
VSOHZWLT12A8C137333
p2427
aVSOJCXUW12A81C21E45
p2428
aa(lp2429
VSOKRGBW12A58A78A60
p2430
aVSOLSIMQ12AB017D7EF
p2431
aa(lp2432
VSOEDFBH12A8C13924F
p2433
aVSODEWPM12AB017DF79
p2434
aa(lp2435
VSOMCNIO12A8C134D4C
p2436
aVSOGNQGT12AB01823C1
p2437
aag85
ag823
a(lp2438
VSOIFUEN12A8C13FC23
p2439
aVSOXKDPI12A6D228263
p2440
aVSOIBNGS12AF72A2E7D
p2441
aa(lp2442
VSOKROMF12AF72A2257
p2443
aVSOUVHWD12A58A7B9AC
p2444
aVSOCOXHI12A8C140F4A
p2445
aVSOGQSXX12A58A7F6A1
p2446
aVSOQZMEJ12A58A79576
p2447
aag1765
ag1768
ag1754
ag1757
ag1761
ag530
ag536
ag539
ag543
ag1665
ag1671
a(lp2448
VSOHBRVG12AB01849FE
p2449
aVSOIDDSN12AB01826A7
p2450
aVSOMFRUU12A81C2221D
p2451
aa(lp2452
VSOTAYFE12A6D4FA202
p2453
aVSOWATND12A58A783D8
p2454
aag798
ag801
ag804
ag1423
ag1426
ag1432
ag1772
ag1775
aa(lp2455
g948
ag957
ag554
ag557
ag560
ag3
ag13
ag1831
ag1836
ag2111
ag2114
ag2117
ag2120
ag513
ag519
ag2408
ag2413
ag2419
ag354
ag357
ag360
ag363
ag1912
ag1916
ag1919
ag897
ag1710
ag1713
ag1718
ag1739
ag1742
ag1748
ag316
ag321
ag325
ag1410
ag1414
ag1419
ag843
ag890
ag894
ag644
ag1906
ag1909
ag1893
ag1896
ag495
ag499
ag502
ag505
ag2123
ag612
a(lp2456
VSOEMEUQ12A6D4FD197
p2457
aVSOIZKCR12AF72A8F9F
p2458
aVSOROUMG12A6D4FD1B9
p2459
aa(lp2460
VSOXOWWW12A8C1396AA
p2461
aVSOLNPNF12A6D4F8337
p2462
aag1199
ag1202
ag2361
ag2364
ag2283
ag2287
ag2290
ag2141
ag2145
ag2148
a(lp2463
VSORZIGW12A8C133027
p2464
aVSOHOJFZ12A8C1347B0
p2465
aVSOALFGB12A58A77BE0
p2466
aVSOTBDME12A8AE46863
p2467
aa(lp2468
VSODUBJV12A58A79317
p2469
aVSOLZYFN12AF729F78B
p2470
aVSODMTVY12AB017DA84
p2471
aag28
ag1778
ag1781
ag1786
ag227
ag232
ag2183
ag1153
ag1156
ag1159
ag1242
ag1245
ag861
ag864
ag705
ag708
ag1337
ag1340
ag1343
ag1676
ag1683
ag2249
ag1100
ag1103
ag1107
ag1110
ag1114
ag1260
ag1265
ag1268
ag1272
ag631
a(lp2472
VSOMQSYN12A8C13FA78
p2473
aVSOHLTHW12AC4688435
p2474
aag442
ag446
ag450
ag453
ag290
ag472
ag1353
ag1356
ag736
ag739
ag744
ag1499
ag1502
ag1507
ag1510
ag188
ag193
ag1922
ag128
ag132
ag235
ag238
ag243
ag247
ag1094
ag1097
ag1620
ag1623
ag1602
ag936
ag939
ag943
ag712
ag716
ag719
ag1575
ag1578
ag1581
ag1584
ag1588
ag1372
ag1380
ag1817
ag1874
ag1881
ag1885
ag1890
ag1117
ag722
ag2267
ag2270
ag2274
a(lp2475
VSOLOFYI12A8C145F8D
p2476
aVSODGOZT12A6D4FCE88
p2477
aVSOTOHHT12A6D4F957B
p2478
aVSOEVRKK12AC9071B6B
p2479
aa(lp2480
VSOVEHQH12A6D4F5F56
p2481
aVSOENZNF12A8C135A02
p2482
aVSOIUXEF12A8AE479A3
p2483
aVSOPKHZS12A58A79F3C
p2484
aag399
ag1554
ag1557
ag1560
ag846
ag850
ag855
ag858
ag1423
ag1426
ag1432
ag17
ag20
ag23
ag2152
ag2155
ag1322
ag1325
ag1328
ag1333
ag2138
ag1010
ag1015
ag1018
ag1021
ag1390
ag1393
ag1397
ag1401
ag1404
ag166
ag171
ag175
ag179
ag250
ag258
ag262
ag268
ag615
ag1131
ag1134
ag1137
ag1359
ag1362
ag1365
ag1368
ag1058
ag1061
ag1064
ag307
ag312
ag158
ag161
ag1790
ag1793
ag456
ag459
ag464
ag469
ag1699
ag1703
ag1706
ag2038
ag1594
ag1599
ag823
a(lp2485
VSOKROMF12AF72A2257
p2486
aVSOVMNCJ12A6D4FA235
p2487
aVSOOVFNL12AB0184134
p2488
aag2385
ag2390
ag2397
ag2405
ag1629
ag1633
ag1636
ag298
ag301
ag304
ag601
ag605
ag609
ag199
ag283
ag287
ag1234
ag1237
ag876
ag868
ag873
a(lp2489
VSOXIVCS12A58A7A31F
p2490
aVSOCJLHN12AB017DA9A
p2491
aVSOCBUYN12AF72A5AC8
p2492
aag1275
ag1284
ag2438
ag2442
a(lp2493
VSOAIDZX12A8C13B3B6
p2494
aVSOKQMEQ12AB018DE0A
p2495
aVSOJZJJZ12AB01874EE
p2496
aVSOGEBUJ12AB01874F3
p2497
aa(lp2498
VSOEDSJC12A58A7C9F5
p2499
aVSOJWNJL12AC4687837
p2500
aVSODYDMB12AC46896F8
p2501
aVSOBNGBZ12A6D4FDA3C
p2502
aa(lp2503
VSOQXENS12A58A7DD03
p2504
aVSOIFUEN12A8C13FC23
p2505
aVSOZWFIQ12A8C132AFA
p2506
aVSOWFKEQ12A8C135670
p2507
aVSOWXDBX12AB01889B0
p2508
aag2158
ag1513
ag1522
ag343
ag351
ag1946
ag1949
ag1954
ag652
ag655
ag2126
ag2135
ag1754
ag1757
ag1761
ag70
ag79
ag1695
ag142
ag146
ag149
ag403
ag409
ag414
ag420
ag1024
ag1027
ag1030
ag1141
ag1144
ag1147
ag2071
ag2078
ag2083
ag2087
ag485
ag489
ag1407
ag1605
ag1610
ag1614
ag1617
ag689
ag693
ag697
ag701
ag1071
ag1074
ag2034
ag672
ag677
ag680
ag683
ag2177
ag763
ag1484
ag1124
ag1128
ag1207
ag1210
ag1969
ag220
ag224
ag1641
ag1644
ag2448
ag2452
ag1651
ag1655
ag1660
ag634
ag2336
ag2340
ag2343
ag2294
ag2297
ag2302
ag85
ag423
ag437
ag2008
ag2011
ag2014
a(lp2509
VSOSVPIQ12AF729E564
p2510
aVSOHIIDP12A8C13C775
p2511
aa(lp2512
VSOGZMOI12A6D4F8FBC
p2513
aVSOVIGOL12A6701F66A
p2514
aVSOIYBUD12A67020418
p2515
aVSOIUVXU12AF72A0EB0
p2516
aVSORJSVU12AB0182CDA
p2517
aag331
ag337
ag340
ag766
ag770
ag774
ag207
ag213
ag1926
ag1931
ag1943
ag2252
ag216
ag1851
ag2180
a(lp2518
VSOQUPNW12A8C13F507
p2519
aVSOPKWBW12A8C13A7ED
p2520
aa(lp2521
VSODMTVY12AB017DA84
p2522
aVSOWQIMX12A6D4F6581
p2523
aVSOBYCXP12AF72A0F3C
p2524
aVSOTZPLE12A8C138D29
p2525
aVSOSCCAK12AB017BBA6
p2526
aVSORUXBI12A8C13EB77
p2527
aVSOVRGFL12AC4687488
p2528
aa(lp2529
VSOUMPTB12A58A7DA40
p2530
aVSOLWOGD12A8C1339E4
p2531
aVSOGHLQD12A8C1412A6
p2532
aVSOGVQTZ12A6D4FB490
p2533
aa(lp2534
VSOXQNAK12A6D4FB00F
p2535
aVSOBOOXZ12A8C13AF83
p2536
aVSOZHHWK12A8C13F4E8
p2537
aag2322
ag2329
ag2372
ag2005
ag370
ag374
ag377
ag1215
ag1219
ag1223
ag1226
ag563
ag571
ag574
ag577
a(lp2538
VSOMTRKO12A8C134D55
p2539
aVSOHFHPR12AB018A522
p2540
aa(lp2541
VSODCGLC12AF72A10CE
p2542
aVSOWGGYD12A8C13E8D9
p2543
aa(lp2544
VSOSSAMK12AB0181741
p2545
aVSOOGWYF12AB0180CDC
p2546
aVSONWRCQ12A8C140F53
p2547
aVSORSYSU12AF72A41E3
p2548
aVSOCSRDL12A58A7B1F6
p2549
aag1765
ag1768
ag879
ag883
ag887
ag328
ag1435
ag1438
ag1446
ag1449
ag1845
ag1848
ag2346
ag2349
ag2352
ag2355
ag2358
ag1316
ag1319
ag974
ag979
ag982
ag985
ag989
ag992
ag995
ag1488
ag1491
ag1494
ag911
ag916
ag920
ag2207
ag1990
a(lp2550
VSOWLKRY12AB018217D
p2551
aVSOAATHE12A8C13ADD6
p2552
aa(lp2553
VSOLDIAN12A8C13F496
p2554
aVSOHEFBW12A81C22BD7
p2555
aa(lp2556
VSOWAEAD12A8C137122
p2557
aVSORYIXQ12AB0186E8E
p2558
aag34
ag39
ag44
ag49
ag367
ag1855
ag1858
ag2246
ag2422
ag2426
ag2429
ag2432
ag2435
ag2054
ag2060
ag389
ag392
ag395
ag1255
ag1820
ag1823
ag1827
ag1994
ag1997
ag2001
ag113
ag119
ag2211
ag2214
ag2219
ag2222
ag1978
ag1982
ag1986
ag1736
ag2375
ag1082
ag1085
ag1088
ag1091
ag1459
ag1462
ag1465
ag1529
ag1532
ag1536
ag840
ag726
ag729
ag732
ag1798
ag1802
ag747
ag1067
ag1591
ag923
ag926
ag930
ag581
ag585
ag588
ag591
ag1455
ag1120
ag808
ag817
a(lp2559
VSOMTRKO12A8C134D55
p2560
aVSOWNPVL12A8C144A6F
p2561
aa(lp2562
VSOGCKET12A81C221CF
p2563
aVSOUNSFS12A8C132312
p2564
aa(lp2565
VSOWUXAM12A58A7C66B
p2566
aVSOMJIKH12A8C13E54A
p2567
aVSOJCXUW12A81C21E45
p2568
aVSODOCTN12AB018347D
p2569
aVSOGKSGW12A8C134161
p2570
aVSOEQTSX12AB0181101
p2571
aaa(lp2572
g1040
ag1043
ag1051
ag1054
ag1855
ag1858
ag207
ag213
ag722
ag1322
ag1325
ag1328
ag1333
ag1591
ag1255
ag113
ag119
ag641
ag581
ag585
ag588
ag591
ag2346
ag2349
ag2352
ag2355
ag2358
ag554
ag557
ag560
ag1407
ag1725
ag1728
ag1731
ag1651
ag1655
ag1660
ag2180
ag548
ag551
ag689
ag693
ag697
ag701
a(lp2573
VSOSLSLS12A8C135B5F
p2574
aVSOVJDOE12CF5CFC4C7
p2575
aVSOTFJYO12A8C1366C8
p2576
aa(lp2577
VSOBBZZS12AB018EC5C
p2578
aVSOSJYDL12A679D7E6E
p2579
aa(lp2580
VSOXQFGA12A6701F7A9
p2581
aVSONIWWJ12A8C134912
p2582
aVSOMAIEW12A6D4F591E
p2583
aVSOTLNEX12A8C145CAE
p2584
aVSOZLDVG12A6701ED42
p2585
aVSOSTXVR12A6701CD79
p2586
aVSOVLGTO12A8C1348EE
p2587
aVSOKABZD12A6D4F7CC2
p2588
aVSOKWMPC12A6D4FA41B
p2589
aVSOWOGAV12AB01857D7
p2590
aVSOZXSYC12A8C132B85
p2591
aVSOGWFYN12A8C14413D
p2592
aag1024
ag1027
ag1030
ag1790
ag1793
ag2448
ag2452
ag227
ag232
ag1234
ag1237
ag100
ag103
ag106
ag110
ag911
ag916
ag920
ag2249
ag128
ag132
ag1141
ag1144
ag1147
ag1423
ag1426
ag1432
ag1248
ag1252
ag726
ag729
ag732
ag2489
ag1605
ag1610
ag1614
ag1617
ag1372
ag1380
ag475
ag479
ag766
ag770
ag774
ag1459
ag1462
ag1465
ag1390
ag1393
ag1397
ag1401
ag1404
ag628
ag1695
ag1648
ag298
ag301
ag304
ag2463
ag2468
ag1912
ag1916
ag1919
ag199
ag70
ag79
ag2485
ag513
ag519
ag1275
ag1284
ag2138
ag1349
ag271
ag274
ag278
ag808
ag817
ag753
ag758
ag1302
ag1305
ag1308
ag1311
ag1665
ag1671
ag1359
ag1362
ag1365
ag1368
ag442
ag446
ag450
ag453
ag220
ag224
a(lp2593
VSOOMZCF12A81C228EB
p2594
aVSODOKRA12AB018B189
p2595
aa(lp2596
VSOXAXZP12AB017F022
p2597
aVSORCQRX12AF72AC4CC
p2598
aa(lp2599
VSOUJDXN12A6D4F6580
p2600
aVSOEVRKK12AC9071B6B
p2601
aVSOSXVPB12AB017D9FC
p2602
aag1242
ag1245
ag1575
ag1578
ag1581
ag1584
ag1588
ag2372
ag1831
ag1836
ag2283
ag2287
ag2290
ag216
ag2493
ag2498
ag2503
ag2126
ag2135
ag2509
ag2512
ag367
ag495
ag499
ag502
ag505
ag963
ag969
ag1874
ag1881
ag1885
ag1890
ag2071
ag2078
ag2083
ag2087
ag763
ag1215
ag1219
ag1223
ag1226
ag2183
ag1798
ag1802
ag1071
ag1074
ag798
ag801
ag804
ag1554
ag1557
ag1560
ag861
ag864
ag1602
ag615
ag1499
ag1502
ag1507
ag1510
ag2152
ag2155
ag1736
ag2385
ag2390
ag2397
ag2405
ag1410
ag1414
ag1419
ag1778
ag1781
ag1786
ag1353
ag1356
ag1529
ag1532
ag1536
ag1978
ag1982
ag1986
ag34
ag39
ag44
ag49
ag158
ag161
ag1120
ag316
ag321
ag325
ag948
ag957
ag2475
ag2480
ag1926
ag1931
ag1943
ag1117
ag142
ag146
ag149
ag1058
ag1061
ag1064
ag974
ag979
ag982
ag985
ag989
ag992
ag995
ag403
ag409
ag414
ag420
ag2361
ag2364
ag750
ag634
ag1629
ag1633
ag1636
ag2207
ag85
ag879
ag883
ag887
ag644
ag1484
ag2408
ag2413
ag2419
ag2252
ag2230
ag2237
ag2242
ag601
ag605
ag609
ag235
ag238
ag243
ag247
ag166
ag171
ag175
ag179
ag2188
ag2195
ag2198
ag2203
ag1100
ag1103
ag1107
ag1110
ag1114
ag652
ag655
ag1094
ag1097
ag122
ag125
ag2322
ag2329
a(lp2603
VSOJFGND12A6D4FDC36
p2604
aVSOMADOL12A6D4F7AD9
p2605
aa(lp2606
VSOOSCVF12A8C137E14
p2607
aVSOUFEUL12A8C130EC2
p2608
aa(lp2609
VSOETNOP12A8C137E42
p2610
aVSOZELZM12A6D222820
p2611
aag598
ag2111
ag2114
ag2117
ag2120
ag2091
ag2094
ag2098
ag2103
ag923
ag926
ag930
ag658
ag661
ag669
ag2123
ag1957
ag1965
ag28
ag747
ag1994
ag1997
ag2001
ag2108
ag1845
ag1848
ag1316
ag1319
ag1260
ag1265
ag1268
ag1272
ag3
ag13
ag1922
ag936
ag939
ag943
a(lp2612
VSOAIVZL12A8C139DFB
p2613
aVSOHVEKY12A6D4FE9B5
p2614
aag705
ag708
ag1010
ag1015
ag1018
ag1021
ag612
ag631
ag672
ag677
ag680
ag683
ag17
ag20
ag23
ag1455
ag901
ag906
ag2161
ag2165
ag2171
ag2174
ag1513
ag1522
ag1689
ag1692
ag1641
ag1644
ag250
ag258
ag262
ag268
ag2054
ag2060
ag1851
ag1231
ag2255
ag2258
ag2261
ag2264
ag1435
ag1438
ag1446
ag1449
ag2518
ag2521
ag2529
ag2534
ag1739
ag1742
ag1748
ag1676
ag1683
ag2559
ag2562
ag2565
ag1817
ag2538
ag2541
ag2544
ag331
ag337
ag340
ag1893
ag1896
ag2008
ag2011
ag2014
ag1842
ag1337
ag1340
ag1343
ag188
ag193
ag1468
ag1473
ag1476
ag1480
ag1594
ag1599
ag2041
ag2050
ag2375
ag1565
ag2472
ag2034
ag381
ag386
a(lp2615
VSOGLBDH12AB018847B
p2616
aVSOQYHNA12AB017B6D7
p2617
aVSOXQFGA12A6701F7A9
p2618
aVSOEHKIP12A6D4F97E7
p2619
aa(lp2620
VSODIFQT12A8AE46A37
p2621
aVSOQOLBX12AC3DF9FEF
p2622
aVSOSAAPR12A8AE48CE7
p2623
aa(lp2624
VSOLZMIL12A8C135BCA
p2625
aVSOPUUCJ12A8AE46447
p2626
aa(lp2627
VSOMMZXG12D02197F93
p2628
aVSOOCKPO12A67021D10
p2629
aVSOKMHKY12AF72AB079
p2630
aVSODENEC12AB018289A
p2631
aag736
ag739
ag744
ag2267
ag2270
ag2274
ag823
ag283
ag287
ag876
ag2336
ag2340
ag2343
ag1207
ag1210
ag1067
ag90
ag94
ag97
ag618
ag622
ag625
ag1772
ag1775
ag307
ag312
ag2294
ag2297
ag2302
ag1820
ag1823
ag1827
ag2038
ag2158
aa(lp2632
g1275
ag1284
ag798
ag801
ag804
ag1260
ag1265
ag1268
ag1272
ag644
ag601
ag605
ag609
ag843
ag840
ag307
ag312
ag1851
ag1739
ag1742
ag1748
ag861
ag864
ag2063
ag2066
ag2071
ag2078
ag2083
ag2087
ag1946
ag1949
ag1954
ag1778
ag1781
ag1786
ag1842
ag2372
ag1124
ag1128
ag2177
ag2034
ag890
ag894
ag2041
ag2050
ag2375
ag2322
ag2329
ag1906
ag1909
ag1602
ag354
ag357
ag360
ag363
ag652
ag655
ag2249
ag1390
ag1393
ag1397
ag1401
ag1404
ag442
ag446
ag450
ag453
ag1620
ag1623
ag389
ag392
ag395
ag62
ag66
ag2152
ag2155
ag2054
ag2060
ag85
ag2422
ag2426
ag2429
ag2432
ag2435
ag2126
ag2135
ag207
ag213
ag1010
ag1015
ag1018
ag1021
ag328
ag142
ag146
ag149
ag1845
ag1848
ag1215
ag1219
ag1223
ag1226
ag736
ag739
ag744
ag974
ag979
ag982
ag985
ag989
ag992
ag995
ag1288
ag1291
ag1294
ag1298
ag1565
ag1024
ag1027
ag1030
ag1372
ag1380
ag1863
ag1866
ag188
ag193
ag271
ag274
ag278
ag712
ag716
ag719
ag2005
ag686
ag1695
ag2382
ag100
ag103
ag106
ag110
ag370
ag374
ag377
ag2493
ag2498
ag2503
ag1648
ag456
ag459
ag464
ag469
ag1893
ag1896
ag1629
ag1633
ag1636
ag2509
ag2512
ag1957
ag1965
ag90
ag94
ag97
ag1459
ag1462
ag1465
ag1499
ag1502
ag1507
ag1510
ag631
ag923
ag926
ag930
ag216
ag563
ag571
ag574
ag577
ag1554
ag1557
ag1560
ag1033
ag1036
ag2305
ag2308
ag2313
ag158
ag161
ag2559
ag2562
ag2565
ag2188
ag2195
ag2198
ag2203
ag2475
ag2480
ag1468
ag1473
ag1476
ag1480
ag510
ag808
ag817
ag2612
ag1435
ag1438
ag1446
ag1449
ag1817
ag1978
ag1982
ag1986
ag1141
ag1144
ag1147
ag1710
ag1713
ag1718
ag1736
ag2294
ag2297
ag2302
ag1082
ag1085
ag1088
ag1091
ag1255
ag250
ag258
ag262
ag268
ag747
ag634
ag1199
ag1202
ag1120
ag1689
ag1692
ag2111
ag2114
ag2117
ag2120
ag2123
ag17
ag20
ag23
ag999
ag1004
ag1007
ag1969
ag1990
ag2573
ag2577
ag2580
ag936
ag939
ag943
ag1322
ag1325
ag1328
ag1333
ag2463
ag2468
ag166
ag171
ag175
ag179
ag879
ag883
ag887
ag2336
ag2340
ag2343
ag1071
ag1074
ag1922
ag199
ag2207
ag2008
ag2011
ag2014
ag2183
ag1316
ag1319
ag1040
ag1043
ag1051
ag1054
ag1353
ag1356
ag1513
ag1522
ag1058
ag1061
ag1064
ag2255
ag2258
ag2261
ag2264
ag778
ag782
ag785
ag794
ag658
ag661
ag669
ag1242
ag1245
ag1423
ag1426
ag1432
ag753
ag758
ag3
ag13
ag235
ag238
ag243
ag247
ag1831
ag1836
ag1594
ag1599
ag1529
ag1532
ag1536
ag2361
ag2364
ag1231
ag1855
ag1858
ag1575
ag1578
ag1581
ag1584
ag1588
ag1153
ag1156
ag1159
ag911
ag916
ag920
ag475
ag479
ag1591
ag298
ag301
ag304
ag1651
ag1655
ag1660
ag423
ag437
ag2408
ag2413
ag2419
ag641
ag1605
ag1610
ag1614
ag1617
ag381
ag386
ag316
ag321
ag325
ag485
ag489
ag897
ag1641
ag1644
ag1162
ag1165
ag1172
ag1179
ag763
ag367
ag1874
ag1881
ag1885
ag1890
ag2226
ag2615
ag2620
ag2624
ag2627
ag399
ag1798
ag1802
ag122
ag125
ag672
ag677
ag680
ag683
ag2438
ag2442
ag2485
ag2448
ag2452
ag34
ag39
ag44
ag49
ag1754
ag1757
ag1761
ag1094
ag1097
ag1407
ag1234
ag1237
ag628
ag554
ag557
ag560
ag722
ag113
ag119
ag28
ag726
ag729
ag732
ag1248
ag1252
ag581
ag585
ag588
ag591
ag343
ag351
ag2603
ag2606
ag2609
ag846
ag850
ag855
ag858
ag1912
ag1916
ag1919
ag876
ag1899
ag1903
ag70
ag79
ag2158
ag2141
ag2145
ag2148
ag52
ag55
ag58
ag530
ag536
ag539
ag543
ag705
ag708
ag2246
ag1540
ag1549
ag829
ag834
ag837
ag472
ag1772
ag1775
ag220
ag224
ag1100
ag1103
ag1107
ag1110
ag1114
ag1302
ag1305
ag1308
ag1311
aa(lp2633
g1275
ag1284
ag879
ag883
ag887
ag85
ag100
ag103
ag106
ag110
ag495
ag499
ag502
ag505
ag2230
ag2237
ag2242
ag423
ag437
ag142
ag146
ag149
ag778
ag782
ag785
ag794
ag1468
ag1473
ag1476
ag1480
ag2038
ag840
ag1676
ag1683
ag1629
ag1633
ag1636
ag1353
ag1356
ag188
ag193
ag1855
ag1858
ag974
ag979
ag982
ag985
ag989
ag992
ag995
ag307
ag312
ag1594
ag1599
ag644
ag2382
ag1215
ag1219
ag1223
ag1226
ag2336
ag2340
ag2343
ag1912
ag1916
ag1919
ag1602
ag2177
ag923
ag926
ag930
ag2111
ag2114
ag2117
ag2120
ag1529
ag1532
ag1536
ag331
ag337
ag340
ag1410
ag1414
ag1419
ag2305
ag2308
ag2313
ag712
ag716
ag719
ag2180
ag1851
ag1739
ag1742
ag1748
ag1349
ag472
ag2008
ag2011
ag2014
ag235
ag238
ag243
ag247
ag316
ag321
ag325
ag216
ag2207
ag1499
ag1502
ag1507
ag1510
ag1260
ag1265
ag1268
ag1272
ag726
ag729
ag732
ag2448
ag2452
ag530
ag536
ag539
ag543
ag634
ag2183
ag34
ag39
ag44
ag49
ag1790
ag1793
ag2603
ag2606
ag2609
ag1651
ag1655
ag1660
ag2550
ag2553
ag2556
ag70
ag79
ag1893
ag1896
ag1207
ag1210
ag658
ag661
ag669
ag128
ag132
ag2283
ag2287
ag2290
ag641
ag2456
ag2460
ag2141
ag2145
ag2148
ag1648
ag808
ag817
ag2485
ag1162
ag1165
ag1172
ag1179
ag2408
ag2413
ag2419
ag1922
ag1024
ag1027
ag1030
ag2071
ag2078
ag2083
ag2087
ag2126
ag2135
ag2538
ag2541
ag2544
ag1033
ag1036
ag2054
ag2060
ag672
ag677
ag680
ag683
ag1058
ag1061
ag1064
ag763
ag2005
ag766
ag770
ag774
ag1863
ag1866
ag1390
ag1393
ag1397
ag1401
ag1404
ag1946
ag1949
ag1954
ag2294
ag2297
ag2302
ag747
ag2518
ag2521
ag2529
ag2534
ag370
ag374
ag377
ag612
ag354
ag357
ag360
ag363
ag1754
ag1757
ag1761
ag2593
ag2596
ag2599
ag381
ag386
ag1778
ag1781
ag1786
ag1248
ag1252
ag2267
ag2270
ag2274
ag343
ag351
ag166
ag171
ag175
ag179
ag1255
ag1513
ag1522
ag1565
ag2249
ag1153
ag1156
ag1159
ag548
ag551
ag1575
ag1578
ag1581
ag1584
ag1588
ag207
ag213
ag911
ag916
ag920
ag1231
ag563
ag571
ag574
ag577
ag2034
ag1124
ag1128
ag17
ag20
ag23
ag2385
ag2390
ag2397
ag2405
ag1071
ag1074
ag1689
ag1692
ag1906
ag1909
ag1695
ag1554
ag1557
ag1560
ag722
ag1842
ag689
ag693
ag697
ag701
ag2372
ag456
ag459
ag464
ag469
ag1082
ag1085
ag1088
ag1091
ag1926
ag1931
ag1943
ag628
ag1572
ag1242
ag1245
ag1435
ag1438
ag1446
ag1449
ag615
ag28
ag2138
ag2041
ag2050
ag1725
ag1728
ag1731
ag2226
ag2463
ag2468
ag1199
ag1202
ag1990
ag2246
ag283
ag287
ag2161
ag2165
ag2171
ag2174
ag2489
ag485
ag489
ag2019
ag2027
ag2030
ag901
ag906
ag328
ag1372
ag1380
ag290
ag1765
ag1768
ag1969
ag861
ag864
ag897
ag1316
ag1319
ag890
ag894
ag1288
ag1291
ag1294
ag1298
ag389
ag392
ag395
ag1591
ag686
ag1040
ag1043
ag1051
ag1054
ag1605
ag1610
ag1614
ag1617
ag1899
ag1903
ag442
ag446
ag450
ag453
ag2063
ag2066
ag1665
ag1671
ag843
ag999
ag1004
ag1007
ag868
ag873
ag2108
ag1874
ag1881
ag1885
ag1890
ag1094
ag1097
ag1845
ag1848
ag158
ag161
ag1957
ag1965
ag1131
ag1134
ag1137
ag1182
ag1190
ag1302
ag1305
ag1308
ag1311
ag510
ag90
ag94
ag97
ag554
ag557
ag560
ag1120
ag367
ag1798
ag1802
ag705
ag708
ag963
ag969
ag750
ag1831
ag1836
ag1488
ag1491
ag1494
ag1337
ag1340
ag1343
ag227
ag232
ag2322
ag2329
ag2612
ag1407
ag1817
ag1141
ag1144
ag1147
ag1484
ag2152
ag2155
ag638
ag1455
ag2472
ag1641
ag1644
aa(lp2634
g2063
ag2066
ag2322
ag2329
ag2188
ag2195
ag2198
ag2203
ag1322
ag1325
ag1328
ag1333
ag1359
ag1362
ag1365
ag1368
ag2346
ag2349
ag2352
ag2355
ag2358
ag354
ag357
ag360
ag363
ag2382
ag554
ag557
ag560
ag2252
ag1234
ag1237
ag1162
ag1165
ag1172
ag1179
ag2550
ag2553
ag2556
ag1459
ag1462
ag1465
ag28
ag2226
ag2485
ag510
ag1390
ag1393
ag1397
ag1401
ag1404
ag2152
ag2155
ag475
ag479
ag227
ag232
ag1131
ag1134
ag1137
ag2005
ag1513
ag1522
ag868
ag873
ag1094
ag1097
ag2249
ag1058
ag1061
ag1064
ag298
ag301
ag304
ag2448
ag2452
ag389
ag392
ag395
ag1337
ag1340
ag1343
ag2375
ag736
ag739
ag744
ag370
ag374
ag377
ag628
ag2361
ag2364
ag1082
ag1085
ag1088
ag1091
ag861
ag864
ag17
ag20
ag23
ag2305
ag2308
ag2313
ag220
ag224
ag1033
ag1036
ag2177
ag808
ag817
ag2230
ag2237
ag2242
ag2041
ag2050
ag399
ag563
ag571
ag574
ag577
ag1922
ag2593
ag2596
ag2599
ag2385
ag2390
ag2397
ag2405
ag901
ag906
ag826
ag963
ag969
ag1248
ag1252
ag142
ag146
ag149
ag843
ag2034
ag122
ag125
ag618
ag622
ag625
ag879
ag883
ag887
ag2438
ag2442
ag1790
ag1793
ag846
ag850
ag855
ag858
ag1468
ag1473
ag1476
ag1480
ag1484
ag2108
ag1372
ag1380
ag1067
ag188
ag193
ag689
ag693
ag697
ag701
ag1499
ag1502
ag1507
ag1510
ag999
ag1004
ag1007
ag1817
ag34
ag39
ag44
ag49
ag1423
ag1426
ag1432
ag2111
ag2114
ag2117
ag2120
ag747
ag1874
ag1881
ag1885
ag1890
ag1565
ag1893
ag1896
ag381
ag386
ag1754
ag1757
ag1761
ag2456
ag2460
ag485
ag489
ag2475
ag2480
ag1275
ag1284
ag2493
ag2498
ag2503
ag726
ag729
ag732
ag1455
ag722
ag2158
ag2038
ag1591
ag1260
ag1265
ag1268
ag1272
ag2573
ag2577
ag2580
ag1906
ag1909
ag1994
ag1997
ag2001
ag705
ag708
ag235
ag238
ag243
ag247
ag1100
ag1103
ag1107
ag1110
ag1114
ag1990
ag1820
ag1823
ag1827
ag750
ag1529
ag1532
ag1536
ag548
ag551
ag1302
ag1305
ag1308
ag1311
ag1736
ag1594
ag1599
ag766
ag770
ag774
ag1117
ag2422
ag2426
ag2429
ag2432
ag2435
ag328
ag1695
ag615
ag1554
ag1557
ag1560
ag1831
ag1836
ag2518
ag2521
ag2529
ag2534
ag686
ag2612
ag974
ag979
ag982
ag985
ag989
ag992
ag995
ag1641
ag1644
ag1842
ag403
ag409
ag414
ag420
ag923
ag926
ag930
ag2126
ag2135
ag601
ag605
ag609
ag1851
ag612
ag1575
ag1578
ag1581
ag1584
ag1588
ag1973
ag513
ag519
ag638
ag2180
ag2538
ag2541
ag2544
ag283
ag287
ag1778
ag1781
ag1786
ag2207
ag1407
ag1288
ag1291
ag1294
ag1298
ag2123
ag641
ag2336
ag2340
ag2343
ag948
ag957
ag2255
ag2258
ag2261
ag2264
ag1710
ag1713
ag1718
ag1207
ag1210
ag2054
ag2060
ag1969
ag1946
ag1949
ag1954
ag2603
ag2606
ag2609
ag85
ag113
ag119
ag307
ag312
ag1676
ag1683
ag199
ag2283
ag2287
ag2290
ag1665
ag1671
ag1040
ag1043
ag1051
ag1054
ag2141
ag2145
ag2148
ag634
ag207
ag213
ag829
ag834
ag837
ag1725
ag1728
ag1731
ag2267
ag2270
ag2274
ag2472
ag70
ag79
ag2138
ag166
ag171
ag175
ag179
ag250
ag258
ag262
ag268
ag1410
ag1414
ag1419
ag216
ag290
ag1845
ag1848
ag423
ag437
ag840
ag823
ag271
ag274
ag278
ag2091
ag2094
ag2098
ag2103
ag1349
ag1855
ag1858
ag1231
ag1798
ag1802
ag2463
ag2468
ag1912
ag1916
ag1919
ag1182
ag1190
ag1255
ag2408
ag2413
ag2419
ag2161
ag2165
ag2171
ag2174
ag2509
ag2512
ag1739
ag1742
ag1748
ag2246
ag3
ag13
ag778
ag782
ag785
ag794
ag672
ag677
ag680
ag683
ag1024
ag1027
ag1030
ag658
ag661
ag669
ag1765
ag1768
ag1435
ag1438
ag1446
ag1449
aa(lp2635
g2493
ag2498
ag2503
ag2322
ag2329
ag1831
ag1836
ag250
ag258
ag262
ag268
ag2573
ag2577
ag2580
ag227
ag232
ag1248
ag1252
ag1591
ag829
ag834
ag837
ag475
ag479
ag90
ag94
ag97
ag472
ag2518
ag2521
ag2529
ag2534
ag1851
ag2158
ag2559
ag2562
ag2565
ag2180
ag530
ag536
ag539
ag543
ag2615
ag2620
ag2624
ag2627
ag1435
ag1438
ag1446
ag1449
ag122
ag125
ag389
ag392
ag395
ag2422
ag2426
ag2429
ag2432
ag2435
ag634
ag846
ag850
ag855
ag858
ag188
ag193
ag1255
ag1778
ag1781
ag1786
ag2375
ag1990
ag2161
ag2165
ag2171
ag2174
ag890
ag894
ag1798
ag1802
ag1665
ag1671
ag2188
ag2195
ag2198
ag2203
ag2141
ag2145
ag2148
ag1100
ag1103
ag1107
ag1110
ag1114
ag1874
ag1881
ag1885
ag1890
ag1739
ag1742
ag1748
ag2252
ag3
ag13
ag271
ag274
ag278
ag1695
ag1648
ag1529
ag1532
ag1536
ag34
ag39
ag44
ag49
ag1058
ag1061
ag1064
ag823
ag672
ag677
ag680
ag683
ag1842
ag1124
ag1128
ag1554
ag1557
ag1560
ag2267
ag2270
ag2274
ag510
ag1459
ag1462
ag1465
ag2111
ag2114
ag2117
ag2120
ag843
ag2246
ag2108
ag1820
ag1823
ag1827
ag2475
ag2480
ag1410
ag1414
ag1419
ag113
ag119
ag1893
ag1896
ag712
ag716
ag719
ag1575
ag1578
ag1581
ag1584
ag1588
ag1067
ag747
ag1499
ag1502
ag1507
ag1510
ag1455
ag1912
ag1916
ag1919
ag290
ag601
ag605
ag609
ag2612
ag826
ag753
ag758
ag2126
ag2135
ag2346
ag2349
ag2352
ag2355
ag2358
ag1651
ag1655
ag1660
ag1594
ag1599
ag1033
ag1036
ag705
ag708
ag17
ag20
ag23
ag652
ag655
ag1689
ag1692
ag581
ag585
ag588
ag591
ag612
ag1620
ag1623
ag2593
ag2596
ag2599
ag1215
ag1219
ag1223
ag1226
ag1372
ag1380
ag52
ag55
ag58
ag1488
ag1491
ag1494
ag1407
ag2305
ag2308
ag2313
ag598
ag216
ag1024
ag1027
ag1030
ag618
ag622
ag625
ag2336
ag2340
ag2343
ag1973
ag158
ag161
ag778
ag782
ag785
ag794
ag2472
ag548
ag551
ag1725
ag1728
ag1731
ag1922
ag2091
ag2094
ag2098
ag2103
ag207
ag213
ag328
ag399
ag2211
ag2214
ag2219
ag2222
ag1234
ag1237
ag963
ag969
ag1094
ag1097
ag1602
ag563
ag571
ag574
ag577
ag1322
ag1325
ag1328
ag1333
ag554
ag557
ag560
ag128
ag132
ag1242
ag1245
ag2382
ag1162
ag1165
ag1172
ag1179
ag442
ag446
ag450
ag453
ag2226
ag1349
ag1423
ag1426
ag1432
ag1605
ag1610
ag1614
ag1617
ag2408
ag2413
ag2419
ag199
ag1117
ag923
ag926
ag930
ag1010
ag1015
ag1018
ag1021
ag381
ag386
ag1855
ag1858
ag485
ag489
ag1765
ag1768
ag2509
ag2512
ag2550
ag2553
ag2556
ag283
ag287
ag2034
ag1641
ag1644
ag1629
ag1633
ag1636
ag166
ag171
ag175
ag179
ag615
ag936
ag939
ag943
ag62
ag66
ag2538
ag2541
ag2544
ag736
ag739
ag744
ag513
ag519
ag901
ag906
ag2038
ag2448
ag2452
ag631
ag1817
ag1275
ag1284
ag1699
ag1703
ag1706
ag1540
ag1549
ag1946
ag1949
ag1954
ag2283
ag2287
ag2290
ag1353
ag1356
ag28
ag235
ag238
ag243
ag247
ag1199
ag1202
ag2485
ag2456
ag2460
ag70
ag79
ag2463
ag2468
ag726
ag729
ag732
ag798
ag801
ag804
ag403
ag409
ag414
ag420
ag2183
ag2054
ag2060
ag1565
ag2438
ag2442
ag750
ag2008
ag2011
ag2014
ag2177
ag1359
ag1362
ag1365
ag1368
ag1468
ag1473
ag1476
ag1480
ag100
ag103
ag106
ag110
ag1676
ag1683
ag2294
ag2297
ag2302
ag2063
ag2066
ag2230
ag2237
ag2242
ag686
ag911
ag916
ag920
ag367
ag722
ag1260
ag1265
ag1268
ag1272
ag2249
ag644
ag1845
ag1848
ag897
ag1390
ag1393
ag1397
ag1401
ag1404
ag316
ag321
ag325
ag641
ag1040
ag1043
ag1051
ag1054
ag1071
ag1074
ag974
ag979
ag982
ag985
ag989
ag992
ag995
ag1994
ag1997
ag2001
aa(lp2636
g1817
ag423
ag437
ag113
ag119
ag2509
ag2512
ag897
ag1710
ag1713
ag1718
ag472
ag1231
ag52
ag55
ag58
ag1488
ag1491
ag1494
ag911
ag916
ag920
ag2071
ag2078
ag2083
ag2087
ag85
ag1215
ag1219
ag1223
ag1226
ag2346
ag2349
ag2352
ag2355
ag2358
ag798
ag801
ag804
ag207
ag213
ag1117
ag513
ag519
ag2249
ag1699
ag1703
ag1706
ag2152
ag2155
ag638
ag1994
ag1997
ag2001
ag2493
ag2498
ag2503
ag808
ag817
ag1407
ag17
ag20
ag23
ag1199
ag1202
ag1423
ag1426
ag1432
ag2612
ag1459
ag1462
ag1465
ag2230
ag2237
ag2242
ag2322
ag2329
ag766
ag770
ag774
ag1153
ag1156
ag1159
ag923
ag926
ag930
ag1435
ag1438
ag1446
ag1449
ag2489
ag554
ag557
ag560
ag370
ag374
ag377
ag1248
ag1252
ag1010
ag1015
ag1018
ag1021
ag1337
ag1340
ag1343
ag1255
ag1665
ag1671
ag2038
ag1629
ag1633
ag1636
ag999
ag1004
ag1007
ag1641
ag1644
ag2305
ag2308
ag2313
ag381
ag386
ag1893
ag1896
ag2111
ag2114
ag2117
ag2120
ag1067
ag2141
ag2145
ag2148
ag122
ag125
ag331
ag337
ag340
ag747
ag1565
ag158
ag161
ag328
ag2518
ag2521
ag2529
ag2534
ag1275
ag1284
ag2123
ag2550
ag2553
ag2556
ag2573
ag2577
ag2580
ag1695
ag1100
ag1103
ag1107
ag1110
ag1114
ag1288
ag1291
ag1294
ag1298
ag1540
ag1549
ag2294
ag2297
ag2302
ag1602
ag876
ag2246
ag1513
ag1522
ag1124
ag1128
ag34
ag39
ag44
ag49
ag188
ag193
ag1182
ag1190
ag2375
ag290
ag1033
ag1036
ag442
ag446
ag450
ag453
ag2161
ag2165
ag2171
ag2174
ag1082
ag1085
ag1088
ag1091
ag2485
ag563
ag571
ag574
ag577
ag1410
ag1414
ag1419
ag1651
ag1655
ag1660
ag750
ag1725
ag1728
ag1731
ag2180
ag70
ag79
ag2385
ag2390
ag2397
ag2405
ag235
ag238
ag243
ag247
ag2475
ag2480
ag1372
ag1380
ag1676
ag1683
ag861
ag864
ag298
ag301
ag304
ag641
ag199
ag1620
ag1623
ag1302
ag1305
ag1308
ag1311
ag1957
ag1965
ag2019
ag2027
ag2030
ag612
ag1845
ag1848
ag2372
ag2207
ag250
ag258
ag262
ag268
ag1575
ag1578
ag1581
ag1584
ag1588
ag2603
ag2606
ag2609
ag1689
ag1692
ag753
ag758
ag1349
ag548
ag551
ag475
ag479
ag843
ag2252
ag90
ag94
ag97
ag403
ag409
ag414
ag420
ag2361
ag2364
ag1899
ag1903
ag974
ag979
ag982
ag985
ag989
ag992
ag995
ag1207
ag1210
ag2422
ag2426
ag2429
ag2432
ag2435
ag1855
ag1858
ag1499
ag1502
ag1507
ag1510
ag890
ag894
ag598
ag2108
ag307
ag312
ag2008
ag2011
ag2014
ag705
ag708
ag1605
ag1610
ag1614
ag1617
ag530
ag536
ag539
ag543
ag2593
ag2596
ag2599
ag712
ag716
ag719
ag128
ag132
ag644
ag2177
ag652
ag655
ag2559
ag2562
ag2565
ag2408
ag2413
ag2419
ag901
ag906
ag1071
ag1074
ag283
ag287
ag62
ag66
ag1234
ag1237
ag28
ag868
ag873
ag1851
ag689
ag693
ag697
ag701
ag2126
ag2135
ag672
ag677
ag680
ag683
ag1094
ag1097
ag658
ag661
ag669
ag1024
ag1027
ag1030
ag1484
ag826
ag2538
ag2541
ag2544
ag963
ag969
ag1739
ag1742
ag1748
ag2255
ag2258
ag2261
ag2264
ag2283
ag2287
ag2290
ag1468
ag1473
ag1476
ag1480
ag456
ag459
ag464
ag469
ag485
ag489
ag399
ag3
ag13
ag1973
ag1820
ag1823
ag1827
ag601
ag605
ag609
ag271
ag274
ag278
ag615
ag2463
ag2468
ag778
ag782
ag785
ag794
ag618
ag622
ag625
ag1162
ag1165
ag1172
ag1179
ag1648
ag726
ag729
ag732
ag2183
ag1554
ag1557
ag1560
ag1906
ag1909
ag2456
ag2460
ag2336
ag2340
ag2343
ag1990
ag2091
ag2094
ag2098
ag2103
ag879
ag883
ag887
ag2041
ag2050
ag581
ag585
ag588
ag591
ag823
ag840
ag1969
ag1912
ag1916
ag1919
ag1390
ag1393
ag1397
ag1401
ag1404
ag2382
ag2438
ag2442
ag100
ag103
ag106
ag110
aa(lp2637
g199
ag1153
ag1156
ag1159
ag1234
ag1237
ag1410
ag1414
ag1419
ag2493
ag2498
ag2503
ag1248
ag1252
ag1207
ag1210
ag890
ag894
ag1540
ag1549
ag1372
ag1380
ag840
ag1946
ag1949
ag1954
ag1275
ag1284
ag2071
ag2078
ag2083
ag2087
ag389
ag392
ag395
ag227
ag232
ag2593
ag2596
ag2599
ag1488
ag1491
ag1494
ag1435
ag1438
ag1446
ag1449
ag672
ag677
ag680
ag683
ag897
ag652
ag655
ag158
ag161
ag1620
ag1623
ag2336
ag2340
ag2343
ag343
ag351
ag618
ag622
ag625
ag1689
ag1692
ag3
ag13
ag948
ag957
ag1094
ag1097
ag843
ag2177
ag2161
ag2165
ag2171
ag2174
ag1513
ag1522
ag1641
ag1644
ag1141
ag1144
ag1147
ag1651
ag1655
ag1660
ag1778
ag1781
ag1786
ag1302
ag1305
ag1308
ag1311
ag1117
ag2123
ag1798
ag1802
ag142
ag146
ag149
ag826
ag1736
ag631
ag2538
ag2541
ag2544
ag766
ag770
ag774
ag634
ag1024
ag1027
ag1030
ag2294
ag2297
ag2302
ag1182
ag1190
ag911
ag916
ag920
ag2041
ag2050
ag1676
ag1683
ag2108
ag423
ag437
ag1605
ag1610
ag1614
ag1617
ag367
ag1407
ag1288
ag1291
ag1294
ag1298
ag1468
ag1473
ag1476
ag1480
ag2008
ag2011
ag2014
ag1899
ag1903
ag316
ag321
ag325
ag90
ag94
ag97
ag2375
ag823
ag307
ag312
ag750
ag2138
ag1423
ag1426
ag1432
ag2255
ag2258
ag2261
ag2264
ag1739
ag1742
ag1748
ag1120
ag2207
ag658
ag661
ag669
ag2422
ag2426
ag2429
ag2432
ag2435
ag1349
ag1322
ag1325
ag1328
ag1333
ag70
ag79
ag1957
ag1965
ag2518
ag2521
ag2529
ag2534
ag1565
ag999
ag1004
ag1007
ag563
ag571
ag574
ag577
ag1591
ag753
ag758
ag331
ag337
ag340
ag1162
ag1165
ag1172
ag1179
ag1817
ag1390
ag1393
ag1397
ag1401
ag1404
ag1994
ag1997
ag2001
ag166
ag171
ag175
ag179
ag638
ag1100
ag1103
ag1107
ag1110
ag1114
ag2152
ag2155
ag798
ag801
ag804
ag28
ag34
ag39
ag44
ag49
ag2346
ag2349
ag2352
ag2355
ag2358
ag689
ag693
ag697
ag701
ag17
ag20
ag23
ag1665
ag1671
ag128
ag132
ag220
ag224
ag1754
ag1757
ag1761
ag290
ag2246
ag2385
ag2390
ag2397
ag2405
ag1215
ag1219
ag1223
ag1226
ag207
ag213
ag1199
ag1202
ag2448
ag2452
ag2283
ag2287
ag2290
ag2111
ag2114
ag2117
ag2120
ag2249
ag1973
ag2005
ag475
ag479
ag2305
ag2308
ag2313
ag1990
ag2230
ag2237
ag2242
ag2141
ag2145
ag2148
ag1710
ag1713
ag1718
ag2382
ag808
ag817
ag936
ag939
ag943
ag923
ag926
ag930
ag1851
ag554
ag557
ag560
ag495
ag499
ag502
ag505
ag581
ag585
ag588
ag591
ag548
ag551
ag1499
ag1502
ag1507
ag1510
ag1969
ag763
ag1906
ag1909
ag901
ag906
ag1455
ag510
ag298
ag301
ag304
ag1082
ag1085
ag1088
ag1091
ag1231
ag1831
ag1836
ag1893
ag1896
ag2158
ag2550
ag2553
ag2556
ag2267
ag2270
ag2274
ag530
ag536
ag539
ag543
ag1926
ag1931
ag1943
ag1648
ag2615
ag2620
ag2624
ag2627
ag472
ag1820
ag1823
ag1827
ag2211
ag2214
ag2219
ag2222
ag2438
ag2442
ag1260
ag1265
ag1268
ag1272
ag641
ag188
ag193
ag216
ag1124
ag1128
ag879
ag883
ag887
ag271
ag274
ag278
ag1699
ag1703
ag1706
ag2472
ag2180
ag1071
ag1074
ag686
ag861
ag864
ag2372
ag250
ag258
ag262
ag268
ag1337
ag1340
ag1343
ag612
ag1554
ag1557
ag1560
ag1845
ag1848
ag2188
ag2195
ag2198
ag2203
ag2038
ag2573
ag2577
ag2580
ag829
ag834
ag837
ag601
ag605
ag609
ag1842
ag1572
ag403
ag409
ag414
ag420
ag381
ag386
ag2489
ag2034
ag1040
ag1043
ag1051
ag1054
ag2612
ag2603
ag2606
ag2609
ag328
ag846
ag850
ag855
ag858
ag963
ag969
ag1353
ag1356
ag2485
ag1242
ag1245
ag1912
ag1916
ag1919
ag2019
ag2027
ag2030
ag354
ag357
ag360
ag363
ag1033
ag1036
aa.