(lp1
(lp2
(lp3
VSOHYELI12A6D4FB32C
p4
aVSOBVXRL12AB017CB59
p5
aa(lp6
VSOCYIAJ12A8C1413FE
p7
aVSOQAJVB12A8C1332A1
p8
aa(lp9
VSOVVXVL12AB0183DF0
p10
aVSOBZBFS12AC468AFAF
p11
aVSOKBXLS12D021B2324
p12
aVSOLNWBO12D021B3D87
p13
aa(lp14
VSOWKXXX12A6D4FA798
p15
aVSOBPALD12A8C13F8B3
p16
aa(lp17
VSOBYSUB12AB017FDED
p18
aVSOHHWYI12AF72A98AE
p19
aVSOAGNIM12AB0185655
p20
aVSOBGWFG12AB018E63C
p21
aa(lp22
VSODLAXY12A8C144313
p23
aVSOCWIBZ12A8C142F36
p24
aa(lp25
VSOAOWRH12A8C1408A7
p26
aVSORQPVR12AB01851F4
p27
aVSOBRNRO12A6D4FA9D3
p28
aVSOLJAND12AB018A151
p29
aVSOAPVER12AB0181CA6
p30
aa(lp31
VSOUOOFS12A8C1434EB
p32
aVSOZXEDX12AB018B729
p33
aVSOKAWWA12A6701FD46
p34
aa(lp35
VSOQWIPM12A3F1EAE8A
p36
aVSOOSKUP12AC468736D
p37
aa(lp38
VSOAYWGF12D02197A24
p39
aVSOUOTWB12AB018252F
p40
aa(lp41
VSOFTJSH12A8C13FFAA
p42
aVSOCHAGI12A58A7AE79
p43
aVSOMZKKT12AB01885F8
p44
aa(lp45
VSOEWNBH12AB018BE9E
p46
aVSOFQHZX12AB018369D
p47
aa(lp48
VSOZUNSY12A6D4FA3A0
p49
aVSOEGDWK12A8C137D13
p50
aVSOUVBYS12A58A8055E
p51
aa(lp52
VSOAVLJR12AC46883DC
p53
aVSOBNWZK12A8C133A06
p54
aVSOTADUE12AC3DF5A98
p55
aVSOQBRAQ12A58A7D473
p56
aVSOMLECN12AAF3B46F6
p57
aa(lp58
VSOUGCSG12AB018369E
p59
aVSOEWNBH12AB018BE9E
p60
aa(lp61
VSOPICKM12CF5F870FE
p62
aVSOFXDZG12A8C1401F8
p63
aVSOFELCA12D021990DA
p64
aa(lp65
VSORCQJS12AB01829C5
p66
aVSOMWTWK12AB01860CD
p67
aVSOJBVFU12A8C145894
p68
aVSOEGDWK12A8C137D13
p69
aa(lp70
VSOGMFND12A58A7A543
p71
aVSOKCFQG12A8C13AC75
p72
aVSOFKTPP12A8C1385CA
p73
aVSOZVRWE12A58A7C718
p74
aVSOWRNMU12A8C1422A1
p75
aa(lp76
VSOSMMVL12AB017C656
p77
aVSOJGEPM12A8C133B54
p78
aa(lp79
VSOSMUQA12A67ADE273
p80
aVSOOCPQO12A8C137810
p81
aVSORZYGQ12A6701C566
p82
aa(lp83
VSODXAHM12A58A7D5DF
p84
aVSOYTFIE12A8C1355FD
p85
aa(lp86
VSOUMFZV12D021B0E0E
p87
aVSOONLAF12A8C135316
p88
aa(lp89
VSOIHMTC12A58A782DA
p90
aVSOYUXPW12C0DCFEDF8
p91
aa(lp92
VSOPVVAW12A8C14698A
p93
aVSOPATSO12AB018CCBE
p94
aVSOAVQAZ12A8C13496D
p95
aa(lp96
VSOZBGDQ12A8C13C86C
p97
aVSOEJZAD12AB0185552
p98
aVSOEHKGQ12A8C1438F6
p99
aa(lp100
VSOHXJFH12A6D4FA972
p101
aVSORNFND12A6D4F806A
p102
aVSOUTXNG12A8C137306
p103
aVSOVNKAC12AB018E26F
p104
aa(lp105
VSOMUGHH12A67AD8589
p106
aVSOKZBGM12A8C13E791
p107
aa(lp108
VSONUTWP12A58A7D429
p109
aVSOJXQNP12A58A7E668
p110
aa(lp111
VSOHJZMB12AAF3B1177
p112
aVSOSTJMY12A8C135882
p113
aVSODFFPB12A6D4F79ED
p114
aa(lp115
VSOVVLZC12AB0183782
p116
aVSOEEVIY12AB018606F
p117
aa(lp118
VSOIAJNL12AB017C3D1
p119
aVSOCCTNA12AB0180F17
p120
aa(lp121
VSOEYUJN12A6701D97A
p122
aVSOJCBCF12AB0186756
p123
aVSOEGQWM12A6D4F48A8
p124
aVSOKIHWP12AB017FA35
p125
aa(lp126
VSOCXNVW12AB0185313
p127
aVSOHBCUN12A679D8AB6
p128
aa(lp129
VSOMZCKT12AAF3B4E7C
p130
aVSOGTGWG12A58A7B7BB
p131
aa(lp132
VSOMSHMQ12AF72A04A5
p133
aVSOXMUIP12AB0187468
p134
aa(lp135
VSOJCEQL12A8C134914
p136
aVSONRZTJ12A6D4F92DF
p137
aVSOZXEDX12AB018B729
p138
aVSOEWSHH12AB018451C
p139
aa(lp140
VSOAVQAZ12A8C13496D
p141
aVSOEEVIY12AB018606F
p142
aa(lp143
VSOAIZOS12A8C1376E8
p144
aVSOBKSFZ12AB017FCBB
p145
aVSOBTTCV12A8C13E610
p146
aVSOPVVAW12A8C14698A
p147
aa(lp148
VSOUMJPJ12AB01847E1
p149
aVSOMTLUI12A8C13DC79
p150
aVSOXOUMN12AF72A01F5
p151
aa(lp152
VSOMWYWI12AB0184364
p153
aVSOEPJOT12A58A7D25C
p154
aa(lp155
VSOEZLJB12D0219A36B
p156
aVSOVFEHQ12A8C134BAE
p157
aa(lp158
VSOUXPBY12AF72AD052
p159
aVSODVALR12A8C143CF5
p160
aVSOALHPM12AB0182241
p161
aa(lp162
VSOGRVLU12AF72A0DDD
p163
aVSOMCLSH12A8C13A840
p164
aa(lp165
VSONBPOJ12A8AE45CFA
p166
aVSOUSOOB12A8C13371F
p167
aa(lp168
VSOJGEPM12A8C133B54
p169
aVSOUWWAR12AB0184C92
p170
aVSOHELTA12AC468BF98
p171
aa(lp172
VSOYZKLG12AB018679D
p173
aVSOJGEPM12A8C133B54
p174
aVSOGEISQ12AC468B5C1
p175
aa(lp176
VSOASCHE12A8C132A46
p177
aVSOGULQT12AB018D85E
p178
aVSOBKSFZ12AB017FCBB
p179
aa(lp180
VSOTGOTS12AAF3B2623
p181
aVSOAWYXV12A8C13B6CE
p182
aa(lp183
VSOHELTA12AC468BF98
p184
aVSOIIPBM12A8C133BB1
p185
aVSOTNOMR12AB0184BE6
p186
aVSOFNNNU12D02191E1E
p187
aVSOSDSAF127CF8DEAD9
p188
aVSOASAPP12AB0188411
p189
aVSOOPVEU12A58A7C259
p190
aa(lp191
VSOBTTCV12A8C13E610
p192
aVSOPVVAW12A8C14698A
p193
aa(lp194
VSOWKJDN12AB0183667
p195
aVSOGGFWR12AB017CD8D
p196
aVSOEGEFR12AB0186FBA
p197
aVSOEFZEX12AB0187677
p198
aa(lp199
VSOMKLEV12AB017EC14
p200
aVSOFZZWJ12A8C142C6E
p201
aVSOYKIOA12A6D4FA549
p202
aVSOPEYIY12AB018594C
p203
aa(lp204
VSOWIMYH12A6D4FA2F9
p205
aVSODZFBX12A6D4F81C8
p206
aa(lp207
VSOQSOMU12A8C1359EF
p208
aVSODIKEO12A67ADD027
p209
aa(lp210
VSOATJIP12AB0181233
p211
aVSOTEMHN12A8C137194
p212
aa(lp213
VSODEVGW12A8C135E5C
p214
aVSOCHMQU12A8C13257D
p215
aa(lp216
VSONCKRS12A8C133511
p217
aVSOSNDJY12AB01895A6
p218
aa(lp219
VSOVLECV12AC4687779
p220
aVSOOBFFR12A6D4F8528
p221
aa(lp222
VSOKITQX12A6D4FA547
p223
aVSOROWAJ12A6D4F92CD
p224
aa(lp225
VSOIJFDX12A8C140B64
p226
aVSOYDPOQ12A8C13CD64
p227
aa(lp228
VSOICVFJ12A8AE47FF0
p229
aVSOTNOOJ12A6D4F3C94
p230
aVSOBILME12A6701EEAB
p231
aa(lp232
VSOSGPPG12AB0189154
p233
aVSOAVQAZ12A8C13496D
p234
aa(lp235
VSOASILA12AB0182F08
p236
aVSOLHHKM12A6310F229
p237
aVSOTXKMS12A6D4F952B
p238
aa(lp239
VSOEXXLQ12A58A7A0CD
p240
aVSOCSRIF12AB018E4FC
p241
aa(lp242
VSOCSRIF12AB018E4FC
p243
aVSOPECOW12A6D4F85EB
p244
aa(lp245
VSOCHWTU12A8C136570
p246
aVSOSMELK12AB01859C8
p247
aa(lp248
VSOXZKRX12AF729FDCC
p249
aVSOERIBG12AB018A30C
p250
aa(lp251
VSOCNJYC12AB0181B1C
p252
aVSORCCHM12AF72A3147
p253
aVSOZXQDE12A8C13B674
p254
aa(lp255
VSOGTFXF12A6D4F8BF6
p256
aVSOASYLC12A6D4FA9CD
p257
aVSOHAHNT12AAA8C4AEB
p258
aa(lp259
VSOJIUCI12A8AE46FAD
p260
aVSOWQFSR12A8C134FB5
p261
aa(lp262
VSOGSUOZ12AB017BC8E
p263
aVSONYILQ12A6D4FBF19
p264
aa(lp265
VSOLUEZO12AAF3B20E4
p266
aVSODYAAB12A8C13DC61
p267
aa(lp268
VSOTAFNS12AB0180519
p269
aVSOXOUMN12AF72A01F5
p270
aa(lp271
VSOMZXZO12A6701D48E
p272
aVSODUMTM12A8C13AAE4
p273
aa(lp274
VSOPZORL12A8C13502C
p275
aVSOIFHRD12A58A7F00E
p276
aa(lp277
VSOHYBGY12AB0184723
p278
aVSOUKZGN12D021B24B1
p279
aa(lp280
VSOKDJML12A8C1379EC
p281
aVSOBQNQV12A8C135289
p282
aa(lp283
VSORMZDE12A6D4F92FB
p284
aVSOFYLIB12A58A7C207
p285
aVSOGAWOV12A6D4FB0A9
p286
aa(lp287
VSOFXSCG12A8C13210B
p288
aVSOOVYNH12A6D4F8246
p289
aVSOPGGLO12A8C142E4B
p290
aVSOSYCNZ12A6D4F8A67
p291
aa(lp292
VSORPQNW12AF72A1A37
p293
aVSOAAASR12AB018A516
p294
aa(lp295
VSOMPHXQ12D02199D03
p296
aVSOVSFSV12A58A7B88F
p297
aVSOGSMTN12A8C13CB1A
p298
aa(lp299
VSOHLHRN12CF5465207
p300
aVSOBTZSL12AC9DCB5F5
p301
aVSOMTXDX12AC9071B6F
p302
aa(lp303
VSOBERRT12AB017D1A0
p304
aVSOKBXMS12AB018E36F
p305
aa(lp306
VSOCCXLY12A8C1368B7
p307
aVSOJGJNR12A6D4F8800
p308
aa(lp309
VSOQLBOS12AB0186A58
p310
aVSOTZSWX12A8C13BF03
p311
aa(lp312
VSOBRAUQ12AAFF42AF7
p313
aVSOOTPVW12A8C142808
p314
aa(lp315
VSOUYVKW12A58A79DC8
p316
aVSOCUYCH12A58A7BFCA
p317
aa(lp318
VSOONHRH12D0219041D
p319
aVSORXQKF12A8C13FC2A
p320
aa(lp321
VSOVJJSL12A58A7F0E4
p322
aVSOZBQIA12A8C13E839
p323
aa(lp324
VSODOSAU12A58A79851
p325
aVSONKBKD12A81C21EFA
p326
aVSOUPMLT12A8C13818A
p327
aVSOSMMVL12AB017C656
p328
aVSOZDBVY12AB0189C9B
p329
aa(lp330
VSOJTGPK12AB0180482
p331
aVSOOUDUV12AB018C79B
p332
aa(lp333
VSOEMZKG12AB01838E6
p334
aVSOBTUID12A8C132C93
p335
aa(lp336
VSODRINB12A67020FDB
p337
aVSOTRJLS12A8C141625
p338
aa(lp339
VSOGMEES12A8C1379E9
p340
aVSOHWQVF12A6D4F88E1
p341
aa(lp342
VSOUZFIW12AC9075753
p343
aVSOFTSSY12A58A7A163
p344
aa(lp345
VSONKBKD12A81C21EFA
p346
aVSOHFYXM12A67020A82
p347
aVSOYXESQ12AB0184FD8
p348
aVSOTWLFJ12A6701D166
p349
aVSOJNHHE12AB0189C87
p350
aa(lp351
VSORZYGQ12A6701C566
p352
aVSOFBHTE12AB018308E
p353
aVSOKHBNN12A81C21F2F
p354
aVSOTHMMK12A3F1ED0B8
p355
aVSOCCQXG12A67ADCFEC
p356
aa(lp357
VSOAMRMZ12AB0184FC4
p358
aVSOBODEW12AAFF43934
p359
aa(lp360
VSOETMWD12A8C13BC77
p361
aVSOISUNX12A8C139B7E
p362
aa(lp363
VSOCJWEL12A8C13D4AC
p364
aVSORUZCV12A8C13BDA0
p365
aa(lp366
VSONCECB12A8AE4821F
p367
aVSOCXXWB12A8C13C09D
p368
aa(lp369
VSOASCHE12A8C132A46
p370
aVSOPXFUB12A58A7A12E
p371
aa(lp372
VSOFFDCQ12AB018D40E
p373
aVSONVXMD12AB0184105
p374
aVSOEMCPL12A8C12FE93
p375
aVSOBHRYY12A6D4FAB18
p376
aVSOJLVJT12AB0186A49
p377
aVSOHHWYI12AF72A98AE
p378
aVSOGFZEV12A6701E1A6
p379
aa(lp380
VSOQHPXC12A6310DAA4
p381
aVSOETWXC12AB0188E25
p382
aa(lp383
VSOMYXTA12AB0181836
p384
aVSOQLJNM12A8C139D6E
p385
aa(lp386
VSOACNMR12D02190036
p387
aVSOOVFLT12A6D4F74EB
p388
aa(lp389
VSONPKQR12AB018885D
p390
aVSOFZWBJ12AB01879A8
p391
aa(lp392
VSOUHRYW12A8C13E1F2
p393
aVSOCPAXL12A6D4F8F2F
p394
aVSOKAWWA12A6701FD46
p395
aa(lp396
VSOEMCPL12A8C12FE93
p397
aVSOVOJDU12A8C13ED39
p398
aVSOKDFTB12AB018063A
p399
aa(lp400
VSOXUDST12A6D4F6903
p401
aVSOXGJPW12A6D4F79C8
p402
aa(lp403
VSODBKRY12A6D4F71AE
p404
aVSOJXZCH12A6D4F7DA8
p405
aa(lp406
VSOABCOF12AAF3B3EB5
p407
aVSOFFLXW12A58A7E3B4
p408
aa(lp409
VSOSOZKR12AB017FF52
p410
aVSOCCZIF12A6D4F6033
p411
aa(lp412
VSOCLBKC12AB0183022
p413
aVSOAADYE12A58A7A804
p414
aVSOCXBPD12A8C140B6B
p415
aa(lp416
VSOMWFLP12AC468B6F0
p417
aVSOYIPRJ12D021B3CBD
p418
aVSOAUXWZ12A8C1335B9
p419
aVSOCLZGX12A58A7A55A
p420
aVSOCGBOA12A6D4FA05D
p421
aa(lp422
VSOFWXAV12AB0189EF7
p423
aVSOEMWZT12AB0184AC9
p424
aa(lp425
VSOJKVWW12A81C207EA
p426
aVSOPIOCP12A8C13A322
p427
aa(lp428
VSOGWAEF12A6D4F7FF0
p429
aVSOBPVXY12AC468AC29
p430
aVSOLZVFP12D021907D6
p431
aa(lp432
VSOCNAFL12A8C1338EF
p433
aVSOITUDE12A58A7969D
p434
aa(lp435
VSOJDRPK12AB017ECB9
p436
aVSOKHHZJ12A8AE47AE0
p437
aa(lp438
VSOGAQRO12A67020936
p439
aVSOEZQJP12A6D4F8BEA
p440
aa(lp441
VSOAGQHS12A8C1341EB
p442
aVSOULLGL12AB0187728
p443
aVSOGHBFX12AB01891A8
p444
aa(lp445
VSOOGZEL12A8C13C67A
p446
aVSOJOJAW12A6D4F8529
p447
aVSODZNCT12A8C13DC23
p448
aa(lp449
VSOUAFNC12A8C1344E2
p450
aVSOBODEW12AAFF43934
p451
aa(lp452
VSOBEEYW12AB0183B95
p453
aVSOLZVFP12D021907D6
p454
aVSOIKZCP12A8C130073
p455
aVSOSDSAF127CF8DEAD9
p456
aa(lp457
VSOGBYUP12A8C1390B1
p458
aVSOCGDKD12A67020A62
p459
aVSOVKIQV12A6D4F98F3
p460
aa(lp461
VSOMWYWI12AB0184364
p462
aVSOXZIPJ12A6D4F98D2
p463
aa(lp464
VSOUGTOK12A58A7C139
p465
aVSOOAIVD12AF72ACDDD
p466
aa(lp467
VSOEVFLP12A6D4F8782
p468
aVSONEDCY12AB0188308
p469
aa(lp470
VSOADTBZ12A8C14290C
p471
aVSOVHANK12AB018191F
p472
aa(lp473
VSOFIRMV12AB018BB15
p474
aVSORDOJF12A8C134D47
p475
aa(lp476
VSOXYSKL12A8C137E69
p477
aVSONHKAA12AB018A4B2
p478
aa(lp479
VSOLTBJJ12AB017D6F7
p480
aVSOCSRIF12AB018E4FC
p481
aa(lp482
VSOMYVZX12AB0181BE0
p483
aVSOINYCS12AB01842AE
p484
aa(lp485
VSOEJNPW12A8C138AC6
p486
aVSOHELTA12AC468BF98
p487
aa(lp488
VSODXVXG12A8AE4757D
p489
aVSOLESLE12A6D4FAE86
p490
aa(lp491
VSOQTSJM12A6701C760
p492
aVSOSYNPJ12AAFF41AD3
p493
aa(lp494
VSOHEOSK12AF72A6AC7
p495
aVSOZOPLC12A8C134DE3
p496
aa(lp497
VSOAYTDZ12AC468B4B2
p498
aVSOEJEWS12A58A801C9
p499
aa(lp500
VSONQWXT12CF5F87F17
p501
aVSOJRWCQ12AC4686FFD
p502
aa(lp503
VSOYIVXG12AB018CCC5
p504
aVSOPYMBO12AB0188475
p505
aa(lp506
VSOJLVJT12AB0186A49
p507
aVSOMJQMH12A8C1364C5
p508
aa(lp509
VSOHELTA12AC468BF98
p510
aVSOKVSNX12A670213BF
p511
aVSOVRLBQ12AB018073E
p512
aVSOJZSGI12A8C13B666
p513
aVSOFUKIE12AB018841D
p514
aa(lp515
VSOWXFHV12A8C142A76
p516
aVSOAIOUI12A6D4F9309
p517
aa(lp518
VSOFUKIE12AB018841D
p519
aVSOIOSMN12AB018749E
p520
aa(lp521
VSOCSAEN12A8C138063
p522
aVSOSXMJQ12A8C1383EB
p523
aa(lp524
VSOJLVJT12AB0186A49
p525
aVSOYLZNF12AB017D388
p526
aVSOFCRDI12AB017C456
p527
aa(lp528
VSOTINGP12A58A77F12
p529
aVSOYDAEE12A58A7B984
p530
aa(lp531
VSOTFBQI12AB01884BF
p532
aVSOLQOIZ12A8C142AE2
p533
aa(lp534
VSOHGJOX12AB018693F
p535
aVSOQLBOS12AB0186A58
p536
aa(lp537
VSOIIBKJ12AB017DB0C
p538
aVSOUTVLT12A8C136DB7
p539
aVSOQJLDY12AAF3B456D
p540
aVSOPBUBP12A8C135BA4
p541
aa(lp542
VSOKLVFF12A8C136DB3
p543
aVSOQWADM12AF72AA8EF
p544
aa(lp545
VSOEAWAZ12AB01858D5
p546
aVSOTJPGU12A8C132F58
p547
aa(lp548
VSOWOAXK12A6310D81F
p549
aVSOYIPRJ12D021B3CBD
p550
aVSOJGEPM12A8C133B54
p551
aa(lp552
VSOATFKF12A8C142E94
p553
aVSONJJUG12A8C13DA87
p554
aa(lp555
VSOSPWRB12A6701E8BA
p556
aVSOBMNWW12A8C13D884
p557
aVSOFSCOR12A6701D193
p558
aa(lp559
VSOENPOQ12A8C13CAC3
p560
aVSOWGYQW12A58A7B39C
p561
aa(lp562
VSOKDRYS12A6D4FA62E
p563
aVSOJUIUU12A8C1436C7
p564
aa(lp565
VSOGIEMN12A8C138407
p566
aVSOBHKOF12AB017E689
p567
aa(lp568
VSOPVVAW12A8C14698A
p569
aVSOEMCPL12A8C12FE93
p570
aVSOGBQYL12A8C1455FE
p571
aa(lp572
VSOWSWJS12AAF3B1C23
p573
aVSOMWYWI12AB0184364
p574
aa(lp575
VSOHUFWY12A58A76588
p576
aVSOACBEI12A58A7D1FF
p577
aa(lp578
VSOGQZZI12AB017DEC5
p579
aVSOMHVMQ12A58A7CBBA
p580
aVSOPIHNP12AB018D3B8
p581
aVSOYUXWA12AB017F207
p582
aVSONEXOO12A6D4F8BB9
p583
aa(lp584
VSOMILEV12A6D4F7763
p585
aVSOYRDTN12AB018601E
p586
aa(lp587
VSOPBTNX12A8C13325C
p588
aVSOASDXF12A8C1424CD
p589
aVSOMKAVH12B35058518
p590
aa(lp591
VSOHHAZB12AB0189ED8
p592
aVSOZXWUN12D021B1E60
p593
aa(lp594
VSOWMXIT12A6D4FC021
p595
aVSOONWPP12A8C134973
p596
aa(lp597
VSOAIOUI12A6D4F9309
p598
aVSOGXOBX12A8C140F01
p599
aVSONYILQ12A6D4FBF19
p600
aVSOVRLBQ12AB018073E
p601
aa(lp602
VSOQSOMU12A8C1359EF
p603
aVSOKJESW12AB018606A
p604
aa(lp605
VSOCHBAJ12AAF3B3A4F
p606
aVSOPTWHL12AB01843C8
p607
aVSOCUZBP12AB018AE71
p608
aa(lp609
VSOQSPQH12AB017D952
p610
aVSOAOAEF12A6D4F7330
p611
aVSOCCYYG12AB0184DE8
p612
aVSOXWYZP12AF72A42A6
p613
aVSOQIVUD12AB01821D2
p614
aVSOXRPBX12AB018222D
p615
aa(lp616
VSOPICKM12CF5F870FE
p617
aVSOMAOZR12AB01846FC
p618
aa(lp619
VSOHZGLQ12AB01879B0
p620
aVSOVQFFS12AB01867A2
p621
aa(lp622
VSOEMFUT12A6D4F8B1A
p623
aVSOHXILS12A58A77D1A
p624
aa(lp625
VSOCUVVK12AB0184AB5
p626
aVSOLAWAQ12A8C1344D5
p627
aVSOASCHE12A8C132A46
p628
aa(lp629
VSOBGWFG12AB018E63C
p630
aVSOAUUQY12AB0189E91
p631
aVSOAIOUI12A6D4F9309
p632
aVSOBQGFW12A58A7932B
p633
aVSOACBEI12A58A7D1FF
p634
aVSOBMMQH12AC468ADB7
p635
aVSOWYDQC12A8C141593
p636
aa(lp637
VSOLTSSW12A8C13CD7C
p638
aVSOWGJUV12AB0185BE2
p639
aVSOXZKRX12AF729FDCC
p640
aa(lp641
VSODXDPH12A6701D181
p642
aVSOEAKGE12A6D4FAED6
p643
aa(lp644
VSOEWWQI12A8C140A00
p645
aVSOGAWOV12A6D4FB0A9
p646
aa(lp647
VSOERQIG12AB018F1E7
p648
aVSOCQGRE12A6D4FA5AE
p649
aa(lp650
VSOWZMTW12D021B23E5
p651
aVSOBEEYW12AB0183B95
p652
aVSOIPXXX12A67ADD3E7
p653
aa(lp654
VSOFZWBJ12AB01879A8
p655
aVSOEPJOT12A58A7D25C
p656
aa(lp657
VSOFDURE12D021B2AB7
p658
aVSOBKMIM12A58A7A741
p659
aa(lp660
VSORIUQT12A58A7A467
p661
aVSOUOOFS12A8C1434EB
p662
aa(lp663
VSOAJYUP12AB0188E80
p664
aVSOLTYIL12AB0188068
p665
aa(lp666
VSOWIULE12AB0180CCC
p667
aVSOBRQRD12A8C141A0E
p668
aVSOJEUSX12A6D4F8237
p669
aa(lp670
VSOFDUNY12A8C14363B
p671
aVSOZPXIM12A8C1309E2
p672
aa(lp673
VSOWWENU12AB018A9BA
p674
aVSOWFBMU12A8C138D04
p675
aa(lp676
VSOYJCRL12A8C133203
p677
aVSOAYKST12AC46890A0
p678
aVSOCWCTQ12A8C1396B2
p679
aVSOFOACW12A58A7B5E7
p680
aVSOVADQW12D02197A3E
p681
aa(lp682
VSOFAOMB12A6D4F6BF1
p683
aVSOWHIXU12CF5F87006
p684
aa(lp685
VSOFHCMC12CF5F88A60
p686
aVSOFOCLB12CF5CFC435
p687
aVSODPFVR12AB018073A
p688
aVSOGFRTR12D021B1F5D
p689
aVSOIICWE12A8AE4723E
p690
aa(lp691
VSOCEUHN12AC468BF53
p692
aVSOQLJNM12A8C139D6E
p693
aVSOUCZLS12A8C13A62A
p694
aa(lp695
VSONVXMD12AB0184105
p696
aVSOFTJSH12A8C13FFAA
p697
aVSOIBFSN12A8C1391C1
p698
aVSONRWBJ12AB0185507
p699
aVSOWLNEP12A6D4FD69C
p700
aVSOMSUKN12AC468A8FA
p701
aVSOVRLBQ12AB018073E
p702
aVSOKVSNX12A670213BF
p703
aVSOMYXTA12AB0181836
p704
aa(lp705
VSOCTRVQ12A8C1342B6
p706
aVSOEGQWM12A6D4F48A8
p707
aa(lp708
VSOUIHHP12D0219A2F0
p709
aVSOUXTNG12A6D4FB859
p710
aa(lp711
VSOGBXLK12A6701FD4C
p712
aVSONMPFF12D02197A14
p713
aVSOPGNXT12A8C134197
p714
aa(lp715
VSOUKZGN12D021B24B1
p716
aVSOBZPIY12AB0186441
p717
aa(lp718
VSOMGPLO12A8C137297
p719
aVSOGSVOW12AB018E48C
p720
aa(lp721
VSOYKVNG12A8C13201E
p722
aVSOOVCGU12AB018848C
p723
aa(lp724
VSOADKHS12A58A78938
p725
aVSOSPZPU12A58A78071
p726
aa(lp727
VSOVEXOO12A6D4F8F2E
p728
aVSOLTKLY12A6D4F6316
p729
aa(lp730
VSOAKPAU12A6701E9AA
p731
aVSOTNBPI12AB018313A
p732
aa(lp733
VSOOSNDN12AB0184CCA
p734
aVSOPYWMR12A8AE49DDB
p735
aVSOJUQNY12AB0183646
p736
aa(lp737
VSONMPFF12D02197A14
p738
aVSOGSCTD12A81C231B9
p739
aVSOJABTZ12AC9071BD2
p740
aVSORVELG12D02197AC1
p741
aVSOFSCOR12A6701D193
p742
aVSOXUXPB12D02192440
p743
aa(lp744
VSOOMTSM12D021B2372
p745
aVSOERYHK12A8C139C92
p746
aVSOUKZGN12D021B24B1
p747
aVSOAYWGF12D02197A24
p748
aa(lp749
VSOHOQFN12A8AE45B4D
p750
aVSOPSJLE12AC4688B8C
p751
aa(lp752
VSOJCOWO12D021B20F5
p753
aVSOHSTGM12A8C13DDF5
p754
aVSOHQLZR12AB017E540
p755
aa(lp756
VSOOBNVS12A58A77D2E
p757
aVSOSCBAY12A6D4F8432
p758
aVSOFCRDI12AB017C456
p759
aVSOBMGMP12AB01887DE
p760
aa(lp761
VSOVRLBQ12AB018073E
p762
aVSODJMPU12A8C141773
p763
aVSOLNWBO12D021B3D87
p764
aa(lp765
VSOCYTJV12AF72A0CB1
p766
aVSOSUWCH12AB0187380
p767
aVSOUKZGN12D021B24B1
p768
aVSOCUGRF12AC468D5D6
p769
aVSOIOXOT12A6310D7C7
p770
aVSOBYHXX12D02198D80
p771
aa(lp772
VSOAVYXR12AB018B29F
p773
aVSOFMXDX12D021933BF
p774
aVSOGSCTD12A81C231B9
p775
aVSOOMTSM12D021B2372
p776
aVSONMPFF12D02197A14
p777
aVSOPDFHL12A8AE4953A
p778
aVSOJQTWH12AB01859CE
p779
aVSOPSJLE12AC4688B8C
p780
aVSODGFLS12D0219050F
p781
aVSOILSPO12AB018392E
p782
aa(lp783
VSOSDQHQ12A8AE45B49
p784
aVSORLPPU12D021B2E92
p785
aa(lp786
VSOJODST12A8C143BF7
p787
aVSOFUKIE12AB018841D
p788
aVSOWZFSU12B0B806CCF
p789
aa(lp790
VSOAADWY12A8C13357A
p791
aVSODDAWU12A6D4FAD47
p792
aa(lp793
VSOQKRMQ12AAF3B3C4A
p794
aVSOOIAMU12A6D4F856F
p795
aa(lp796
VSORIAUM12A6D4FC87C
p797
aVSOVBRYF12A8C1302E0
p798
aa(lp799
VSOFUKIE12AB018841D
p800
aVSOQLBOS12AB0186A58
p801
aa(lp802
VSOFPVBA12AB0181E0F
p803
aVSOLAWAQ12A8C1344D5
p804
aVSOUCIRS12AB018887B
p805
aa(lp806
VSOCGBWG12AB018B0D3
p807
aVSOOPYKA12AB018051B
p808
aVSOXOUMN12AF72A01F5
p809
aVSOBTTCV12A8C13E610
p810
aa(lp811
VSOFHCMC12CF5F88A60
p812
aVSOFNLSR12A8C13B302
p813
aa(lp814
VSORZWVT12CF5CFD848
p815
aVSOFGCYT12A58A7C159
p816
aa(lp817
VSOAAMSC12A8C1429BA
p818
aVSOEZQJP12A6D4F8BEA
p819
aVSOABNUR12A8C133B42
p820
aVSOXCHJU12A6D4F5EE9
p821
aa(lp822
VSORVELG12D02197AC1
p823
aVSOYYOFO12A8C1340F4
p824
aa(lp825
VSOAQDOP12AB0180913
p826
aVSOCKMSZ12A6D4FCE60
p827
aa(lp828
VSOJJCSQ12A6D4F868B
p829
aVSODYZVB12A8C132792
p830
aVSOIFJTL12A8AE47EE7
p831
aa(lp832
VSOFMATB12A58A7B697
p833
aVSOWEZPT12A6701D1EB
p834
aVSODXFAE12A6D4F9BF9
p835
aa(lp836
VSOEFGIS12A8C1373BB
p837
aVSOJGEPM12A8C133B54
p838
aa(lp839
VSORXUDE12AB018955A
p840
aVSOMLMZG12AB0182D97
p841
aa(lp842
VSOEFXBJ12AB017CB47
p843
aVSOHTKWD12D021B48C2
p844
aVSOFUMMW12AB0188B8D
p845
aa(lp846
VSOTPQDB12A58A788C8
p847
aVSOVJQQH12AC3DF6D8A
p848
aVSOQQNLY12A6D4FF074
p849
aVSOWKNBL12A8C13D663
p850
aVSOPPUBT12A8C144693
p851
aa(lp852
VSOTAFNS12AB0180519
p853
aVSOHHWUB12AAF3B49D5
p854
aa(lp855
VSOAEYJH12AB018AA32
p856
aVSOUSNOU12AB01887CC
p857
aa(lp858
VSOROCSJ12A8C134AAF
p859
aVSOBTTCV12A8C13E610
p860
aa(lp861
VSOKFDKA12A8C134107
p862
aVSOUCIRS12AB018887B
p863
aa(lp864
VSOBHRYY12A6D4FAB18
p865
aVSOUUDEJ12AB018C3A5
p866
aa(lp867
VSOZIXWN12AF729E807
p868
aVSOCAPAZ12A6D4FACF1
p869
aa(lp870
VSOFIIRD12AB017F33E
p871
aVSOKOQIK12AF72AA1E4
p872
aVSOUEAGF12A8C131FBD
p873
aa(lp874
VSOKYNHU12AB018C773
p875
aVSOCCIZS12AB0184BBC
p876
aa(lp877
VSOZXBKC12A8C13E888
p878
aVSOTNTFR12A6D4F69F2
p879
aa(lp880
VSOAKLAE12A6701FD7B
p881
aVSOBMURV12A8C139E55
p882
aa(lp883
VSOHUEKT12A8C13453C
p884
aVSOGQOPN12AB018281C
p885
aVSOCIZXU12AB0182ECE
p886
aa(lp887
VSOTTCVJ12AB0180B1A
p888
aVSORIAGA12AB018116B
p889
aa(lp890
VSOMUFII12A8AE46A98
p891
aVSOCBSKP12A6D4FD676
p892
aVSOSDSAF127CF8DEAD9
p893
aa(lp894
VSOVJPOQ12A8C144311
p895
aVSOIKTXT12A8C144329
p896
aVSONKXUH12A58A7BC5A
p897
aa(lp898
VSONOVXM12AB0180239
p899
aVSOGFYBT12A8C140654
p900
aa(lp901
VSOOCRTW12AB0185454
p902
aVSOWRAZN12A6D4FA575
p903
aa(lp904
VSOZQZLF12A6D4F8E3A
p905
aVSOPUDQP12A58A7DB14
p906
aa(lp907
VSOAUQQR12AB0188141
p908
aVSOSTVKZ12A8C138B7D
p909
aa(lp910
VSOMCIAU12AAF3B5665
p911
aVSOLPPHV12AB01870F3
p912
aVSOKRWRN12A6D4F7DB0
p913
aa(lp914
VSOOMRAP12AB018769C
p915
aVSOHMYZP12A6D4F6573
p916
aa(lp917
VSOQUCBN12AB018945D
p918
aVSOGMNBE12AF72A1425
p919
aVSOEDLZQ12A8C133B68
p920
aVSODIUPO12A58A7A65D
p921
aa(lp922
VSOMYXTA12AB0181836
p923
aVSOASCHE12A8C132A46
p924
aa(lp925
VSOPNXYE12A6D4F89CD
p926
aVSOEIOKD12AB018BE2E
p927
aVSOQDWEA12A6D4F526A
p928
aVSOAYVUP12D02199E41
p929
aVSOEGQWM12A6D4F48A8
p930
aa(lp931
VSOWOSHB12AF72A237C
p932
aVSOBXGEK12AB018FDC6
p933
aa(lp934
VSOFZWBJ12AB01879A8
p935
aVSOVHESP12A81C215E3
p936
aa(lp937
VSOPPLUX12A6D4FBED7
p938
aVSOOVFLT12A6D4F74EB
p939
aa(lp940
VSOSUWCH12AB0187380
p941
aVSOAZRHP12A8C142912
p942
aVSOEBKQQ12A8C1401EF
p943
aa(lp944
VSOJUTTP12A6D4FA9DA
p945
aVSODNDSP12A8C1352CC
p946
aVSOZBGDQ12A8C13C86C
p947
aa(lp948
VSODPPLW12A8C143D8B
p949
aVSOPVIAW12A6310DAC7
p950
aa(lp951
VSOCYIAJ12A8C1413FE
p952
aVSODICXR12A8C142F57
p953
aa(lp954
VSOKDYIA12A8C140A98
p955
aVSORZWVT12CF5CFD848
p956
aa(lp957
VSOASYLC12A6D4FA9CD
p958
aVSOISYLB12A8C1373F8
p959
aa(lp960
VSODPDWA12A58A79163
p961
aVSOBOFDI12A8C13479A
p962
aa(lp963
VSOEENKE12A58A7BB56
p964
aVSOODYDW12A6D4F8521
p965
aVSOIUDOX12A6D4F6947
p966
aVSOZGNAQ12A6D4F9A48
p967
aa(lp968
VSOJZCZG12AB018CEAE
p969
aVSOLVQPL12A58A7BBBB
p970
aa(lp971
VSONOSFH12A6701FD55
p972
aVSOBNIZL12AB0186636
p973
aVSOYCPVY12AB0183317
p974
aVSOMYXTA12AB0181836
p975
aa(lp976
VSODJMPU12A8C141773
p977
aVSORWSJX12AB0185B23
p978
aa(lp979
VSOAEXSY12A8C133252
p980
aVSOPRIBE12A8C140985
p981
aVSOUHWQK12A58A78EAD
p982
aa(lp983
VSOHLQZX12A8C140761
p984
aVSOAGFFD12AC909761F
p985
aVSOGLHTS12A8C1348C2
p986
aa(lp987
VSOHAZCA12B0B807598
p988
aVSOOUTPV12AF729B1BD
p989
aa(lp990
VSOPMSPX12A6D4F5134
p991
aVSOQWIVT12B0B808416
p992
aVSOURCKO12AB017C730
p993
aVSONWRQO12A813572DB
p994
aVSOUNKLD12CF5CFD7BE
p995
aa(lp996
VSOHELTA12AC468BF98
p997
aVSOPVVAW12A8C14698A
p998
aa(lp999
VSOFTJSH12A8C13FFAA
p1000
aVSOWKSDN12A6D4F7F62
p1001
aVSOLPFBZ12A6D4F8D92
p1002
aVSOCJZBU12A8C13ACE1
p1003
aVSOUIHHP12D0219A2F0
p1004
aVSOXPLIF12AB01840AC
p1005
aVSOGSDSV12AB0188E47
p1006
aa(lp1007
VSORFJOZ12AB018322D
p1008
aVSOFNBTR12A6D4F7798
p1009
aa(lp1010
VSOAQNCB12A8C13D3D7
p1011
aVSOANNKZ12A8C13E77B
p1012
aa(lp1013
VSOLZJGP12A8C146508
p1014
aVSOFQSNR12A58A7AE4E
p1015
aa(lp1016
VSOSSUOD12AF72A4201
p1017
aVSOLCINU12A8C138C52
p1018
aVSOTNTFR12A6D4F69F2
p1019
aa(lp1020
VSOGTGWG12A58A7B7BB
p1021
aVSOHKPKM12AAF3B468B
p1022
aa(lp1023
VSODJYLR12AC468939A
p1024
aVSOEZWXL12AB018ADD7
p1025
aVSOJEEAJ12A58A7CE90
p1026
aVSOSOZKR12AB017FF52
p1027
aVSOGZQQT12D021989BE
p1028
aa(lp1029
VSOPVVAW12A8C14698A
p1030
aVSOFCRDI12AB017C456
p1031
aa(lp1032
VSOKUUVQ12A8C13607E
p1033
aVSOLXRQX12A8C13DF03
p1034
aa(lp1035
VSOCEHLG12AB018AE88
p1036
aVSORGEPU12A58A78D78
p1037
aa(lp1038
VSOBCWGH12A6D4F7399
p1039
aVSOKEKNJ12A58A80E25
p1040
aa(lp1041
VSOKDJRV12A6D4F9F14
p1042
aVSONVCTJ12A6D4F7A05
p1043
aVSONPWCL12A8C13C313
p1044
aa(lp1045
VSOZJDCI12A58A79BC2
p1046
aVSOUZSCM12AB017DB8A
p1047
aa(lp1048
VSOGWSPW12A8C13464D
p1049
aVSOLERIZ12B0B8091FC
p1050
aa(lp1051
VSOHBVGP12AC3DF6F4D
p1052
aVSOBSKGM12AB018A1A4
p1053
aa(lp1054
VSOEMCPL12A8C12FE93
p1055
aVSOPCHNM12A8C13D2FB
p1056
aVSOXDEDR12A8AE452CC
p1057
aVSOECEWU12A8C141125
p1058
aVSOXDEDR12A8AE452CC
p1059
aVSOBSKGM12AB018A1A4
p1060
aVSOHBVGP12AC3DF6F4D
p1061
aa(lp1062
VSOZDKUJ12AF72AA7DB
p1063
aVSOZREXW12A8C13C893
p1064
aa(lp1065
VSOKDFQG12AB0187CA0
p1066
aVSODWDJC12AB017EE8A
p1067
aVSOMIHYA12AB018DD37
p1068
aa(lp1069
VSOMYTFS12AB0184161
p1070
aVSOVWPNJ12A6D4F9444
p1071
aVSOBSDYY12AB0184344
p1072
aa(lp1073
VSOZILMQ12A6701C581
p1074
aVSOZXIBM12A6D4F8859
p1075
aa(lp1076
VSOOOHCG12A6D4F7EDD
p1077
aVSOQDWEA12A6D4F526A
p1078
aVSODNRFN12AB0180F5B
p1079
aa(lp1080
VSOLAFYB12D0219A384
p1081
aVSOTNXHL12AF72A0295
p1082
aVSOJCOWO12D021B20F5
p1083
aVSOJXZCH12A6D4F7DA8
p1084
aa(lp1085
VSODGLLF12A6D4F8A25
p1086
aVSOOVFLT12A6D4F74EB
p1087
aa(lp1088
VSOKBAKO12AB0185730
p1089
aVSOBLDJI12A8C1427D1
p1090
aa(lp1091
VSOHHWYI12AF72A98AE
p1092
aVSOCSRIF12AB018E4FC
p1093
aVSOEVSBT12AB018051D
p1094
aa(lp1095
VSOKKQKS12AB0182E54
p1096
aVSOKGJHM12AB018C7AA
p1097
aa(lp1098
VSOSHDEX12A58A7D833
p1099
aVSOPTAFR12AB017ED7F
p1100
aVSOFZWBJ12AB01879A8
p1101
aa(lp1102
VSOFSYWY12A6D4FC5D8
p1103
aVSODPPLW12A8C143D8B
p1104
aVSOAMHPB12AAF3B4780
p1105
aVSOBEEYW12AB0183B95
p1106
aa(lp1107
VSOIOSMN12AB018749E
p1108
aVSOABNUR12A8C133B42
p1109
aa(lp1110
VSOGOSQQ12A8C142226
p1111
aVSORXQKF12A8C13FC2A
p1112
aa(lp1113
VSOCDKBS12A6D4F92E4
p1114
aVSOGYLRW12A8C13AB12
p1115
aa(lp1116
VSONPKQR12AB018885D
p1117
aVSOECTOX12A8C13F8FC
p1118
aVSOEJQKF12A8C13FE66
p1119
aVSOEDIEC12AB0184BAC
p1120
aVSOQLBOS12AB0186A58
p1121
aa(lp1122
VSOKTSLY12AF729ECE8
p1123
aVSOBOORR12AB017D0A7
p1124
aVSOXBCNH12A6D4FBA4F
p1125
aVSOKFJDC12A6D4FB161
p1126
aVSOHGJPX12A8C13982A
p1127
aVSOZZCOR12AB0181A18
p1128
aVSOTAOPI12A81C2084D
p1129
aVSODXDUQ12D021904A0
p1130
aVSOYOTIM12AB017F13D
p1131
aa(lp1132
VSONOVXM12AB0180239
p1133
aVSOFSCOR12A6701D193
p1134
aa(lp1135
VSOUWWAR12AB0184C92
p1136
aVSOOHQKB12A8C13EC27
p1137
aVSOQACVF12AB01854FB
p1138
aa(lp1139
VSOMWYWI12AB0184364
p1140
aVSONPKQR12AB018885D
p1141
aVSOVVLZC12AB0183782
p1142
aa(lp1143
VSOGFZEV12A6701E1A6
p1144
aVSOHSNPY12A8C13D3D1
p1145
aVSOWYXSK12A58A76751
p1146
aa(lp1147
VSOPATSO12AB018CCBE
p1148
aVSOFZKKF12AC468B48E
p1149
aa(lp1150
VSOIQYQX12A8C13C8E3
p1151
aVSONFANS12AB018DAA9
p1152
aVSODIVKR12A58A77146
p1153
aVSOGYXCG12A8C130C1B
p1154
aa(lp1155
VSOMTCGA12A8C138685
p1156
aVSOBVUWQ12A8C1369C1
p1157
aa(lp1158
VSOFWZVD12AAF3B3D06
p1159
aVSODOQCI12AB0182F26
p1160
aa(lp1161
VSOQCUYO12AB0184047
p1162
aVSOJJMHM12A58A7979E
p1163
aVSOQPZAZ12AB018C2D1
p1164
aVSOJUXOD12AB0183664
p1165
aa(lp1166
VSOKOKJL12A8C13E31B
p1167
aVSOGULQT12AB018D85E
p1168
aa(lp1169
VSOWIAID12A67ADD562
p1170
aVSOSYNPJ12AAFF41AD3
p1171
aVSOLWVBE12A58A79EDF
p1172
aVSONRHLI12A6D4FA579
p1173
aa(lp1174
VSOYERVG12A6D4F7221
p1175
aVSOBPIAM12A58A7B292
p1176
aa(lp1177
VSOWSUGJ12AB0189368
p1178
aVSODGLSN12A8C132543
p1179
aa(lp1180
VSORNYVB12AC468C058
p1181
aVSOSMQWY12AB01870C8
p1182
aa(lp1183
VSORSVFB12A6701F6CF
p1184
aVSOPZEIA12AB01883FE
p1185
aa(lp1186
VSOJMOQA12A6D4F79D8
p1187
aVSODXEBG12AB017DDDE
p1188
aVSOUVRZQ12AB018650F
p1189
aa(lp1190
VSOWFEWG12AB01852D0
p1191
aVSOHELTA12AC468BF98
p1192
aVSOKKCJN12A8C134B20
p1193
aa(lp1194
VSOGYRYK12A6D4FA981
p1195
aVSOQTSJM12A6701C760
p1196
aa(lp1197
VSONQNEY12A6D4FA059
p1198
aVSOZAWSJ12A8C14250D
p1199
aa(lp1200
VSONPKQR12AB018885D
p1201
aVSOCCBWH12A6D4FACF2
p1202
aVSOVAJDS12A8C135A07
p1203
aa(lp1204
VSOEJQKF12A8C13FE66
p1205
aVSONVXMD12AB0184105
p1206
aa(lp1207
VSOFTJSH12A8C13FFAA
p1208
aVSOHPTET12A8C145B32
p1209
aa(lp1210
VSOGFZEV12A6701E1A6
p1211
aVSOXDEDR12A8AE452CC
p1212
aa(lp1213
VSOBTTCV12A8C13E610
p1214
aVSOMXOGZ12AF729BFEC
p1215
aa(lp1216
VSOUDVFK12AB018A4F8
p1217
aVSOEJQKF12A8C13FE66
p1218
aVSOBBTJO12A6310E2C7
p1219
aa(lp1220
VSONQOQJ12AB0180F05
p1221
aVSOHLWDY12A8C14394C
p1222
aVSOYYLTW12A58A7E122
p1223
aa(lp1224
VSORELGQ12A8C135D5E
p1225
aVSOMDTLR12AC39275B6
p1226
aVSOEEVIY12AB018606F
p1227
aa(lp1228
VSOPXNSN12A58A7AD79
p1229
aVSOPLQUM12A6D4FBBC6
p1230
aVSOVLXBX12A6D4F8476
p1231
aVSOOQHLK12A8C1385B8
p1232
aVSOBKZUK12AB017CAFF
p1233
aa(lp1234
VSOOBYUM12A6D4F6A21
p1235
aVSOHMRRI12A6D4FBA18
p1236
aa(lp1237
VSOFNYDM12A8C134B60
p1238
aVSORXYNT12A58A77E9F
p1239
aa(lp1240
VSOWGUDN12A8AE47A11
p1241
aVSOVFMPC12A6310E2DD
p1242
aa(lp1243
VSOQLBOS12AB0186A58
p1244
aVSOMKJCM12AB0187D50
p1245
aa(lp1246
VSOWTYRM12A6310ED03
p1247
aVSOIOSMN12AB018749E
p1248
aa(lp1249
VSOJLVJT12AB0186A49
p1250
aVSOBTTCV12A8C13E610
p1251
aVSOHQJNE12A6310ED0F
p1252
aa(lp1253
VSOIMGAM12AB0182790
p1254
aVSOBNPRR12A6D4F66D5
p1255
aa(lp1256
VSOCMHCL12A8C137614
p1257
aVSOOXNCV12A58A7E31F
p1258
aa(lp1259
VSORELGQ12A8C135D5E
p1260
aVSOOMXUF12A58A77CB9
p1261
aa(lp1262
VSOYPSNH12A8C1347B1
p1263
aVSOCCCIC12A6D4F8163
p1264
aa(lp1265
VSONIRYH12AC3DF6A89
p1266
aVSOGXJLS12A58A7A0FE
p1267
aa(lp1268
VSOBVXBI12A8C13344D
p1269
aVSOVJJPL12A670207E3
p1270
aa(lp1271
VSOYDHRV12AB0182B37
p1272
aVSOMQHZK12A6D4F8074
p1273
aVSOURPZZ12A8C1380EF
p1274
aVSOTDTOK12A6310EF6E
p1275
aa(lp1276
VSOGRNUO12A58A7D6F6
p1277
aVSOLSCOB12A6D4F80C8
p1278
aVSOUZSCM12AB017DB8A
p1279
aa(lp1280
VSONNJFI12A6D4F4FAD
p1281
aVSOUIHHP12D0219A2F0
p1282
aVSORGVVT12A8C13ACA0
p1283
aVSOQTSJM12A6701C760
p1284
aa(lp1285
VSOJDPML12A8C130FC2
p1286
aVSOUMJPJ12AB01847E1
p1287
aVSOVTDBR12A8C1411D1
p1288
aa(lp1289
VSOMQQNJ12A8C13356C
p1290
aVSOFZKKF12AC468B48E
p1291
aa(lp1292
VSOIOSMN12AB018749E
p1293
aVSOCTPZJ12A6D4F845F
p1294
aa(lp1295
VSOPAUBA12A6D4F8D31
p1296
aVSOFNASO12A8C13C3E0
p1297
aa(lp1298
VSOXOUMN12AF72A01F5
p1299
aVSOTDYDC12A6310D820
p1300
aVSOADWEZ12AB0189784
p1301
aa(lp1302
VSOFOCLB12CF5CFC435
p1303
aVSOCUGRF12AC468D5D6
p1304
aa(lp1305
VSOCFHAR12A6D4FE8F4
p1306
aVSOYKSBN12AB017EF6B
p1307
aa(lp1308
VSOCBSKP12A6D4FD676
p1309
aVSOAYPHN12AB0184BE2
p1310
aa(lp1311
VSOAFLWG12A6D4F65F9
p1312
aVSOCFLCQ12AAF3B48E8
p1313
aa(lp1314
VSOLTWRO12A8AE461E5
p1315
aVSOBUXNB12AB0182BF3
p1316
aa(lp1317
VSOPBBVN12A8C142E7A
p1318
aVSOBVQTB12AB01852E0
p1319
aa(lp1320
VSOYTSSE12A6D4FA9B0
p1321
aVSOWWEPN12AB01814CB
p1322
aVSOAYNYZ12A58A80639
p1323
aa(lp1324
VSOBTTCV12A8C13E610
p1325
aVSOVBLYT12A8C130FCD
p1326
aa(lp1327
VSOPLKWI12AB0180773
p1328
aVSOJKOHQ12A8C13F907
p1329
aa(lp1330
VSOACNMR12D02190036
p1331
aVSOWWENU12AB018A9BA
p1332
aVSOCEXGB12A8C136C5F
p1333
aa(lp1334
VSOIOSMN12AB018749E
p1335
aVSOTUPTD12A67020A9E
p1336
aa(lp1337
VSOJEKSE12A6D4FC334
p1338
aVSONIHNA12A8C1351DB
p1339
aVSOLEKNZ12A6D4F80D3
p1340
aVSOXFCKL12A8C135A01
p1341
aa(lp1342
VSOSXHTL12A6D4F80DA
p1343
aVSOSLXVF12A8C1398AE
p1344
aVSONWWNG12A6D4FDD36
p1345
aa(lp1346
VSOTINGP12A58A77F12
p1347
aVSOYDAEE12A58A7B984
p1348
aa(lp1349
VSOANALN12AB0185FB6
p1350
aVSOZDDKY12A8C13B81B
p1351
aVSOFJAMK12AB018CCD9
p1352
aVSOBOQWC12AB0183880
p1353
aa(lp1354
VSOJWFVP12A8C1349EF
p1355
aVSOCQGRE12A6D4FA5AE
p1356
aa(lp1357
VSOFHCMC12CF5F88A60
p1358
aVSOYEGTB12A8C143BC7
p1359
aVSOXQJJJ12A8C145CD3
p1360
aVSOHSTGM12A8C13DDF5
p1361
aVSOACNMR12D02190036
p1362
aa(lp1363
VSOXOUMN12AF72A01F5
p1364
aVSOOEGUM127D9770299
p1365
aa(lp1366
VSOFLFVJ12A8C142D7F
p1367
aVSOOSNDN12AB0184CCA
p1368
aVSOLKYAX12AC3DF96A2
p1369
aVSOHRGMC12A6D223B89
p1370
aVSOQLBOS12AB0186A58
p1371
aa(lp1372
VSOIOSMN12AB018749E
p1373
aVSOPRION12A58A7DA8A
p1374
aa(lp1375
VSODMADZ12A8C13E915
p1376
aVSODBFHB12A8AE45752
p1377
aa(lp1378
VSOGRFWU12A8C131D9D
p1379
aVSORPOTM12A6D4FC639
p1380
aVSOXJICM12A6D4FBEB7
p1381
aVSOHSNPY12A8C13D3D1
p1382
aVSOBWENQ12A8C134501
p1383
aa(lp1384
VSODPJPZ12A8C13AEE2
p1385
aVSOBQGFW12A58A7932B
p1386
aa(lp1387
VSOLNWBO12D021B3D87
p1388
aVSONNJLI12AB018B639
p1389
aa(lp1390
VSOXOUMN12AF72A01F5
p1391
aVSOZLYPS12AB01805DD
p1392
aa(lp1393
VSOBKPHL12A6D4F7B2D
p1394
aVSOCOPCJ12A58A7BFD5
p1395
aVSOTRFOT12A6D4FA5AC
p1396
aa(lp1397
VSOOHVVW12AB0184F59
p1398
aVSOBIGMH12A8C13861E
p1399
aa(lp1400
VSOGSCTD12A81C231B9
p1401
aVSOFMHXH12AB0186D75
p1402
aa(lp1403
VSOXUXPB12D02192440
p1404
aVSOJRIVQ12A58A7E353
p1405
aa(lp1406
VSOHZWNJ12A6D4F60BE
p1407
aVSOCUXNL12AB018C4C3
p1408
aa(lp1409
VSOCVDLD12B0B80BCA8
p1410
aVSOJULJW12A8C13BCB7
p1411
aa(lp1412
VSONPJIG12AB0189CA4
p1413
aVSOJVQVD12AB01869BF
p1414
aVSOAASUT12A8C13E8CD
p1415
aa(lp1416
VSOSROBT12A6D4FBA1B
p1417
aVSOTQFRU12A58A76EA2
p1418
aa(lp1419
VSOTKJHR12A8C133797
p1420
aVSOWYXSK12A58A76751
p1421
aa(lp1422
VSOWMXIT12A6D4FC021
p1423
aVSOHRBKT12A6D4F920D
p1424
aa(lp1425
VSOESJYI12A8C130FCA
p1426
aVSONHOUO12A8C133089
p1427
aa(lp1428
VSOHKPKM12AAF3B468B
p1429
aVSOJGEPM12A8C133B54
p1430
aa(lp1431
VSOCFCBK12AB0183758
p1432
aVSOAYWGF12D02197A24
p1433
aVSOVNDVC12A58A7BEAD
p1434
aa(lp1435
VSOEVIFS12AF72AA3AB
p1436
aVSOGXSXX12A58A7B8A4
p1437
aVSODNRFN12AB0180F5B
p1438
aa(lp1439
VSODZJCH12A8C132ADC
p1440
aVSOMDIGU12A6D4F9DFC
p1441
aa(lp1442
VSOQAGIT12A8C130C1D
p1443
aVSOEUJYE12AC9074F1B
p1444
aVSOROCSJ12A8C134AAF
p1445
aa(lp1446
VSOHGNQO12AAF3B4C82
p1447
aVSOQTRTJ12A6D4FEE45
p1448
aVSOZKLNX12AB017D0B4
p1449
aVSOCVLND12AB0184BA4
p1450
aa(lp1451
VSOJLVJT12AB0186A49
p1452
aVSOUUDEJ12AB018C3A5
p1453
aVSOLZWKI12A8C141851
p1454
aVSOVDBAR12AB018971F
p1455
aaa(lp1456
g968
ag473
a(lp1457
VSOVCUDL12AF72A7BA1
p1458
aVSOCFPIF12A8151CB49
p1459
aVSOAXEPS12AF729E550
p1460
aa(lp1461
VSONGFDK12A6310D899
p1462
aVSOFLPUL12A8AE46A18
p1463
aa(lp1464
VSOBXZHR12A6701F50F
p1465
aVSOBBMIO12A8C13EFA0
p1466
aag650
ag625
ag629
ag1062
ag1065
ag1069
a(lp1467
VSOIJHNA12A8C13894A
p1468
aVSOIOTDY12CF5463270
p1469
aVSOBEEYW12AB0183B95
p1470
aa(lp1471
VSOOZUBD12A6D4F45BF
p1472
aVSOBVXCZ12A6D4FA3DC
p1473
aVSOLPPHV12AB01870F3
p1474
aag274
ag814
ag817
ag100
ag825
ag828
ag737
ag744
ag749
ag752
ag435
a(lp1475
VSOHSECJ12AB0185663
p1476
aVSOOEJNK12A8C1362BB
p1477
aVSOKKLAD12A6D4FD1C0
p1478
aag470
ag597
ag602
ag1320
ag1324
ag309
ag637
ag641
a(lp1479
VSOREBAC12A8C1362A8
p1480
aVSOKQTGM12AB0187488
p1481
aa(lp1482
VSOVEXOO12A6D4F8F2E
p1483
aVSOMHFKQ12AF72A4040
p1484
aa(lp1485
VSOGBATD12A58A7EADE
p1486
aVSOUBAXF12A58A7BA00
p1487
aVSOMZLSC12A67ADD3E8
p1488
aVSOATFKF12A8C142E94
p1489
aVSOXZKRX12AF729FDCC
p1490
aVSOSYHPQ12A8C134DB1
p1491
aa(lp1492
VSOYCCJZ12A8C1359FE
p1493
aVSOGEBBN12A8C137101
p1494
aVSOCEUHN12AC468BF53
p1495
aa(lp1496
VSOAOJRI12AB0182F6F
p1497
aVSOAAVTA12A670208D6
p1498
aa(lp1499
VSOIREYS12A58A7933C
p1500
aVSOGGJFX12A6D4F60B1
p1501
aa(lp1502
VSOINYCS12AB01842AE
p1503
aVSOKEKNJ12A58A80E25
p1504
aVSOJLVJT12AB0186A49
p1505
aVSOWYXSK12A58A76751
p1506
aVSOTHIRR12A6D4FA98C
p1507
aVSOGYRYK12A6D4FA981
p1508
aVSOCAPAZ12A6D4FACF1
p1509
aVSOQCIVL12AB0183FD1
p1510
aag1354
ag1357
ag1091
ag1095
ag38
ag111
a(lp1511
VSOHQDKN12A8C137414
p1512
aVSOASIDK12A81C207C1
p1513
aa(lp1514
VSOFCHHA12A8C136CAD
p1515
aVSOEEPGD12AB0187CA1
p1516
aVSOQCIGA12AB0186069
p1517
aag1409
ag1412
ag1416
ag528
a(lp1518
VSOCUVVK12AB0184AB5
p1519
aVSOLAWAQ12A8C1344D5
p1520
aVSOASCHE12A8C132A46
p1521
aa(lp1522
VSOBGWFG12AB018E63C
p1523
aVSOAUUQY12AB0189E91
p1524
aVSOAIOUI12A6D4F9309
p1525
aVSOBQGFW12A58A7932B
p1526
aVSOACBEI12A58A7D1FF
p1527
aVSOBMMQH12AC468ADB7
p1528
aVSOWYDQC12A8C141593
p1529
aag1228
ag1243
ag1246
ag1249
ag1143
ag1147
ag1346
ag867
ag870
ag121
ag126
ag129
ag132
ag1366
ag1372
ag1375
ag1013
ag1016
ag718
ag721
ag239
ag242
ag70
a(lp1530
VSOWSKVI12AB017FFDB
p1531
aVSOLQLFH12A58A7CFC8
p1532
aVSOYYLTW12A58A7E122
p1533
aa(lp1534
VSODWPZP12AB01860DD
p1535
aVSOULLGL12AB0187728
p1536
aVSOAWFED12AB0183825
p1537
aag1088
ag342
ag1180
a(lp1538
VSOXUXPB12D02192440
p1539
aVSOSYWJI12AC4685367
p1540
aVSOIXJQL12AB017FC2E
p1541
aag1276
a(lp1542
VSOHHWYI12AF72A98AE
p1543
aVSOJGUDU12AB01857B6
p1544
aag765
ag772
ag783
a(lp1545
VSOLZGFR12A58A7ED2D
p1546
aVSOFLLKZ12AB018A1D2
p1547
aa(lp1548
VSOGVLIP12AB018C4F2
p1549
aVSOLVKZF12D0219892B
p1550
aag1174
ag1076
ag1080
ag1085
ag979
ag476
ag983
ag987
ag990
ag605
ag609
ag616
ag619
ag660
ag663
ag756
ag761
ag727
ag730
ag445
ag31
ag35
ag1150
ag1155
ag148
ag152
ag155
ag1393
ag1397
a(lp1551
VSOVULMK12A6701FDCB
p1552
aVSOPNPUU12A8C13F842
p1553
aa(lp1554
VSOHQLWL12AB0184F14
p1555
aVSOHQJXI12A6701F607
p1556
aVSOYRMNU12A6D4F73D1
p1557
aag666
ag1425
ag1428
ag584
ag587
ag591
ag380
ag1363
ag733
ag1177
ag1390
a(lp1558
VSOPLZAF12AB01852B7
p1559
aVSOPKEIV12AB018220D
p1560
aag1010
a(lp1561
VSOEEVIY12AB018606F
p1562
aVSOABHGD12AB017E263
p1563
aVSOEFZGO12A8C135FD8
p1564
aa(lp1565
VSOKDYXL12AB01847E6
p1566
aVSOCEXUU12A58A78189
p1567
aVSOXQJJJ12A8C145CD3
p1568
aag321
ag324
a(lp1569
VSOTHIRR12A6D4FA98C
p1570
aVSOFUKIE12AB018841D
p1571
aVSOBSKGM12AB018A1A4
p1572
aVSOGTGWG12A58A7B7BB
p1573
aa(lp1574
VSOVBRYF12A8C1302E0
p1575
aVSOVIZOS12A8C145CB0
p1576
aVSOWWENU12AB018A9BA
p1577
aag1280
ag1285
ag1419
ag1422
ag76
ag79
ag1265
ag1327
ag1330
a(lp1578
VSOIZENI12A6D4FAB2C
p1579
aVSOFYYEK12AB01897EB
p1580
aVSOBNCST12AB0184858
p1581
aVSOQBMYL12A8C13DA90
p1582
aag1113
ag1158
ag1161
ag1166
a(lp1583
VSOIHGAU12A8C139AA6
p1584
aVSOHVWGB12A6D4F66D7
p1585
aVSOYRMNU12A6D4F73D1
p1586
aag724
ag143
ag259
ag1032
ag1035
ag1038
ag497
ag194
ag199
ag204
ag670
ag852
ag855
ag1378
ag219
ag222
ag232
ag235
ag1122
ag216
ag1253
a(lp1587
VSOBIGMH12A8C13861E
p1588
aVSOFXZCM12AB01871DC
p1589
aVSONOVXM12AB0180239
p1590
aa(lp1591
VSOLXUKR12AB018E7C6
p1592
aVSOJCYGA12A8C137B11
p1593
aVSOOXTLP12AB01817EB
p1594
aag1116
a(lp1595
VSOXCSHM12A67AE226A
p1596
aVSOXPNAL12A58A7AF2C
p1597
aag534
a(lp1598
VSOBBSJH12A6D4F6D86
p1599
aVSOCXXCP12A8C13BEB8
p1600
aa(lp1601
VSOGFTFJ12A8C13533A
p1602
aVSOBTTCV12A8C13E610
p1603
aag971
ag976
ag1139
a(lp1604
VSOMYQDU12AB01848B6
p1605
aVSOPQEWH12A81C21876
p1606
aag836
a(lp1607
VSOMXTVS12AB0184921
p1608
aVSOGBYLS12AB018ABCB
p1609
aag572
ag312
ag1334
ag22
ag25
ag880
ag883
ag1446
ag1451
ag383
ag386
ag1256
ag1259
a(lp1610
VSOWEBFP12AB0183430
p1611
aVSOICOKF12A8AE47B1C
p1612
aVSOSBQVL12A6D4F4132
p1613
aVSOQHFHW12A6D4F6733
p1614
aa(lp1615
VSOBKSFZ12AB017FCBB
p1616
aVSOHNEDZ12AB0181BE1
p1617
aVSOTWIFH12AB01839F4
p1618
aa(lp1619
VSORSEHM12A58A7C2DD
p1620
aVSORQUQK12AB0180EF5
p1621
aVSOLZMGO12AB017F904
p1622
aa(lp1623
VSOLPHLO12A6D4F97B7
p1624
aVSOJGEPM12A8C133B54
p1625
aag578
ag1041
ag1045
ag957
ag960
ag963
ag1073
ag1292
ag1295
a(lp1626
VSORDOYV12AB018A79F
p1627
aVSOUOPLF12AB017F40F
p1628
aa(lp1629
VSOSKNTV12A58A79D59
p1630
aVSOPDJIO12A8C13F58F
p1631
aVSONPTVW12A58A7BD84
p1632
aag172
ag176
ag180
ag183
ag135
ag140
ag1007
ag822
ag1268
ag1271
ag1098
ag1102
ag432
a(lp1633
VSODDEFT12A58A7DA3B
p1634
aVSODSWQA12A8C1411B0
p1635
aVSOKONSN12AB018390B
p1636
aVSOZDBVY12AB0189C9B
p1637
aVSOTRQNI12A67020AA7
p1638
aa(lp1639
VSOVVXVL12AB0183DF0
p1640
aVSOGGLUO12A8C138A1E
p1641
aa(lp1642
VSOZQKJW12A8C14450B
p1643
aVSOLZVFP12D021907D6
p1644
aa(lp1645
VSOXUXPB12D02192440
p1646
aVSOGSJTM12A8C13E98A
p1647
aag251
ag255
ag1169
ag271
ag400
ag403
ag406
ag1234
ag1237
a(lp1648
VSODTLKT12A8C13548B
p1649
aVSOVTDHZ12A8C135F7E
p1650
aVSOUUWCP12A8C135686
p1651
aVSOQLBOS12AB0186A58
p1652
aa(lp1653
VSOKFWXW12A8C138425
p1654
aVSOLALMY12A6D4F7B32
p1655
aag654
ag657
ag1431
ag1435
ag1439
a(lp1656
VSOIVAEL12AAF3B365C
p1657
aVSOBTTCV12A8C13E610
p1658
aVSOAGJBV12AC4687F63
p1659
aa(lp1660
VSOEQYRS12A58A7C8B7
p1661
aVSOUZSCM12AB017DB8A
p1662
aVSOKYNHU12AB018C773
p1663
aVSOHVWGB12A6D4F66D7
p1664
aVSOGRNUO12A58A7D6F6
p1665
aVSOBOFDI12A8C13479A
p1666
aVSONQNEY12A6D4FA059
p1667
aa(lp1668
VSOBLGVM12AB0186A0F
p1669
aVSOPDKAZ12A8C133FF7
p1670
aVSOCWPUE12A6D4FA6AB
p1671
aa(lp1672
VSOTVQYH12A6D4F8943
p1673
aVSOKRHVT12A58A7CBC9
p1674
aag485
ag488
ag925
ag931
ag934
ag937
ag330
ag685
ag691
ag695
a(lp1675
VSOAAHLX12AB018A918
p1676
aVSOOPOTX12A8C138C7D
p1677
aa(lp1678
VSOPPCUE12AB0181451
p1679
aVSOJXRTT12AB018585F
p1680
aa(lp1681
VSODTHLM12AB018EDA0
p1682
aVSOCPGZA12AB0183D5B
p1683
aag345
ag351
ag357
ag901
ag568
a(lp1684
VSOZBGDQ12A8C13C86C
p1685
aVSOLPHLO12A6D4F97B7
p1686
aVSOXDEDR12A8AE452CC
p1687
aVSOSDSAF127CF8DEAD9
p1688
aag369
ag372
ag428
a(lp1689
VSODCBYP12AB017DECC
p1690
aVSOYORXM12A58A7C209
p1691
aVSOOTVPR12A3F1ECD8C
p1692
aa(lp1693
VSOTWIFH12AB01839F4
p1694
aVSOQJQKV12A58A7AB07
p1695
aa(lp1696
VSOZUVGK12A58A7DD59
p1697
aVSOGYXCG12A8C130C1B
p1698
aag191
ag1194
ag1197
ag1200
a(lp1699
VSOHXWVK12A8AE4728D
p1700
aVSOTNOMR12AB0184BE6
p1701
aVSOSAQNU12A6701FD3D
p1702
aVSOWIQDN12D021B2379
p1703
aa(lp1704
VSOAQDIK12AB017C40C
p1705
aVSOEJYBW12A8C134B17
p1706
aa(lp1707
VSOEYUJN12A6701D97A
p1708
aVSOEZGXO12AB017E330
p1709
aag917
ag922
ag715
ag500
ag503
ag506
ag509
ag515
ag575
ag1107
ag1110
ag858
ag1262
ag1132
ag449
ag452
ag225
ag228
ag877
ag1220
ag1224
ag277
ag491
ag494
ag861
ag864
a(lp1710
VSOQOOQY12AB0180975
p1711
aVSOKAWWA12A6701FD46
p1712
aa(lp1713
VSOOUKEE12A8C138556
p1714
aVSOBNNDE12A58A7DD4B
p1715
aag1298
ag1302
ag1305
ag1308
ag1311
ag158
ag162
ag165
ag83
a(lp1716
VSOBEMWX12AB0186884
p1717
aVSOAJSVP12A8AE45F82
p1718
aa(lp1719
VSOAUXTG12A6D4F924E
p1720
aVSOCSAEN12A8C138063
p1721
aa(lp1722
VSOIJUBC12A8C13B7FA
p1723
aVSOITUDE12A58A7969D
p1724
aVSOBSARL12A6D4F7E76
p1725
aVSONROLO12A6D4F8771
p1726
aag904
ag518
ag521
ag524
ag531
ag283
ag287
ag839
ag842
ag846
a(lp1727
VSOZQZLF12A6D4F8E3A
p1728
aVSOTQBUP12A8C133C17
p1729
aa(lp1730
VSOQNHXV12A8C135EFE
p1731
aVSOCHQGY12A6D4FBE3D
p1732
aVSOTEMHN12A8C137194
p1733
aag832
a(lp1734
VSOPDWCA12A6701D495
p1735
aVSODPFVR12AB018073A
p1736
aa(lp1737
VSOZBGDQ12A8C13C86C
p1738
aVSOSKWIB12A8C131A80
p1739
aVSOCWNCZ12A58A7EBE1
p1740
aVSOABEEH12A8C133EE4
p1741
aa(lp1742
VSOKOZCZ12A6D4F9BD3
p1743
aVSOWZCOB12AB018A335
p1744
aag811
a(lp1745
VSOEKWIB12AB018507D
p1746
aVSOCIXAO12AB01820ED
p1747
aag1213
ag1216
ag363
ag366
ag1337
ag457
ag461
ag464
ag1020
ag1023
ag245
ag248
a(lp1748
VSOXJRLK12A58A7B529
p1749
aVSOKUUHH12AB0187D54
p1750
aa(lp1751
VSOCJILA12A8C134636
p1752
aVSOFYDNI12AB0185B0C
p1753
aa(lp1754
VSOTVRMA12A8C141BDF
p1755
aVSOAXDQY12A6D22281C
p1756
aa(lp1757
VSODGWDF12A58A7DA5D
p1758
aVSONMWFK12AB01886C0
p1759
aa(lp1760
VSOBBNAK12AB018123A
p1761
aVSODRPLO12AB018D654
p1762
aVSOMIDPF12A58A79BB9
p1763
aag673
ag676
ag682
a(lp1764
VSOGQMPU12AB018576C
p1765
aVSOILYOT12A8C13F14B
p1766
aa(lp1767
VSOBEEYW12AB0183B95
p1768
aVSOTWXFL12A6D4F8CF9
p1769
aVSOLJAND12AB018A151
p1770
aVSOZBOTJ12D0219A276
p1771
aVSONROLO12A6D4F8771
p1772
aVSOXPLIF12AB01840AC
p1773
aVSOLUASF12A6D4FD1B5
p1774
aa(lp1775
VSOENPKL12A58A776EA
p1776
aVSOBPVXY12AC468AC29
p1777
aVSOGNGAE12A58A7DFC0
p1778
aVSOORLCE12812D05EE8
p1779
aa(lp1780
VSOCDOUE12A6D4FA483
p1781
aVSOFHOTX12A8C13F258
p1782
aVSOMDDWM12A8C142D23
p1783
aa(lp1784
VSOBFYNG12A6D4F97FC
p1785
aVSOKFHWC12D02191EEA
p1786
aVSOIICWE12A8AE4723E
p1787
aVSOTACGE12A6D4FA373
p1788
aag479
ag482
ag874
ag168
ag996
ag999
ag115
ag118
a(lp1789
VSONFRBG12A6D4F7E77
p1790
aVSOFMHXH12AB0186D75
p1791
aag622
ag545
a(lp1792
VSOYLKCG12A6D4F647A
p1793
aVSOBACXQ12CF530D521
p1794
aag41
aa(lp1795
g1595
ag1561
ag1565
ag449
ag452
ag727
ag730
ag1792
ag1587
ag1591
ag1132
ag584
ag587
ag591
ag105
ag108
ag1240
ag435
ag1578
ag874
ag1615
ag1619
ag718
ag721
ag1342
ag904
ag799
ag802
ag172
ag176
ag180
ag183
ag917
ag922
ag1623
ag971
ag976
ag670
ag41
ag1684
ag194
ag199
ag204
ag1789
ag303
ag306
ag17
ag83
ag1143
ag1147
ag216
ag625
ag629
ag1610
ag1745
a(lp1796
VSOUIHHP12D0219A2F0
p1797
aVSOENRPB12AF72A7536
p1798
aa(lp1799
VSOKEKNJ12A58A80E25
p1800
aVSOYBKOL12A8C146887
p1801
aa(lp1802
VSOGALMQ12A6701DE0E
p1803
aVSOFUKIE12AB018841D
p1804
aVSOIOSMN12AB018749E
p1805
aVSOITFJG12A58A7F709
p1806
aag1029
ag1678
ag1681
ag400
ag403
ag406
ag1538
ag1048
ag979
ag1091
ag1095
ag1727
ag1730
ag280
ag1639
ag1642
ag1645
ag1384
ag1387
ag1169
a(lp1807
VSOBYWGQ12A58A7E513
p1808
aVSOCYIAJ12A8C1413FE
p1809
aa(lp1810
VSOBOLSO12A6D4FA99F
p1811
aVSOENDZN12AB018DD13
p1812
aa(lp1813
VSOFYQWW12AB0184C23
p1814
aVSOSUWCH12AB0187380
p1815
aag822
ag1289
ag545
ag1545
ag1548
ag1633
ag1569
ag1574
ag1626
ag1629
ag1764
ag219
ag222
ag1699
ag1704
ag274
ag277
ag1327
ag1330
ag232
ag235
ag537
ag542
ag1158
ag1161
ag1166
ag369
ag372
ag1551
ag1554
a(lp1816
VSOGGZSH12AC3DF47FC
p1817
aVSOYKDBZ12AB0183A63
p1818
aag705
ag836
ag1390
ag832
ag470
ag1139
ag983
ag987
ag990
a(lp1819
VSONGFEF12AF72A2643
p1820
aVSOVBLYT12A8C130FCD
p1821
aa(lp1822
VSOKGOGS12A6D4FA75D
p1823
aVSOCMCIJ12AB0181616
p1824
aag1425
ag1428
ag1098
ag1102
ag168
ag22
ag25
ag1378
ag1020
ag1023
ag491
ag494
ag1716
ag1719
ag1051
ag1054
a(lp1825
VSOGQKVH12AB018B644
p1826
aVSOTGWEH12A58A7AF85
p1827
aag890
ag894
ag898
ag1419
ag1422
ag887
ag1457
ag1461
ag1464
ag1032
ag1035
ag1038
ag363
ag366
ag839
ag842
ag846
ag158
ag162
ag165
ag644
ag647
ag568
ag1073
ag1276
ag925
ag931
ag934
ag937
ag685
ag691
ag695
ag1268
ag1271
a(lp1828
VSOBLVXA12AB018A9EF
p1829
aVSOGTGWG12A58A7B7BB
p1830
aVSOSJLRN12AB0189DE1
p1831
aVSOTGFFS12CF54651DE
p1832
aag1400
ag1403
ag1406
ag422
ag425
ag1431
ag1435
ag1439
ag1010
ag1530
ag1534
ag825
ag828
ag89
ag737
ag744
ag749
ag752
ag1363
ag239
ag242
a(lp1833
VSOBXWFO12A8C14284B
p1834
aVSOGNXBA12A8C142A16
p1835
aag45
ag48
ag52
ag660
ag663
ag428
ag1220
ag1224
ag811
ag76
ag79
ag321
ag324
ag1180
ag1393
ag1397
ag877
ag565
ag457
ag461
ag464
ag880
ag883
ag409
ag412
ag416
ag1041
ag1045
ag318
ag901
ag473
a(lp1836
VSOGKOGN12A6701FAC2
p1837
aVSOFUCBX12A6D4F6834
p1838
aag1349
ag345
ag351
ag357
ag210
ag213
ag1088
ag70
ag790
ag793
ag796
ag1518
ag1522
a(lp1839
VSOCCBWH12A6D4FACF2
p1840
aVSOAZSIG12A8C144E6C
p1841
aag271
ag1656
ag1660
ag1190
ag135
ag140
ag309
ag1604
ag575
a(lp1842
VSOJQTWH12AB01859CE
p1843
aVSOGNSJA12D021B25DE
p1844
aa(lp1845
VSOIRCLJ12AB0182760
p1846
aVSOTNOMR12AB0184BE6
p1847
aVSOURZTS12A8C1420A0
p1848
aa(lp1849
VSOHEKCX12A6D4F7CDA
p1850
aVSOFHOTX12A8C13F258
p1851
aVSOFOHVR12A6D4F8AAD
p1852
aa(lp1853
VSOSXMJQ12A8C1383EB
p1854
aVSOEEPGD12AB0187CA1
p1855
aag1183
ag1186
ag1135
a(lp1856
VSOEIGTM12A6D4F92E1
p1857
aVSOUZSCM12AB017DB8A
p1858
aag1346
a(lp1859
VSOHVMNK12AB018C783
p1860
aVSOKYNHU12AB018C773
p1861
aVSOFPLRL12A8C13B03F
p1862
aVSOFUKIE12AB018841D
p1863
aVSOGKOGN12A6701FAC2
p1864
aag1320
ag1324
ag92
ag96
ag597
ag602
ag1265
ag940
ag944
ag948
ag951
ag954
ag1337
ag283
ag287
ag814
ag817
ag1767
ag1775
ag1780
ag1784
ag1228
ag1204
ag1207
ag1210
ag1742
ag191
ag383
ag386
ag1542
ag315
ag1748
ag1751
ag1754
ag1707
ag562
ag330
a(lp1865
VSOCWZAB12A58A7DFE4
p1866
aVSOLATUS12AF72A2267
p1867
aag497
ag1213
ag1216
ag858
ag143
ag485
ag488
ag115
ag118
ag225
ag228
ag1234
ag1237
ag1668
ag1672
ag100
ag476
ag1648
ag1653
ag907
ag910
ag914
ag1334
ag1482
ag1485
ag58
ag61
ag65
ag572
ag148
ag152
ag155
ag1194
ag1197
ag1200
ag1475
ag467
a(lp1868
VSOJODST12A8C143BF7
p1869
aVSOJUIUU12A8C1436C7
p1870
aVSOGZLLZ12A6D4FA096
p1871
aVSOHELTA12AC468BF98
p1872
aag1722
ag968
ag715
ag654
ag657
ag1583
ag438
ag441
ag996
ag999
ag500
ag503
ag506
ag509
ag515
ag292
ag295
ag299
ag342
ag1013
ag1016
ag666
ag673
ag676
ag682
ag251
ag255
ag1598
ag1601
ag31
ag35
ag38
ag867
ag870
ag1409
ag1412
ag1416
ag111
ag121
ag126
ag129
ag132
ag708
ag711
a(lp1873
VSOEOYBK12AB017CB79
p1874
aVSONOVXM12AB0180239
p1875
aa(lp1876
VSOTRJXS12A8C13CBF3
p1877
aVSOBXUHM12AB01863D7
p1878
aVSOHAHWI12AB0187310
p1879
aag594
aa(lp1880
g303
ag306
ag1180
ag1542
ag1113
a(lp1881
VSOLGNCU12A6D228230
p1882
aVSOMGPAA12A6D4F8B79
p1883
aag1213
ag1216
ag654
ag657
ag1194
ag1197
ag1200
ag38
ag1833
ag1853
ag210
ag213
ag274
ag1378
ag705
ag1314
ag1317
ag1789
ag380
ag904
ag245
ag248
ag1792
ag1098
ag1102
ag1220
ag1224
ag1678
ag1681
ag1828
ag1446
ag1451
ag1007
ag799
ag802
ag1122
ag1796
ag1799
ag1802
ag1767
ag1775
ag1780
ag1784
ag1442
ag1384
ag1387
ag1604
ag578
ag1707
ag485
ag488
ag756
ag761
ag312
ag315
ag1431
ag1435
ag1439
ag1859
ag685
ag691
ag695
ag518
ag521
ag524
ag1816
ag476
ag594
ag1551
ag1554
ag1010
ag637
ag641
ag660
ag663
ag83
ag457
ag461
ag464
ag917
ag922
ag1514
ag1502
ag1819
ag1822
ag1298
ag1302
ag1305
ag1308
ag1311
ag3
ag6
ag9
ag14
ag874
ag1320
ag1324
ag1174
ag971
ag976
ag548
ag552
ag555
ag559
ag1745
ag1479
ag940
ag944
ag948
ag951
ag954
ag724
a(lp1884
VSOGXERX12AC468DBA2
p1885
aVSOWEAWG12A8C136660
p1886
aag733
ag277
ag1116
ag1639
ag1642
ag1645
ag191
ag409
ag412
ag416
ag814
ag817
ag1051
ag1054
ag715
ag1511
ag1598
ag1601
ag1595
ag1032
ag1035
ag1038
ag333
ag790
ag793
ag796
ag832
ag1135
ag259
ag22
ag25
ag363
ag366
ag572
ag1292
ag1295
ag1253
ag825
ag828
ag1865
ag232
ag235
ag1727
ag1730
ag1048
ag1349
ag1569
ag1574
ag360
ag432
ag1457
ag1461
ag1464
ag1327
ag1330
ag1177
ag531
ag1656
ag1660
ag765
ag772
ag783
ag1143
ag1147
ag318
ag1471
ag271
ag836
ag1390
ag1041
ag1045
ag673
ag676
ag682
ag1346
ag1363
ag1190
ag342
ag1475
ag369
ag372
ag17
ag58
ag61
ag65
ag1764
ag292
ag295
ag299
a(lp1887
VSOOPPXD12D0219058E
p1888
aVSOQFTOE12A8C13A6A8
p1889
aVSOLJOGT12A6D4F7D57
p1890
aVSOTNZDQ12AC960A590
p1891
aVSOCLYRL12AC468EC92
p1892
aa(lp1893
VSOMCILE12AB0187397
p1894
aVSOSDSAF127CF8DEAD9
p1895
aag1583
ag545
ag925
ag931
ag934
ag937
ag622
ag216
ag1073
ag597
ag602
ag858
ag345
ag351
ag357
ag852
ag855
ag1558
ag219
ag222
ag467
ag644
ag647
ag479
ag482
ag1240
ag1289
ag1243
ag1246
ag1249
ag1366
ag1372
ag1375
ag968
ag670
ag225
ag228
ag1578
ag70
ag31
ag35
ag1482
ag1485
ag666
ag1742
ag1684
ag1409
ag1412
ag1416
ag1825
ag1139
ag1492
ag428
ag565
ag811
ag887
ag575
ag1668
ag1672
ag786
ag1734
ag1737
ag115
ag118
ag1228
ag470
ag1839
ag438
ag441
ag1716
ag1719
ag473
ag1088
ag1265
ag1648
ag1653
ag1400
ag1403
ag1406
ag1062
ag1065
ag1069
ag708
ag711
ag1280
ag1285
ag528
ag1107
ag1110
ag435
ag207
ag330
ag92
ag96
ag400
ag403
ag406
ag497
ag500
ag503
ag506
ag509
ag515
ag983
ag987
ag990
ag148
ag152
ag155
ag1496
ag1499
ag907
ag910
ag914
ag957
ag960
ag963
ag605
ag609
ag616
ag619
ag1873
ag1876
ag251
ag255
ag727
ag730
ag1807
ag1810
ag1813
ag890
ag894
ag898
ag1561
ag1565
ag584
ag587
ag591
ag1607
ag1204
ag1207
ag1210
ag650
ag1868
ag880
ag883
ag1013
ag1016
ag89
ag562
ag1334
ag336
ag339
ag806
ag537
ag542
ag41
ag86
ag309
ag568
ag1748
ag1751
ag1754
ag1020
ag1023
aa(lp1896
g318
ag1268
ag1271
ag1727
ag1730
ag428
ag277
ag1558
ag811
ag457
ag461
ag464
ag363
ag366
ag1425
ag1428
ag207
ag470
ag1816
ag435
ag1076
ag1080
ag1085
ag225
ag228
ag1280
ag1285
ag111
ag1607
ag333
ag1675
ag880
ag883
ag1502
ag822
ag22
ag25
ag86
ag1479
ag17
ag336
ag339
ag1384
ag1387
ag292
ag295
ag299
ag839
ag842
ag846
ag45
ag48
ag52
ag673
ag676
ag682
ag650
ag1366
ag1372
ag1375
ag1390
ag1475
ag1135
ag1220
ag1224
ag1569
ag1574
ag594
ag1542
ag1107
ag1110
ag877
ag38
ag1578
ag1116
ag545
ag622
ag1856
ag345
ag351
ag357
ag1346
ag1734
ag1737
ag637
ag641
ag861
ag864
ag262
ag265
ag268
ag476
ag1354
ag1357
ag1748
ag1751
ag1754
ag274
ag409
ag412
ag416
ag168
ag271
ag572
ag1710
ag1713
ag1587
ag1591
ag724
ag1745
ag1792
ag445
ag925
ag931
ag934
ag937
ag1122
ag806
ag705
ag1400
ag1403
ag1406
ag1442
ag121
ag126
ag129
ag132
ag1113
ag1868
ag497
ag1204
ag1207
ag1210
ag191
ag172
ag176
ag180
ag183
ag1825
ag1689
ag1693
ag1696
ag1716
ag1719
ag1757
ag1760
ag1884
ag31
ag35
ag644
ag647
ag1615
ag1619
ag1194
ag1197
ag1200
ag1334
ag1265
ag1213
ag1216
ag219
ag222
ag1511
ag1051
ag1054
ag251
ag255
ag83
ag283
ag287
ag321
ag324
ag143
ag756
ag761
ag733
ag1656
ag1660
ag825
ag828
ag1048
ag708
ag711
ag1496
ag1499
ag1796
ag1799
ag1802
ag135
ag140
ag1174
ag1518
ag1522
ag1684
ag1073
ag309
ag858
ag3
ag6
ag9
ag14
ag1887
ag1893
ag380
ag565
ag1707
ag1610
ag968
ag1431
ag1435
ag1439
ag210
ag213
ag389
ag392
ag396
ag1169
ag1836
ag670
ag1722
ag105
ag108
ag312
ag1132
ag584
ag587
ag591
ag904
ag1327
ag1330
ag1604
ag685
ag691
ag695
ag1337
ag1471
ag1409
ag1412
ag1416
ag158
ag162
ag165
ag1314
ag1317
ag528
ag715
ag1253
ag1032
ag1035
ag1038
ag867
ag870
ag1234
ag1237
ag1639
ag1642
ag1645
ag303
ag306
ag1828
ag1183
ag1186
ag983
ag987
ag990
ag799
ag802
ag1865
ag790
ag793
ag796
ag1091
ag1095
ag727
ag730
ag654
ag657
ag1583
ag330
ag562
ag1243
ag1246
ag1249
ag1262
ag467
ag76
ag79
ag1859
ag718
ag721
ag1551
ag1554
ag1842
ag1845
ag1849
ag232
ag235
ag901
ag814
ag817
ag1289
ag1668
ag1672
ag41
ag531
ag786
ag548
ag552
ag555
ag559
ag996
ag999
ag315
ag92
ag96
ag449
ag452
ag360
ag1538
ag534
ag907
ag910
ag914
ag70
ag874
ag1010
ag485
ag488
ag479
ag482
ag58
ag61
ag65
ag578
ag765
ag772
ag783
ag1158
ag1161
ag1166
ag852
ag855
ag422
ag425
ag1240
ag1098
ag1102
ag280
ag1807
ag1810
ag1813
ag1363
ag1833
ag1492
ag473
ag1256
ag1259
ag1467
ag518
ag521
ag524
ag971
ag976
ag1873
ag1876
ag957
ag960
ag963
ag259
ag239
ag242
ag1742
ag666
ag1623
aa(lp1897
g1757
ag1760
ag983
ag987
ag990
ag1073
ag1836
ag790
ag793
ag796
ag1446
ag1451
ag1113
ag528
ag194
ag199
ag204
ag545
ag1482
ag1485
ag1825
ag1354
ag1357
ag336
ag339
ag1819
ag1822
ag1262
ag1545
ag1548
ag58
ag61
ag65
ag887
ag1853
ag1678
ag1681
ag786
ag259
ag1337
ag435
ag1194
ag1197
ag1200
ag383
ag386
ag479
ag482
ag1091
ag1095
ag1607
ag724
ag660
ag663
ag1583
ag92
ag96
ag438
ag441
ag271
ag799
ag802
ag1007
ag280
ag858
ag625
ag629
ag1578
ag121
ag126
ag129
ag132
ag650
ag1393
ag1397
ag210
ag213
ag1828
ag1816
ag705
ag1289
ag861
ag864
ag1228
ag219
ag222
ag996
ag999
ag685
ag691
ag695
ag1492
ag605
ag609
ag616
ag619
ag1051
ag1054
ag1518
ag1522
ag1807
ag1810
ag1813
ag3
ag6
ag9
ag14
ag1107
ag1110
ag1856
ag1538
ag548
ag552
ag555
ag559
ag135
ag140
ag1363
ag1722
ag1292
ag1295
ag1276
ag274
ag1032
ag1035
ag1038
ag225
ag228
ag1689
ag1693
ag1696
ag1615
ag1619
ag315
ag1190
ag1334
ag1346
ag979
ag1265
ag874
ag1623
ag1842
ag1845
ag1849
ag1378
ag303
ag306
ag342
ag637
ag641
ag360
ag445
ag1475
ag76
ag79
ag1587
ag1591
ag852
ag855
ag1727
ag1730
ag457
ag461
ag464
ag1390
ag666
ag1648
ag1653
ag22
ag25
ag292
ag295
ag299
ag733
ag1425
ag1428
ag1183
ag1186
ag251
ag255
ag1792
ag727
ag730
ag1633
ag1240
ag1174
ag389
ag392
ag396
ag1442
ag1280
ag1285
ag904
ag1135
ag565
ag86
ag572
ag1668
ag1672
ag1471
ag409
ag412
ag416
ag806
ag718
ag721
ag1865
ag1675
ag1243
ag1246
ag1249
ag825
ag828
ag1530
ag1534
ag1558
ag1881
ag622
ag172
ag176
ag180
ag183
ag673
ag676
ag682
ag1767
ag1775
ag1780
ag1784
ag1234
ag1237
ag1604
ag1707
ag400
ag403
ag406
ag1169
ag1496
ag1499
ag1734
ag1737
ag1873
ag1876
ag309
ag1150
ag1155
ag1116
ag907
ag910
ag914
ag1010
ag1029
ag1132
ag245
ag248
ag1320
ag1324
ag1833
ag1502
ag1342
ag31
ag35
ag1710
ag1713
ag476
ag1041
ag1045
ag670
ag1419
ag1422
ag1020
ag1023
ag1409
ag1412
ag1416
ag715
ag345
ag351
ag357
ag1656
ag1660
ag239
ag242
ag100
ag148
ag152
ag155
ag957
ag960
ag963
ag1598
ag1601
ag41
ag1639
ag1642
ag1645
ag756
ag761
ag1431
ag1435
ag1439
ag105
ag108
ag1748
ag1751
ag1754
ag1610
ag877
ag1569
ag1574
ag1220
ag1224
ag1327
ag1330
ag380
ag1887
ag1893
ag1511
ag562
ag191
ag491
ag494
ag1314
ag1317
ag83
ag765
ag772
ag783
ag940
ag944
ag948
ag951
ag954
ag654
ag657
ag1839
ag1158
ag1161
ag1166
ag1180
ag1256
ag1259
ag890
ag894
ag898
ag45
ag48
ag52
ag1859
ag1384
ag1387
ag1076
ag1080
ag1085
ag312
ag836
ag1457
ag1461
ag1464
ag737
ag744
ag749
ag752
ag432
ag1796
ag1799
ag1802
ag1764
ag321
ag324
ag839
ag842
ag846
ag1213
ag1216
ag500
ag503
ag506
ag509
ag515
ag968
ag568
ag1298
ag1302
ag1305
ag1308
ag1311
ag428
ag1884
ag822
ag1626
ag1629
ag467
ag1268
ag1271
aa(lp1898
g1174
ag1204
ag1207
ag1210
ag1842
ag1845
ag1849
ag1734
ag1737
ag565
ag360
ag887
ag715
ag925
ag931
ag934
ag937
ag191
ag811
ag83
ag1633
ag457
ag461
ag464
ag1853
ag518
ag521
ag524
ag979
ag216
ag1220
ag1224
ag968
ag115
ag118
ag1390
ag1745
ag1088
ag1479
ag1595
ag105
ag108
ag724
ag1256
ag1259
ag1530
ag1534
ag1471
ag983
ag987
ag990
ag70
ag100
ag333
ag262
ag265
ag268
ag1337
ag92
ag96
ag832
ag1819
ag1822
ag1419
ag1422
ag274
ag1675
ag1482
ag1485
ag880
ag883
ag1825
ag467
ag654
ag657
ag625
ag629
ag342
ag877
ag685
ag691
ag695
ag622
ag435
ag1342
ag1475
ag874
ag737
ag744
ag749
ag752
ag718
ag721
ag1742
ag1314
ag1317
ag1349
ag1887
ag1893
ag1607
ag1626
ag1629
ag1538
ag336
ag339
ag858
ag143
ag321
ag324
ag1098
ag1102
ag1180
ag1623
ag1639
ag1642
ag1645
ag1833
ag303
ag306
ag605
ag609
ag616
ag619
ag1346
ag1158
ag1161
ag1166
ag1598
ag1601
ag1859
ag904
ag1699
ag1704
ag1280
ag1285
ag1334
ag1393
ag1397
ag822
ag1354
ag1357
ag548
ag552
ag555
ag559
ag1816
ag280
ag1320
ag1324
ag1551
ag1554
ag1610
ag597
ag602
ag1253
ag727
ag730
ag637
ag641
ag670
ag1116
ag1298
ag1302
ag1305
ag1308
ag1311
ag369
ag372
ag1881
ag534
ag578
ag1492
ag1177
ag1107
ag1110
ag1865
ag1363
ag1767
ag1775
ag1780
ag1784
ag660
ag663
ag1727
ag1730
ag1467
ag1558
ag1496
ag1499
ag1545
ag1548
ag1578
ag312
ag1710
ag1713
ag1689
ag1693
ag1696
ag292
ag295
ag299
ag1265
ag479
ag482
ag449
ag452
ag277
ag1190
ag1514
ag996
ag999
ag705
ag790
ag793
ag796
ag491
ag494
ag1446
ag1451
ag1511
ag1366
ag1372
ag1375
ag1684
ag225
ag228
ag251
ag255
ag1240
ag1836
ag158
ag162
ag165
ag1062
ag1065
ag1069
ag330
ag940
ag944
ag948
ag951
ag954
ag1868
ag1569
ag1574
ag438
ag441
ag41
ag1243
ag1246
ag1249
ag861
ag864
ag383
ag386
ag470
ag1722
ag1561
ag1565
ag1678
ag1681
ag568
ag1807
ag1810
ag1813
ag445
ag1384
ag1387
ag422
ag425
ag1013
ag1016
ag852
ag855
ag1073
ag528
ag17
ag318
ag650
ag207
ag31
ag35
ag389
ag392
ag396
ag839
ag842
ag846
ag3
ag6
ag9
ag14
ag644
ag647
ag58
ag61
ag65
ag733
ag1542
ag1378
ag1648
ag1653
ag194
ag199
ag204
ag1213
ag1216
ag1839
ag917
ag922
ag148
ag152
ag155
ag1828
ag111
ag971
ag976
ag1276
ag1518
ag1522
ag38
ag814
ag817
ag1757
ag1760
ag1091
ag1095
ag89
ag708
ag711
ag1032
ag1035
ag1038
ag572
ag1135
ag1457
ag1461
ag1464
ag1587
ag1591
ag400
ag403
ag406
ag666
ag210
ag213
ag1194
ag1197
ag1200
ag1048
ag1668
ag1672
ag380
ag562
ag1228
ag957
ag960
ag963
ag836
ag1425
ag1428
ag890
ag894
ag898
ag1076
ag1080
ag1085
ag259
ag1289
ag1604
ag673
ag676
ag682
ag219
ag222
ag1789
ag315
ag1139
aa(lp1899
g1122
ag1177
ag1204
ag1207
ag1210
ag1479
ag333
ag654
ag657
ag685
ag691
ag695
ag45
ag48
ag52
ag572
ag1393
ag1397
ag1268
ag1271
ag1228
ag1442
ag1518
ag1522
ag1502
ag1656
ag1660
ag1828
ag917
ag922
ag867
ag870
ag568
ag1716
ag1719
ag1007
ag143
ag345
ag351
ag357
ag1048
ag330
ag194
ag199
ag204
ag1551
ag1554
ag1471
ag121
ag126
ag129
ag132
ag545
ag1220
ag1224
ag360
ag548
ag552
ag555
ag559
ag1289
ag239
ag242
ag1107
ag1110
ag1538
ag1041
ag1045
ag811
ag111
ag1425
ag1428
ag670
ag1492
ag1727
ag1730
ag428
ag1839
ag309
ag1496
ag1499
ag470
ag369
ag372
ag303
ag306
ag92
ag96
ag467
ag1514
ag528
ag1400
ag1403
ag1406
ag1561
ag1565
ag1240
ag594
ag1836
ag457
ag461
ag464
ag445
ag312
ag219
ag222
ag715
ag1190
ag1887
ag1893
ag1511
ag70
ag1174
ag1833
ag799
ag802
ag996
ag999
ag1354
ag1357
ag225
ag228
ag1298
ag1302
ag1305
ag1308
ag1311
ag1615
ag1619
ag336
ag339
ag1013
ag1016
ag666
ag485
ag488
ag971
ag976
ag1169
ag1135
ag1710
ag1713
ag1346
ag1276
ag836
ag1789
ag597
ag602
ag1062
ag1065
ag1069
ag825
ag828
ag135
ag140
ag1767
ag1775
ag1780
ag1784
ag1051
ag1054
ag822
ag31
ag35
ag887
ag383
ag386
ag1881
ag342
ag1578
ag1648
ag1653
ag1610
ag168
ag1868
ag904
ag1796
ag1799
ag1802
ag292
ag295
ag299
ag1675
ag790
ag793
ag796
ag1213
ag1216
ag852
ag855
ag605
ag609
ag616
ag619
ag1865
ag500
ag503
ag506
ag509
ag515
ag1748
ag1751
ag1754
ag41
ag1842
ag1845
ag1849
ag705
ag435
ag874
ag432
ag786
ag1745
ag1194
ag1197
ag1200
ag718
ag721
ag1668
ag1672
ag1234
ag1237
ag1113
ag1587
ag1591
ag1699
ag1704
ag363
ag366
ag1132
ag1873
ag1876
ag1262
ag479
ag482
ag765
ag772
ag783
ag983
ag987
ag990
ag562
ag83
ag839
ag842
ag846
ag1020
ag1023
ag1807
ag1810
ag1813
ag531
ag1859
ag191
ag158
ag162
ag165
ag277
ag259
ag1143
ag1147
ag1337
ag1816
ag1607
ag1684
ag733
ag1446
ag1451
ag890
ag894
ag898
ag901
ag724
ag1595
ag1158
ag1161
ag1166
ag1792
ag1856
ag1409
ag1412
ag1416
ag449
ag452
ag637
ag641
ag1569
ag1574
ag89
ag880
ag883
ag262
ag265
ag268
ag318
ag979
ag1378
ag1633
ag100
ag537
ag542
ag491
ag494
ag518
ag521
ag524
ag1884
ag1530
ag1534
ag650
ag925
ag931
ag934
ag937
ag271
ag1088
ag940
ag944
ag948
ag951
ag954
ag1384
ag1387
ag534
ag1032
ag1035
ag1038
ag1757
ag1760
ag1342
ag1029
ag389
ag392
ag396
ag1689
ag1693
ag1696
ag1150
ag1155
ag756
ag761
ag1707
ag422
ag425
ag1116
ag1623
ag1457
ag1461
ag1464
ag1076
ag1080
ag1085
ag1265
ag1819
ag1822
ag907
ag910
ag914
ag578
ag832
ag1256
ag1259
ag1363
ag245
ag248
ag1183
ag1186
ag380
ag1678
ag1681
ag210
ag213
ag1604
ag1334
ag814
ag817
ag38
ag3
ag6
ag9
ag14
ag644
ag647
aa(lp1900
g1143
ag1147
ag968
ag1194
ag1197
ag1200
ag1569
ag1574
ag262
ag265
ag268
ag1819
ag1822
ag874
ag625
ag629
ag219
ag222
ag336
ag339
ag1699
ag1704
ag1457
ag1461
ag1464
ag1292
ag1295
ag207
ag383
ag386
ag1689
ag1693
ag1696
ag1010
ag491
ag494
ag86
ag22
ag25
ag312
ag1678
ag1681
ag867
ag870
ag979
ag318
ag814
ag817
ag1442
ag111
ag1041
ag1045
ag786
ag1158
ag1161
ag1166
ag1722
ag1833
ag733
ag1836
ag660
ag663
ag1610
ag333
ag1013
ag1016
ag1276
ag1446
ag1451
ag148
ag152
ag155
ag1716
ag1719
ag622
ag1887
ag1893
ag971
ag976
ag1289
ag1807
ag1810
ag1813
ag1727
ag1730
ag309
ag1393
ag1397
ag605
ag609
ag616
ag619
ag597
ag602
ag1007
ag432
ag1511
ag1604
ag400
ag403
ag406
ag1088
ag1116
ag594
ag1865
ag449
ag452
ag584
ag587
ag591
ag790
ag793
ag796
ag839
ag842
ag846
ag1220
ag1224
ag1262
ag1265
ag1139
ag1091
ag1095
ag1409
ag1412
ag1416
ag271
ag342
ag861
ag864
ag239
ag242
ag121
ag126
ag129
ag132
ag904
ag917
ag922
ag724
ag644
ag647
ag1354
ag1357
ag363
ag366
ag1190
ag1419
ag1422
ag194
ag199
ag204
ag1492
ag996
ag999
ag38
ag1150
ag1155
ag1656
ag1660
ag1253
ag1873
ag1876
ag887
ag1349
ag705
ag1320
ag1324
ag1390
ag836
ag1881
ag568
ag654
ag657
ag168
ag1400
ag1403
ag1406
ag1169
ag1530
ag1534
ag1542
ag737
ag744
ag749
ag752
ag1029
ag1578
ag467
ag822
ag1684
ag274
ag435
ag1243
ag1246
ag1249
ag799
ag802
ag45
ag48
ag52
ag1748
ag1751
ag1754
ag1479
ag756
ag761
ag409
ag412
ag416
ag303
ag306
ag825
ag828
ag1623
ag1856
ag479
ag482
ag1204
ag1207
ag1210
ag708
ag711
ag1337
ag957
ag960
ag963
ag1177
ag210
ag213
ag58
ag61
ag65
ag232
ag235
ag191
ag135
ag140
ag715
ag1648
ag1653
ag1132
ag1471
ag901
ag1707
ag41
ag718
ag721
ag1314
ag1317
ag1256
ag1259
ag1020
ag1023
ag1051
ag1054
ag500
ag503
ag506
ag509
ag515
ag1113
ag1298
ag1302
ag1305
ag1308
ag1311
ag292
ag295
ag299
ag1334
ag1598
ag1601
ag673
ag676
ag682
ag315
ag727
ag730
ag880
ag883
ag1234
ag1237
ag1842
ag1845
ag1849
ag1496
ag1499
ag537
ag542
ag115
ag118
ag1789
ag380
ag92
ag96
ag1062
ag1065
ag1069
ag251
ag255
ag100
ag545
ag143
ag1366
ag1372
ag1375
ag670
ag345
ag351
ag357
ag1467
ag877
ag259
ag1615
ag1619
ag1675
ag1378
ag575
ag1745
ag1183
ag1186
ag1825
ag1213
ag1216
ag572
ag1828
ag1431
ag1435
ag1439
ag1884
ag277
ag17
ag105
ag108
ag1796
ag1799
ag1802
ag172
ag176
ag180
ag183
ag1626
ag1629
ag1561
ag1565
ag89
ag389
ag392
ag396
ag650
ag330
ag1107
ag1110
ag1228
ag31
ag35
ag1135
ag1587
ag1591
ag280
ag476
ag565
ag473
ag216
ag1764
ag1122
ag1558
ag1639
ag1642
ag1645
ag890
ag894
ag898
ag283
ag287
ag1545
ag1548
ag1098
ag1102
ag1538
ag1363
aa(lp1901
g971
ag976
ag1007
ag312
ag1734
ag1737
ag143
ag467
ag1598
ag1601
ag121
ag126
ag129
ag132
ag1048
ag1595
ag1678
ag1681
ag1604
ag274
ag1378
ag825
ag828
ag1431
ag1435
ag1439
ag594
ag625
ag629
ag1289
ag756
ag761
ag497
ag1268
ag1271
ag1745
ag1825
ag1320
ag1324
ag342
ag715
ag1475
ag1626
ag1629
ag1194
ag1197
ag1200
ag673
ag676
ag682
ag874
ag880
ag883
ag1029
ag239
ag242
ag1020
ag1023
ag1828
ag1327
ag1330
ag996
ag999
ag685
ag691
ag695
ag38
ag1098
ag1102
ag1583
ag500
ag503
ag506
ag509
ag515
ag565
ag575
ag799
ag802
ag259
ag1648
ag1653
ag1088
ag1442
ag887
ag1158
ag1161
ag1166
ag1314
ag1317
ag1530
ag1534
ag1363
ag907
ag910
ag914
ag1518
ag1522
ag1204
ag1207
ag1210
ag537
ag542
ag1722
ag321
ag324
ag58
ag61
ag65
ag1796
ag1799
ag1802
ag1492
ag280
ag70
ag1107
ag1110
ag315
ag1292
ag1295
ag1656
ag1660
ag660
ag663
ag1143
ag1147
ag445
ag422
ag425
ag369
ag372
ag822
ag292
ag295
ag299
ag1496
ag1499
ag1859
ag1135
ag1836
ag1623
ag172
ag176
ag180
ag183
ag1887
ag1893
ag262
ag265
ag268
ag271
ag1482
ag1485
ag115
ag118
ag1446
ag1451
ag1032
ag1035
ag1038
ag1366
ag1372
ag1375
ag1177
ag548
ag552
ag555
ag559
ag852
ag855
ag708
ag711
ag1228
ag1865
ag470
ag765
ag772
ag783
ag786
ag1346
ag1010
ag1742
ag309
ag1349
ag654
ag657
ag245
ag248
ag1234
ag1237
ag1013
ag1016
ag1789
ag1425
ag1428
ag1538
ag435
ag1884
ag568
ag400
ag403
ag406
ag86
ag1384
ag1387
ag1710
ag1713
ag957
ag960
ag963
ag41
ag979
ag724
ag1615
ag1619
ag1471
ag1342
ag1419
ag1422
ag1668
ag1672
ag135
ag140
ag389
ag392
ag396
ag1169
ag666
ag333
ag605
ag609
ag616
ag619
ag336
ag339
ag1502
ag867
ag870
ag432
ag1833
ag428
ag1764
ag1542
ag718
ag721
ag22
ag25
ag45
ag48
ag52
ag1545
ag1548
ag901
ag283
ag287
ag531
ag727
ag730
ag1393
ag1397
ag1819
ag1822
ag1569
ag1574
ag1689
ag1693
ag1696
ag1807
ag1810
ag1813
ag1868
ag148
ag152
ag155
ag572
ag1253
ag890
ag894
ag898
ag92
ag96
ag1354
ag1357
ag1051
ag1054
ag1337
ag318
ag1578
ag219
ag222
ag1076
ag1080
ag1085
ag1633
ag1514
ag1551
ag1554
ag518
ag521
ag524
ag528
ag3
ag6
ag9
ag14
ag1748
ag1751
ag1754
ag1409
ag1412
ag1416
ag216
ag1707
ag89
ag1587
ag1591
ag1180
ag806
ag1639
ag1642
ag1645
ag814
ag817
ag562
ag1122
ag476
ag1091
ag1095
ag210
ag213
ag1792
ag194
ag199
ag204
ag479
ag482
ag1558
ag1561
ag1565
ag76
ag79
ag904
ag380
ag733
ag1511
ag1220
ag1224
ag1842
ag1845
ag1849
ag449
ag452
ag1684
ag1174
ag1240
ag925
ag931
ag934
ag937
ag836
ag983
ag987
ag990
ag877
ag1139
ag207
ag83
ag330
ag832
ag650
ag839
ag842
ag846
ag1113
ag105
ag108
ag1213
ag1216
ag1699
ag1704
aa.