(lp1
(lp2
(lp3
VSOLESAB12AC468AE95
p4
aVSOIQPIO12AB017FEFD
p5
aa(lp6
VSOMEKMO12A8AE464B0
p7
aVSORNRVK12AB017B36C
p8
aVSOQEOXK12A58A7DBD1
p9
aVSOEKMMG12A8C1446D5
p10
aa(lp11
VSOLQNMW12A8C13A068
p12
aVSOYKVIK12A8C143D34
p13
aa(lp14
VSODPCIZ12A8C13EA03
p15
aVSOUDBHI12A6D4F673A
p16
aa(lp17
VSOBEJFD12A58A798EC
p18
aVSOGXKVX12AB018A491
p19
aa(lp20
VSOTHHDG12A8C1433B9
p21
aVSOYSNUA12AB0183440
p22
aVSOFUSJJ12AB0185377
p23
aVSOAIWAR12AB0186F6D
p24
aVSOOHSXJ12AB0185225
p25
aa(lp26
VSOKDPFT12A8C14098D
p27
aVSOIMWID12AB0188C62
p28
aa(lp29
VSOPIKFN12AAF3B49B0
p30
aVSOERQHK12A8C142D75
p31
aa(lp32
VSOUISFA12AB01897A2
p33
aVSOZPLPU12AB017EB13
p34
aa(lp35
VSOEVXMO12A8C13BB52
p36
aVSOPMUIV12AB017A903
p37
aVSOGIUOL12AB01813DE
p38
aVSOHFSKB12A67020ED3
p39
aa(lp40
VSOHREDZ12AB018BE1E
p41
aVSOKNWEZ12A8C13BB4B
p42
aa(lp43
VSOAXRDJ12AB017BDF0
p44
aVSOFZFNX12AAF3B165C
p45
aVSOBMBLI12AB0181C53
p46
aa(lp47
VSOYGSZL12A58A7CF4F
p48
aVSOYTJAQ12CF5CFD5F1
p49
aa(lp50
VSOZAJUP12A58A7C559
p51
aVSOGAPZC12A8C1388E7
p52
aVSORQMAX12A6D4F808A
p53
aa(lp54
VSOTXGSL12AB01874AF
p55
aVSOQPNBD12A8C138948
p56
aa(lp57
VSOGSMFF12A8C13F5F9
p58
aVSOEVXMO12A8C13BB52
p59
aVSOQMNXZ12A8C132F2F
p60
aVSOBYJLG12A8C14340A
p61
aa(lp62
VSODOPOK12A58A8174F
p63
aVSOUBDJX12A6D4F78E8
p64
aVSOINQGJ12AB018C62F
p65
aVSOZNVNX12CF5F87502
p66
aa(lp67
VSOBLBDZ12A6D4F7416
p68
aVSOZJCPQ12AB0184623
p69
aa(lp70
VSOMDSEX12A6701DD52
p71
aVSOFVPMR12A6D4F7FB0
p72
aa(lp73
VSOHBJVK12A6D223A7C
p74
aVSOKBZPD12AAF3B224E
p75
aVSOCZHNX12AB0181412
p76
aa(lp77
VSOJFUNC12CF5F8887C
p78
aVSOOBBAG12A58A77B26
p79
aa(lp80
VSOHSMUY12A6D4F8B56
p81
aVSOLWOXW12D021B2450
p82
aa(lp83
VSOPIFJT12A81C221AC
p84
aVSOTOYIX12CF5F88E7E
p85
aVSOBEITD12A6D4F8C38
p86
aVSOHUCBK12CF5F87CF7
p87
aVSOIDZKN12CF5F873B6
p88
aa(lp89
VSOLRGVL12A8C143BC3
p90
aVSOCXMRE12AB018AE72
p91
aa(lp92
VSOGIUOL12AB01813DE
p93
aVSOBPYJF12AB0182C3B
p94
aa(lp95
VSOURSTT12A8C13F838
p96
aVSOOGPYT12A8C1326C3
p97
aa(lp98
VSONFQIZ12B350584BA
p99
aVSODYCPN12A6701FC7F
p100
aa(lp101
VSOPTIFL12AB01829C5
p102
aVSOYAVYT12A8C136E6D
p103
aa(lp104
VSOVQROO12AB018BDEC
p105
aVSOSVDCI12AB0185715
p106
aa(lp107
VSONEBWF12A8C1432F4
p108
aVSOSBGAM12A58A7EB59
p109
aVSOMDRBE12AB01813EA
p110
aa(lp111
VSOMCZQT12AAF3B49E1
p112
aVSOFZFNX12AAF3B165C
p113
aa(lp114
VSOEHMOT12A8C143D99
p115
aVSOEKMMG12A8C1446D5
p116
aVSOWIOLK12A81356D4A
p117
aVSOVQROO12AB018BDEC
p118
aVSOQVWGT12AB01863CC
p119
aa(lp120
VSOMSCJJ12A6D4F6730
p121
aVSOBKWQN12A6D4F779C
p122
aa(lp123
VSOBFYQI12AB018AF26
p124
aVSOBUVJA12AB0188CCE
p125
aa(lp126
VSOYCJXC12AB0181221
p127
aVSOQJCXI12CF5F883FC
p128
aa(lp129
VSOFZBRG12D0219A470
p130
aVSOOTOEE12A8C1384B4
p131
aa(lp132
VSOOHLRC12A8C13882C
p133
aVSOJKVZJ12A8C14256D
p134
aVSOVQROO12AB018BDEC
p135
aVSOROBWJ12A6D4F79C2
p136
aVSOYGSZL12A58A7CF4F
p137
aVSOBDKGC12A8C139361
p138
aa(lp139
VSOWWKGT12A8C1393F3
p140
aVSONWNEK12A67ADBD30
p141
aa(lp142
VSOAVGQP12D0219A353
p143
aVSOJTQOA12A81357322
p144
aVSOSJYGX12A81C2165C
p145
aa(lp146
VSOWNWDI12A6D4F3BCA
p147
aVSODCVPC12A6D4F6704
p148
aa(lp149
VSOOPVZX12A6D4F78F4
p150
aVSOJODHO12AC4687FB9
p151
aVSOKAPPQ12A6D4F3BE0
p152
aVSOUIDTZ12A6D4F6737
p153
aa(lp154
VSODRRKC12A6D4F790C
p155
aVSOIUWDZ12A6D4F70DB
p156
aa(lp157
VSOJBLTR12AB018611D
p158
aVSOQNGUR12AB018808D
p159
aVSOVHJDV12AB0188F39
p160
aVSOTXHEU12AB0184185
p161
aVSOFIAND12AB018D73A
p162
aVSOIVLXL12AB0185635
p163
aa(lp164
VSOGYBHZ12AB01815E9
p165
aVSOXPWUV12AB0186F5E
p166
aa(lp167
VSOHEZOI12D021989AA
p168
aVSONKMIM12A8C141A71
p169
aVSORVETV12A8C141FC7
p170
aa(lp171
VSOMDSHI12AB0182D92
p172
aVSOEETOP12A8C14284C
p173
aVSOENZYU12A8C14311B
p174
aVSOKHKTP12A8C146498
p175
aVSOSSNID12AB0181D7D
p176
aVSOLLWLW12AB018A77E
p177
aVSOGQEGA12AB0180D5B
p178
aa(lp179
VSOKXDQH12AC4687FB7
p180
aVSOGDCMS12AB017FBD8
p181
aa(lp182
VSOPTGXI12AB0183D4A
p183
aVSOCTSZN12AB017C6C3
p184
aa(lp185
VSOEHXQG12AB0182E1A
p186
aVSOHVAGD12AB0181761
p187
aa(lp188
VSOKQDNE12A6D4FA202
p189
aVSOXJJPE12A8AE46A36
p190
aa(lp191
VSOMCZQT12AAF3B49E1
p192
aVSOEPJIM12A81356CF3
p193
aVSOWJFEK12A8AE44F4D
p194
aa(lp195
VSOHJSEQ12A67020EDB
p196
aVSOZJCPQ12AB0184623
p197
aa(lp198
VSOOTQFN12AB0183BA4
p199
aVSOVQROO12AB018BDEC
p200
aa(lp201
VSOOHSKI12A8C13B790
p202
aVSOKBZPD12AAF3B224E
p203
aa(lp204
VSOBLKUK12AB017CBD1
p205
aVSOUAPEQ12AB017D084
p206
aa(lp207
VSOLESAB12AC468AE95
p208
aVSOLAUAK12A6701E734
p209
aa(lp210
VSOVQROO12AB018BDEC
p211
aVSOOVWDW12A8C1407CC
p212
aVSOTOTYA12AAF3B32B0
p213
aa(lp214
VSOWHDBF12A8C141C8D
p215
aVSOWIOLK12A81356D4A
p216
aVSOYCJXC12AB0181221
p217
aa(lp218
VSOHAIRZ12A8C141966
p219
aVSONOEDN12A582A2289
p220
aVSOXJFDQ12A8C13643B
p221
aa(lp222
VSOYVTGM12A8AE47EEF
p223
aVSOICZOV12A8C13C88C
p224
aVSOIKUTS12A8C13285B
p225
aa(lp226
VSOZRYST12812D07C72
p227
aVSOPRZOH12D0219836D
p228
aa(lp229
VSOMITIJ12AB017CAFA
p230
aVSOFVMNA12D021B12F7
p231
aa(lp232
VSOMSULD12A6D4F6CF6
p233
aVSOWICZY12A6D4F85D7
p234
aa(lp235
VSOTGEOM12A6D4F8BAF
p236
aVSOVLROM12A6D4FBC93
p237
aVSOTUNEE12A8C138CA9
p238
aVSOLKOQG12A6310D8BC
p239
aa(lp240
VSOSKZRU12A6D4FC92C
p241
aVSOWZYPQ12AAF3B1F3D
p242
aa(lp243
VSORJNSK12A8C137C26
p244
aVSOVUZOR12A6D4F7909
p245
aa(lp246
VSOQOKHW12D021975C7
p247
aVSOHWRJH12A8C139AFC
p248
aVSOLAPQE12A8C140647
p249
aVSOCCYPB12A58A7BAB2
p250
aVSOMAGFF12A6D4F7231
p251
aa(lp252
VSOXIIIM12A6D4F66C8
p253
aVSOSEVPJ12AB01853DB
p254
aa(lp255
VSOYHRRP12A81C21910
p256
aVSODBCUG12A67AE0927
p257
aa(lp258
VSOYEMLH12AB018708D
p259
aVSODVVYU12AB0187605
p260
aa(lp261
VSOBKWQN12A6D4F779C
p262
aVSOFWDIW12A6D4F3BCC
p263
aa(lp264
VSOTVSTF12A58A79A58
p265
aVSOQEYMZ12A6701DD4F
p266
aa(lp267
VSONBPNA12AB018116F
p268
aVSOJGZCF12A6D4F8AAC
p269
aVSOPRPTE12A6310DF7B
p270
aVSOAJRRG12A6D4F7C93
p271
aa(lp272
VSOQGCBJ12A6310D845
p273
aVSODPCIZ12A8C13EA03
p274
aa(lp275
VSOBUVJA12AB0188CCE
p276
aVSOXVCBH12A6D4FB06B
p277
aVSOIQDQI12A58A77946
p278
aVSOBEQJX12A58A7C294
p279
aa(lp280
VSOINQGJ12AB018C62F
p281
aVSODKZWK12A8C13494A
p282
aVSOZGMBA12A6701F4D7
p283
aa(lp284
VSOTRNAV12AB018970E
p285
aVSOQYGZZ12A6701E2E8
p286
aVSOJFUNC12CF5F8887C
p287
aa(lp288
VSOSZXYA12AF72AB027
p289
aVSOILLOM12A670214A1
p290
aVSONLRRW12A6D4F7C64
p291
aa(lp292
VSOGIUOL12AB01813DE
p293
aVSOYNBNG12A6D4F8A7F
p294
aa(lp295
VSOGTOJF12A6D4F70D5
p296
aVSOAJGGN12AC90715DA
p297
aa(lp298
VSOOVQWD12B0B80C905
p299
aVSOAQWIQ12A8C13D70A
p300
aa(lp301
VSOSFYYK12A8C13B177
p302
aVSODPCIZ12A8C13EA03
p303
aa(lp304
VSOJQHYP12A6310E8A3
p305
aVSONPXIB12CF5F8906D
p306
aVSOGKASK12D0219A265
p307
aa(lp308
VSOKVEKX12CF530D5AF
p309
aVSOYPTPK12CF5CFD7A2
p310
aVSOSVHAF12D02198D2E
p311
aa(lp312
VSODTILH12AB0180E6C
p313
aVSODTZQV12A6D4F6735
p314
aVSOMDRBE12AB01813EA
p315
aa(lp316
VSOBPTAO12A8C139C57
p317
aVSOXJNCX12A6701EA65
p318
aa(lp319
VSOHTQIM12A8C1359A8
p320
aVSOYCJXC12AB0181221
p321
aVSOLBVRB12AB0189DCD
p322
aa(lp323
VSOEHYNX12A6D4F7420
p324
aVSOASBWR12AB0181EA4
p325
aa(lp326
VSOZJCPQ12AB0184623
p327
aVSOLLNDB12CF5F87280
p328
aa(lp329
VSOWIOLK12A81356D4A
p330
aVSOWJKYW12AB0184BA9
p331
aa(lp332
VSOVQTLJ12A6D4F89A2
p333
aVSOSPJOT12A8C13F44A
p334
aa(lp335
VSOSNSUH12A67AE0E14
p336
aVSOLVUXK12AAF3B33E2
p337
aVSOFBGNM12AF72A315E
p338
aVSOLSODY12A8C1348AA
p339
aVSOJTNID12A8AE47AF7
p340
aVSOIUQJU12A8AE460D3
p341
aa(lp342
VSOIUQJU12A8AE460D3
p343
aVSOIBDQV12A8C133A1E
p344
aa(lp345
VSOPIWDP12A6310D8B9
p346
aVSOLWHPE12AB017E204
p347
aa(lp348
VSOFTXEH12A8C144DD0
p349
aVSODFRGD12AB018B457
p350
aa(lp351
VSOTJHSD12AC468AF5D
p352
aVSOPTGXI12AB0183D4A
p353
aa(lp354
VSOFZXCH12A58A7B467
p355
aVSOKUSMK12A81C22C83
p356
aa(lp357
VSOFQCXR12AF72A8F81
p358
aVSOFMLJT12A6D4FCD14
p359
aa(lp360
VSOUHLED12AB0186F26
p361
aVSOAXRDJ12AB017BDF0
p362
aVSOVGPLS12CF5F87635
p363
aa(lp364
VSOBUVJA12AB0188CCE
p365
aVSOHHCJC12AB0181440
p366
aVSOHVAGD12AB0181761
p367
aVSOMCZQT12AAF3B49E1
p368
aVSOOGWXF12A58A7AAE6
p369
aa(lp370
VSOVTWII12AB0182D1E
p371
aVSORNOMS12A6D4F6D1B
p372
aVSOOXOGZ12AB0184526
p373
aa(lp374
VSOJLJZH12A81C206A2
p375
aVSOQSGLG12AB0181B01
p376
aa(lp377
VSOFGRKP12A58A78AD6
p378
aVSOGNYGF12A8AE479E9
p379
aa(lp380
VSOEOXXK12A6D4F670B
p381
aVSOZNSLO12AB017C8DC
p382
aa(lp383
VSOHTHWC12A8AE48620
p384
aVSOQVUMH12AB018A755
p385
aVSOSYHDK12A58A75BAD
p386
aa(lp387
VSOUQHTP12A6D4F7E73
p388
aVSOEXEIW12AB0189FCF
p389
aa(lp390
VSORQXAF12A6D4F93CE
p391
aVSOFMRJP12A8C145445
p392
aVSOPDBIS12A58A79F11
p393
aa(lp394
VSOOIVVR12A6D4F968C
p395
aVSOFWIIA12A8C1448C9
p396
aa(lp397
VSOWRNMU12A8C1422A1
p398
aVSOFPRBD12AB0184E33
p399
aVSOHTRMF12A8C13E4EB
p400
aVSOAJTAA12CF5F892FE
p401
aVSOHETTQ12A6D4F70C3
p402
aa(lp403
VSOOSPXA12D02198BD1
p404
aVSOQLMXJ12AB018AB1D
p405
aVSOFIUCU12AF72A1979
p406
aVSOZRQQV12AF72A15B4
p407
aa(lp408
VSONDIHT12A8C13A4C8
p409
aVSOVVHYA12A8C1429D9
p410
aa(lp411
VSOBTKUW12AB018DBC7
p412
aVSOUDRIY12A8C13B59A
p413
aa(lp414
VSOMCZQT12AAF3B49E1
p415
aVSOFZFNX12AAF3B165C
p416
aa(lp417
VSOASWIY12A6D4F672C
p418
aVSOMXRKX12A8AE4935E
p419
aa(lp420
VSODSYVD12AB01861E8
p421
aVSOWQZNT12A6701C4C2
p422
aa(lp423
VSOFYHGV12A6D4FA8E3
p424
aVSOXPJYE12A6D4F7DA3
p425
aa(lp426
VSOMBKCI12AB017FEEA
p427
aVSOMMUYB12A8C13EFB3
p428
aa(lp429
VSOBBJKN12CF5F873BB
p430
aVSOLWOXW12D021B2450
p431
aa(lp432
VSOXGJGF12D02190555
p433
aVSOMOSXL12A6701E5DC
p434
aa(lp435
VSOGPYPJ12A6310E0D0
p436
aVSOVPLHC12A8C13BE30
p437
aa(lp438
VSOKNWEZ12A8C13BB4B
p439
aVSOVKUMU12D0219A271
p440
aa(lp441
VSORCOTU12A58A7C4F9
p442
aVSOJVIDX12A8C14596F
p443
aa(lp444
VSOHEWEC12A58A7B703
p445
aVSODLLYI12A6310D827
p446
aa(lp447
VSOBBJKN12CF5F873BB
p448
aVSODDJDB12A8C14388F
p449
aVSOMDRBE12AB01813EA
p450
aa(lp451
VSOOHKBP12A6701F168
p452
aVSOPAJEF12A6D4F7FF2
p453
aVSONYVBU12A8C13E293
p454
aa(lp455
VSOAQCRZ12AB01824EB
p456
aVSOHYLHS12A8C140723
p457
aVSOUXDZK12A81C20DAD
p458
aa(lp459
VSODLFLK12A8C142B37
p460
aVSOGBSZS12AC3DF447D
p461
aVSOGOCGK12AB017E4DA
p462
aa(lp463
VSOWVUOM12AB018452A
p464
aVSOGNGGX12AB018A9C7
p465
aa(lp466
VSOPPQEW12A6701FF8C
p467
aVSOVDLZN12AB0185BEA
p468
aa(lp469
VSOVBCQP12D02191E98
p470
aVSOIQFAD12A81357441
p471
aa(lp472
VSOGYFSE12A58A795F1
p473
aVSOXJQNQ12A81C1F7F0
p474
aVSORMXJZ12A81C204A6
p475
aa(lp476
VSOPIJAI12AB01838F8
p477
aVSOCGIWH12A8AE4704F
p478
aVSOAPELR12A6701F47B
p479
aa(lp480
VSOQLWRX12A8C142A2E
p481
aVSOCGWCK12A67020F39
p482
aa(lp483
VSOLNMKK12A8C13C15E
p484
aVSOSYDQC12A8C13A68F
p485
aVSOIAOLA12A8C13EE50
p486
aa(lp487
VSOTIARN12A58A7B1C0
p488
aVSOCKLYH12A8C1406D9
p489
aa(lp490
VSOINNZW12AB018A9CB
p491
aVSODVWSI12A8C13B044
p492
aa(lp493
VSOXEZLY12A8C137AB0
p494
aVSOJIIXR12AF72A12A1
p495
aa(lp496
VSOIONDY12A8C13190F
p497
aVSOUAQRY12A6701F8E0
p498
aVSOQIVFP12AB017ACAC
p499
aa(lp500
VSOGQGDB12A6D4FA3DF
p501
aVSOTSCKX12AB01857AA
p502
aVSOYUCVO12AF72A5F67
p503
aVSOVJUIO12AB018E94B
p504
aVSOWEFTO12A3F1EB976
p505
aa(lp506
VSOFZFNX12AAF3B165C
p507
aVSOMCZQT12AAF3B49E1
p508
aa(lp509
VSOWHDBF12A8C141C8D
p510
aVSODLRRT12AB0183A4F
p511
aa(lp512
VSOUQGAJ12A81C1FE11
p513
aVSOTIBEI12AB017F511
p514
aVSODIBRA12A81C204C2
p515
aa(lp516
VSOVGPLS12CF5F87635
p517
aVSOOXPWU12A8AE48A21
p518
aa(lp519
VSOQJNXH12A6D4FACDE
p520
aVSOAKXZH12A8C134590
p521
aa(lp522
VSOFXEQU12A6D4F82BD
p523
aVSOCZVQK12A6D4F77E4
p524
aa(lp525
VSOCAIRM12A6D4F7C96
p526
aVSOKJHUE12A6D4F6164
p527
aa(lp528
VSOMCZQT12AAF3B49E1
p529
aVSORYQZJ12A8C145C7D
p530
aVSOWRRPY12A8C145923
p531
aVSOROWXN12AB0187490
p532
aa(lp533
VSOHJSEQ12A67020EDB
p534
aVSOZZZSR12AB01854CD
p535
aa(lp536
VSOWIOLK12A81356D4A
p537
aVSOKYXVW12A8C1443B9
p538
aa(lp539
VSOYCJXC12AB0181221
p540
aVSOOTEOZ12A8C13F44D
p541
aa(lp542
VSOYQKOU12A6D4FA355
p543
aVSOXGJGF12D02190555
p544
aVSOAPWIB12A6702143F
p545
aVSOVYMVZ12A8AE47F88
p546
aa(lp547
VSOHHKOS12A8C142734
p548
aVSOCBAMZ12A81C204E4
p549
aa(lp550
VSOGLFVO12A8AE46072
p551
aVSOPGHSW12AB0187AA0
p552
aa(lp553
VSOPTGXI12AB0183D4A
p554
aVSOCTSZN12AB017C6C3
p555
aa(lp556
VSOEHXQG12AB0182E1A
p557
aVSOHVAGD12AB0181761
p558
aa(lp559
VSOXBYRL12A6310D8B3
p560
aVSOMSCJJ12A6D4F6730
p561
aa(lp562
VSOFLWWU12A8C13CB7D
p563
aVSONFBFA12AB0180298
p564
aVSOEXJGG12AB0181249
p565
aVSOQLHIL12A6D4F8A9D
p566
aVSOBBJKN12CF5F873BB
p567
aVSOBQYZS12A58A7AC45
p568
aa(lp569
VSOCVGXR12AB017D324
p570
aVSOZEFIW12AB0189C09
p571
aVSOMZPXI12AB0186974
p572
aVSOQGCBJ12A6310D845
p573
aa(lp574
VSOJBTHP12AC468F0A6
p575
aVSOQWMXV12A58A7A87A
p576
aa(lp577
VSODVWHL12A8C137659
p578
aVSOPMUIV12AB017A903
p579
aa(lp580
VSOTSFVZ12A6D4F96AC
p581
aVSOJURKA12AB0186E98
p582
aVSOGILWV12A58A7C193
p583
aa(lp584
VSOHJGGF12A6D4F3C19
p585
aVSOOQUNQ12A6D4F3C1C
p586
aVSORAPTI12A81C204BF
p587
aVSOTIBEI12AB017F511
p588
aa(lp589
VSOHLRAK12AB0183E5E
p590
aVSOIUQBC12AB017DE34
p591
aVSOHKNHB12AAA8C76D5
p592
aa(lp593
VSOBHCPE12A81C204E1
p594
aVSOCXCDV12A81C20495
p595
aa(lp596
VSOJEKUB12A8C137B44
p597
aVSOFLZFK12A81C204DF
p598
aa(lp599
VSOEQUIA12AB01868FA
p600
aVSOLMUBJ12AF72AB38D
p601
aa(lp602
VSOPIFJT12A81C221AC
p603
aVSOGKASK12D0219A265
p604
aa(lp605
VSOBKBPK12AB017EFC5
p606
aVSOCOGVE12AB018162E
p607
aVSOLWOXW12D021B2450
p608
aVSOOBBAG12A58A77B26
p609
aa(lp610
VSOQJCXI12CF5F883FC
p611
aVSOYPTPK12CF5CFD7A2
p612
aVSOAYAPE12A58A7B1CB
p613
aa(lp614
VSONOHHU12A8C145BAB
p615
aVSOYPTPK12CF5CFD7A2
p616
aVSOITBNC12AF72A0B2A
p617
aa(lp618
VSOIVZTE12AB017ECC6
p619
aVSOTIARN12A58A7B1C0
p620
aa(lp621
VSODLLYI12A6310D827
p622
aVSOKUFIT12A6D4F6B64
p623
aa(lp624
VSOYSDYA12A6D4F673B
p625
aVSOJSDNH12A6D4F7792
p626
aVSOODOMH12A81C1FDD0
p627
aa(lp628
VSOGUYTE12AB018C27F
p629
aVSOVDOTC12D021977CC
p630
aa(lp631
VSOTUBTB12A8C140AEA
p632
aVSOMIXXI12A6701CB8D
p633
aa(lp634
VSOUGCDK12AC95F075F
p635
aVSOSCIZP12AB0181D2F
p636
aVSOSKJYK12D0219A62D
p637
aa(lp638
VSOINPCJ12A6D4FA815
p639
aVSOBMIAH12A8C132C1F
p640
aa(lp641
VSOINMOU12AB018B85D
p642
aVSOHSOGT12A58A7DDC4
p643
aVSOZZEFF12A6D4FC7B8
p644
aa(lp645
VSONNOZN12A8C13BA8A
p646
aVSOQYOAP12A6D4FB965
p647
aVSOYVPTR12AF72A28BA
p648
aa(lp649
VSOWWYJJ12AB01832C9
p650
aVSOPRUNG12AB01861FF
p651
aVSOGWGCB12A6D4FD9BB
p652
aVSOCAWBX12A8C134FC0
p653
aa(lp654
VSOTKWNM12A8C145B71
p655
aVSOUGEKD12A8C13B706
p656
aa(lp657
VSOOBBAG12A58A77B26
p658
aVSOJFUNC12CF5F8887C
p659
aVSOBBJKN12CF5F873BB
p660
aa(lp661
VSOTPJKH12A8C13F6AE
p662
aVSOYVYEP12A8C13F6AB
p663
aa(lp664
VSOXLBPT12A6D4F6156
p665
aVSOXJPPH12A6D4F615C
p666
aVSOQXJFK12A6D4F6154
p667
aa(lp668
VSOZXGRR12A8C145B05
p669
aVSOBIJYS12AB018B67B
p670
aVSODPCIZ12A8C13EA03
p671
aa(lp672
VSOIWJOZ12A8C145AD6
p673
aVSODLQZE12A8C141793
p674
aVSOBZHGK12A8C145ADF
p675
aa(lp676
VSOFEZVG12A8AE48150
p677
aVSOLWOXW12D021B2450
p678
aa(lp679
VSOHFYTQ12A81C20465
p680
aVSOFJGMQ12A8AE48A36
p681
aVSOKBZPD12AAF3B224E
p682
aa(lp683
VSOCBAMZ12A81C204E4
p684
aVSOTFADE12A8C144D69
p685
aVSOUASDM12A8AE487FF
p686
aVSOFLZFK12A81C204DF
p687
aa(lp688
VSOUJKBY12AB0180A45
p689
aVSOOHSKI12A8C13B790
p690
aa(lp691
VSODVOFJ12AB0181EE6
p692
aVSOPTGXI12AB0183D4A
p693
aa(lp694
VSODPCIZ12A8C13EA03
p695
aVSOYZHWO12A6D4F7DF8
p696
aa(lp697
VSOADGAC12AB018D75F
p698
aVSODTJKC12AB018571E
p699
aa(lp700
VSOFQCXR12AF72A8F81
p701
aVSOIROOM12A6D4F93CF
p702
aa(lp703
VSOYJSXL12AB0188844
p704
aVSOMGMSS12A8C13492A
p705
aVSOAYRAG12AF729E40F
p706
aVSOHQGYJ12AB017D02D
p707
aVSOKBZPD12AAF3B224E
p708
aVSOGQWJX12AB017C37D
p709
aa(lp710
VSOHDIPD12A6D4F70D2
p711
aVSODHEUZ12A6D4F778B
p712
aa(lp713
VSOPOVDK12AB017F4E6
p714
aVSOIXZRK12A8C13617D
p715
aa(lp716
VSOZMTTJ12A8C1387E9
p717
aVSONWNHX12A6D4F70D4
p718
aa(lp719
VSOCTZAF12A6D4F9476
p720
aVSOASZUS12D021B249B
p721
aa(lp722
VSOWIYMQ12A67020499
p723
aVSOCCKZC12A8C14004D
p724
aa(lp725
VSORQXAF12A6D4F93CE
p726
aVSOSNSUH12A67AE0E14
p727
aa(lp728
VSOMLQWF12A8159E8CE
p729
aVSODYBTQ12A58A77BC5
p730
aa(lp731
VSOOIVGQ12A67020496
p732
aVSOEJBHJ12A6D4F6719
p733
aa(lp734
VSOTRNAV12AB018970E
p735
aVSOVBCQP12D02191E98
p736
aVSOHGNHZ12D02197924
p737
aa(lp738
VSOZYNLB12A6D4F6BF3
p739
aVSOJERQW12A8C133F16
p740
aa(lp741
VSOKSDBV12A8C141BFD
p742
aVSOQHPXC12A6310DAA4
p743
aVSODMAYX12A6D4F7AC4
p744
aVSOVMKKT12A58A7F0CC
p745
aa(lp746
VSOJJBGH12A8C1359CA
p747
aVSODLLYI12A6310D827
p748
aVSONRRAZ12AB018754B
p749
aa(lp750
VSOZIITG12AB0189709
p751
aVSOCKZGX12A8AE48524
p752
aa(lp753
VSOJODHO12AC4687FB9
p754
aVSOYNBNG12A6D4F8A7F
p755
aa(lp756
VSOAEYAE12A6D4F7F6D
p757
aVSOCSTEB12AC4689065
p758
aa(lp759
VSOZNDGZ12AB0180120
p760
aVSOPEMMU12A8C13F2FF
p761
aa(lp762
VSOMGQOD12A81C22986
p763
aVSOVJRAP12AB0180192
p764
aa(lp765
VSOUCIZY12AB0180416
p766
aVSOIUEMC12A6D4F93D5
p767
aa(lp768
VSOVTZZV12A6310D80E
p769
aVSOJDHGY12A6D4FA1B0
p770
aa(lp771
VSOEBLQT12A6310DEF1
p772
aVSOVXDKD12A6D4F73B2
p773
aa(lp774
VSOYNBNG12A6D4F8A7F
p775
aVSOXGJGF12D02190555
p776
aa(lp777
VSOBJLHC12A8C143735
p778
aVSOQMLRP12A6D4F9F17
p779
aVSOTPWLP12AB0187A5F
p780
aa(lp781
VSOYFWDX12A6D4F8593
p782
aVSOMQMKT12A6701F4D0
p783
aa(lp784
VSOHVAGD12AB0181761
p785
aVSOIEJSB12A6D4F6166
p786
aa(lp787
VSOAKXZH12A8C134590
p788
aVSOUSXFJ12AB018126E
p789
aa(lp790
VSOEHNNP12AC9E14836
p791
aVSOVFEOQ12A8AE4648F
p792
aVSOIWNTC12AB0188F0B
p793
aa(lp794
VSOTMNAT12AB0185A14
p795
aVSOLXFNY12AAA15E7D1
p796
aa(lp797
VSOQZNNB12AB017A440
p798
aVSOBJZKT12A8C140FA9
p799
aVSOOXRJG12D021B0BDB
p800
aVSOSAESP12AB0188EDF
p801
aVSOPAGBJ12AAF3B21C9
p802
aVSOLUZKJ12AB0189C96
p803
aVSOGLCPF12AB0185DD2
p804
aa(lp805
VSOBBJKN12CF5F873BB
p806
aVSOJFUNC12CF5F8887C
p807
aVSOANTVD12CF5F882CE
p808
aa(lp809
VSOPIFJT12A81C221AC
p810
aVSOBKBPK12AB017EFC5
p811
aa(lp812
VSONOHHU12A8C145BAB
p813
aVSOLWOXW12D021B2450
p814
aVSOVKUMU12D0219A271
p815
aa(lp816
VSOXMRCV12AB018DBE1
p817
aVSOVNVEV12AB018BCA5
p818
aa(lp819
VSONMJBT12A8AE4569F
p820
aVSOPXNQO12A6D4F6EED
p821
aa(lp822
VSOOOYVI12A8C146012
p823
aVSOZQAGT12AB018E7D9
p824
aa(lp825
VSOGNBXT12AC468E2E3
p826
aVSORRYFP12A8C13A08D
p827
aa(lp828
VSOKLDPD12D021996A2
p829
aVSOUEFHO12AB0187D12
p830
aVSOBYTDL12A6701C11D
p831
aa(lp832
VSOUITXM12AB0188535
p833
aVSOIMOJQ12AB0185B2B
p834
aVSOFGRKP12A58A78AD6
p835
aVSONLJOZ12A81C2047B
p836
aa(lp837
VSODPCIZ12A8C13EA03
p838
aVSOICITB12A8C131492
p839
aa(lp840
VSOHQGYJ12AB017D02D
p841
aVSOILSHD12A8C13296A
p842
aa(lp843
VSOWTCET12A58A7A60E
p844
aVSOHTLTL12A6310E0B1
p845
aa(lp846
VSOIFLDE12A6D4F96A3
p847
aVSODRJEH12AB017BDCC
p848
aVSOZRMVM12AB0186BE1
p849
aa(lp850
VSOFTNRX12A58A7C2A0
p851
aVSOUOKBF12AB018BE09
p852
aa(lp853
VSOWIOLK12A81356D4A
p854
aVSOJNKWS12AB01854D6
p855
aa(lp856
VSOCAEVP12AB0183571
p857
aVSOKNWEZ12A8C13BB4B
p858
aa(lp859
VSOLRTMS12AB0181595
p860
aVSOQJCXI12CF5F883FC
p861
aa(lp862
VSOAAVUV12AB0186646
p863
aVSOWSCPW12AB0182803
p864
aVSOLPIFQ12AC468B661
p865
aa(lp866
VSOOPYQW12AB0183AF6
p867
aVSONDZIG12AB0184B6B
p868
aa(lp869
VSOOYXPM12AC909799C
p870
aVSOEUEKP12A8C13950E
p871
aa(lp872
VSOMRIZS12A6D4F7C41
p873
aVSOWRRPP12AB01853E8
p874
aa(lp875
VSODYDYZ12AB018C9A9
p876
aVSOYXCTI12A8C13CE04
p877
aa(lp878
VSOFXLNG12A58A7C203
p879
aVSOHTZGV12A6310D9EA
p880
aa(lp881
VSOZRYST12812D07C72
p882
aVSOPRZOH12D0219836D
p883
aa(lp884
VSOMITIJ12AB017CAFA
p885
aVSOFVMNA12D021B12F7
p886
aVSOOKGUD12A6D4F9645
p887
aVSOXZQDE12A8C135833
p888
aa(lp889
VSOZJCPQ12AB0184623
p890
aVSOIXLWU12A6701C47B
p891
aa(lp892
VSODYKGT12AB018BB1A
p893
aVSOBFFBO12A6D4F7F6F
p894
aVSOIXZRK12A8C13617D
p895
aa(lp896
VSOWIOLK12A81356D4A
p897
aVSOCVGXR12AB017D324
p898
aVSOFZFNX12AAF3B165C
p899
aVSOMCZQT12AAF3B49E1
p900
aVSOKBZPD12AAF3B224E
p901
aa(lp902
VSOJGYYW12AB0186340
p903
aVSOCFCNZ12A8C133BBA
p904
aVSOFQCXR12AF72A8F81
p905
aa(lp906
VSOCWGNX12A8C1436CA
p907
aVSOCZHNX12AB0181412
p908
aa(lp909
VSOCWGNX12A8C1436CA
p910
aVSOJOCVG12A6D4F77E5
p911
aa(lp912
VSOHTXWC12AB0183DAE
p913
aVSOONDPT12D021902F3
p914
aVSOASWIY12A6D4F672C
p915
aa(lp916
VSOINRYO12AB017C708
p917
aVSOCSUCG12A6701F4EA
p918
aa(lp919
VSONOXGD12A58A77845
p920
aVSOXEUHC12A8159E8AA
p921
aVSOHUMHW12CF5F86F86
p922
aa(lp923
VSOFNYBY12CF5463261
p924
aVSONXCYX12AB0184785
p925
aVSOWRRPP12AB01853E8
p926
aVSOZSHHJ12A8151CA10
p927
aVSODPBFS12AF729D73D
p928
aVSOOREUZ12A8C13AB75
p929
aa(lp930
VSOQXSLW12A8C1389E8
p931
aVSOJVXQN12A6D4F64F0
p932
aa(lp933
VSOJDHGS12A6310D85E
p934
aVSOPGOME12A58A7B636
p935
aVSOCSTCW12AB017B972
p936
aVSOMOATA12A6D4F83E4
p937
aVSOFLTCH12A6D4F7D79
p938
aa(lp939
VSOUOUDS12AB0184CFD
p940
aVSOIJCRU12A8C136C5A
p941
aVSOSHJFR12A6701C410
p942
aVSOVOHCH12AB0184593
p943
aVSOZVTFB12AF729FEAA
p944
aa(lp945
VSORHROB12AB018A180
p946
aVSOONMSA12A6D4F74A4
p947
aa(lp948
VSOFWQLB12A67ADA709
p949
aVSODWFTN12A8C136B2D
p950
aa(lp951
VSOBCYOO12AB017DE7D
p952
aVSOCLDOK12AC4689411
p953
aa(lp954
VSOHKFGI12AB017AFDF
p955
aVSOPYQNL12AB018A6CB
p956
aa(lp957
VSOGPPSS12A8C134C8D
p958
aVSOWNWDI12A6D4F3BCA
p959
aa(lp960
VSOCMOAT12AB01842BD
p961
aVSONGFBK12A8C1425BC
p962
aVSOGMOWQ12AB017ACB2
p963
aa(lp964
VSORVETV12A8C141FC7
p965
aVSOFBLDY12A8C131B3D
p966
aa(lp967
VSOBXTSS12AB018171B
p968
aVSOIPLWL12AB0188F34
p969
aVSOPICXR12AF72A5613
p970
aa(lp971
VSOKMPDP12AB017BC0D
p972
aVSOZXHOH12AB017EC3E
p973
aa(lp974
VSODFWID12AB01821BE
p975
aVSOPTGXI12AB0183D4A
p976
aa(lp977
VSOLSBMM12A81C1F7A5
p978
aVSOVFKAA12AB0180718
p979
aa(lp980
VSODLCVS12A58A7ABE7
p981
aVSOHEMBM12A6D4F6E6B
p982
aa(lp983
VSOSPVUJ12AC46870C1
p984
aVSOTDWKO12A6D4F6160
p985
aa(lp986
VSOHEMBM12A6D4F6E6B
p987
aVSOSDAML12AB0182E70
p988
aVSOCGNEV12A67020671
p989
aVSODLCVS12A58A7ABE7
p990
aVSODJXBQ12A8C141F63
p991
aa(lp992
VSOFXDBI12A8AE48DA3
p993
aVSOZECYU12A6D4F903B
p994
aVSOXBKLZ12A8C138390
p995
aVSOUMFLT12A6D4F6F54
p996
aa(lp997
VSOUISOE12A8AE46081
p998
aVSOKDKRY12A8AE460C7
p999
aa(lp1000
VSOWIOLK12A81356D4A
p1001
aVSOJNKWS12AB01854D6
p1002
aa(lp1003
VSOCAEVP12AB0183571
p1004
aVSOKNWEZ12A8C13BB4B
p1005
aa(lp1006
VSOLRTMS12AB0181595
p1007
aVSOQJCXI12CF5F883FC
p1008
aa(lp1009
VSOQZBWI12AB018365B
p1010
aVSOLBMBY12AF72A7A7B
p1011
aa(lp1012
VSONIWMX12A67ADAC29
p1013
aVSOQCCPU12AB01842B2
p1014
aa(lp1015
VSOQLTAT12D02191D8F
p1016
aVSOCEMQV12A6D4F9B18
p1017
aVSOJUGAZ12AB0184BF9
p1018
aa(lp1019
VSOPWFRG12A8C133A2D
p1020
aVSOIQRZH12A8C1338A8
p1021
aVSOWZRFR12AB0188F03
p1022
aVSOEVRKK12AC9071B6B
p1023
aa(lp1024
VSOSKNZX12A8C1409BD
p1025
aVSOOCRKC12D0219917F
p1026
aa(lp1027
VSOTYCKF12A8C141890
p1028
aVSOASWIY12A6D4F672C
p1029
aVSOZJCPQ12AB0184623
p1030
aa(lp1031
VSODPCIZ12A8C13EA03
p1032
aVSOPTGXI12AB0183D4A
p1033
aVSOMPWJB12AB017E421
p1034
aa(lp1035
VSOEVXMO12A8C13BB52
p1036
aVSOFZFNX12AAF3B165C
p1037
aVSOMCZQT12AAF3B49E1
p1038
aa(lp1039
VSOODPSW12A67020F40
p1040
aVSOKICUZ12AB0187494
p1041
aVSORWMOK12AB0188C5B
p1042
aVSOWHDBF12A8C141C8D
p1043
aa(lp1044
VSODCYLX12A81C2264D
p1045
aVSOCDRCR12A6701C4B5
p1046
aVSOTJYJK12A6D4F7389
p1047
aVSORUXTC12A58A76578
p1048
aa(lp1049
VSOJEXKJ12A67020ED8
p1050
aVSOBLBDZ12A6D4F7416
p1051
aVSOLAUAK12A6701E734
p1052
aa(lp1053
VSOPHTTU12AB0188DA0
p1054
aVSOFSDDH12A8C13E020
p1055
aVSOAQMZO12A8AE48DAB
p1056
aVSORIMXA12A58A790BB
p1057
aa(lp1058
VSOAXRDJ12AB017BDF0
p1059
aVSOZJCPQ12AB0184623
p1060
aa(lp1061
VSOKNWEZ12A8C13BB4B
p1062
aVSOODVDI12A8C13619F
p1063
aVSOIKGUT12A8C1326C0
p1064
aa(lp1065
VSORQXAF12A6D4F93CE
p1066
aVSOYGSZL12A58A7CF4F
p1067
aa(lp1068
VSOEGEZK12A58A7964E
p1069
aVSOASWIY12A6D4F672C
p1070
aa(lp1071
VSOJFUNC12CF5F8887C
p1072
aVSOUUZSH12A6D4F7A4D
p1073
aVSOSWOUN12AB01805C6
p1074
aa(lp1075
VSOIJMSQ12A8C136B90
p1076
aVSOBVGIT12A8C13DD15
p1077
aaa(lp1078
(lp1079
VSODFEBQ12AB017C1E9
p1080
aVSOOBBAG12A58A77B26
p1081
aVSOPIFJT12A81C221AC
p1082
aa(lp1083
VSOTWTXZ12A8C142292
p1084
aVSOZEJTU12A8C1422B8
p1085
aVSOIROOM12A6D4F93CF
p1086
aag301
ag506
ag509
ag126
ag129
ag132
ag243
ag146
ag149
ag154
ag466
ag469
ag951
ag954
a(lp1087
VSOKNWEZ12A8C13BB4B
p1088
aVSOPUPMF12A6D4F6BE2
p1089
aVSOFZFNX12AAF3B165C
p1090
aa(lp1091
VSOYNBNG12A6D4F8A7F
p1092
aVSOLSPWS12AB0181BBA
p1093
aVSOYWJLZ12AF72A01CA
p1094
aag916
ag919
ag923
ag657
ag676
ag383
ag423
ag426
a(lp1095
VSOMQCVJ12AB018AE7F
p1096
aVSOKGULH12A6D4F70BB
p1097
aVSONLIZJ12A8C141C84
p1098
aa(lp1099
VSONGMSX12AB018339C
p1100
aVSOIDNIC12AB017D9A3
p1101
aVSOAONRT12AF72A6FE1
p1102
aVSOXEGFU12AAA15D4E0
p1103
aVSOQZCAE12AB017F5BE
p1104
aag664
ag493
ag496
ag500
a(lp1105
VSOKBZPD12AAF3B224E
p1106
aVSONZWKG12AB01848C6
p1107
aVSOKNWEZ12A8C13BB4B
p1108
aa(lp1109
VSOBFIRK12D02198F35
p1110
aVSOOTEOZ12A8C13F44D
p1111
aVSOWMRDA12AB0183F91
p1112
aVSOCZHNX12AB0181412
p1113
aa(lp1114
VSOXARPM12A58A7D90B
p1115
aVSOZIITG12AB0189709
p1116
aag559
ag562
ag569
a(lp1117
VSOINMOU12AB018B85D
p1118
aVSOHKRJS12A6310D8BA
p1119
aa(lp1120
VSODBVTU12A8C14479E
p1121
aVSOPFDCP12AB01842B6
p1122
aVSOQPBUN12A6D4F6B02
p1123
aVSOJJKEC12AB0183A34
p1124
aa(lp1125
VSOFPOBH12A6D4F80B2
p1126
aVSOFTXEH12A8C144DD0
p1127
aVSOKIUOK12AB018306E
p1128
aag997
ag1012
ag1015
ag1019
ag1024
ag487
a(lp1129
VSOARULG12AC9073264
p1130
aVSOVJPEV127D977984B
p1131
aag258
ag261
ag577
ag580
ag584
ag589
ag593
ag596
ag1000
ag1003
ag1006
ag850
ag252
ag255
ag235
ag240
ag896
ag902
ag906
ag32
ag35
ag40
ag1035
ag1039
ag226
ag229
a(lp1132
VSOBHMJS12AB017D08B
p1133
aVSOUHAAF12A6D4FA8DB
p1134
aVSORMEUJ12A8C13D2B9
p1135
aag756
ag304
ag308
ag490
ag157
ag164
ag167
ag171
ag960
ag964
ag967
ag971
ag634
ag892
ag264
ag267
a(lp1136
VSOQBPJO12A6D4F7A7A
p1137
aVSOCZHNX12AB0181412
p1138
aag638
ag641
ag191
ag195
ag198
ag201
ag862
ag866
ag869
ag703
ag312
ag316
a(lp1139
VSOKEGUX12AB018D3B6
p1140
aVSOEJBHJ12A6D4F6719
p1141
aa(lp1142
VSOBZQXY12A6310EBB5
p1143
aVSOMMUYB12A8C13EFB3
p1144
aag679
ag683
ag688
ag691
a(lp1145
VSOFRLAE12A8C13A7BF
p1146
aVSOODPSW12A67020F40
p1147
aVSOYXOSE12A8C1395B1
p1148
aa(lp1149
VSOQPNBD12A8C138948
p1150
aVSOXHRLR12A67020F42
p1151
aag1044
ag1049
ag986
ag992
ag574
ag790
ag794
ag797
ag599
ag889
a(lp1152
VSODTJKC12AB017F4FE
p1153
aVSOPRVSK12D021B1F41
p1154
aVSOKSHCE12AB0181956
p1155
aag719
ag722
ag725
ag728
ag731
ag246
ag288
ag292
a(lp1156
VSOTIXOG12A8C133011
p1157
aVSOGAVKC12AB0183E88
p1158
aVSOUVDUK12A8AE489A3
p1159
aa(lp1160
VSOONUJT12A6D4F64EA
p1161
aVSOWVEXM12A81C214D5
p1162
aVSOTFEWN12A6D4F7F2D
p1163
aa(lp1164
VSOKOJGK12A67ADE75D
p1165
aVSOUBMUR12A8C134787
p1166
aag621
ag624
a(lp1167
VSORZXRR12A8C141A1A
p1168
aVSOHRURX12AC468C170
p1169
aa(lp1170
VSOZJCPQ12AB0184623
p1171
aVSOUHAAF12A6D4FA8DB
p1172
aa(lp1173
VSOQFATC12A6D4F79F8
p1174
aVSOZGMBA12A6701F4D7
p1175
aa(lp1176
VSOFZFNX12AAF3B165C
p1177
aVSOBHMJS12AB017D08B
p1178
aag142
ag553
ag556
ag107
ag111
ag114
ag120
ag123
ag354
ag843
ag846
ag377
ag98
ag759
ag762
a(lp1179
VSOLJQKJ12AB017FDE5
p1180
aVSOJWLGA12A6310EBB0
p1181
aa(lp1182
VSOEVXMO12A8C13BB52
p1183
aVSOUNTPY12AB0180387
p1184
aa(lp1185
VSOOGOQU12A8C13E7F9
p1186
aVSOXQRDP12AB0184D02
p1187
aag645
ag649
ag654
ag816
ag819
ag77
ag326
ag329
ag272
ag275
ag280
ag284
ag734
ag738
ag741
a(lp1188
VSOOOITX12AB0188C7B
p1189
aVSOXHOZY12A81C219B5
p1190
aa(lp1191
VSOFARPD12A58A812DF
p1192
aVSORRRSA12AC468B910
p1193
aVSOJFUNC12CF5F8887C
p1194
aa(lp1195
VSOYCJXC12AB0181221
p1196
aVSOXGOUI12A8C137E2D
p1197
aVSOSOWXE12A6D4F8C4C
p1198
aa(lp1199
VSOAIGGQ12AB0187AA3
p1200
aVSOBNVCK12AB017C1EE
p1201
aa(lp1202
VSOOYKPE12A6D22721D
p1203
aVSOAVXUQ12AB018CC5A
p1204
aa(lp1205
VSODLLYI12A6310D827
p1206
aVSOFDJGO12A8C13FDE2
p1207
aag746
ag750
ag753
a(lp1208
VSODFNWF12A8C1332B1
p1209
aVSOROCOL12AB01815D9
p1210
aVSOCSTJO12AB018BF5D
p1211
aa(lp1212
VSOLVQOS12AB018CD0E
p1213
aVSOCPDKG12A67AE16F5
p1214
aVSOSXPAM12A8C145A3E
p1215
aVSOJBHMC12AB018347E
p1216
aa(lp1217
VSOAIRMY12A5891FEE4
p1218
aVSOANNQH12A8C13386A
p1219
aVSOJKIPN12A8C1351ED
p1220
aag451
ag438
ag441
ag444
ag447
ag980
ag414
ag417
ag420
ag17
ag20
ag26
ag29
a(lp1221
VSOCCCPW12AB0182E91
p1222
aVSOOTQFN12AB0183BA4
p1223
aa(lp1224
VSOKFFOS12AB017EFBA
p1225
aVSOLLVEA12A81C204E7
p1226
aVSODTILH12AB0180E6C
p1227
aVSOLESAB12AC468AE95
p1228
aag62
ag67
ag70
ag73
ag429
ag432
ag974
ag977
ag878
ag777
ag781
ag411
a(lp1229
VSOHHBCH12AB017DC80
p1230
aVSORLAIT12A8AE46A55
p1231
aVSOOTCFE12A6310F231
p1232
aVSOZUCUW12A8C13230D
p1233
aVSOVAUSR12A6D4F9ECA
p1234
aa(lp1235
VSOQMXGC12A8C1346B7
p1236
aVSOJIWFP12AB0188DA3
p1237
aVSOUMFTD12CF5F86D65
p1238
aVSOHGNZJ12A5891F7F1
p1239
aVSOYVPTR12AF72A28BA
p1240
aVSOWAUHF12D02193C26
p1241
aag1068
ag1071
ag1075
ag394
ag397
ag528
ag533
ag536
ag539
ag1027
ag1031
ag930
a(lp1242
VSOANTVD12CF5F882CE
p1243
aVSOEGEZK12A58A7964E
p1244
aa(lp1245
VSOFGQRK12AB01851C4
p1246
aVSOXDXDE12AB017C29C
p1247
aVSOALKYY12A6D4F823F
p1248
aag805
ag809
ag812
a(lp1249
VSOLTLWJ12A6D4FA318
p1250
aVSOCUOCJ12A8C134C75
p1251
aVSOGKASK12D0219A265
p1252
aa(lp1253
VSOPVDVA12A8C1314A3
p1254
aVSOLESAB12AC468AE95
p1255
aa(lp1256
VSOKZOPW12AB018CAF1
p1257
aVSOLLNDB12CF5F87280
p1258
aVSOGPPSS12A8C134C8D
p1259
aVSOEPJIM12A81356CF3
p1260
aag853
ag856
ag859
ag357
ag360
ag364
ag370
ag374
ag455
ag459
ag463
a(lp1261
VSOMYXYP12AB017DBA0
p1262
aVSOGWQIB12A8C135F6B
p1263
aVSOIXLQS12AB0189C1F
p1264
aa(lp1265
VSOCYIIC12A8C1324FF
p1266
aVSORIMXA12A58A790BB
p1267
aag542
ag547
ag550
a(lp1268
VSOTRZGQ12AB0187344
p1269
aVSODHFHT12A6D4F7A18
p1270
aVSOADGAC12AB018D75F
p1271
aag784
ag787
a(lp1272
VSOLLVEA12A81C204E7
p1273
aVSOCOINM12A8C13A08C
p1274
aVSOPUUUY12A8C142BA9
p1275
aa(lp1276
VSOEKMMG12A8C1446D5
p1277
aVSODTJKC12AB018571E
p1278
aag14
ag909
ag912
ag351
ag1053
ag139
ag516
ag519
ag522
ag525
ag332
ag335
ag342
ag345
ag348
a(lp1279
VSOWQEPA12AC960DEB4
p1280
aVSOIJJDI12AF729F348
p1281
aa(lp1282
VSONSQDL12AC3DF9C39
p1283
aVSOUPDNB12A8C13A431
p1284
aVSOFFMXM12A8C13F535
p1285
aa(lp1286
VSOSOKWQ12A6D4F8D2E
p1287
aVSOMQVAF12AAF3B2B9D
p1288
aa(lp1289
VSOMQYMS12A8C13DCA6
p1290
aVSOFXUKF12A8C13D071
p1291
aVSONNDYR12A8C1334A0
p1292
aVSOWNVKK12A6D4F95A6
p1293
aVSOGBOEA12AC468736E
p1294
aVSOSPMBG12AB017B8A0
p1295
aVSOTOZJS12A8C13BDC3
p1296
aag476
ag480
ag483
ag765
ag768
ag771
ag774
ag710
ag713
ag716
ag80
ag83
ag319
ag323
a(lp1297
VSOQUJLT12A8C141F8A
p1298
aVSOLZTWX12A8C13D9EC
p1299
aa(lp1300
VSOEWYLX12A6D4F8E5F
p1301
aVSOHEZOI12D021989AA
p1302
aVSORDHDA12AB0186828
p1303
aVSOBFGLR12A8C13F7F6
p1304
aVSOSPACF12AF729FD7C
p1305
aa(lp1306
VSONQBQA12A8C141D2C
p1307
aVSOZPAMO12A8C140C32
p1308
aVSOPAYPV12AB017DB0C
p1309
aVSOBVQTB12AB01852E0
p1310
aag54
ag57
ag512
ag933
ag939
ag945
ag948
ag983
ag188
aa(lp1311
g957
ag574
ag679
ag683
ag688
ag691
ag1272
ag1276
ag512
a(lp1312
VSOQPBUN12A6D4F6B02
p1313
aVSOOHSKI12A8C13B790
p1314
aa(lp1315
VSOINMOU12AB018B85D
p1316
aVSOTASYU12A6D4F7C29
p1317
aVSOVRWRM12AB018F985
p1318
aa(lp1319
VSOMGRKX12A6D4F7F30
p1320
aVSOSTUHH12A58A76C4A
p1321
aag1129
ag645
ag649
ag654
ag506
ag509
ag703
ag414
ag417
ag420
ag1117
ag1120
ag1125
ag916
ag919
ag923
ag816
ag819
ag354
a(lp1322
VSOIUYGF12A8C1323DE
p1323
aVSOCPOLP12A8C142264
p1324
aag1035
ag1039
ag423
ag426
ag621
ag624
a(lp1325
VSOPMKAG12A6D4F64C9
p1326
aVSOHUCBK12CF5F87CF7
p1327
aVSOKCNWI12AB0181A32
p1328
aVSOXQKRC12AF72A705C
p1329
aa(lp1330
VSOQEYMZ12A6701DD4F
p1331
aVSOAHGOO12A6D4F7C91
p1332
aVSOGAPZC12A8C1388E7
p1333
aag1009
a(lp1334
VSONWJGB12AB018CACA
p1335
aVSOVPAGX12A6D4F7D9B
p1336
aa(lp1337
VSORTWGY12A6701DD45
p1338
aVSOFRITF12A6701D6F0
p1339
aVSOONDPT12D021902F3
p1340
aag1249
ag1253
ag1256
ag182
ag185
ag1152
ag1185
ag1297
ag1300
ag1306
ag1145
ag1149
ag1053
ag98
ag889
ag235
ag240
ag765
ag768
ag771
ag774
ag777
ag781
ag1044
ag1049
ag909
ag912
ag960
ag964
ag967
ag971
a(lp1341
VSOASWIY12A6D4F672C
p1342
aVSOZYBCC12AB0186E6E
p1343
aa(lp1344
VSOUNTPY12AB0180387
p1345
aVSOTHHDG12A8C1433B9
p1346
aa(lp1347
VSOBEQJX12A58A7C294
p1348
aVSODPCIZ12A8C13EA03
p1349
aVSOAVGQP12D0219A353
p1350
aa(lp1351
VSOGSKXN12A6702145A
p1352
aVSOQGCBJ12A6310D845
p1353
aVSORETZT12A6D4FC1F3
p1354
aag232
ag226
ag229
a(lp1355
VSODTJKC12AB018571E
p1356
aVSOBUVJA12AB0188CCE
p1357
aa(lp1358
VSOAGNDW12A6701FC21
p1359
aVSOQGCBJ12A6310D845
p1360
aa(lp1361
VSOADGAC12AB018D75F
p1362
aVSOFGRKP12A58A78AD6
p1363
aVSODPCIZ12A8C13EA03
p1364
aag1095
ag1099
ag542
ag547
ag550
ag466
ag469
ag429
ag432
ag62
ag67
ag70
ag73
ag1188
ag1191
ag1195
ag756
ag107
ag111
ag114
ag120
ag123
ag54
ag57
ag476
ag480
ag483
ag204
ag207
ag210
ag214
ag326
ag329
ag403
ag408
ag1000
ag1003
ag1006
ag1079
ag1083
ag664
ag1279
ag1282
ag1286
ag1289
ag472
ag304
ag308
ag377
ag734
ag738
ag741
ag1221
ag1224
ag246
ag694
ag697
ag700
ag332
ag335
ag342
ag370
ag374
ag1170
ag1173
ag1176
a(lp1365
VSOPIFJT12A81C221AC
p1366
aVSOVKUMU12D0219A271
p1367
aa(lp1368
VSOBBJKN12CF5F873BB
p1369
aVSOJFUNC12CF5F8887C
p1370
aVSOLWOXW12D021B2450
p1371
aVSOOBBAG12A58A77B26
p1372
aag602
ag605
ag610
ag614
ag790
ag794
ag797
ag435
ag264
ag267
ag1136
ag351
ag387
ag390
ag878
ag1058
ag1061
ag1065
ag1229
ag1235
ag126
ag129
ag132
ag77
ag872
ag875
ag638
ag641
ag997
ag805
ag809
ag812
ag394
ag397
ag1179
ag1182
ag933
ag939
ag945
ag948
a(lp1373
VSOZIITG12AB0189709
p1374
aVSOMUUON12A8C1314EE
p1375
aag438
ag441
ag444
ag447
ag719
ag722
ag725
ag728
ag731
ag710
ag713
ag716
ag319
ag323
ag32
ag35
ag40
ag1012
ag1015
ag1019
ag1024
ag139
a(lp1376
VSODWDXF12AB01809FB
p1377
aVSOWDGNM12AB018A344
p1378
aa(lp1379
VSOQAUGD12A58A7A92D
p1380
aVSOLXRUT12AB0182874
p1381
aVSOUYRNF12A58A78568
p1382
aVSOOBBAG12A58A77B26
p1383
aag843
ag846
ag668
ag672
ag881
ag884
ag676
ag101
ag104
a(lp1384
VSOOEPSM12A58A7B9D7
p1385
aVSODPCIZ12A8C13EA03
p1386
aa(lp1387
VSOCWTFO12AB018AFBF
p1388
aVSOWKBVM12A6D4F7CCD
p1389
aa(lp1390
VSOGVMUB12A6D4F4C80
p1391
aVSOFOKLN12A8C133538
p1392
aVSOKXDQH12AC4687FB7
p1393
aa(lp1394
VSOQGCBJ12A6310D845
p1395
aVSOYCJXC12AB0181221
p1396
aa(lp1397
VSOBUVJA12AB0188CCE
p1398
aVSOFEOUD12D021B1FC4
p1399
aVSODSGMP12AB01845C8
p1400
aa(lp1401
VSOHEELW12A6D4F7CCA
p1402
aVSOFZFNX12AAF3B165C
p1403
aVSOWIOLK12A81356D4A
p1404
aa(lp1405
VSOZJCPQ12AB0184623
p1406
aVSOQJNXH12A6D4FACDE
p1407
aVSOIQDQI12A58A77946
p1408
aag1105
ag1109
ag1114
ag243
ag43
ag47
ag50
ag146
ag149
ag154
ag345
ag348
ag1027
ag1031
ag490
ag252
ag255
ag986
ag992
ag1261
ag1265
ag411
ag80
ag83
ag1242
ag1245
ag14
ag559
ag562
ag569
a(lp1409
VSOQGCBJ12A6310D845
p1410
aVSOLLNDB12CF5F87280
p1411
aVSOMXUXH12A8AE48156
p1412
aVSOKNWEZ12A8C13BB4B
p1413
aVSOXBKLZ12A8C138390
p1414
aVSOBGLOS12B0B807873
p1415
aa(lp1416
VSOYNBNG12A6D4F8A7F
p1417
aVSONOHHU12A8C145BAB
p1418
aa(lp1419
VSOMUKNL12AB018979D
p1420
aVSOMBSFS12A6D4F3F36
p1421
aag974
ag977
ag188
ag657
ag1208
ag1212
ag1217
ag301
ag951
ag954
a(lp1422
VSONEBFI12AF72ABCB3
p1423
aVSOKGERN12A6D4F8195
p1424
aa(lp1425
VSOSXQAY12A8AE48B67
p1426
aVSOZSZTH12A8C131141
p1427
aVSOEZCPN12A6D4FB47A
p1428
aa(lp1429
VSOQFQKY12A8C137DA4
p1430
aVSOBAEXU12AB017D197
p1431
aag553
ag556
ag312
ag316
ag516
ag519
ag522
ag525
ag258
ag261
ag853
ag856
ag859
ag577
ag580
ag584
ag589
ag593
ag596
ag832
ag837
ag840
ag528
ag533
ag536
ag539
ag759
ag762
ag1268
aa(lp1432
g599
ag756
ag1044
ag1049
ag1145
ag1149
ag142
ag1312
ag1315
ag1319
ag577
ag580
ag584
ag589
ag593
ag596
ag493
ag496
ag500
ag226
ag229
ag661
ag746
ag750
ag753
ag126
ag129
ag132
ag1079
ag1083
ag822
ag825
ag828
ag1167
ag1272
ag1276
ag89
ag516
ag519
ag522
ag525
ag438
ag441
ag444
ag447
ag1261
ag1265
ag909
ag912
ag258
ag261
ag1279
ag1282
ag1286
ag1289
ag1009
ag101
ag104
ag17
ag20
ag26
ag29
ag986
ag992
ag351
ag1347
ag1351
ag1152
ag377
ag872
ag875
ag326
ag329
ag252
ag255
ag759
ag762
ag816
ag819
ag710
ag713
ag716
ag1384
ag1387
ag1390
ag1394
ag1397
ag1401
ag1405
ag1170
ag1173
ag1176
ag1136
ag301
ag951
ag954
a(lp1433
VSOMPMQX12A8C143526
p1434
aVSOOEGSN12A6D4F6163
p1435
aa(lp1436
VSOCBRWO12A6D4F8861
p1437
aVSOHOVWF12AB017EAC2
p1438
aa(lp1439
VSOOIXIZ12A8C1434D2
p1440
aVSOSLVAQ12A6D4F3C0A
p1441
aag455
ag459
ag463
ag288
ag292
ag1221
ag1224
ag542
ag547
ag550
ag1376
ag1379
ag14
ag1249
ag1253
ag1256
a(lp1442
VSOIQZTV12A6701C7A8
p1443
aVSOSWHXY12A58A7E568
p1444
aVSOFXJVE12A6701FBA6
p1445
aa(lp1446
VSOCASCO12A6701FBAA
p1447
aVSOANDAG12AB017BDB8
p1448
aVSOCVBFV12A6701FB94
p1449
aVSOYQPVF12A58A7A264
p1450
aVSOGLWSK12D0219345B
p1451
aa(lp1452
VSOTCLVG12A6701FC05
p1453
aVSOBCHXR12AB017D702
p1454
aa(lp1455
VSOVLEIJ12A6701C43B
p1456
aVSOGRZMM12A6701C7F3
p1457
aVSOJFTME12A6701C7F5
p1458
aVSOIYGQK12A6701C7F7
p1459
aag889
ag960
ag964
ag967
ag971
ag1355
ag1358
ag1361
ag451
ag1179
ag1182
ag765
ag768
ag771
ag774
ag487
ag843
ag846
ag1053
ag1035
ag1039
ag235
ag240
ag957
ag472
ag62
ag67
ag70
ag73
ag1199
ag1202
ag1205
ag1208
ag1212
ag1217
ag574
ag980
ag1132
ag645
ag649
ag654
ag621
ag624
ag559
ag562
ag569
ag777
ag781
ag188
ag107
ag111
ag114
ag120
ag123
ag638
ag641
ag218
ag222
ag370
ag374
ag357
ag360
ag364
ag1139
ag528
ag533
ag536
ag539
ag380
ag32
ag35
ag40
ag878
ag983
ag191
ag195
ag198
ag201
ag1365
ag1368
ag1422
ag1425
ag1429
ag1058
ag1061
ag1065
ag394
ag397
ag466
ag469
ag1105
ag1109
ag1114
ag881
ag884
ag490
ag80
ag83
ag179
ag98
ag933
ag939
ag945
ag948
ag319
ag323
ag157
ag164
ag167
ag171
ag1068
ag1071
ag1075
ag243
ag272
ag275
ag280
ag284
ag246
ag896
ag902
ag906
ag1142
ag1242
ag1245
ag628
ag631
ag1322
ag1229
ag1235
ag668
ag672
ag3
ag6
ag11
ag618
ag506
ag509
ag664
ag429
ag432
ag92
ag95
ag790
ag794
ag797
ag784
ag787
ag387
ag390
ag139
ag54
ag57
ag476
ag480
ag483
ag182
ag185
ag1188
ag1191
ag1195
ag892
ag916
ag919
ag923
ag1129
ag602
ag605
ag610
ag614
ag703
ag850
ag1095
ag1099
ag304
ag308
ag332
ag335
ag342
a(lp1460
VSOELMVW12A8C133B20
p1461
aVSONRSVP12B0B809323
p1462
aa(lp1463
VSOINDRZ12A6701DAF6
p1464
aVSOTXNBJ12A8C1374A9
p1465
aa(lp1466
VSOEJTAW12A679C8081
p1467
aVSOGIMDE12A58A7F8DE
p1468
aag974
ag977
aa(lp1469
g1373
ag226
ag229
ag832
ag837
ag840
ag218
ag222
ag191
ag195
ag198
ag201
ag1185
ag472
ag1142
ag916
ag919
ag923
ag476
ag480
ag483
ag466
ag469
ag542
ag547
ag550
ag784
ag787
ag1145
ag1149
ag661
ag435
ag790
ag794
ag797
ag1325
ag1330
ag157
ag164
ag167
ag171
ag235
ag240
ag295
ag298
ag1229
ag1235
ag896
ag902
ag906
ag1297
ag1300
ag1306
ag986
ag992
ag1053
ag1087
ag1091
ag1261
ag1265
ag387
ag390
ag451
ag951
ag954
ag1268
ag822
ag825
ag828
ag1132
ag1242
ag1245
ag1136
ag621
ag624
ag357
ag360
ag364
ag892
ag759
ag762
ag1058
ag1061
ag1065
ag703
ag1027
ag1031
ag1170
ag1173
ag1176
ag872
ag875
ag1000
ag1003
ag1006
ag1012
ag1015
ag1019
ag1024
ag354
ag264
ag267
ag734
ag738
ag741
a(lp1470
VSONMRXH12A6310EBD5
p1471
aVSOEVXMO12A8C13BB52
p1472
aVSOLTLWJ12A6D4FA318
p1473
aVSOBUVJA12AB0188CCE
p1474
aVSOJGYYW12AB0186340
p1475
aa(lp1476
VSOMUGIW12A8C139C75
p1477
aVSOYTJAQ12CF5CFD5F1
p1478
aVSOBAIES12A6D4F7DED
p1479
aag142
ag1312
ag1315
ag1319
ag1322
ag1129
ag980
ag1105
ag1109
ag1114
ag657
ag516
ag519
ag522
ag525
ag668
ag672
ag1167
ag719
ag722
ag725
ag728
ag731
ag312
ag316
ag1442
ag1446
ag1452
ag1455
ag1156
ag1160
ag1164
ag1179
ag1182
ag411
ag850
ag1188
ag1191
ag1195
ag182
ag185
ag853
ag856
ag859
ag332
ag335
ag342
ag1044
ag1049
ag403
ag408
ag380
ag455
ag459
ag463
ag638
ag641
ag493
ag496
ag500
ag414
ag417
ag420
ag107
ag111
ag114
ag120
ag123
ag252
ag255
ag1384
ag1387
ag1390
ag1394
ag1397
ag1401
ag1405
ag679
ag683
ag688
ag691
ag1422
ag1425
ag1429
ag1347
ag1351
ag188
ag628
ag631
ag756
ag14
ag1272
ag1276
ag62
ag67
ag70
ag73
ag602
ag605
ag610
ag614
ag618
ag1221
ag1224
ag351
ag805
ag809
ag812
ag878
ag645
ag649
ag654
ag577
ag580
ag584
ag589
ag593
ag596
ag694
ag697
ag700
ag528
ag533
ag536
ag539
ag1409
ag1416
ag1419
ag43
ag47
ag50
ag246
ag983
ag89
ag32
ag35
ag40
ag232
ag92
ag95
ag553
ag556
ag319
ag323
ag179
ag304
ag308
ag574
ag634
ag490
ag326
ag329
ag487
ag3
ag6
ag11
ag1460
ag1463
ag1466
ag288
ag292
ag258
ag261
ag1433
ag1436
ag1439
ag204
ag207
ag210
ag214
ag889
ag746
ag750
ag753
ag777
ag781
ag77
ag881
ag884
ag1355
ag1358
ag1361
ag960
ag964
ag967
ag971
ag1068
ag1071
ag1075
ag710
ag713
ag716
ag383
ag1095
ag1099
ag1035
ag1039
ag370
ag374
aa(lp1480
g909
ag912
ag1312
ag1315
ag1319
ag816
ag819
ag1422
ag1425
ag1429
ag512
ag146
ag149
ag154
ag1376
ag1379
ag1347
ag1351
ag756
ag679
ag683
ag688
ag691
ag746
ag750
ag753
ag621
ag624
ag1341
ag1344
ag101
ag104
ag664
ag191
ag195
ag198
ag201
ag1132
ag506
ag509
ag387
ag390
ag235
ag240
ag645
ag649
ag654
ag1322
ag182
ag185
ag1145
ag1149
ag1442
ag1446
ag1452
ag1455
ag332
ag335
ag342
ag319
ag323
ag17
ag20
ag26
ag29
ag92
ag95
ag304
ag308
ag451
ag1117
ag1120
ag1125
ag881
ag884
ag246
ag264
ag267
ag1279
ag1282
ag1286
ag1289
ag429
ag432
ag411
ag438
ag441
ag444
ag447
ag1242
ag1245
ag1373
ag157
ag164
ag167
ag171
ag1229
ag1235
ag476
ag480
ag483
ag1188
ag1191
ag1195
ag62
ag67
ag70
ag73
ag1044
ag1049
ag383
ag1139
ag377
ag805
ag809
ag812
ag634
ag661
ag1009
ag252
ag255
ag80
ag83
ag1000
ag1003
ag1006
ag960
ag964
ag967
ag971
ag790
ag794
ag797
ag1170
ag1173
ag1176
ag3
ag6
ag11
ag628
ag631
ag126
ag129
ag132
ag676
ag1272
ag1276
ag553
ag556
ag1460
ag1463
ag1466
ag243
ag1334
ag1337
ag370
ag374
ag1068
ag1071
ag1075
ag951
ag954
ag599
ag89
ag258
ag261
ag1079
ag1083
ag1152
ag414
ag417
ag420
ag916
ag919
ag923
ag957
ag986
ag992
ag974
ag977
ag312
ag316
ag1221
ag1224
ag179
ag832
ag837
ag840
ag777
ag781
ag272
ag275
ag280
ag284
ag1470
ag1476
ag657
ag403
ag408
ag139
ag1199
ag1202
ag1205
ag1185
ag862
ag866
ag869
ag1208
ag1212
ag1217
ag394
ag397
ag354
ag1105
ag1109
ag1114
ag574
ag878
ag43
ag47
ag50
ag784
ag787
ag694
ag697
ag700
ag487
ag1136
ag380
ag301
ag765
ag768
ag771
ag774
ag1095
ag1099
ag490
ag107
ag111
ag114
ag120
ag123
ag1433
ag1436
ag1439
ag1325
ag1330
ag850
ag288
ag292
ag1179
ag1182
ag232
ag1268
ag1167
ag1027
ag1031
ag1384
ag1387
ag1390
ag1394
ag1397
ag1401
ag1405
ag1012
ag1015
ag1019
ag1024
ag351
ag1129
ag853
ag856
ag859
ag843
ag846
ag602
ag605
ag610
ag614
ag472
ag577
ag580
ag584
ag589
ag593
ag596
ag1365
ag1368
ag14
ag759
ag762
ag892
ag933
ag939
ag945
ag948
ag226
ag229
ag618
aa(lp1481
g243
ag645
ag649
ag654
ag142
ag1297
ag1300
ag1306
ag822
ag825
ag828
ag765
ag768
ag771
ag774
ag1334
ag1337
ag1053
ag1145
ag1149
ag878
ag107
ag111
ag114
ag120
ag123
ag816
ag819
ag1272
ag1276
ag1009
ag380
ag1376
ag1379
ag1185
ag1325
ag1330
ag1027
ag1031
ag1355
ag1358
ag1361
ag951
ag954
ag451
ag1035
ag1039
ag204
ag207
ag210
ag214
ag1322
ag777
ag781
ag1442
ag1446
ag1452
ag1455
ag734
ag738
ag741
ag1152
ag512
ag182
ag185
ag43
ag47
ag50
ag252
ag255
ag997
ag896
ag902
ag906
ag1170
ag1173
ag1176
ag32
ag35
ag40
ag1139
ag1068
ag1071
ag1075
ag1188
ag1191
ag1195
ag370
ag374
ag805
ag809
ag812
ag1312
ag1315
ag1319
ag1132
ag703
ag394
ag397
ag383
ag188
ag332
ag335
ag342
ag1249
ag1253
ag1256
ag218
ag222
ag1156
ag1160
ag1164
ag54
ag57
ag179
ag528
ag533
ag536
ag539
ag756
ag853
ag856
ag859
ag490
ag980
ag92
ag95
ag759
ag762
ag1129
ag455
ag459
ag463
ag983
ag506
ag509
ag101
ag104
ag602
ag605
ag610
ag614
ag1105
ag1109
ag1114
ag423
ag426
ag3
ag6
ag11
ag438
ag441
ag444
ag447
ag351
ag1117
ag1120
ag1125
ag493
ag496
ag500
ag89
ag1365
ag1368
ag746
ag750
ag753
ag933
ag939
ag945
ag948
ag126
ag129
ag132
ag679
ag683
ag688
ag691
ag191
ag195
ag198
ag201
ag1384
ag1387
ag1390
ag1394
ag1397
ag1401
ag1405
ag1460
ag1463
ag1466
ag599
ag621
ag624
ag542
ag547
ag550
ag1279
ag1282
ag1286
ag1289
ag881
ag884
ag403
ag408
ag157
ag164
ag167
ag171
ag377
ag676
ag1000
ag1003
ag1006
ag986
ag992
ag1221
ag1224
ag960
ag964
ag967
ag971
ag909
ag912
ag411
ag139
ag1242
ag1245
ag476
ag480
ag483
ag264
ag267
ag1229
ag1235
ag1470
ag1476
ag930
ag246
ag414
ag417
ag420
ag719
ag722
ag725
ag728
ag731
ag319
ag323
ag892
ag232
ag1409
ag1416
ag1419
ag1058
ag1061
ag1065
ag790
ag794
ag797
ag1179
ag1182
ag661
ag862
ag866
ag869
ag618
ag1136
ag974
ag977
ag62
ag67
ag70
ag73
ag354
ag1044
ag1049
ag301
ag916
ag919
ag923
ag295
ag298
ag1347
ag1351
ag472
ag1208
ag1212
ag1217
ag466
ag469
ag235
ag240
ag312
ag316
ag429
ag432
ag559
ag562
ag569
ag288
ag292
ag850
ag843
ag846
aa(lp1482
g512
ag429
ag432
ag14
ag1132
ag853
ag856
ag859
ag816
ag819
ag377
ag493
ag496
ag500
ag246
ag332
ag335
ag342
ag506
ag509
ag191
ag195
ag198
ag201
ag516
ag519
ag522
ag525
ag1136
ag1105
ag1109
ag1114
ag974
ag977
ag889
ag80
ag83
ag1044
ag1049
ag1129
ag1433
ag1436
ag1439
ag188
ag784
ag787
ag312
ag316
ag380
ag805
ag809
ag812
ag101
ag104
ag1409
ag1416
ag1419
ag628
ag631
ag679
ag683
ag688
ag691
ag179
ag472
ag1373
ag252
ag255
ag476
ag480
ag483
ag756
ag577
ag580
ag584
ag589
ag593
ag596
ag1087
ag1091
ag951
ag954
ag850
ag986
ag992
ag618
ag1334
ag1337
ag790
ag794
ag797
ag1208
ag1212
ag1217
ag157
ag164
ag167
ag171
ag621
ag624
ag54
ag57
ag301
ag1355
ag1358
ag1361
ag542
ag547
ag550
ag1027
ag1031
ag843
ag846
ag1117
ag1120
ag1125
ag17
ag20
ag26
ag29
ag423
ag426
ag107
ag111
ag114
ag120
ag123
ag1261
ag1265
ag1068
ag1071
ag1075
ag703
ag1058
ag1061
ag1065
ag528
ag533
ag536
ag539
ag892
ag304
ag308
ag89
ag295
ag298
ag232
ag1145
ag1149
ag676
ag1167
ag746
ag750
ag753
ag602
ag605
ag610
ag614
ag218
ag222
ag694
ag697
ag700
ag354
ag182
ag185
ag451
ag1279
ag1282
ag1286
ag1289
ag1185
ag1268
ag258
ag261
ag661
ag559
ag562
ag569
ag1249
ag1253
ag1256
ag872
ag875
ag1179
ag1182
ag126
ag129
ag132
ag1221
ag1224
ag394
ag397
ag1079
ag1083
ag916
ag919
ag923
ag142
ag710
ag713
ag716
ag326
ag329
ag370
ag374
ag272
ag275
ag280
ag284
ag832
ag837
ag840
ag435
ag664
ag909
ag912
ag1322
ag1188
ag1191
ag1195
ag553
ag556
ag574
ag32
ag35
ag40
ag881
ag884
ag759
ag762
ag1297
ag1300
ag1306
ag634
ag357
ag360
ag364
ag983
ag1152
ag1142
ag1325
ag1330
ag345
ag348
ag438
ag441
ag444
ag447
ag288
ag292
ag98
ag960
ag964
ag967
ag971
ag146
ag149
ag154
ag734
ag738
ag741
ag403
ag408
ag1053
ag645
ag649
ag654
ag62
ag67
ag70
ag73
ag1035
ag1039
ag957
ag1009
ag77
ag638
ag641
ag1376
ag1379
ag235
ag240
ag1422
ag1425
ag1429
ag264
ag267
ag896
ag902
ag906
ag1365
ag1368
ag1139
aa(lp1483
g1105
ag1109
ag1114
ag1297
ag1300
ag1306
ag676
ag98
ag703
ag850
ag896
ag902
ag906
ag1058
ag1061
ag1065
ag661
ag694
ag697
ag700
ag383
ag1132
ag1422
ag1425
ag1429
ag664
ag345
ag348
ag179
ag312
ag316
ag889
ag933
ag939
ag945
ag948
ag528
ag533
ag536
ag539
ag264
ag267
ag621
ag624
ag472
ag1208
ag1212
ag1217
ag1325
ag1330
ag332
ag335
ag342
ag1365
ag1368
ag370
ag374
ag139
ag668
ag672
ag1279
ag1282
ag1286
ag1289
ag710
ag713
ag716
ag451
ag1095
ag1099
ag645
ag649
ag654
ag387
ag390
ag1079
ag1083
ag1136
ag1373
ag1117
ag1120
ag1125
ag455
ag459
ag463
ag246
ag986
ag992
ag916
ag919
ag923
ag490
ag429
ag432
ag351
ag377
ag1145
ag1149
ag226
ag229
ag1027
ag1031
ag414
ag417
ag420
ag822
ag825
ag828
ag304
ag308
ag319
ag323
ag126
ag129
ag132
ag1376
ag1379
ag777
ag781
ag326
ag329
ag816
ag819
ag288
ag292
ag746
ag750
ag753
ag80
ag83
ag679
ag683
ag688
ag691
ag1229
ag1235
ag862
ag866
ag869
ag1460
ag1463
ag1466
ag1087
ag1091
ag516
ag519
ag522
ag525
ag1268
ag790
ag794
ag797
ag878
ag1129
ag403
ag408
ag1334
ag1337
ag77
ag892
ag101
ag104
ag1068
ag1071
ag1075
ag157
ag164
ag167
ag171
ag1433
ag1436
ag1439
ag17
ag20
ag26
ag29
ag107
ag111
ag114
ag120
ag123
ag734
ag738
ag741
ag191
ag195
ag198
ag201
ag272
ag275
ag280
ag284
ag553
ag556
ag188
ag542
ag547
ag550
ag1142
ag89
ag1012
ag1015
ag1019
ag1024
ag1179
ag1182
ag354
ag487
ag1044
ag1049
ag1139
ag960
ag964
ag967
ag971
ag872
ag875
ag1156
ag1160
ag1164
ag232
ag983
ag805
ag809
ag812
ag218
ag222
ag1035
ag1039
ag657
ag1249
ag1253
ag1256
ag957
ag1152
ag980
ag357
ag360
ag364
ag930
ag843
ag846
ag301
ag493
ag496
ag500
ag54
ag57
ag466
ag469
ag1199
ag1202
ag1205
ag146
ag149
ag154
ag951
ag954
ag258
ag261
ag1384
ag1387
ag1390
ag1394
ag1397
ag1401
ag1405
ag380
ag394
ag397
ag574
ag997
ag1409
ag1416
ag1419
ag182
ag185
ag92
ag95
ag3
ag6
ag11
ag618
ag1188
ag1191
ag1195
ag1185
ag784
ag787
ag765
ag768
ag771
ag774
ag476
ag480
ag483
ag599
aa(lp1484
g351
ag1322
ag602
ag605
ag610
ag614
ag930
ag54
ag57
ag1347
ag1351
ag983
ag204
ag207
ag210
ag214
ag1365
ag1368
ag32
ag35
ag40
ag98
ag703
ag1053
ag759
ag762
ag62
ag67
ag70
ag73
ag933
ag939
ag945
ag948
ag512
ag1170
ag1173
ag1176
ag1058
ag1061
ag1065
ag1376
ag1379
ag319
ag323
ag516
ag519
ag522
ag525
ag881
ag884
ag577
ag580
ag584
ag589
ag593
ag596
ag850
ag370
ag374
ag1279
ag1282
ag1286
ag1289
ag429
ag432
ag1199
ag1202
ag1205
ag916
ag919
ag923
ag661
ag252
ag255
ag878
ag301
ag258
ag261
ag896
ag902
ag906
ag17
ag20
ag26
ag29
ag80
ag83
ag1188
ag1191
ag1195
ag1136
ag1221
ag1224
ag380
ag1035
ag1039
ag1139
ag1027
ag1031
ag694
ag697
ag700
ag974
ag977
ag909
ag912
ag1087
ag1091
ag618
ag435
ag1409
ag1416
ag1419
ag218
ag222
ag1384
ag1387
ag1390
ag1394
ag1397
ag1401
ag1405
ag490
ag634
ag332
ag335
ag342
ag1312
ag1315
ag1319
ag957
ag1009
ag235
ag240
ag288
ag292
ag1261
ag1265
ag92
ag95
ag146
ag149
ag154
ag790
ag794
ag797
ag272
ag275
ag280
ag284
ag142
ag182
ag185
ag960
ag964
ag967
ag971
ag438
ag441
ag444
ag447
ag77
ag243
ag1156
ag1160
ag1164
ag101
ag104
ag157
ag164
ag167
ag171
ag226
ag229
ag816
ag819
ag466
ag469
ag387
ag390
ag1000
ag1003
ag1006
ag179
ag1185
ag1433
ag1436
ag1439
ag553
ag556
ag542
ag547
ag550
ag645
ag649
ag654
ag487
ag414
ag417
ag420
ag676
ag1341
ag1344
ag476
ag480
ag483
ag14
ag506
ag509
ag980
ag986
ag992
ag638
ag641
ag951
ag954
ag843
ag846
ag107
ag111
ag114
ag120
ag123
ag295
ag298
ag345
ag348
ag889
ag997
ag1325
ag1330
ag1117
ag1120
ag1125
ag188
ag1470
ag1476
ag1179
ag1182
ag383
ag1229
ag1235
ag657
ag246
ag89
ag304
ag308
ag1422
ag1425
ag1429
ag719
ag722
ag725
ag728
ag731
ag493
ag496
ag500
ag354
ag862
ag866
ag869
ag423
ag426
ag472
ag1079
ag1083
ag139
ag232
ag264
ag267
ag1249
ag1253
ag1256
ag832
ag837
ag840
ag777
ag781
ag872
ag875
ag574
ag451
ag628
ag631
ag765
ag768
ag771
ag774
ag43
ag47
ag50
ag679
ag683
ag688
ag691
ag1129
aa.