(lp1
(lp2
(lp3
VSOVGUUS12AB0189FE7
p4
aVSOICEUB12AB018C099
p5
aVSOHMPHL12A8C144A6D
p6
aa(lp7
VSOQDVIU12A58A78D31
p8
aVSOPOIBO12A8C146519
p9
aVSOZBVZI12A8C143CA0
p10
aVSOBBSNO12AB0180D10
p11
aa(lp12
VSOZIJBU12AB017E41F
p13
aVSOMIGIU12AF729CD1A
p14
aVSODQVKH12AB017FD5E
p15
aVSOEDMLH12A8C141AA1
p16
aa(lp17
VSOTAWNJ12A8C13FEFC
p18
aVSOUDEKM12AC46886BD
p19
aVSOKISIH12AB0188610
p20
aa(lp21
VSOUZSCM12AB017DB8A
p22
aVSOXRLIZ12AB01831A5
p23
aVSOINSGF12A8C133517
p24
aVSOERWJA12A67020AC2
p25
aa(lp26
VSOIWEYE12D02191C75
p27
aVSOICHLR12A58A7B052
p28
aa(lp29
VSOEVZMO12A8C13DD53
p30
aVSOELBRW12A8C138F0F
p31
aa(lp32
VSOUMUNT12A6D4F764D
p33
aVSOKLJTK12AB017F30E
p34
aa(lp35
VSOPEYHU12A6D4FC291
p36
aVSOYOFFN12A67AD8576
p37
aVSOEJCBZ12A8C13FB6B
p38
aa(lp39
VSOYSHLF12A58A7CFBA
p40
aVSORBCPH12A67ADD062
p41
aa(lp42
VSOFTXDD12A8C1432EA
p43
aVSOOCWHK12A8C137627
p44
aa(lp45
VSOWEWRG12A679AE598
p46
aVSORUUPB12A6D4F6565
p47
aVSONINTE12A58A76F34
p48
aVSOFBXWQ12A58A75709
p49
aVSOHRIKL12AB0186468
p50
aa(lp51
VSOZSFWF12A6D4F93D5
p52
aVSOLSGZE12A6D4F6658
p53
aVSOWCLTO12A67021CEC
p54
aVSOXTSKV12A67ADA23D
p55
aa(lp56
VSOXKHPH12A6701C50C
p57
aVSOEZMXE12A6701DF63
p58
aa(lp59
VSOFPPKW12A8C13C5AD
p60
aVSOYAEZW12A58A819A8
p61
aVSOKMGPR12A8C1427E7
p62
aVSOKZHVF12AF72A77E7
p63
aVSOCHJFC12A8C1442BE
p64
aa(lp65
VSOUVPKT12A58A7DBB2
p66
aVSOLMYFW12AB0188124
p67
aa(lp68
VSOTVFZT12A6D4F9544
p69
aVSOTLHDK12AB018A405
p70
aa(lp71
VSOBHZYA12AB018A4C3
p72
aVSOSYAKU12AB018D284
p73
aa(lp74
VSOBZSXH12A6702031F
p75
aVSOUZKGG12AB017F3F6
p76
aa(lp77
VSOLIGNH12A58A7857A
p78
aVSOGEKBX12A8C13ACE1
p79
aa(lp80
VSOMMDWU12AB017C991
p81
aVSODBXDO12AB0180687
p82
aVSOHANSQ12AB0188FF8
p83
aVSOWVLQW12AB017E3CE
p84
aVSOGAVPX12A6D4F7BEA
p85
aVSOWGVEY12A8C142863
p86
aVSOGLWDQ12AB018139E
p87
aVSOFMUNJ12A58A7ECA1
p88
aVSOGJXNC12AC468BA30
p89
aVSOJRMFG12AB0188C75
p90
aVSOUFJKZ12AB017C83C
p91
aVSOFVTSA12A8C131559
p92
aVSOIADBJ12AB0189A2E
p93
aVSOMIXHK12AB0188742
p94
aVSOKNOTN12AB0183CC3
p95
aVSOAVBVE12A6D4F6EF0
p96
aVSOLYZVP12AB0183BE6
p97
aa(lp98
VSOCDFRS12AC468A722
p99
aVSOSSDHL12A6D4F4F55
p100
aa(lp101
VSOJMNHF12AC4687C2E
p102
aVSOOVZEB12A8AE46ED3
p103
aa(lp104
VSOJRMFG12AB0188C75
p105
aVSOUVENN12A67021A47
p106
aVSOLUZBK12A81C218A9
p107
aa(lp108
VSOWEWRG12A679AE598
p109
aVSOXWCIF12A6310DEFF
p110
aVSOCCGSC12A81C216F1
p111
aa(lp112
VSOBAIGL12A8C138206
p113
aVSOSZRCE12A8C13E28F
p114
aVSOKIRJR12AAF3B40EF
p115
aVSOGBZAO12A6D4F9901
p116
aVSOSNVGK12A58A7AEFB
p117
aVSOLEMIO12AB017E864
p118
aVSOIFYGJ12A6D4F91C5
p119
aa(lp120
VSOLDVPD12AF729B92F
p121
aVSOKDONI12D021987B3
p122
aa(lp123
VSOYQZHG12AB0181D82
p124
aVSOGMBJI12A58A7A221
p125
aVSONVTRV12A8C140FF3
p126
aVSOBTGNJ12A6D4F6E0F
p127
aa(lp128
VSOZDIOV12A6701D7E9
p129
aVSOAIKTL12A58A7EA5A
p130
aVSOTLNTJ12D02198BE7
p131
aa(lp132
VSOKAOWZ12AB018A451
p133
aVSOHSAYJ12A8AE48A05
p134
aa(lp135
VSOLWOXW12D021B2450
p136
aVSOKPASY12A8C14135F
p137
aVSONIJLQ12A6D4F7D51
p138
aVSONBHBZ12AB018778C
p139
aVSOQBXXW12AC39274D6
p140
aa(lp141
VSOQMTRG12A8C13E3F1
p142
aVSOMDIGQ12AB017BFC0
p143
aa(lp144
VSOZRKAV12A6D4F6567
p145
aVSODGLMM12A8C1430BC
p146
aa(lp147
VSOIXUGB12AB0182284
p148
aVSOJTPYY12A8C140EB3
p149
aa(lp150
VSOKRPTN12AB0187746
p151
aVSOUINFV12A6D4F7DEB
p152
aVSOTMTGS12A6D4F74BD
p153
aa(lp154
VSOWKLYP12A6D4F75A8
p155
aVSOBKOGR12D02191EC2
p156
aa(lp157
VSOQHIWS12A6D4FBD8E
p158
aVSOVSLWD12AB018380A
p159
aVSOSDATU12A58A7D067
p160
aVSOHUICH12AB0181B55
p161
aVSOUHVUA12A8C13D988
p162
aa(lp163
VSOFRSYI12A8C130E6C
p164
aVSOUKCIO12A67020E75
p165
aa(lp166
VSOWFUBS12AB0182F74
p167
aVSOXRLIZ12AB01831A5
p168
aa(lp169
VSOSKMMY12A8C144428
p170
aVSOZAIOO12A6D4F56CC
p171
aVSONAEDA12A6D4F8854
p172
aa(lp173
VSOHSFJV12AB0184371
p174
aVSOVVNLI12A8C13CFFC
p175
aa(lp176
VSOWTVNL12A58A7C44F
p177
aVSOWCWSN12A8AE47EB6
p178
aa(lp179
VSOLJTEA12A6D4FAAB5
p180
aVSOHBCTP12AB01875B7
p181
aVSOWGZXD12A58A7AA60
p182
aVSOFORGQ12AB0183017
p183
aVSOETINY12A6D4FCCB7
p184
aa(lp185
VSOANAXD12A8C131EE5
p186
aVSOVFFXU12A8C1429B3
p187
aa(lp188
VSORQGDR12A6D4F8378
p189
aVSOXNGFU12A58A788C5
p190
aa(lp191
VSOGCGYC12A8C131946
p192
aVSORRFPX12AC960A216
p193
aa(lp194
VSOIDOZX12A6D4F9D1A
p195
aVSOMIXXI12A6701CB8D
p196
aVSOVNTQD12A8C137718
p197
aa(lp198
VSOYURND12AB018CD1E
p199
aVSOCOGWU12AB017F6F4
p200
aVSOKSDBV12A8C141BFD
p201
aa(lp202
VSOMMKFO12A6D4F8051
p203
aVSOLOZAB12A6D223BE2
p204
aVSOBWRFI12A6D4FA263
p205
aa(lp206
VSOKQJKF12A8C145DED
p207
aVSOCFJUW12AB018D6FA
p208
aVSOMVWFA12A6D4F56F3
p209
aVSOQBXXW12AC39274D6
p210
aa(lp211
VSOHSAYJ12A8AE48A05
p212
aVSOKVGPD12A58A78D67
p213
aa(lp214
VSOYSFLQ12A6D4FB890
p215
aVSOJIBJW12A8C1406DB
p216
aa(lp217
VSOWWRVY12AB017E388
p218
aVSOVDAQI12AB0183C55
p219
aVSOARGZA12A6701F603
p220
aa(lp221
VSOKXZYU12A81C20C86
p222
aVSOKLUKW12A58A7B7A8
p223
aa(lp224
VSOHCTNK12AB0188C54
p225
aVSOCCIPF12A58A7C2E0
p226
aa(lp227
VSOUCZEA12AB0183EE1
p228
aVSOJPSCQ12A8151CE6E
p229
aVSOGEXXD12A679AE55C
p230
aa(lp231
VSOQSBRB12A8C143F97
p232
aVSOIBBOG12A6D4F990F
p233
aa(lp234
VSOVKQFF12A6D4FAB5A
p235
aVSOLYSUO12A8C13EF7F
p236
aVSOYKFER12A582918B0
p237
aa(lp238
VSOWKLYP12A6D4F75A8
p239
aVSOKKKSN12AC468A0E6
p240
aVSOACQHA12A8C143257
p241
aVSOLBPRF12A8C13CB9B
p242
aa(lp243
VSOTAWNJ12A8C13FEFC
p244
aVSOQUMZR12AB017F979
p245
aa(lp246
VSOFQHZW12A6701C156
p247
aVSOCGWCK12A67020F39
p248
aa(lp249
VSORRTVA12D0219AA06
p250
aVSOHRVRX12D02190873
p251
aa(lp252
VSOKJOPB12A67AD8764
p253
aVSOGJUIV12A6701E6F0
p254
aa(lp255
VSOQCQIQ12A58A7FC75
p256
aVSOHADRV12AB017EC2F
p257
aVSODBVKD12A6D4F7CF0
p258
aVSOLAZNJ12A67020E6A
p259
aVSOWRNKO12AB01843B6
p260
aa(lp261
VSOIHFMU12A58A7B28F
p262
aVSOCFULB12AB0183461
p263
aa(lp264
VSOFYRDR12A8C133F7D
p265
aVSOWIQRQ12A8C13B191
p266
aa(lp267
VSOBCDEE12A6310E8AE
p268
aVSORZLWZ12A58A7F5D8
p269
aa(lp270
VSOKKYKI12AB017DEB4
p271
aVSOFHSSI12A6D4FB3C5
p272
aa(lp273
VSONSTMR12D021B40A3
p274
aVSOWYXKY12AB0186BDC
p275
aa(lp276
VSOGLMHC12A6702147C
p277
aVSOIUIAR12A8C1457EB
p278
aVSOMBLQN12D0219333C
p279
aa(lp280
VSOIZTKO12A8C135A36
p281
aVSOAXLXT12AB0186579
p282
aa(lp283
VSOAASUT12A8C13E8CD
p284
aVSODFKCJ12A8C136A26
p285
aa(lp286
VSOAYVYB12A58A7917A
p287
aVSOXXOOU12AAF3B40D2
p288
aVSOLDSIH12A6D4F7E6E
p289
aVSOBMCEI12A6D4F65BD
p290
aa(lp291
VSOXUXAN12AB017FC3C
p292
aVSONJHQP12A6D4F5D8C
p293
aa(lp294
VSOHSAYJ12A8AE48A05
p295
aVSOBLLRP12A6D4FD0B0
p296
aVSOZSFWF12A6D4F93D5
p297
aVSOJPVCB12A8C138914
p298
aa(lp299
VSOSTGHO12AB0186AB1
p300
aVSORVNTJ12D02198B10
p301
aVSOJQCVF12D0219763F
p302
aa(lp303
VSOBFDWJ12AB018B5E3
p304
aVSOBESQY12A8C13415C
p305
aa(lp306
VSORWOBC12AC468B77C
p307
aVSOBTGNJ12A6D4F6E0F
p308
aa(lp309
VSOBWRFI12A6D4FA263
p310
aVSOBSPWR12A6D4F78C9
p311
aVSOOWNGP12A8C141C40
p312
aa(lp313
VSOIWEDC12A8C13ECF2
p314
aVSOVSLWD12AB018380A
p315
aVSOKVZTQ12A58A7BF4B
p316
aa(lp317
VSONIJLQ12A6D4F7D51
p318
aVSOJIBJW12A8C1406DB
p319
aVSOGHZVY12A6701DCAE
p320
aVSOGDNZE12AB01802F6
p321
aa(lp322
VSOQXFXP12AB018043C
p323
aVSOMEUUA12AB0183C6E
p324
aa(lp325
VSOISQAT12A6310D823
p326
aVSOWOLYL12A6310E88B
p327
aa(lp328
VSONMTMF12A6310E88F
p329
aVSOMKBUD12A8AE483EA
p330
aa(lp331
VSOTTBAM12AB0184EF6
p332
aVSOKWMNH12A6310E899
p333
aa(lp334
VSOBQCTX12A6310E8AB
p335
aVSOXUESB12A6310E894
p336
aVSORLDIY12AB0184E8F
p337
aa(lp338
VSOEHPHW12AB0182A0C
p339
aVSOFWJDG12A8C1340C7
p340
aa(lp341
VSOHWPPH12AB0189BD2
p342
aVSOJRAUP12AB0189BFA
p343
aVSOZXPRY12A8C1416D9
p344
aa(lp345
VSORIYAG12AB018717E
p346
aVSOIBCME12D02191D34
p347
aa(lp348
VSOITXNB12A8C144ECD
p349
aVSOGHITV12AB017F4B1
p350
aa(lp351
VSOXPZNX12A6D4F765B
p352
aVSOKQTCU12A8C1323FE
p353
aVSOTAQZC12A58A7D3C2
p354
aa(lp355
VSOSEWHU12A8AE484E5
p356
aVSOGZSAF12AB018BE50
p357
aVSOZWGSV12AB017F4C9
p358
aVSOUHQLA12A8C13C7D2
p359
aVSOHGKPB12A8C142BFD
p360
aVSOZEILI12A8AE48B71
p361
aVSORSAVG12A6D4F7A39
p362
aVSOCFJUW12AB018D6FA
p363
aVSOYTSDU12A8C132903
p364
aa(lp365
VSOOHVCD12A8C1330FF
p366
aVSOSEHDD12A58A7B2CA
p367
aVSOTNHUH12A8C13D23E
p368
aVSODLCVG12A6D4F7A25
p369
aa(lp370
VSOJLQEL12A6310E2F1
p371
aVSOXGDBC12A8C13AB07
p372
aVSOSGPVW12A58A76A36
p373
aVSOTRGIU12AC9097D35
p374
aVSOEJHBX12A8C1381C6
p375
aa(lp376
VSORWOBC12AC468B77C
p377
aVSOWPWJZ12A8C1399DD
p378
aVSOOXIJB12D021B3710
p379
aVSOBQUMU12A6D4F6BE9
p380
aa(lp381
VSOPFHPD12A8C1407F6
p382
aVSOLPGZM12A8C1407E2
p383
aa(lp384
VSORQPHU12AB017DA9B
p385
aVSOHCJEO12AB0189406
p386
aa(lp387
VSOXRPPP12CF530E583
p388
aVSOGNSBS12A8C13CD4D
p389
aVSOBLACA12A8AE47ED4
p390
aa(lp391
VSOCCIZS12AB0184BBC
p392
aVSOOQFGN12A8C13F5C1
p393
aVSOAKUTH12A8C135B29
p394
aVSOZGFCS12A8C13C32D
p395
aVSOCRBRA12A8C142A04
p396
aa(lp397
VSOGAENZ12A6D4F8A90
p398
aVSOTLURY12AB0183C93
p399
aa(lp400
VSOHKFZG12AF72AAD27
p401
aVSOCCIZS12AB0184BBC
p402
aa(lp403
VSODLCVS12A58A7ABE7
p404
aVSOCELOZ12A58A76797
p405
aa(lp406
VSOSFKAN12A8C1344CB
p407
aVSOBVWUO12AF729F6E7
p408
aVSOZDLBV12A67020A17
p409
aVSOMEHZO12A670209FF
p410
aa(lp411
VSOAASUT12A8C13E8CD
p412
aVSOOHVCD12A8C1330FF
p413
aVSOKDONI12D021987B3
p414
aVSOCFJUW12AB018D6FA
p415
aVSOQHCFT12A8BEEEB3F
p416
aVSOMARWU12AF729E5B6
p417
aVSONBHBZ12AB018778C
p418
aVSOWHUPN12A6D4F7D50
p419
aa(lp420
VSOAZQHD12A6D4F40C2
p421
aVSONIJLQ12A6D4F7D51
p422
aVSOUECYK12A6D4FA96E
p423
aVSONSTMR12D021B40A3
p424
aVSOOWNGP12A8C141C40
p425
aVSOESBWM12A58A7D8D3
p426
aVSOWKDQL12AF72A0B45
p427
aVSOVEKQE12A6D4F6BF6
p428
aa(lp429
VSONJTDS12A6D4FAC33
p430
aVSOKHWUI12A6D4F93D8
p431
aa(lp432
VSOSQPYX12A8C1388EA
p433
aVSOHGYTI12A8C132B5A
p434
aa(lp435
VSOEJHBX12A8C1381C6
p436
aVSODVXBW12A8C13F7B6
p437
aa(lp438
VSOYBJDB12A58A7C928
p439
aVSOGFTOU12AB018374A
p440
aVSOIUIAR12A8C1457EB
p441
aVSOVKHDV12AB0187269
p442
aVSOMBLQN12D0219333C
p443
aVSOQKSXV12A8C14075C
p444
aVSOHADRV12AB017EC2F
p445
aVSOWGSWQ12AF72A659D
p446
aVSOXJVPT12A8C141CA6
p447
aVSOAMNXU12AB018C55D
p448
aVSOISQAT12A6310D823
p449
aVSODTCIJ12A8AE48A33
p450
aa(lp451
VSOPFAOP12A6D4F7D52
p452
aVSOKNKAX12A6D4F9DD1
p453
aVSOTRGIU12AC9097D35
p454
aVSOBLLRP12A6D4FD0B0
p455
aVSOOFLTG12AB017DB27
p456
aVSOEZYNT12A8C13A290
p457
aVSOSNTUU12A6D4F971D
p458
aVSONSTMR12D021B40A3
p459
aa(lp460
VSOAZWJE12A6701E10F
p461
aVSOFPKMG12A6D4F7801
p462
aa(lp463
VSOLEPED12AB01830FD
p464
aVSOKLJTK12AB017F30E
p465
aVSOOYOTE12A81C21557
p466
aa(lp467
VSOOHVCD12A8C1330FF
p468
aVSONVORY12A8C13ED52
p469
aa(lp470
VSOXGBHE12A6701DEE6
p471
aVSOUINFV12A6D4F7DEB
p472
aa(lp473
VSOVSLWD12AB018380A
p474
aVSOEWCFR12A6D4FA265
p475
aVSOKKKSN12AC468A0E6
p476
aVSOZBVZI12A8C143CA0
p477
aVSOCFJUW12AB018D6FA
p478
aVSORHCWV12A6D4F8610
p479
aVSOMTNZA12A6D4F6BEA
p480
aa(lp481
VSOPNWXV12AC90718F5
p482
aVSONYQHU12A8C134BA8
p483
aa(lp484
VSOQFWTV12AB017EC81
p485
aVSOSNARG12AB0181739
p486
aa(lp487
VSOKPASY12A8C14135F
p488
aVSOEWCFR12A6D4FA265
p489
aa(lp490
VSOGELHE12AB018053C
p491
aVSOFSYXI12AB0180052
p492
aVSOQRUUL12AB0180B58
p493
aVSOWVFLI12AB017FDD9
p494
aVSORRKRL12A679D8ABA
p495
aVSOZIJBU12AB017E41F
p496
aVSOMGRZV12A8C134CAB
p497
aVSOHEMRG12A6701DE04
p498
aVSOVSWBY12A8C13D206
p499
aVSOHLCFK12AB017E749
p500
aa(lp501
VSOAHEVN12A6D4F67BF
p502
aVSOUIOGK12AB017F0D4
p503
aa(lp504
VSOHWGQB12AB018B456
p505
aVSOTNHUH12A8C13D23E
p506
aVSOXAUFJ12AB01827C7
p507
aVSOMMCML12A8C13A881
p508
aa(lp509
VSOEEXED12A8C13DBF1
p510
aVSOMUUYJ12A58A7877E
p511
aVSOAMVMM12A6D4FA416
p512
aVSOCESGY12AB018543C
p513
aVSOXDNCQ12AB017E456
p514
aVSOSMFPF12A6D4F8DC7
p515
aa(lp516
VSOGRNNX12A58A7BC65
p517
aVSOHYCGB12A6D4F7C5C
p518
aVSORWDCM12A6D4FC397
p519
aa(lp520
VSOZCDOZ12AB018147E
p521
aVSOOKQRP12A6D4F738C
p522
aVSOWKAIS12A5829202A
p523
aa(lp524
VSOHUEKT12A8C13453C
p525
aVSOMNXIH12A3F1EA72F
p526
aVSORYVBT12AB017BB45
p527
aa(lp528
VSOKQIHY12A58A7BE6E
p529
aVSOPQQCG12A8C133E08
p530
aa(lp531
VSOKZIXL12AB0187E57
p532
aVSOGKXET12A6D4F6E8E
p533
aVSOZVLTV12A8C13CD3C
p534
aa(lp535
VSOSVKPQ12AB0188381
p536
aVSOGPROE12AB0186906
p537
aVSOEOBPY12A6D4F84D2
p538
aa(lp539
VSOTAEVI12AF72A152F
p540
aVSOVBKDQ12A8C134ADF
p541
aa(lp542
VSOAXUKR12A6701D95E
p543
aVSOCCYYW12A8C1352E8
p544
aVSODYSGJ12A8AE460B0
p545
aa(lp546
VSOQMKGL12A6D4F5A38
p547
aVSOOGHCC12A58A7CD43
p548
aVSOJTLKO12A6701D955
p549
aa(lp550
VSODGYSK12A8C137A6A
p551
aVSOLQDJI12A8C145A85
p552
aa(lp553
VSOZJOVX12AF72A7295
p554
aVSOPRFYB12A6D4F712E
p555
aVSOMVXGI12A8C1403F6
p556
aa(lp557
VSOUCEFH12AB018413A
p558
aVSOTAYHT12A58A78771
p559
aVSOANAJM12AB01878C6
p560
aVSOTOCAD12A6701DE00
p561
aVSOTJBFM12A8C13D208
p562
aa(lp563
VSOPYTXS12A6D4FD4A1
p564
aVSOTGOFL12A58A7A23F
p565
aa(lp566
VSOOSCPI12A6701E70B
p567
aVSOEYKSH12A8C143B4D
p568
aVSOEVJCY12A6D4FE836
p569
aVSOXYSIC12CF5827361
p570
aVSOGNOZR12AB0184BE1
p571
aa(lp572
VSOQQQUE12D0219336C
p573
aVSOSSMET12D021B3D9E
p574
aVSOVZAQD12A6D4FA818
p575
aa(lp576
VSOUEHFM12AB0182E61
p577
aVSOAEFBY12A6701F2EE
p578
aVSOOQFET12D021B3251
p579
aVSOETDOS12A8C138FC1
p580
aVSOZVZBX12AB01882E0
p581
aa(lp582
VSOMHVQB12AB018A0C9
p583
aVSOHNMUY12A6D4FC19D
p584
aa(lp585
VSOWHUPN12A6D4F7D50
p586
aVSOJIHMF12AB017FC47
p587
aVSOFENOB12A8AE48B94
p588
aa(lp589
VSOPWFMJ12A8C131FCE
p590
aVSOFUANX12AB0180538
p591
aVSODVTJU12A8C13E0E0
p592
aVSOHRIKL12AB0186468
p593
aa(lp594
VSOUAFNC12A8C1344E2
p595
aVSOPVLHY12AB01820C6
p596
aa(lp597
VSOUXPQJ12A6D4FC99B
p598
aVSONFVKS12A8C145F88
p599
aa(lp600
VSOZPIUX12A6D4F84B8
p601
aVSOLZWAW12D021B2186
p602
aa(lp603
VSOSJHIE12A8C1339AB
p604
aVSOHVATB12A8C1427E6
p605
aVSOYWJKU12CF5F88DDF
p606
aa(lp607
VSOOVZEB12A8AE46ED3
p608
aVSOTKIOQ12AB0180579
p609
aa(lp610
VSOXOBUH12AB0183195
p611
aVSOLDAXI12AB018D066
p612
aVSORWOBC12AC468B77C
p613
aa(lp614
VSODGLMM12A8C1430BC
p615
aVSOKCWKY12A6701DDFE
p616
aa(lp617
VSOVANCK12D02192614
p618
aVSOWVVKB12A6D4F889E
p619
aVSOFJVSN12A58A7C744
p620
aVSOXRPPP12CF530E583
p621
aa(lp622
VSOCHQGY12A6D4FBE3D
p623
aVSOCVNVX12A6310F347
p624
aVSOYNVGY12A8C132EE5
p625
aa(lp626
VSOUAHGM12A8C142415
p627
aVSOCJSPF12A8C1376EF
p628
aVSOUHQLA12A8C13C7D2
p629
aVSOWYXKY12AB0186BDC
p630
aa(lp631
VSOQHCFT12A8BEEEB3F
p632
aVSOLIHVY12A8C13ED83
p633
aa(lp634
VSOGDNZE12AB01802F6
p635
aVSOUDRCO12A6D4FB3AF
p636
aVSOMYEVE12CF5F87B50
p637
aVSOUDEKM12AC46886BD
p638
aVSOSNTUU12A6D4F971D
p639
aVSOMIGIU12AF729CD1A
p640
aVSONGOJV12AF729AEBD
p641
aVSOFRFRT12AB0184512
p642
aa(lp643
VSOBFPJC12A58A7D1AB
p644
aVSOXZHUO12D0219970F
p645
aa(lp646
VSOOSLSH12AB01802C5
p647
aVSOZYNLB12A6D4F6BF3
p648
aVSOSPPAB12A8AE47335
p649
aa(lp650
VSOIZEYU12A6D4FF07D
p651
aVSOSJHIE12A8C1339AB
p652
aVSOXXVQB12AB01875A3
p653
aVSOCZUWJ12A8AE48438
p654
aa(lp655
VSODWDCI12AB017D094
p656
aVSOMNLEH12A58A7EDCA
p657
aVSODFHXX12AB017FDB6
p658
aVSOXEUNC12AB017FDE0
p659
aVSOWSFPA12AB017FE16
p660
aVSOGJJVH12A58A7C518
p661
aVSOHMQLO12AB017FDA4
p662
aa(lp663
VSOSETFK12A58A7DA74
p664
aVSOAAONY12B35058AB3
p665
aVSOCFKCQ12AB01804A6
p666
aVSOIQMVJ12A8C13F525
p667
aa(lp668
VSONZKTA12AB018AC91
p669
aVSOJLATR12A6D4F7B3D
p670
aVSOFHJPS12A6BD537A0
p671
aVSOGVWBQ12AB017FBA7
p672
aa(lp673
VSOVLNNR12AB017EF32
p674
aVSORDYVO12A8C141A40
p675
aa(lp676
VSOSNVGK12A58A7AEFB
p677
aVSOIMWCO12A6D4FAB52
p678
aa(lp679
VSOQPKBN12A67020E8F
p680
aVSOQXOKI12AB018370B
p681
aa(lp682
VSOKAUMU12A8C1409D1
p683
aVSOLFISF12AB01875D8
p684
aa(lp685
VSOUZFJI12AB018C801
p686
aVSOUAFNC12A8C1344E2
p687
aa(lp688
VSOAVMSY12A8C13A82C
p689
aVSOSFRRV12AB0181CF8
p690
aa(lp691
VSORVWYI12A8C130EEA
p692
aVSOPYDAG12A67ADFA31
p693
aa(lp694
VSOBBHQG12A58A7ADC6
p695
aVSOWXJVR12A67ADAC58
p696
aVSOCKWXO12AB01858EA
p697
aa(lp698
VSOPOUVA12AB017F971
p699
aVSOFOKNV12A67ADC90A
p700
aVSOHSFJV12AB0184371
p701
aVSOBUJVV12A67ADC920
p702
aVSONGHLR12A58A7BBEF
p703
aVSOHXMVZ12A6D4F92CA
p704
aVSOJYNTZ12A81C21A0A
p705
aa(lp706
VSOLVPSI12A6310E82F
p707
aVSOFEHLW12AB0186CDB
p708
aa(lp709
VSONSTMR12D021B40A3
p710
aVSOZSZTH12A8C131141
p711
aVSOSVRYL12CF5CFADC6
p712
aVSONFLOP12A6D4F78AB
p713
aa(lp714
VSOCRBRA12A8C142A04
p715
aVSOAIRUO12D021992C8
p716
aa(lp717
VSOCIYCZ12A6D4F99DB
p718
aVSOJLQEL12A6310E2F1
p719
aVSOVBBZR12AB017F913
p720
aa(lp721
VSOXYQXF12A58A7DF44
p722
aVSOFWRDF12A6D4F9558
p723
aVSOGQXBU12AB018282A
p724
aVSOSXQAY12A8AE48B67
p725
aVSOZYNLB12A6D4F6BF3
p726
aa(lp727
VSOODUHX12A8C1438AD
p728
aVSOAGZVX12AB01862E2
p729
aa(lp730
VSONHDVG12AB0186C15
p731
aVSOANIOW12A8C13A83F
p732
aa(lp733
VSOGKTGC12A67ADD1D0
p734
aVSOCVQUO12A6D4FAAF4
p735
aa(lp736
VSOTFEZY12A6702096B
p737
aVSOWUWKV12A8AE47879
p738
aa(lp739
VSORNZPV12AB0186D8D
p740
aVSONLVIC12A58A7A831
p741
aa(lp742
VSOBCAQT12A6702123E
p743
aVSOYEQAW12AB0185F93
p744
aa(lp745
VSOHTELQ12AB017B473
p746
aVSOCQYEP12A8C1402FD
p747
aVSOSCMSG12AC4687E3F
p748
aVSODUIEM12A58A778EA
p749
aVSODQPUF12AF72A4298
p750
aVSOECKDX12AB01850F1
p751
aVSOEOSPG12A8C13367A
p752
aa(lp753
VSOOUAWR12AB0184A1E
p754
aVSOQFMUI12A8C13EC9D
p755
aa(lp756
VSOCFJUW12AB018D6FA
p757
aVSOXDLQK12A8AE47215
p758
aa(lp759
VSOFGUSO12A8C13FDA4
p760
aVSOGSIVG12A8C143989
p761
aVSOJIBJW12A8C1406DB
p762
aVSOSBQKX12AB0188DCA
p763
aVSOTJBFM12A8C13D208
p764
aa(lp765
VSOYQZHG12AB0181D82
p766
aVSOANAXD12A8C131EE5
p767
aVSOZYNLB12A6D4F6BF3
p768
aa(lp769
VSOHVZPA12A8C13C813
p770
aVSOJQUHI12A6D4FA7ED
p771
aa(lp772
VSOEZPRQ12A8C13DDCC
p773
aVSOPXVXL12A58A7EDF3
p774
aa(lp775
VSOLEPED12AB01830FD
p776
aVSOZJOOI12A8C13C717
p777
aa(lp778
VSOSZULY12AC468B3DE
p779
aVSOXCSOP12D021B3C3F
p780
aa(lp781
VSOOGYIH12A6310D81F
p782
aVSODQPUF12AF72A4298
p783
aVSOAZQHD12A6D4F40C2
p784
aVSOZJEAW12A58A761DB
p785
aVSOEJHBX12A8C1381C6
p786
aVSOTRGIU12AC9097D35
p787
aVSOOFLTG12AB017DB27
p788
aa(lp789
VSOJIBJW12A8C1406DB
p790
aVSONSTMR12D021B40A3
p791
aVSOBTGNJ12A6D4F6E0F
p792
aa(lp793
VSOVVNLI12A8C13CFFC
p794
aVSOAQDIK12AB017C40C
p795
aVSOWGSWQ12AF72A659D
p796
aVSOYOCPY12A8C13554F
p797
aVSOFEHLW12AB0186CDB
p798
aa(lp799
VSOBQUMU12A6D4F6BE9
p800
aVSOMIXXI12A6701CB8D
p801
aVSOYMCQU12A6D4F6FC8
p802
aVSOICNEL12A8C1361AE
p803
aVSOMCISQ12A8C1356CA
p804
aVSOFKCWS12A8C134911
p805
aVSOZEILI12A8AE48B71
p806
aVSOGVOHA12AB018301D
p807
aVSOSUTZH12A81C22A34
p808
aVSOGHJPS12A8C138028
p809
aa(lp810
VSOJXKRU12A8C140023
p811
aVSOCVCXJ12A8C13EEA5
p812
aVSOSXQAY12A8AE48B67
p813
aVSOUWDVC12A58A7AD6D
p814
aa(lp815
VSOPTQQB12A8C133394
p816
aVSODHFGA12AB0181F27
p817
aa(lp818
VSOGSJCZ12AB0185820
p819
aVSOBBKOJ12D021B2043
p820
aa(lp821
VSOOHVVW12AB0184F59
p822
aVSOFEFHI12AB0188BDD
p823
aVSOROBOC12AB0187D5D
p824
aVSOXPCVL12AB01855E3
p825
aa(lp826
VSOUYOAH12AB018143C
p827
aVSOUJYDX12AB017FA38
p828
aVSOVYLOK12A8C1334F7
p829
aVSOIHFAX12AB01829E4
p830
aVSOMVRRS12A58A7D10E
p831
aa(lp832
VSOSNTMO12A6D4FAB35
p833
aVSOQUMZR12AB017F979
p834
aVSOJWQZN12A58A79778
p835
aVSONSJNW12A6D4F7664
p836
aa(lp837
VSOHFSKB12A67020ED3
p838
aVSODWGUC12A6D4F8147
p839
aa(lp840
VSOGFKEF12A8C13A095
p841
aVSORSORV12A6D4F65C6
p842
aa(lp843
VSOAAXCR12AB017C019
p844
aVSOYOFFN12A67AD8576
p845
aa(lp846
VSOEMDOM12AB017E3D1
p847
aVSOOXIJB12D021B3710
p848
aa(lp849
VSOHYBQL12AB0188A78
p850
aVSONOVXM12AB0180239
p851
aa(lp852
VSOQCYZO12A8C14383E
p853
aVSOJDSPP12A67ADAC62
p854
aa(lp855
VSOGDOLQ12AB01855FD
p856
aVSOPERJL12AF72A828F
p857
aa(lp858
VSOUTOWI12A8C145A5F
p859
aVSOCAOGX12AB017E6E3
p860
aa(lp861
VSOBJUEP12A8C13DF75
p862
aVSOVWVEP12A6D4F89A9
p863
aVSOTAWNJ12A8C13FEFC
p864
aa(lp865
VSOEVKFI12AB017F888
p866
aVSOKLKVX12AB0182636
p867
aa(lp868
VSODLXUC12A6701DD8C
p869
aVSOBKNOO12AC46899FC
p870
aa(lp871
VSORSAVG12A6D4F7A39
p872
aVSORZGSP12AB017F84E
p873
aVSOJKWJK12AB0185156
p874
aVSOZVAIE12A6701D273
p875
aa(lp876
VSOYBJDB12A58A7C928
p877
aVSOABWGO12AB0182725
p878
aa(lp879
VSOLVBQQ12AF72A2299
p880
aVSOYVWTC12A8C135865
p881
aVSOPWFMJ12A8C131FCE
p882
aVSOUWOPT12A81C21D88
p883
aVSOZKNYM12A6D4FA990
p884
aVSOWANIA12A8C13F63B
p885
aVSOFHHNC12A8C135D49
p886
aVSOQDTGK12A58A7AC7E
p887
aVSOJNKYQ12AB0181DA5
p888
aa(lp889
VSOFVARD12AF72A0CFD
p890
aVSOQSKDN12A8C1389DC
p891
aVSOVTJXR12A8C1389F6
p892
aa(lp893
VSODRHUE12A8C144464
p894
aVSOZNJSS12AB0185B6A
p895
aVSOOAPPG12AB0185B93
p896
aVSOHUGVW12AB018039D
p897
aVSOMQNOB12AB01803A4
p898
aVSONUUTY12AB017D9AF
p899
aVSOQBMYC12AB018478B
p900
aVSODZZPS12AB017D9E8
p901
aVSOBIGKJ12AB017D9F2
p902
aVSOSXVPB12AB017D9FC
p903
aVSOVQJXF12A8C131747
p904
aVSOTAPTQ12A8C13173D
p905
aa(lp906
VSOHDDTH12AB01817A0
p907
aVSOCCRWU12AB0183B39
p908
aVSOZMANG12AB017FEF5
p909
aVSOJFCID12AB0186829
p910
aVSONXIBR12AB0186856
p911
aVSOCQBCX12AB017FE9F
p912
aVSODASVO12A8C139E3A
p913
aa(lp914
VSORILYI12A6701DD97
p915
aVSOEJHBX12A8C1381C6
p916
aVSOQBXXW12AC39274D6
p917
aVSOITEBY12A6D4F4800
p918
aVSORYYHC12AB017EAE8
p919
aVSOLDVPD12AF729B92F
p920
aa(lp921
VSOLWJTP12A6D4F7D1A
p922
aVSONEVMQ12AAF3B4114
p923
aVSOKHBWW12AB01893B4
p924
aVSOZDIOV12A6701D7E9
p925
aVSOZOECI12A8C13C3B7
p926
aVSOLVTJP12A6D4F7670
p927
aa(lp928
VSOYYTZZ12AC46894A5
p929
aVSOJIUAT12AC3923BE5
p930
aVSOXCLCN12AB018419E
p931
aa(lp932
VSOZHGHN12AB018C967
p933
aVSOLLMHV12AAF3B4A95
p934
aa(lp935
VSOGQFML12A8C144450
p936
aVSOXTAIG12A8C1412B0
p937
aVSOJVGPS12A8C141C3D
p938
aa(lp939
VSOERNEC12AB018072C
p940
aVSOPHGQQ12AB0180079
p941
aVSOFVTSA12A8C131559
p942
aa(lp943
VSOKKUVI12AB017D035
p944
aVSOBBYTD12AB017C989
p945
aa(lp946
VSOOGKFU12A8C1439DA
p947
aVSOWZEWT12B0B80855C
p948
aVSOPLOOM12A6702091A
p949
aVSOFLTCH12A6D4F7D79
p950
aVSOKDSIH12A8C145989
p951
aa(lp952
VSOOCAUT12AB0183281
p953
aVSOZLRAM12A6D4F9100
p954
aa(lp955
VSODVXBW12A8C13F7B6
p956
aVSOUTFLN12A8C1395F1
p957
aVSOIYQTX12AB017F4A1
p958
aa(lp959
VSOAMZXH12A8C1356BE
p960
aVSOUAJBA12A8C13C91A
p961
aa(lp962
VSOXPUNJ12AB0184B90
p963
aVSOIBCME12D02191D34
p964
aVSOFRAKS12A8C140F16
p965
aVSOJPAOK12AB0185288
p966
aa(lp967
VSODDJKA12A6701C09E
p968
aVSOIBCEC12AB018709A
p969
aa(lp970
VSOMSYPG12A6BD55C05
p971
aVSOCCEOB12A8C139DB9
p972
aa(lp973
VSOZJEAW12A58A761DB
p974
aVSOYYCIV12A8C13883F
p975
aa(lp976
VSOXCSOP12D021B3C3F
p977
aVSOEMDOM12AB017E3D1
p978
aVSOJDCAO12AB018C0A8
p979
aVSOBIUJF12A8C13CEAF
p980
aVSOJQCVF12D0219763F
p981
aVSODFUST12AB01805B3
p982
aVSOLPXGF12D02190755
p983
aVSOGJXNC12AC468BA30
p984
aVSORWOBC12AC468B77C
p985
aa(lp986
VSOPBYVO12A6D4F7857
p987
aVSOXPUNJ12AB0184B90
p988
aa(lp989
VSOGTIOD12AF72A45A3
p990
aVSOKWEUK12A8C136932
p991
aa(lp992
VSOLCPEH12A6D4F9903
p993
aVSOVACOU12AB0188CAD
p994
aVSOKWRNL12A58A8162D
p995
aa(lp996
VSOSOVRH12AB0186CD7
p997
aVSOUEDIN12A6D4FA523
p998
aVSOCDNQL12A8C13B678
p999
aa(lp1000
VSONSTMR12D021B40A3
p1001
aVSOILBRM12A81C2158F
p1002
aVSOUTOWI12A8C145A5F
p1003
aa(lp1004
VSOTNHUH12A8C13D23E
p1005
aVSOUDEKM12AC46886BD
p1006
aVSOIZTKO12A8C135A36
p1007
aVSORWOBC12AC468B77C
p1008
aVSOAYSTN12AB017D357
p1009
aVSOUAFNC12A8C1344E2
p1010
aVSOUZFJI12AB018C801
p1011
aa(lp1012
VSOPPCAE12A6701F592
p1013
aVSOMMDWU12AB017C991
p1014
aVSOTKIOQ12AB0180579
p1015
aVSOAIKTL12A58A7EA5A
p1016
aVSOBFDWJ12AB018B5E3
p1017
aVSOBLLRP12A6D4FD0B0
p1018
aVSOAIKKF12A8C135FF5
p1019
aa(lp1020
VSOKXFWH12A6D4F7BF8
p1021
aVSORSAVG12A6D4F7A39
p1022
aa(lp1023
VSOKMPIZ12A8C143E2A
p1024
aVSOAYJOK12A6D4F6FA2
p1025
aa(lp1026
VSOFXANT12AB0183A7F
p1027
aVSODRWNG12AB017F2F6
p1028
aa(lp1029
VSOUOSOF12AB0183C1E
p1030
aVSOSNTUU12A6D4F971D
p1031
aa(lp1032
VSOUECYK12A6D4FA96E
p1033
aVSOEJHBX12A8C1381C6
p1034
aVSOAGMOX12A8C1399D1
p1035
aVSOXCSOP12D021B3C3F
p1036
aa(lp1037
VSOODECY12A8C131A57
p1038
aVSOSTGHO12AB0186AB1
p1039
aa(lp1040
VSOQBXXW12AC39274D6
p1041
aVSOAGJIG12A6310E831
p1042
aVSOBDAQQ12A6D4FA04F
p1043
aVSOAZQHD12A6D4F40C2
p1044
aa(lp1045
VSOQHCFT12A8BEEEB3F
p1046
aVSOEVZMO12A8C13DD53
p1047
aVSOQRUUL12AB0180B58
p1048
aa(lp1049
VSOYRMNU12A6D4F73D1
p1050
aVSOHLCMM12A6702123F
p1051
aVSOTBFWD12A6D222823
p1052
aa(lp1053
VSOJQCVF12D0219763F
p1054
aVSOUCELQ12A8C13851B
p1055
aa(lp1056
VSOLNYJY12A81C2226C
p1057
aVSOGCWQQ12AC468AFA0
p1058
aa(lp1059
VSOZBVZI12A8C143CA0
p1060
aVSOBYCGK12AB0180D47
p1061
aVSOLNEGI12A6701CB8B
p1062
aa(lp1063
VSOVBBZR12AB017F913
p1064
aVSOINDIN12A6D4F4805
p1065
aVSOKPASY12A8C14135F
p1066
aVSOMHNPF12A8C141414
p1067
aVSONBHBZ12AB018778C
p1068
aVSOVNAPO12A6310E2E4
p1069
aVSOEOBPY12A6D4F84D2
p1070
aVSOSXQAY12A8AE48B67
p1071
aVSOQIJKU12A8C13B026
p1072
aVSOMOTXO12A6701D279
p1073
aVSOKGERN12A6D4F8195
p1074
aa(lp1075
VSOCHIUS12A8C1329F6
p1076
aVSOYAEVU12AB0184C16
p1077
aa(lp1078
VSOFHKVZ12A6310E157
p1079
aVSOLKFQU12A6D4F9A74
p1080
aVSORZHCA12AB01846E3
p1081
aa(lp1082
VSOHGYGO12A8C133331
p1083
aVSOWQAHQ12AC468AEA1
p1084
aa(lp1085
VSOUZFJI12AB018C801
p1086
aVSOBHOHZ12A6701FDC2
p1087
aVSOGBYDQ12A6D4F6E97
p1088
aa(lp1089
VSOMTCOA12AB01872DB
p1090
aVSOEZHYC12AB01850B7
p1091
aa(lp1092
VSOVEBJG12A8C13E395
p1093
aVSOERLNX12A8C13733D
p1094
aa(lp1095
VSOAGRLA12A6D4F5BDA
p1096
aVSOLPOPE12A6D4FA256
p1097
aa(lp1098
VSOZKYOA12A6D4F91C9
p1099
aVSOBCVCU12AB01827A3
p1100
aVSOVGXFZ12A67FFB382
p1101
aa(lp1102
VSOKTWIM12A6D4F56F0
p1103
aVSOTNQQN12AAF3B2B46
p1104
aa(lp1105
VSOOTNBH12AB01819CF
p1106
aVSONBHFL12A6D4F7987
p1107
aa(lp1108
VSOGWKCR12A6D4FBD7F
p1109
aVSOQKSXV12A8C14075C
p1110
aVSOQBXXW12AC39274D6
p1111
aVSOZOECI12A8C13C3B7
p1112
aa(lp1113
VSOZDIOV12A6701D7E9
p1114
aVSOWKKXI12AC468A91E
p1115
aVSOXRLIZ12AB01831A5
p1116
aa(lp1117
VSONUKMU12A6D4F92D5
p1118
aVSOKNOTN12AB0183CC3
p1119
aa(lp1120
VSOTRVWY12AB0186234
p1121
aVSOHUFBZ12A58A7E00D
p1122
aa(lp1123
VSOKHRYZ12A58A79F24
p1124
aVSORTLAE12A58A7DB23
p1125
aVSOWXAOL12AB017F986
p1126
aVSOEDHRT12A58A7A600
p1127
aVSOATHZV12A58A788DA
p1128
aVSODGDVL12AB0184238
p1129
aa(lp1130
VSOIDPEB12A8C13B5CC
p1131
aVSOOZGPE12A6D4F65B9
p1132
aa(lp1133
VSOWETMC12A58A80271
p1134
aVSOCTUTR12A6D4FA050
p1135
aa(lp1136
VSOVOOAO12A8C13EDA0
p1137
aVSOUINFV12A6D4F7DEB
p1138
aa(lp1139
VSOUHZHO12A6310DF90
p1140
aVSOBZMOI12A8AE4827F
p1141
aVSOECTQL12A8C14100F
p1142
aVSOBSPGM12A8C143184
p1143
aVSOPWZRL12A67ADA23E
p1144
aa(lp1145
VSOJCJFA12A8C137588
p1146
aVSORDMEA12A8C143164
p1147
aa(lp1148
VSOUVIQV12AB018209E
p1149
aVSORSORV12A6D4F65C6
p1150
aa(lp1151
VSOEVKFI12AB017F888
p1152
aVSOXCSOP12D021B3C3F
p1153
aa(lp1154
VSOUECYK12A6D4FA96E
p1155
aVSOXRLIZ12AB01831A5
p1156
aVSODMESO12A58A77876
p1157
aa(lp1158
VSONWLQP12AB0185ABF
p1159
aVSOSZULY12AC468B3DE
p1160
aVSOZOECI12A8C13C3B7
p1161
aVSOOFGAZ12AB01833E6
p1162
aVSOXTGZU12AB017E3E6
p1163
aa(lp1164
VSODDREL12A8C13A7E5
p1165
aVSODAAHV12AC46870F3
p1166
aVSOJTXME12A8C136264
p1167
aVSOKLEUD12AB0186A1C
p1168
aVSONCVJV12A67020E8C
p1169
aa(lp1170
VSOHXRXP12AB0187BDB
p1171
aVSOETLDX12A6D4F817F
p1172
aVSOIJXRU12A8C139A80
p1173
aVSOSCTYJ12A8C1403F1
p1174
aVSOFKYFK12A6D4FD73D
p1175
aVSOBYSNR12AB01838F4
p1176
aa(lp1177
VSOAMJJV12A58A77723
p1178
aVSOLKXFC12AC96186F1
p1179
aVSOSRVPB12A6D4F7074
p1180
aa(lp1181
VSOCDUHF12A67021C6F
p1182
aVSOBECLR12A6D22723E
p1183
aVSOGIXRG12A8C135536
p1184
aa(lp1185
VSONSJNW12A6D4F7664
p1186
aVSOJTXME12A8C136264
p1187
aa(lp1188
VSOWLBBQ12A6D4F7DFC
p1189
aVSOLOCZW12AB018B623
p1190
aVSOAUNWC12A6310DF0B
p1191
aVSOHVHWD12A8C13C7CF
p1192
aVSOMNWYK12D021930A1
p1193
aVSOUXREG12AB018BE45
p1194
aa(lp1195
VSOUAJLR12A6D4F972C
p1196
aVSORRDBX12A8C1381BC
p1197
aVSOCUOES12AB01870F0
p1198
aa(lp1199
VSOGELHE12AB018053C
p1200
aVSOAJTAA12CF5F892FE
p1201
aa(lp1202
VSOVBBIU12A6D4FA3EB
p1203
aVSOEBGKF12A6D4FADB1
p1204
aa(lp1205
VSOGEPBI12A6D4F9742
p1206
aVSOYRGEN12A8C139380
p1207
aa(lp1208
VSOWNNIJ12A81C21D7A
p1209
aVSOCMGQH12CF5465276
p1210
aVSOLIHVY12A8C13ED83
p1211
aa(lp1212
VSOLLIJW12A58A7C677
p1213
aVSOGEIQV12AB01838FF
p1214
aa(lp1215
VSOZSFWF12A6D4F93D5
p1216
aVSOVBCQP12D02191E98
p1217
aa(lp1218
VSOTJBFM12A8C13D208
p1219
aVSOAUFFQ12A8C134623
p1220
aa(lp1221
VSOONUXA12A6D4F8863
p1222
aVSOMNLIA12AB017EFC2
p1223
aa(lp1224
VSOGFZEV12A6701E1A6
p1225
aVSOLANWU12A8C141D4D
p1226
aa(lp1227
VSOATHZV12A58A788DA
p1228
aVSOXRPPP12CF530E583
p1229
aVSORVNTJ12D02198B10
p1230
aVSOPLQTT12A8C13A298
p1231
aVSOFKCWS12A8C134911
p1232
aVSOCTQCK12A58A7B8B1
p1233
aVSOANAXD12A8C131EE5
p1234
aVSONVORY12A8C13ED52
p1235
aa(lp1236
VSODQGBL12A8C133C9B
p1237
aVSOGVOHA12AB018301D
p1238
aa(lp1239
VSOPXHJH12A8C138051
p1240
aVSOZUPKC12A8C141F43
p1241
aVSOALARH12AB0186CB6
p1242
aVSOFYBFZ12A8C142947
p1243
aa(lp1244
VSOKDONI12D021987B3
p1245
aVSOZSZTH12A8C131141
p1246
aVSOPVSSX12AB0184AEB
p1247
aVSOYKJTL12A67ADD069
p1248
aa(lp1249
VSOKPASY12A8C14135F
p1250
aVSOYKFER12A582918B0
p1251
aVSOAYNOB12A67ADD066
p1252
aa(lp1253
VSOSNARG12AB0181739
p1254
aVSOKGERN12A6D4F8195
p1255
aVSOGEPBI12A6D4F9742
p1256
aVSOWTXBR12AB017CA8D
p1257
aVSONCYAK12AAF3B49F9
p1258
aa(lp1259
VSOWNQBJ12AB0180089
p1260
aVSOLHCSD12A8C145F61
p1261
aa(lp1262
VSOPMUQK12A8C141E06
p1263
aVSODJYID12A8C133D8F
p1264
aa(lp1265
VSODJYID12A8C133D8F
p1266
aVSODWFAL12A58A7E622
p1267
aVSOSAADQ12A8C137712
p1268
aVSOOSCWW12A8C133D1B
p1269
aVSORARXV12A8C133D77
p1270
aVSONYAXH12A8C138AF2
p1271
aa(lp1272
VSOCNRJX12AF729CCD0
p1273
aVSOERGBN12A8C138AE9
p1274
aa(lp1275
VSOCLLTH12A8C132AB2
p1276
aVSOKLXQR12A8C13243F
p1277
aVSOLISQK12A8C1416AF
p1278
aVSORXIKW12A8C1339CE
p1279
aa(lp1280
VSOZJEAW12A58A761DB
p1281
aVSOLEPED12AB01830FD
p1282
aVSOFEHLW12AB0186CDB
p1283
aa(lp1284
VSOUENAE12A6D4FADE2
p1285
aVSOYBJDB12A58A7C928
p1286
aVSOEJHBX12A8C1381C6
p1287
aVSOYOCPY12A8C13554F
p1288
aVSOQQOBY12A8C13DD5E
p1289
aVSOROCYE12A58A7AB5D
p1290
aa(lp1291
VSOYCBNS12A8C144E21
p1292
aVSOSVRYL12CF5CFADC6
p1293
aVSOWQYKT12AB01823F3
p1294
aVSODAAHV12AC46870F3
p1295
aVSOBFDWJ12AB018B5E3
p1296
aVSOGFTOU12AB018374A
p1297
aVSOAIKTL12A58A7EA5A
p1298
aa(lp1299
VSOJCIWQ12A8C13D2B5
p1300
aVSOWWRVY12AB017E388
p1301
aVSOJUVRD12A8C134FD7
p1302
aVSORYYHC12AB017EAE8
p1303
aa(lp1304
VSOZFTTJ12AF729EDF9
p1305
aVSOYMJZI12AB01861B4
p1306
aa(lp1307
VSOQHCFT12A8BEEEB3F
p1308
aVSODGSDG12A8C13470F
p1309
aVSOPTYJD12A58A7B772
p1310
aa(lp1311
VSONRVTI12AC46860AF
p1312
aVSOMAZFM12A58A77629
p1313
aa(lp1314
VSOPRXPJ12A8C1354B5
p1315
aVSOJEGYI12A58A7C969
p1316
aVSOEOYKR12AB018E1F7
p1317
aVSOPNPUU12A8C13F842
p1318
aVSOKMPIZ12A8C143E2A
p1319
aa(lp1320
VSOBDVUZ12A8C13B6DE
p1321
aVSOGBVRW12AB01797CF
p1322
aa(lp1323
VSONZDQD12A58A7C421
p1324
aVSORDCVF12A6701F380
p1325
aa(lp1326
VSOUPLEW12A58A7BCBB
p1327
aVSOVPTQH12A58A8097A
p1328
aa(lp1329
VSOEYZVQ12AF72A3BB4
p1330
aVSOQTDBM12A8C1339CF
p1331
aVSOYSCYH12AB0182F87
p1332
aVSOUSMDZ12A8BEEEE97
p1333
aVSOFFOWO12A6D4F65B6
p1334
aa(lp1335
VSOZUYVR12A8C132AF5
p1336
aVSOCMEJM12AF72A48D0
p1337
aVSOSYODQ12D02198B35
p1338
aVSOZGRIH12AB01801E4
p1339
aa(lp1340
VSOGELHE12AB018053C
p1341
aVSOHUEKT12A8C13453C
p1342
aVSOKDONI12D021987B3
p1343
aVSOKGERN12A6D4F8195
p1344
aa(lp1345
VSOAFWJK12A8C136FA2
p1346
aVSOLIHVY12A8C13ED83
p1347
aa(lp1348
VSOQFWTV12AB017EC81
p1349
aVSOAZYBY12A8C14260E
p1350
aa(lp1351
VSOBYCGK12AB0180D47
p1352
aVSOGFMUL12A8C141726
p1353
aa(lp1354
VSOOHFJM12AB0180AD1
p1355
aVSONBHBZ12AB018778C
p1356
aa(lp1357
VSOCWYQS12A8AE45867
p1358
aVSOMQRKP12AB017C206
p1359
aa(lp1360
VSOWULOW12A8C13B7FE
p1361
aVSOCWJCG12AB018367F
p1362
aVSOYXJUK12A8C1337E6
p1363
aVSOBBTJO12A6310E2C7
p1364
aa(lp1365
VSOMRIFE12A6D4FDA58
p1366
aVSOCHQGY12A6D4FBE3D
p1367
aVSODYLFT12A8C14387E
p1368
aa(lp1369
VSOUHZOV12B34F32B50
p1370
aVSODQXZJ12A8C14094C
p1371
aVSOEZMXE12A6701DF63
p1372
aVSOOELXZ12A6D4F86E9
p1373
aVSOETPUF12AB0181FF5
p1374
aVSOLSGZE12A6D4F6658
p1375
aa(lp1376
VSOGEKBX12A8C13ACE1
p1377
aVSOALYAV12A8C133DC2
p1378
aVSOHTJYT12A6D4F9468
p1379
aa(lp1380
VSOAOHSI12AB0181C72
p1381
aVSOTXEIC12A6D4FAA79
p1382
aVSOMUIJI12D0219AB07
p1383
aVSOPBQBH12A670212BA
p1384
aVSOHOIRS12AF729BAE3
p1385
aa(lp1386
VSOYLKNZ12A8C13824B
p1387
aVSOOYXPM12A6701D9AB
p1388
aVSOZSKKE12A58A78AA6
p1389
aVSOMOQQZ12AB0180957
p1390
aVSOIKOYW12A6D4F84BF
p1391
aa(lp1392
VSOLPRLG12A6D4FAD62
p1393
aVSOYXBCX12AB018E79A
p1394
aa(lp1395
VSOZYVAT12A8C13A3CA
p1396
aVSOFNYBY12CF5463261
p1397
aa(lp1398
VSOPRZOH12D0219836D
p1399
aVSOPZSEZ12A6D4F74AE
p1400
aVSORFMQO12A8AE46946
p1401
aVSODACXX12A8C135277
p1402
aVSOYVVJO12CF530E4EA
p1403
aa(lp1404
VSOKUWEV12A8C13BBEB
p1405
aVSOWUDMH12A6701DFA4
p1406
aVSOWPAXV12A67ADA046
p1407
aVSORAHXS12AB017EAB9
p1408
aVSOGEKBX12A8C13ACE1
p1409
aa(lp1410
VSOURYTM12AB0188425
p1411
aVSOHKJDI12AB01808C1
p1412
aa(lp1413
VSOBYJKT12A58A7DC4E
p1414
aVSOISAYU12A6D4F6232
p1415
aVSOSFKAD12A6D4F8E8F
p1416
aa(lp1417
VSOETEAJ12AF72A6AC3
p1418
aVSOUKQOZ12A58A7B8FA
p1419
aVSOWVVRV12A6D4F65DA
p1420
aVSOWKSYC12A6D4F65DB
p1421
aa(lp1422
VSOBYCGK12AB0180D47
p1423
aVSOLNEGI12A6701CB8B
p1424
aa(lp1425
VSOEVJCY12A6D4FE836
p1426
aVSOEWCFR12A6D4FA265
p1427
aVSOXGKYP12AB018B429
p1428
aVSOPHSCF12AB018B539
p1429
aVSOAYSJV12A58A7D20C
p1430
aa(lp1431
VSOAZQHD12A6D4F40C2
p1432
aVSOTNHUH12A8C13D23E
p1433
aVSOOBQZS12A58A7B9CB
p1434
aa(lp1435
VSOACQHA12A8C143257
p1436
aVSOBOBDK12D02191E77
p1437
aa(lp1438
VSOQFWTV12AB017EC81
p1439
aVSOLBPRF12A8C13CB9B
p1440
aa(lp1441
VSOKWTMY12A8C13A7EC
p1442
aVSOBTGNJ12A6D4F6E0F
p1443
aVSONSTMR12D021B40A3
p1444
aVSOUAFNC12A8C1344E2
p1445
aVSORWOBC12AC468B77C
p1446
aVSOLVTJP12A6D4F7670
p1447
aVSONLRZV12AB017F991
p1448
aVSOLYLOO12A8AE45876
p1449
aa(lp1450
VSOMBLQN12D0219333C
p1451
aVSOVATSC12AB01797B3
p1452
aa(lp1453
VSOMMDWU12AB017C991
p1454
aVSOJIUAT12AC3923BE5
p1455
aVSOXJVPT12A8C141CA6
p1456
aVSOBFDWJ12AB018B5E3
p1457
aVSOWGSWQ12AF72A659D
p1458
aa(lp1459
VSOSNARG12AB0181739
p1460
aVSOTPNGH12A8C1365EE
p1461
aa(lp1462
VSOFSHWK12A8C14106C
p1463
aVSOOBGZG12A6D4FDB39
p1464
aVSOMGRZV12A8C134CAB
p1465
aVSOZXCOM12A8C13A859
p1466
aa(lp1467
VSOPZVUE12AB0180BAD
p1468
aVSOFKDTM12A67ADAC5F
p1469
aa(lp1470
VSOMZKSL12AB018093E
p1471
aVSOSZILM12AB018A01C
p1472
aVSOGZRFR12A58A7B1CB
p1473
aVSOSNTMO12A6D4FAB35
p1474
aa(lp1475
VSOBSJKE12AF72A8FAD
p1476
aVSONGZQC12AB01833A6
p1477
aa(lp1478
VSOJILFT12A8C144197
p1479
aVSOARUXJ12AC39274ED
p1480
aVSOYVGBE12A8C1420B4
p1481
aVSOUWFWS12A8C140B9E
p1482
aa(lp1483
VSOOXOGZ12AB0184526
p1484
aVSODJCSV12A8C14198D
p1485
aa(lp1486
VSOXRIKA12AB0180E37
p1487
aVSOBKHVO12A6D4F7CFE
p1488
aVSOPPJKR12A58A7F60B
p1489
aa(lp1490
VSOAMSNO12A6D4F8858
p1491
aVSOOIYIH12AB017B43D
p1492
aVSOAYNQS12A58A7744E
p1493
aa(lp1494
VSOCVCXJ12A8C13EEA5
p1495
aVSORDZPJ12A6D4F7DEC
p1496
aVSOLBPRF12A8C13CB9B
p1497
aVSOHUICH12AB0181B55
p1498
aVSOKGURS12A8AE45075
p1499
aVSOOPLVH12A6D4F7753
p1500
aVSOQRLMO12A8C131F50
p1501
aa(lp1502
VSOWKKHO12AB0186A96
p1503
aVSONZDQD12A58A7C421
p1504
aVSOCVLOT12A6D4F9D96
p1505
aa(lp1506
VSOZYNLB12A6D4F6BF3
p1507
aVSOEXMVH12A8C133961
p1508
aa(lp1509
VSOLZVFP12D021907D6
p1510
aVSOGLMHC12A6702147C
p1511
aa(lp1512
VSOTRGIU12AC9097D35
p1513
aVSOBKLNF12AB017BB53
p1514
aVSOSNZTN12A8C12FCA6
p1515
aa(lp1516
VSONSTMR12D021B40A3
p1517
aVSOUAFNC12A8C1344E2
p1518
aa(lp1519
VSOSZULY12AC468B3DE
p1520
aVSOUECYK12A6D4FA96E
p1521
aa(lp1522
VSOANAXD12A8C131EE5
p1523
aVSOXJVPT12A8C141CA6
p1524
aVSOQBXXW12AC39274D6
p1525
aVSOMANCR12AB017F4C1
p1526
aVSOTAWNJ12A8C13FEFC
p1527
aa(lp1528
VSODDJKA12A6701C09E
p1529
aVSONDRHG12AB017F90A
p1530
aa(lp1531
VSOXVDQM12A6D4F7DC3
p1532
aVSOMUWXQ12D02193456
p1533
aa(lp1534
VSOKCCML12D021B0FC6
p1535
aVSONBHFL12A6D4F7987
p1536
aVSOGKKFI12A8C1425FD
p1537
aVSOLQOIZ12A8C142AE2
p1538
aa(lp1539
VSOIGEOO12A8C13763F
p1540
aVSOVWOZI12A8C143539
p1541
aa(lp1542
VSOPLOOM12A6702091A
p1543
aVSORJNAA12AB0188FB9
p1544
aVSOLSGPD12A6D4F7E82
p1545
aVSORHCVD12AB01853FC
p1546
aa(lp1547
VSOJPTRM12A8C14003B
p1548
aVSOYSUZU12A6701BEA7
p1549
aa(lp1550
VSOICQOU12AB0188BD9
p1551
aVSOPZTQL12AF72A26ED
p1552
aa(lp1553
VSOSBIPR12A8C1393C8
p1554
aVSOMDNPI12A8AE49644
p1555
aa(lp1556
VSOBXXJI12A6D4F64AF
p1557
aVSOCPSWP12A670214F2
p1558
aVSOHGKPB12A8C142BFD
p1559
aVSOSXQAY12A8AE48B67
p1560
aVSOMPTZY12A5891ED3F
p1561
aVSOABSPW12A6701C31F
p1562
aVSOOBQZS12A58A7B9CB
p1563
aa(lp1564
VSOZEILI12A8AE48B71
p1565
aVSOMCISQ12A8C1356CA
p1566
aVSOZWGSV12AB017F4C9
p1567
aVSOAVORA12A6701F40F
p1568
aVSOSGPVW12A58A76A36
p1569
aVSOENLNA12A8C142766
p1570
aa(lp1571
VSOACQHA12A8C143257
p1572
aVSOYMCQU12A6D4F6FC8
p1573
aVSOLIHVY12A8C13ED83
p1574
aa(lp1575
VSOKHBWW12AB01893B4
p1576
aVSONSTMR12D021B40A3
p1577
aVSOPMKMZ12A6D4F813D
p1578
aVSOBMURV12A8C139E55
p1579
aa(lp1580
VSOCMUKY12D02194EE0
p1581
aVSOSVRYL12CF5CFADC6
p1582
aVSOPKNMZ12A8C12FBC3
p1583
aVSOZSFWF12A6D4F93D5
p1584
aVSOXPJME12AB01857AE
p1585
aa(lp1586
VSOHIMYM12A6D4F93D6
p1587
aVSOUDRCO12A6D4FB3AF
p1588
aVSOLPXGF12D02190755
p1589
aVSOYTHMG12AB01840B6
p1590
aVSOVSWBY12A8C13D206
p1591
aa(lp1592
VSOYBJDB12A58A7C928
p1593
aVSOQYZAQ12A67ADD6D3
p1594
aVSODQPUF12AF72A4298
p1595
aVSOOJTEM12AB017C5BD
p1596
aa(lp1597
VSOITEBY12A6D4F4800
p1598
aVSOLRSBW12A67ADD6EC
p1599
aVSOSZULY12AC468B3DE
p1600
aa(lp1601
VSOPWTJO12A8C139F19
p1602
aVSOZDIOV12A6701D7E9
p1603
aVSOKCNLH12A67ADD6EB
p1604
aa(lp1605
VSOXAXAB12A6D4F7130
p1606
aVSOGJREC12A58A7B801
p1607
aVSOZUXHE12AB01891E4
p1608
aa(lp1609
VSOQCHSX12A6701FDA5
p1610
aVSOENWMY12A8AE46777
p1611
aVSONJRIT12AB0182D7C
p1612
aVSOKNOTN12AB0183CC3
p1613
aa(lp1614
VSOIEWLA12A6D4F92D9
p1615
aVSOSIPVN12AB018A341
p1616
aa(lp1617
VSOGOYRV12AB0184CC6
p1618
aVSONYCRF12A8C131AE6
p1619
aa(lp1620
VSOIXUGB12AB0182284
p1621
aVSOJTPYY12A8C140EB3
p1622
aa(lp1623
VSOTMRXJ12AB0180D1A
p1624
aVSOOXIJB12D021B3710
p1625
aa(lp1626
VSORHKLQ12A8C1415A9
p1627
aVSOSNTUU12A6D4F971D
p1628
aVSOVBCQP12D02191E98
p1629
aVSOJLKPJ12A6D4F722E
p1630
aVSOCHGPA12A58A7B36B
p1631
aVSOZIJBU12AB017E41F
p1632
aVSOEVKFI12AB017F888
p1633
aVSOKAAZF12AB018ABB2
p1634
aVSOKYVIY12A58A7F4C2
p1635
aVSOLMLGN12A6D4F9107
p1636
aVSOHSAYJ12A8AE48A05
p1637
aVSOOAMML12A8C132639
p1638
aVSORILYI12A6701DD97
p1639
aa(lp1640
VSOEVJNY12A58A7A797
p1641
aVSOHUSNW12A8C138ECC
p1642
aVSOFYBFZ12A8C142947
p1643
aVSOJAIWJ12A8C13DFB1
p1644
aa(lp1645
VSOGIOKU12AB0183543
p1646
aVSONEKBO12AB01817F4
p1647
aa(lp1648
VSOCROAQ12A58A7A613
p1649
aVSONZVVM12A6D4FA2FC
p1650
aVSOJQCVF12D0219763F
p1651
aa(lp1652
VSOSZILM12AB018A01C
p1653
aVSOKVHRS12A8C1332D9
p1654
aVSOMSXLM12AB0180614
p1655
aVSOCPEHM12A8C13E2E9
p1656
aa(lp1657
VSOVSLWD12AB018380A
p1658
aVSOCSKAU12AB01896F9
p1659
aVSOYMCQU12A6D4F6FC8
p1660
aVSOGNOZR12AB0184BE1
p1661
aa(lp1662
VSOXMBFV12A58A7F3AE
p1663
aVSOQETEN12A58A77748
p1664
aVSODWEKW12A67020AA6
p1665
aVSOICBLB12A6D4FCB25
p1666
aVSOOQUNQ12A6D4F3C1C
p1667
aa(lp1668
VSOUFQDY12A6D4F728C
p1669
aVSOQERAF12A6701E33A
p1670
aVSOWRAHV12A8C13E642
p1671
aVSOTAHVC12A67020BCC
p1672
aVSOJAYQO12A8C1381E1
p1673
aa(lp1674
VSOXCSOP12D021B3C3F
p1675
aVSOPLOOM12A6702091A
p1676
aVSOTRGIU12AC9097D35
p1677
aa(lp1678
VSOFPTHY12AB0183CE7
p1679
aVSOBCCFX12A58A7F688
p1680
aa(lp1681
VSOHGKJE12AB018093B
p1682
aVSOHKDAU12A670214C8
p1683
aa(lp1684
VSOKJVBE12AB017E13C
p1685
aVSOGCPKW12A8C1312DD
p1686
aVSOGGRJQ12AB01812EA
p1687
aa(lp1688
VSOZCAQN12AAA15F091
p1689
aVSOTVCGG12AB0184D85
p1690
aa(lp1691
VSOCKZEM12A8C143CC9
p1692
aVSOMKYLF12A6D4F8D8F
p1693
aVSOBXUHM12AB01863D7
p1694
aa(lp1695
VSOJCJKQ12A6D4F81A8
p1696
aVSOUDIAF12873FD5545
p1697
aVSOBATNA12B0B80758F
p1698
aVSOWHZQA12A67021D1B
p1699
aa(lp1700
VSOQDYRL12A8C13211D
p1701
aVSOWCSOT12AB017F642
p1702
aVSOTDPWU12A8AE47B2B
p1703
aa(lp1704
VSOJLJSB12A6D4F70A8
p1705
aVSOXPZDR12A6D4F7C58
p1706
aa(lp1707
VSOCRVGC12A6D4F6836
p1708
aVSOCHDKT12A6701EA0C
p1709
aa(lp1710
VSOIWEUA12A8C137B06
p1711
aVSOLPAOF12A8C13698E
p1712
aVSOEXNFQ12AF72A132A
p1713
aVSOAOAJN12A8C134FE0
p1714
aVSOOEYMQ12A8C134FE5
p1715
aVSOAPQZD12A8C134FEA
p1716
aVSORRKZF12A8C135B50
p1717
aVSOPXHJH12A8C138051
p1718
aVSOMMISD12A8C137B0F
p1719
aVSOWXTJA12A8C137B1D
p1720
aVSOWXBSI12A8C132FC0
p1721
aVSOAWWWW12A8C137B43
p1722
aVSOTEVHU12A8C13133C
p1723
aVSOUIXPT12A8C1314AD
p1724
aVSOWMULA12A8C133AF7
p1725
aVSOMMCGH12A8C1365A6
p1726
aVSOAQLAS12A8C1365C0
p1727
aVSOSHLMK12A8C1303FA
p1728
aa(lp1729
VSOKRDOK12A8AE47D4E
p1730
aVSODHFGA12AB0181F27
p1731
aa(lp1732
VSOBGKYO12A8AE45638
p1733
aVSODXFAE12A6D4F9BF9
p1734
aVSOZXOGL12A8C1416A0
p1735
aa(lp1736
VSODQUOT12A8C13543D
p1737
aVSORARXV12A8C133D77
p1738
aVSOLLZSX12A8C13C355
p1739
aa(lp1740
VSOTCLPA127CF890425
p1741
aVSOBSLLP12A6D4FA953
p1742
aa(lp1743
VSOKMPIZ12A8C143E2A
p1744
aVSOYMIHC12A6D4F84B6
p1745
aa(lp1746
VSOHTVJH12D021B1F60
p1747
aVSOUMPLQ12A58A7A9A6
p1748
aa(lp1749
VSOZXOGL12A8C1416A0
p1750
aVSOOELXZ12A6D4F86E9
p1751
aa(lp1752
VSOZHKYS12A6D4F9812
p1753
aVSOCMGQH12CF5465276
p1754
aa(lp1755
VSOURHYK12AB0189328
p1756
aVSOGEKBX12A8C13ACE1
p1757
aa(lp1758
VSOGHAQU12A6D4FA2DB
p1759
aVSOBYOOJ12A67021B2E
p1760
aa(lp1761
VSOJVIJK12A8C13D0BD
p1762
aVSOHGETI12A6310DFC9
p1763
aa(lp1764
VSOXVSTE12AB017C6A8
p1765
aVSORQAWL12AB0182E73
p1766
aVSOKPMFE12AB018FDD1
p1767
aVSOVIYUE12AB017F9A1
p1768
aa(lp1769
VSOAHNGA12A8C1385FF
p1770
aVSOTBWVO12A8C1421E8
p1771
aa(lp1772
VSOLZXXY12A67AE0E12
p1773
aVSOCMEJM12AF72A48D0
p1774
aa(lp1775
VSOTHDAC12AB0181144
p1776
aVSOVVUTN12A8AE48D05
p1777
aVSOXQANV12AF72A4D06
p1778
aVSOVKQXX12A58A75743
p1779
aa(lp1780
VSOKRDOK12A8AE47D4E
p1781
aVSOQEWKA12AB017C44C
p1782
aVSOVPSWF12AB017D885
p1783
aa(lp1784
VSOIEXBM12A8C14377E
p1785
aVSORIYAG12AB018717E
p1786
aVSOOYXWI12AB0182656
p1787
aa(lp1788
VSORVMJA12A8C1332AF
p1789
aVSOMNAOV12AB018862A
p1790
aVSODPFVR12AB018073A
p1791
aa(lp1792
VSOKNOTN12AB0183CC3
p1793
aVSOTQZPD12A670203CC
p1794
aa(lp1795
VSORZKLP12AB0183399
p1796
aVSOGXWMO12A6D4F8750
p1797
aVSOOMTSM12D021B2372
p1798
aVSOHADRV12AB017EC2F
p1799
aa(lp1800
VSOLUYMK12A6701DFED
p1801
aVSOTVWPX12AB0180A01
p1802
aa(lp1803
VSOPRXPJ12A8C1354B5
p1804
aVSOYWQQA12A6D4F83B2
p1805
aa(lp1806
VSOTZOSL12A6D4F7793
p1807
aVSOOOLOP12AB0189B72
p1808
aVSOGAYAV12A67AE019F
p1809
aVSOIBEZT12A6D4F7851
p1810
aVSOUWYUW12A8C13CCD6
p1811
aVSOBIQLM12D02194B2B
p1812
aVSOIZDDL12D021932B4
p1813
aVSOLHUFF12AF72A538D
p1814
aVSOZADPF12AB0189B7D
p1815
aVSOOTZLZ12A67ADE66C
p1816
aVSOAHWNA12A8C14135A
p1817
aVSORRTVA12D0219AA06
p1818
aVSOCXGVO12A6310DBC2
p1819
aVSOLAKWM12AB01837FA
p1820
aa(lp1821
VSOEABPT12A6D4F8305
p1822
aVSOESZWS12A6D4F910C
p1823
aa(lp1824
VSOEHTHG12A81C22B95
p1825
aVSODEMSI12AB018214E
p1826
aVSOGQAFL12A8C13F5AA
p1827
aa(lp1828
VSOUEMFB12A6310DFC3
p1829
aVSOMCFCM12A8C142386
p1830
aVSOSNTMO12A6D4FAB35
p1831
aa(lp1832
VSOBKNOO12AC46899FC
p1833
aVSOMBLQN12D0219333C
p1834
aa(lp1835
VSOINZQQ12A58A78918
p1836
aVSODYHXY12A8C14326D
p1837
aa(lp1838
VSOKDONI12D021987B3
p1839
aVSOZVHFA12A8C1315AB
p1840
aVSOKVGPD12A58A78D67
p1841
aa(lp1842
VSOAGUAP12AB01898D0
p1843
aVSOJQCVF12D0219763F
p1844
aVSOFEHLW12AB0186CDB
p1845
aa(lp1846
VSOKXZYU12A81C20C86
p1847
aVSOYIQNS12AC468E074
p1848
aa(lp1849
VSONDJEC12A6D4FAAEF
p1850
aVSOVULMK12A6701FDCB
p1851
aa(lp1852
VSOJETPF12AB017C6C7
p1853
aVSOSTRKM12A58A782CD
p1854
aVSOUPGQK12A8C13250A
p1855
aVSOWTXBR12AB017CA8D
p1856
aa(lp1857
VSOAXDOZ12AB018919A
p1858
aVSOPZGQZ12A8C1322C9
p1859
aVSOUAFNC12A8C1344E2
p1860
aVSOBHVJA12A8C134509
p1861
aVSOMYORS12A58A7B708
p1862
aa(lp1863
VSOBZMOI12A8AE4827F
p1864
aVSOIBYYY12A8C143CDE
p1865
aVSOQMVMK12A67021D21
p1866
aVSOQGHDX12A6D4F9457
p1867
aa(lp1868
VSOHWVCA12AB018E22D
p1869
aVSOBBHQG12A58A7ADC6
p1870
aa(lp1871
VSOZAFNX12AC3DF99EE
p1872
aVSOXTGZU12AB017E3E6
p1873
aVSOAASUT12A8C13E8CD
p1874
aVSONIJLQ12A6D4F7D51
p1875
aVSOHSFJV12AB0184371
p1876
aa(lp1877
VSOFSJLX12AB0185F1A
p1878
aVSORKTMJ12A81C22766
p1879
aa(lp1880
VSOIEHXP12A8C139271
p1881
aVSOGZDHA12A6D4F9A07
p1882
aa(lp1883
VSODNQHW12A8AE47F91
p1884
aVSOEOBPY12A6D4F84D2
p1885
aa(lp1886
VSOBMCEI12A6D4F65BD
p1887
aVSOQITWU12A6D4F8086
p1888
aVSOZACMG12A6D4F68E1
p1889
aVSOPKNMZ12A8C12FBC3
p1890
aVSOKYVIY12A58A7F4C2
p1891
aa(lp1892
VSODVTJU12A8C13E0E0
p1893
aVSOFRGBL12A6701E348
p1894
aa(lp1895
VSOPIMCC12A58A7BB40
p1896
aVSOJBCED12A8C135033
p1897
aa(lp1898
VSOXSKZG12A8C140452
p1899
aVSOLVYWL12A8C145FFD
p1900
aVSOMDCXM12AB017FDE3
p1901
aVSOQFWJF12A8C13A84F
p1902
aa(lp1903
VSOYOCPY12A8C13554F
p1904
aVSOIDEEX12AF72ACB24
p1905
aa(lp1906
VSOKRDOK12A8AE47D4E
p1907
aVSODHFGA12AB0181F27
p1908
aa(lp1909
VSOBGKYO12A8AE45638
p1910
aVSODXFAE12A6D4F9BF9
p1911
aVSOZXOGL12A8C1416A0
p1912
aa(lp1913
VSODQUOT12A8C13543D
p1914
aVSORARXV12A8C133D77
p1915
aVSOLLZSX12A8C13C355
p1916
aa(lp1917
VSOYMCQU12A6D4F6FC8
p1918
aVSOCFJUW12AB018D6FA
p1919
aa(lp1920
VSOGZSAF12AB018BE50
p1921
aVSOWKLYP12A6D4F75A8
p1922
aVSOZWGSV12AB017F4C9
p1923
aVSOAVORA12A6701F40F
p1924
aVSOVASPD12A8C133211
p1925
aVSOZEILI12A8AE48B71
p1926
aVSOYLAOB12A8C1342AE
p1927
aVSOAASUT12A8C13E8CD
p1928
aa(lp1929
VSOACTWN12AB017E36D
p1930
aVSODWTSP12A67AD855F
p1931
aa(lp1932
VSOKISIH12AB0188610
p1933
aVSONEHUS12AB01809FA
p1934
aa(lp1935
VSOIWNIX12AB0182289
p1936
aVSORBNYX12AAF3B410F
p1937
aa(lp1938
VSOJCKGC12AB018514B
p1939
aVSOMFDLJ12AB01840EB
p1940
aa(lp1941
VSOSFJTW12A8C13311E
p1942
aVSOQAVGT12AF72A3FCE
p1943
aa(lp1944
VSOVATSC12AB01797B3
p1945
aVSOFEWAF12A6701D7EC
p1946
aa(lp1947
VSOAQDIK12AB017C40C
p1948
aVSORYVBT12AB017BB45
p1949
aa(lp1950
VSOSJGAD12AB0181146
p1951
aVSOABSPW12A6701C31F
p1952
aVSOKJFOA12A6D4F79DF
p1953
aVSOPAVVQ12CF58265C2
p1954
aVSOBWKBR12A6D4F7754
p1955
aa(lp1956
VSOCZOBF12A67021228
p1957
aVSOSBYGW12A6D4F95F1
p1958
aVSOCVLOT12A6D4F9D96
p1959
aVSOESZWS12A6D4F910C
p1960
aVSOFKNMM12A8C139386
p1961
aa(lp1962
VSOVTWII12AB0182D1E
p1963
aVSOTJDVA12AB0184459
p1964
aa(lp1965
VSOMXDIN12AC3923CA3
p1966
aVSOOJDWO12A8C137D80
p1967
aVSOVCCGL12A8C140919
p1968
aVSOZMIVS12A8AE497F6
p1969
aVSOWENZB12A8C13D463
p1970
aVSOCCODD12AB018A3DA
p1971
aVSOINRYO12AB017C708
p1972
aVSOOMYOA12A6D4F7B52
p1973
aVSODXLRR12A6D4F71BB
p1974
aa(lp1975
VSOVLJEB12A58A7B46D
p1976
aVSOKHXPJ12A8C142C90
p1977
aVSOQKSXV12A8C14075C
p1978
aVSOZVRKO12AB0188D6C
p1979
aVSOKNOTN12AB0183CC3
p1980
aa(lp1981
VSOZBOJJ12AAF3B4190
p1982
aVSONNYAE12A8C135ADD
p1983
aVSOQWMRS12A8C135C8F
p1984
aVSOSVRYL12CF5CFADC6
p1985
aa(lp1986
VSORSAVG12A6D4F7A39
p1987
aVSOGFVWX12AB017FDB3
p1988
aa(lp1989
VSOZSFWF12A6D4F93D5
p1990
aVSOROBOC12AB0187D5D
p1991
aa(lp1992
VSOAIKTL12A58A7EA5A
p1993
aVSOEJYBW12A8C134B17
p1994
aa(lp1995
VSODWCQA12A6D4F9D64
p1996
aVSOANAXD12A8C131EE5
p1997
aVSOYKFER12A582918B0
p1998
aa(lp1999
VSOHIJEH12A58A778E7
p2000
aVSOOWNGP12A8C141C40
p2001
aa(lp2002
VSOEVQIU12A6701E356
p2003
aVSOFXBUV12AB0187A06
p2004
aVSOJQCVF12D0219763F
p2005
aa(lp2006
VSOYTFCM12AB017FDCC
p2007
aVSODVXBW12A8C13F7B6
p2008
aVSOOWNGP12A8C141C40
p2009
aVSOBFDWJ12AB018B5E3
p2010
aa(lp2011
VSOQBXXW12AC39274D6
p2012
aVSORZPQS12A58A7B4C8
p2013
aVSOPWFMJ12A8C131FCE
p2014
aVSOODFHP12AB0184A67
p2015
aVSONEVMQ12AAF3B4114
p2016
aVSOXPJME12AB01857AE
p2017
aVSOSVRYL12CF5CFADC6
p2018
aa(lp2019
VSOFRGBL12A6701E348
p2020
aVSOSGPVW12A58A76A36
p2021
aVSOPCWUV12A6D4FA838
p2022
aVSOGZDHA12A6D4F9A07
p2023
aa(lp2024
VSOEVJCY12A6D4FE836
p2025
aVSOXCIPC12A8C13FD7B
p2026
aVSOFAJTK12A6D4F835F
p2027
aVSOMARWU12AF729E5B6
p2028
aa(lp2029
VSOVRSNI12A67FFB352
p2030
aVSOOVIFA12AB017ECE8
p2031
aVSOCMUKY12D02194EE0
p2032
aa(lp2033
VSOHBBJD12A58A7D1C7
p2034
aVSOCSSUU12A8C13820A
p2035
aa(lp2036
VSOJULCS12A8C13A29F
p2037
aVSOSKMMY12A8C144428
p2038
aVSOYBJDB12A58A7C928
p2039
aVSOISQAT12A6310D823
p2040
aVSOFRQWQ12AB01801A4
p2041
aVSOYRRAM12AC3DF96AD
p2042
aa(lp2043
VSOLDVPD12AF729B92F
p2044
aVSOXJVPT12A8C141CA6
p2045
aVSONZFCC12AB018A5F6
p2046
aVSOYZALA12A58A79364
p2047
aVSOZSFWF12A6D4F93D5
p2048
aVSOTQNCP12AF72A8806
p2049
aVSODVXBW12A8C13F7B6
p2050
aVSOAXRDJ12AB017BDF0
p2051
aVSOQBXXW12AC39274D6
p2052
aVSOXYSIC12CF5827361
p2053
aVSOCKYTJ12A8C13EE78
p2054
aVSOKYVIY12A58A7F4C2
p2055
aVSOOCWHK12A8C137627
p2056
aVSOMARWU12AF729E5B6
p2057
aa(lp2058
VSOFOQJG12A67ADA03A
p2059
aVSOPTUCC12A6D4F5FC2
p2060
aa(lp2061
VSOMTCOA12AB01872DB
p2062
aVSOEZHYC12AB01850B7
p2063
aa(lp2064
VSOVEBJG12A8C13E395
p2065
aVSOERLNX12A8C13733D
p2066
aa(lp2067
VSOAGRLA12A6D4F5BDA
p2068
aVSOLPOPE12A6D4FA256
p2069
aa(lp2070
VSOAZPPL12A8C13D8C6
p2071
aVSOOAMML12A8C132639
p2072
aa(lp2073
VSOBFSLR12A8C132F14
p2074
aVSOAHFWL12A6D4FA3F1
p2075
aVSOMDGPC12AF72A64B8
p2076
aVSOZPTPT12A679AE5A0
p2077
aVSOTWJID12A8C13A7B7
p2078
aVSOOHVCD12A8C1330FF
p2079
aVSOCQWXF12A8C139F57
p2080
aa(lp2081
VSOHIMYM12A6D4F93D6
p2082
aVSOYMXWY12AF72AC91E
p2083
aVSOCFJUW12AB018D6FA
p2084
aVSOTLHXL12A6D4F6E5C
p2085
aVSOEVJNY12A58A7A797
p2086
aVSOFKCWS12A8C134911
p2087
aa(lp2088
VSOIENCI12AB0180326
p2089
aVSOKRYUG12A8AE4800A
p2090
aVSOUDRCO12A6D4FB3AF
p2091
aa(lp2092
VSOPJLFV12A6701C797
p2093
aVSOKOXWU12AF72AD1BC
p2094
aVSOXUOOB12A6D4FCD1C
p2095
aa(lp2096
VSOIGOMI12A8C1350E6
p2097
aVSOPCWUV12A6D4FA838
p2098
aa(lp2099
VSONYDGS12A6D4F8B58
p2100
aVSOFEWAF12A6701D7EC
p2101
aVSOKAAZF12AB018ABB2
p2102
aa(lp2103
VSOEJHBX12A8C1381C6
p2104
aVSOYRRAM12AC3DF96AD
p2105
aa(lp2106
VSOMMDWU12AB017C991
p2107
aVSOJDCAO12AB018C0A8
p2108
aVSOTNUDZ12AB018862F
p2109
aa(lp2110
VSOBTGNJ12A6D4F6E0F
p2111
aVSOXJVPT12A8C141CA6
p2112
aVSOWGSWQ12AF72A659D
p2113
aa(lp2114
VSOCRZPR12A6D4F6851
p2115
aVSOLUREC12A8C1406BF
p2116
aa(lp2117
VSOUEGIG12A58A7A685
p2118
aVSOHGNHZ12D02197924
p2119
aVSOGKJDV12AB017FCF3
p2120
aa(lp2121
VSONSTMR12D021B40A3
p2122
aVSOIWEYE12D02191C75
p2123
aVSOBESQY12A8C13415C
p2124
aa(lp2125
VSOEQPKH12A6D4FAB47
p2126
aVSOKNIIX12A6D4F73B0
p2127
aVSOMRARJ12A6D4FD8CF
p2128
aVSOXPHNN12A8C13F655
p2129
aVSOLYFVX12AB0188574
p2130
aa(lp2131
VSOPGGLO12A8C142E4B
p2132
aVSOKXCNR12A58A78BF5
p2133
aa(lp2134
VSOEKDPZ12A8AE47A0B
p2135
aVSOOKXYY12A58A7812A
p2136
aa(lp2137
VSOCINQQ12A6D4F9744
p2138
aVSORPYUD12AB018AEFD
p2139
aVSOEMDOM12AB017E3D1
p2140
aa(lp2141
VSOVLPHQ12A6D4F8BD1
p2142
aVSOYKFER12A582918B0
p2143
aVSOPOIBO12A8C146519
p2144
aVSOKISIH12AB0188610
p2145
aa(lp2146
VSOYOCPY12A8C13554F
p2147
aVSORSAVG12A6D4F7A39
p2148
aVSORHKLQ12A8C1415A9
p2149
aVSODVTJU12A8C13E0E0
p2150
aVSOTQNCP12AF72A8806
p2151
aa(lp2152
VSOCONXJ12A6D4F8244
p2153
aVSOJBMSC12A6D4F68F7
p2154
aVSOFHTXA12AB01885CB
p2155
aa(lp2156
VSONBHBZ12AB018778C
p2157
aVSOQBXXW12AC39274D6
p2158
aVSOEJYBW12A8C134B17
p2159
aVSOUCXMN12AB0182F03
p2160
aVSOLUHBF12A8C13B689
p2161
aa(lp2162
VSOROCYE12A58A7AB5D
p2163
aVSOTKIOQ12AB0180579
p2164
aa(lp2165
VSOBYCGK12AB0180D47
p2166
aVSOYLWET12A6D4F50C8
p2167
aa(lp2168
VSOMVWFA12A6D4F56F3
p2169
aVSOEDMLH12A8C141AA1
p2170
aa(lp2171
VSOYJZNY12A8AE46F97
p2172
aVSOLNEGI12A6701CB8B
p2173
aa(lp2174
VSOUDEKM12AC46886BD
p2175
aVSOTAWNJ12A8C13FEFC
p2176
aa(lp2177
VSONMBGO12A8C144C99
p2178
aVSOFPLMX12AB018DBDB
p2179
aVSOGFKEF12A8C13A095
p2180
aa(lp2181
VSOSLGTJ12AB01880EF
p2182
aVSOEHAHN12AB018FDB9
p2183
aVSONRKMT12A8C14041E
p2184
aVSOTPNGH12A8C1365EE
p2185
aa(lp2186
VSOITEBY12A6D4F4800
p2187
aVSOMZKCF12A8C1432B0
p2188
aa(lp2189
VSODOUYN12AB01811AE
p2190
aVSOVIEBZ12A6D4F7679
p2191
aVSOMZWNY12AB0185281
p2192
aa(lp2193
VSOWEWRG12A679AE598
p2194
aVSOFNNSZ12AB017E815
p2195
aVSOQEUJV12A6D4F814D
p2196
aVSORQYOK12A58A78331
p2197
aVSOMRARJ12A6D4FD8CF
p2198
aa(lp2199
VSOQRCWD12A8C130E1F
p2200
aVSOCCGSC12A81C216F1
p2201
aVSOLHYCD12A67ADF895
p2202
aa(lp2203
VSOLHISD12A8C13CFD1
p2204
aVSOQAVGT12AF72A3FCE
p2205
aVSOSGWBZ12AB018874E
p2206
aa(lp2207
VSOKTXBY12A8C13761A
p2208
aVSOTDXAE12AB0181240
p2209
aVSOBLPJA12A8C13DF1A
p2210
aa(lp2211
VSOZMSLR12A6701FDA7
p2212
aVSOYKFER12A582918B0
p2213
aVSOISVHE12A8C141483
p2214
aa(lp2215
VSOSPFNZ12A58A7852C
p2216
aVSODXZZC12A8C145661
p2217
aa(lp2218
VSORGOSK12A8C134DBE
p2219
aVSODQBXH12A8C1375CD
p2220
aVSOXJVPT12A8C141CA6
p2221
aa(lp2222
VSOYBJDB12A58A7C928
p2223
aVSOEJHBX12A8C1381C6
p2224
aVSORPYUD12AB018AEFD
p2225
aVSODVXBW12A8C13F7B6
p2226
aVSOLEPED12AB01830FD
p2227
aa(lp2228
VSOSZULY12AC468B3DE
p2229
aVSOXAUFJ12AB01827C7
p2230
aa(lp2231
VSOUEHJI12A8C141B07
p2232
aVSOPPJKR12A58A7F60B
p2233
aa(lp2234
VSODQPUF12AF72A4298
p2235
aVSOUAJLR12A6D4F972C
p2236
aVSOAOLNG12AB017CFDC
p2237
aVSOGOSYS12AB018832A
p2238
aa(lp2239
VSORSORV12A6D4F65C6
p2240
aVSOTNHUH12A8C13D23E
p2241
aVSOQQOBY12A8C13DD5E
p2242
aVSOATATD12A6D4F9832
p2243
aVSOYKFER12A582918B0
p2244
aa(lp2245
VSOYRRAM12AC3DF96AD
p2246
aVSORTNHY12A6D4FAB23
p2247
aa(lp2248
VSOPHGQQ12AB0180079
p2249
aVSOIFVTQ12A8C134F49
p2250
aVSOGQFML12A8C144450
p2251
aVSORWBTC12A58A783C7
p2252
aVSODYXLB12A6D4FAB2A
p2253
aVSOWVLQW12AB017E3CE
p2254
aa(lp2255
VSODUHGY12A6D4F59FD
p2256
aVSOXTAIG12A8C1412B0
p2257
aVSOHANSQ12AB0188FF8
p2258
aVSOLLMHV12AAF3B4A95
p2259
aVSOMDJSL12A58A7F58C
p2260
aVSOJBYHD12A8C1429E2
p2261
aVSORPWLP12AB0186852
p2262
aVSOKHISH12A8C137365
p2263
aa(lp2264
VSOXTGKJ12A8C13947E
p2265
aVSOTEZQR12AB0183BC8
p2266
aVSOEVJCY12A6D4FE836
p2267
aa(lp2268
VSOVSFOC12A6701C32B
p2269
aVSOBWRFI12A6D4FA263
p2270
aVSOEWIYS12A58A7EF84
p2271
aVSOBOIGI12A58A7D6C0
p2272
aa(lp2273
VSOHWBGO12A6D4FA87A
p2274
aVSOORPXN12A58A7771C
p2275
aVSOPLBBD12A8C13A968
p2276
aVSOLFDCM12A6D4F7A7C
p2277
aVSOVOQIJ12A58A7D1C2
p2278
aVSOBUTUF12AF72A1F65
p2279
aa(lp2280
VSOOJLWA12AB0185215
p2281
aVSOVEPUF12A58A777F8
p2282
aa(lp2283
VSOTSPCS12CF5827443
p2284
aVSOBCFAG12AB0181AEC
p2285
aa(lp2286
VSOPRCQI12AB0188A4D
p2287
aVSOVOQIJ12A58A7D1C2
p2288
aVSODLNTE12AF72AD26A
p2289
aa(lp2290
VSOIXXSG12A8C13C400
p2291
aVSOGSDSA12AB0186A5F
p2292
aVSOHKHTK12A8AE46616
p2293
aa(lp2294
VSOTBYQW12A6D4FE74B
p2295
aVSOCJTTL12A8C14009F
p2296
aa(lp2297
VSOOEJBQ12A8C14160D
p2298
aVSOTUKHG12A81C227B4
p2299
aVSOIGFUI12A6D4F8846
p2300
aa(lp2301
VSOPBHIO12A8AE470CD
p2302
aVSOWYJNW12A8AE48620
p2303
aa(lp2304
VSOLKVPF12AB0189A7E
p2305
aVSOKWRNL12A58A8162D
p2306
aa(lp2307
VSORQVWO12A3F1EAB4A
p2308
aVSOQFMUI12A8C13EC9D
p2309
aVSOHDKLW12A8C13E03B
p2310
aa(lp2311
VSOJPVCB12A8C138914
p2312
aVSOPOOZR12A58A7C4F7
p2313
aVSOMLHVM12A6D4FA261
p2314
aa(lp2315
VSOHUEFC12A8AE4827A
p2316
aVSOHCMOP12D02197AD9
p2317
aa(lp2318
VSOFPKMG12A6D4F7801
p2319
aVSOWQYKT12AB01823F3
p2320
aVSOEDHRT12A58A7A600
p2321
aVSOGWSZO12AB0189354
p2322
aVSOYSHLF12A58A7CFBA
p2323
aa(lp2324
VSODVXBW12A8C13F7B6
p2325
aVSOEJHBX12A8C1381C6
p2326
aVSOBKNOO12AC46899FC
p2327
aVSOKQSDH12AB0188B1A
p2328
aVSOSVRYL12CF5CFADC6
p2329
aVSORZPQS12A58A7B4C8
p2330
aVSOAZQHD12A6D4F40C2
p2331
aVSOZJOOI12A8C13C717
p2332
aVSOIVYHH12AC468636C
p2333
aVSOITEBY12A6D4F4800
p2334
aa(lp2335
VSOTRGIU12AC9097D35
p2336
aVSOHGMUP12A6D4FA2C9
p2337
aVSOOFLTG12AB017DB27
p2338
aVSOFEWAF12A6701D7EC
p2339
aVSOLVTJP12A6D4F7670
p2340
aVSOBTGNJ12A6D4F6E0F
p2341
aVSOKWTMY12A8C13A7EC
p2342
aVSOGFTOU12AB018374A
p2343
aVSOPPJKR12A58A7F60B
p2344
aVSOCNHLH12AC3DF6897
p2345
aVSOGWKCR12A6D4FBD7F
p2346
aVSOHSFJV12AB0184371
p2347
aVSOQBXXW12AC39274D6
p2348
aVSOMRVNW12A8C138D41
p2349
aVSOWGSWQ12AF72A659D
p2350
aVSOJRMFG12AB0188C75
p2351
aa(lp2352
VSOTOCAD12A6701DE00
p2353
aVSORRKRL12A679D8ABA
p2354
aa(lp2355
VSOMEEDU12A8C142CAB
p2356
aVSOQWNBU12A679D8AC8
p2357
aVSOITEBY12A6D4F4800
p2358
aVSOAZQHD12A6D4F40C2
p2359
aVSOKHXPJ12A8C142C90
p2360
aa(lp2361
VSOGTTJF12A679D8AC4
p2362
aVSOBOYXJ12A8C138F16
p2363
aVSOVOOAO12A8C13EDA0
p2364
aa(lp2365
VSOSTWFY12AB01828AF
p2366
aVSOSHSLS12A8AE47F42
p2367
aVSOMPGZF12A670206CE
p2368
aVSOUPLEW12A58A7BCBB
p2369
aVSOCMQSR12AAA8C7592
p2370
aVSOZAIEQ12A8C135F58
p2371
aVSOSBJPA12A6D4F7000
p2372
aVSOHTVJH12D021B1F60
p2373
aVSOVSVXB12A8C13EE59
p2374
aVSOSZIDW12A8BEEEEA2
p2375
aa(lp2376
VSOXUOOB12A6D4FCD1C
p2377
aVSOMSIAU12A8C14090B
p2378
aa(lp2379
VSOYTEAE12A58A7C1F4
p2380
aVSOZUPKC12A8C141F43
p2381
aa(lp2382
VSOFRAZJ12A8C143CDB
p2383
aVSOBPCNE12A8C1352B2
p2384
aVSOCINEQ12AB0189F08
p2385
aa(lp2386
VSOKHXPJ12A8C142C90
p2387
aVSORPYUD12AB018AEFD
p2388
aVSOFKOXG12A6BD529F2
p2389
aa(lp2390
VSOITEBY12A6D4F4800
p2391
aVSOTAWNJ12A8C13FEFC
p2392
aVSOYKFER12A582918B0
p2393
aVSOKISIH12AB0188610
p2394
aVSOGXUZC12A6D4F47FD
p2395
aVSOLDVPD12AF729B92F
p2396
aVSOOFGAZ12AB01833E6
p2397
aa(lp2398
VSOYTFCM12AB017FDCC
p2399
aVSOGELHE12AB018053C
p2400
aVSOWLOFV12AB017E8BF
p2401
aVSOZMSLR12A6701FDA7
p2402
aa(lp2403
VSOZUDNB12A6D4F701F
p2404
aVSOEOBPY12A6D4F84D2
p2405
aVSOYRGEN12A8C139380
p2406
aVSOFGXKC12A8C142604
p2407
aVSOYTFCM12AB017FDCC
p2408
aa(lp2409
VSOLFHWO12AF72A1845
p2410
aVSOANAXD12A8C131EE5
p2411
aVSOFLLAH12A58A7BA25
p2412
aa(lp2413
VSOACQHA12A8C143257
p2414
aVSOGYJGC12A6D4FA636
p2415
aVSONBHBZ12AB018778C
p2416
aa(lp2417
VSOKQIHY12A58A7BE6E
p2418
aVSODQVKH12AB017FD5E
p2419
aVSOEOBPY12A6D4F84D2
p2420
aVSOCKYTJ12A8C13EE78
p2421
aa(lp2422
VSOFEWAF12A6701D7EC
p2423
aVSONYDGS12A6D4F8B58
p2424
aa(lp2425
VSORLUWH12A8C135E7F
p2426
aVSOYRRAM12AC3DF96AD
p2427
aa(lp2428
VSOMMDWU12AB017C991
p2429
aVSOJDCAO12AB018C0A8
p2430
aVSOTNUDZ12AB018862F
p2431
aa(lp2432
VSOBTGNJ12A6D4F6E0F
p2433
aVSOXJVPT12A8C141CA6
p2434
aVSOWGSWQ12AF72A659D
p2435
aVSOCBSKP12A6D4FD676
p2436
aa(lp2437
VSOBEDVJ12AF72A1611
p2438
aVSOGEPST12A8C131E1B
p2439
aa(lp2440
VSOKMARD12AB018A2D9
p2441
aVSORNVJU12A58A7EC3E
p2442
aa(lp2443
VSOSGBIZ12AB017BC39
p2444
aVSOYVKTU12A8C13769B
p2445
aa(lp2446
VSOWVBTP12AB018A4AE
p2447
aVSOSVRYL12CF5CFADC6
p2448
aa(lp2449
VSOTAWNJ12A8C13FEFC
p2450
aVSOLDOCV12A813557C0
p2451
aVSOINZQQ12A58A78918
p2452
aVSOPFAOP12A6D4F7D52
p2453
aa(lp2454
VSOCXEYD12AB017EF2F
p2455
aVSOIISBR12CF582666C
p2456
aa(lp2457
VSOPHHAG12A8C13E809
p2458
aVSOXGNCE12A8AE46FB8
p2459
aVSOWUJUZ12AB017F3E4
p2460
aVSOHURUK12A8C13230A
p2461
aVSOXTZTW12A6D4F7755
p2462
aa(lp2463
VSOWXWQT12AB01880FC
p2464
aVSOGWSDT12A8C143C17
p2465
aa(lp2466
VSOVBAYV12AB0180236
p2467
aVSOFQJMB12A8C13558A
p2468
aVSOWGZXD12A58A7AA60
p2469
aa(lp2470
VSOBVLIT12A58A78B37
p2471
aVSOYQWFW12A8C13AAAF
p2472
aa(lp2473
VSOACTWN12AB017E36D
p2474
aVSOLVTJP12A6D4F7670
p2475
aVSODEJSB12AB01855D5
p2476
aVSONAXQA12A6310D89D
p2477
aa(lp2478
VSOACQHA12A8C143257
p2479
aVSONEVMQ12AAF3B4114
p2480
aVSOPMKWG12A6D4F86AE
p2481
aVSOXBZGO12A8C144B01
p2482
aa(lp2483
VSOQQOBY12A8C13DD5E
p2484
aVSOPAWXK12AB017F2B5
p2485
aa(lp2486
VSOJKGLP12AB01820C7
p2487
aVSOEVJNY12A58A7A797
p2488
aa(lp2489
VSOMPTZY12A5891ED3F
p2490
aVSOESRGP12A8C134952
p2491
aa(lp2492
VSONBHBZ12AB018778C
p2493
aVSOCMVLQ12AB0180543
p2494
aa(lp2495
VSOELDYJ12A8C137554
p2496
aVSOAYSJV12A58A7D20C
p2497
aVSOEROWJ12A8C143AAF
p2498
aVSOCFGNL12A8C13DC37
p2499
aVSOAQDIK12AB017C40C
p2500
aVSOETYSJ12A8AE4635D
p2501
aVSOBZMOI12A8AE4827F
p2502
aVSOWMULA12A8C133AF7
p2503
aa(lp2504
VSOSBLBA12A58A7F634
p2505
aVSOLDZWH12A6D4F815D
p2506
aVSOMJOPO12A8C13A36A
p2507
aVSOAWKEA12A8C134E03
p2508
aVSOOWMXY12A6701DFA8
p2509
aa(lp2510
VSOHZBUT12A8C14152A
p2511
aVSOCVCXJ12A8C13EEA5
p2512
aa(lp2513
VSODYYWD12A8C139491
p2514
aVSOJPPGA12A58A769A7
p2515
aa(lp2516
VSORYYUZ12AB018C9C2
p2517
aVSOIMTVV12D0219B438
p2518
aVSODBCBP12AF729CE5C
p2519
aa(lp2520
VSOLBPRF12A8C13CB9B
p2521
aVSOPPJIK12A6D4F8D4B
p2522
aVSOPKOFW12AB01828FC
p2523
aVSOFINTT12AB0185EA6
p2524
aa(lp2525
VSOUGANR12A6D4F7758
p2526
aVSOYOQHR12A6D4F5FD6
p2527
aa(lp2528
VSOXTGZU12AB017E3E6
p2529
aVSOJVATN12AB018B794
p2530
aVSOXAERY12A81C216F4
p2531
aVSOHZKPJ12AB0187208
p2532
aVSOBLKGC12A8C135ED6
p2533
aa(lp2534
VSOOQKVM12AB01830BF
p2535
aVSOJKWJK12AB0185156
p2536
aVSOAABQL12A67020E76
p2537
aVSODGQRZ12A8C13392B
p2538
aa(lp2539
VSOFRHZO12A58A78305
p2540
aVSOBEBMS12AB01805B6
p2541
aVSORPYUD12AB018AEFD
p2542
aVSONEHUS12AB01809FA
p2543
aVSODIXCE12A67020E8E
p2544
aVSOPLQTT12A8C13A298
p2545
aa(lp2546
VSOCWFOS12AB0189B8E
p2547
aVSOIHVYM12A8C13585D
p2548
aa(lp2549
VSODVMYI12A8C143912
p2550
aVSODUEFN12AB0180578
p2551
aVSOWOTBH12A8C13D5CE
p2552
aa(lp2553
VSOKPOYU12AB017F17F
p2554
aVSOFAFYW12A6D4F7580
p2555
aVSOROWXN12AB0187490
p2556
aa(lp2557
VSOOPGSZ12AB01833DD
p2558
aVSOKWDTX12AB018806C
p2559
aa(lp2560
VSOYPNOQ12A6D4F8AB1
p2561
aVSOPWFJQ12A58A7D73D
p2562
aVSOECKJH12A8C13467A
p2563
aVSORGDKF12AB017F473
p2564
aa(lp2565
VSOYQVNW12A8C13C5FC
p2566
aVSORVAQE12A6D4F7A48
p2567
aVSOEGBTB12AC9DCCBD3
p2568
aVSOQUBFK12AB0184608
p2569
aVSOXLNCE12A8C131E7C
p2570
aVSOINYOR12AB0184554
p2571
aVSOMARGO12A8C141500
p2572
aVSOEJDFP12A8BEEEEA1
p2573
aVSOSGYBL12A8C134C0B
p2574
aa(lp2575
VSOHGPLF12A6D4FB9EB
p2576
aVSOEPUQC12AF72A18F5
p2577
aa(lp2578
VSOQKSXV12A8C14075C
p2579
aVSOTAWNJ12A8C13FEFC
p2580
aa(lp2581
VSOICBLB12A6D4FCB25
p2582
aVSOGBIQM12AB0189728
p2583
aVSOACVVJ12A67020BCB
p2584
aa(lp2585
VSOVRJNT12A6D4F79F8
p2586
aVSONNAKN12AB017C891
p2587
aa(lp2588
VSORVLIX12A8C13E467
p2589
aVSOPBFAH12A67AE0E40
p2590
aa(lp2591
VSOEWOLZ12A6D4FA2B7
p2592
aVSOHGMUP12A6D4FA2C9
p2593
aVSOROBOC12AB0187D5D
p2594
aa(lp2595
VSOBZSXH12A6702031F
p2596
aVSOIEHXP12A8C139271
p2597
aa(lp2598
VSOCMVLQ12AB0180543
p2599
aVSOLTJLJ12A8C136781
p2600
aVSOWAHPT12A8C13CCA0
p2601
aVSOCLPYK12A8AE478EB
p2602
aVSOBAQMD12A58A7F1A5
p2603
aVSOQXDUU12A6310E836
p2604
aVSOGWSZO12AB0189354
p2605
aVSORWOBC12AC468B77C
p2606
aVSOFYBFZ12A8C142947
p2607
aa(lp2608
VSONBHBZ12AB018778C
p2609
aVSOAUYUI12A679CF21E
p2610
aVSOTCLPA127CF890425
p2611
aa(lp2612
VSOKAAZF12AB018ABB2
p2613
aVSOJUKCD12AB0186A01
p2614
aVSOLCPPO12A8C137104
p2615
aVSODGLMM12A8C1430BC
p2616
aa(lp2617
VSOGFTOU12AB018374A
p2618
aVSOFUBSQ12A67ADD6BF
p2619
aVSOHSAYJ12A8AE48A05
p2620
aVSOMZKCF12A8C1432B0
p2621
aa(lp2622
VSOGELHE12AB018053C
p2623
aVSOOZGRG12A6D4F81C1
p2624
aVSONTAJF12A6D4F352A
p2625
aa(lp2626
VSOCMGQH12CF5465276
p2627
aVSOEJHBX12A8C1381C6
p2628
aVSOSNARG12AB0181739
p2629
aVSONKCZR12A8C13FF4B
p2630
aa(lp2631
VSOSVRYL12CF5CFADC6
p2632
aVSOGLMHC12A6702147C
p2633
aa(lp2634
VSOKHBWW12AB01893B4
p2635
aVSOKLEUD12AB0186A1C
p2636
aVSOMJJKE12A6BD4D404
p2637
aa(lp2638
VSOWWRVY12AB017E388
p2639
aVSODTCIJ12A8AE48A33
p2640
aVSOHGMUP12A6D4FA2C9
p2641
aVSOOFLTG12AB017DB27
p2642
aVSOKHBWW12AB01893B4
p2643
aa(lp2644
VSODYHXY12A8C14326D
p2645
aVSOBQLMC12AC3DF496C
p2646
aVSODKRKE12A6D4FA2BA
p2647
aVSOBQUMU12A6D4F6BE9
p2648
aa(lp2649
VSOTQNCP12AF72A8806
p2650
aVSOXOBUH12AB0183195
p2651
aVSOVSWBY12A8C13D206
p2652
aa(lp2653
VSOUTOWI12A8C145A5F
p2654
aVSOIFEOS12A58A7ADEE
p2655
aa(lp2656
VSOOTYTN12AB018B63C
p2657
aVSOEZGPR12AB017FDA5
p2658
aa(lp2659
VSOZDXBF12A6D4F7998
p2660
aVSOYCRTQ12A6310E84E
p2661
aa(lp2662
VSOEABPT12A6D4F8305
p2663
aVSOWAKFE12AAF3B2E4F
p2664
aa(lp2665
VSOYKCAK12A8C13DD30
p2666
aVSOPEMQY12AB0183BC8
p2667
aa(lp2668
VSONBHBZ12AB018778C
p2669
aVSOMITZT12AAF3B27E5
p2670
aa(lp2671
VSOLMYRQ12AB0183A8B
p2672
aVSOHMPHL12A8C144A6D
p2673
aVSOPSBWY12A8C142BFC
p2674
aVSOPWFMJ12A8C131FCE
p2675
aVSOUHQLA12A8C13C7D2
p2676
aVSOFSHWK12A8C14106C
p2677
aVSOERKJW12A8C1413CD
p2678
aVSOHWNNJ12AB0186BEF
p2679
aVSOOUFRH12AB0183EF6
p2680
aa(lp2681
VSOQHCFT12A8BEEEB3F
p2682
aVSOSJXME12AB018019C
p2683
aVSOZYNLB12A6D4F6BF3
p2684
aVSOCQYTJ12AB0180FC3
p2685
aVSOYMCQU12A6D4F6FC8
p2686
aVSOTIFSQ12A6702084D
p2687
aa(lp2688
VSONIJLQ12A6D4F7D51
p2689
aVSOSJVJY12A679D8B1F
p2690
aa(lp2691
VSOAPBSH12A58A80492
p2692
aVSONEBFI12AF72ABCB3
p2693
aa(lp2694
VSOPFBDF12AB0188628
p2695
aVSOAKUTH12A8C135B29
p2696
aa(lp2697
VSOHBMZI12A6701FC29
p2698
aVSOINSGF12A8C133517
p2699
aa(lp2700
VSOWNLRF12A8C13F182
p2701
aVSOYYKOS12A8C142E94
p2702
aa(lp2703
VSOCIYUC12A6D4FB95E
p2704
aVSOHKPKM12AAF3B468B
p2705
aa(lp2706
VSOOCWHK12A8C137627
p2707
aVSOABSPW12A6701C31F
p2708
aVSOGYJGC12A6D4FA636
p2709
aVSOGPROE12AB0186906
p2710
aa(lp2711
VSOFVWZV12A6D4F9833
p2712
aVSOOBQZS12A58A7B9CB
p2713
aVSOMCFCM12A8C142386
p2714
aVSOLIHVY12A8C13ED83
p2715
aVSOUINFV12A6D4F7DEB
p2716
aVSOWLGME12A6D4FAC30
p2717
aa(lp2718
VSOJIBJW12A8C1406DB
p2719
aVSORRKZF12A8C135B50
p2720
aVSOOKPFI12A6D4F8C97
p2721
aVSOUMKOJ12A8C134A11
p2722
aVSOAASUT12A8C13E8CD
p2723
aVSOSGPVW12A58A76A36
p2724
aVSOPVSSX12AB0184AEB
p2725
aVSOGHZVY12A6701DCAE
p2726
aVSOEKEGY12A6D4F8F39
p2727
aVSOSXQAY12A8AE48B67
p2728
aVSOCFJUW12AB018D6FA
p2729
aVSOGZSAF12AB018BE50
p2730
aVSOKDTCM12A8C13AA80
p2731
aVSOBWRFI12A6D4FA263
p2732
aVSODWUCN12A6701D259
p2733
aVSOBYCGK12AB0180D47
p2734
aa(lp2735
VSOAAQYB12A8C140E53
p2736
aVSOXTGZU12AB017E3E6
p2737
aa(lp2738
VSOQAVGT12AF72A3FCE
p2739
aVSOFSHWK12A8C14106C
p2740
aa(lp2741
VSOPOIBO12A8C146519
p2742
aVSOKRYXH12A6701D468
p2743
aVSOPNJKY12A6701E014
p2744
aVSOUAFNC12A8C1344E2
p2745
aVSORXWIN12A58A7AF99
p2746
aVSOVBCQP12D02191E98
p2747
aVSOPOXOC12A58A78567
p2748
aVSOOAMML12A8C132639
p2749
aa(lp2750
VSOLIHVY12A8C13ED83
p2751
aVSOZBVZI12A8C143CA0
p2752
aa(lp2753
VSOYRTGW12A8C144C4F
p2754
aVSOFQSJW12A6BD4E0AD
p2755
aVSOPSVNC12A58A7A171
p2756
aa(lp2757
VSOLBNNG12D021930A5
p2758
aVSOBYWCI12A6D4F81FD
p2759
aa(lp2760
VSOFNYBY12CF5463261
p2761
aVSOKISIH12AB0188610
p2762
aVSOJBMSC12A6D4F68F7
p2763
aa(lp2764
VSOFUBSQ12A67ADD6BF
p2765
aVSONSTMR12D021B40A3
p2766
aVSOWXJVR12A67ADAC58
p2767
aa(lp2768
VSOCSSUU12A8C13820A
p2769
aVSOWSDLK12A8C137A50
p2770
aa(lp2771
VSOKMGPR12A8C1427E7
p2772
aVSOKRDOK12A8AE47D4E
p2773
aVSOKOTYJ12A8C13CAE8
p2774
aa(lp2775
VSOQPPSI12AB018F798
p2776
aVSOTCLPA127CF890425
p2777
aa(lp2778
VSOLDVPD12AF729B92F
p2779
aVSORRKRL12A679D8ABA
p2780
aa(lp2781
VSOVOOAO12A8C13EDA0
p2782
aVSOKHXPJ12A8C142C90
p2783
aa(lp2784
VSOILWTV12A6D4F4A4B
p2785
aVSOYASUK12A670209F6
p2786
aVSOAWNFS12A8C133A76
p2787
aVSOFHYZU12CF530E59B
p2788
aVSOOELXZ12A6D4F86E9
p2789
aVSOXBPBX12AB0183CD1
p2790
aa(lp2791
VSOHAIAM12AB0187F05
p2792
aVSOVSWBY12A8C13D206
p2793
aa(lp2794
VSOWWMSE12A6701FC2E
p2795
aVSOSJMQZ12A8C13A3A2
p2796
aa(lp2797
VSOKQIHY12A58A7BE6E
p2798
aVSONETOO12A8C133918
p2799
aVSOYKFER12A582918B0
p2800
aa(lp2801
VSOOMEDF12A58A7AF47
p2802
aVSOPZLKO12A6701FCF1
p2803
aVSOMEBIW12A58A7CD59
p2804
aVSOBPEBG12AB0185D91
p2805
aa(lp2806
VSOPLSTR12A8C140934
p2807
aVSOGKJDV12AB017FCF3
p2808
aVSOHGNHZ12D02197924
p2809
aVSOCUYVU12A58A7DA33
p2810
aVSORRKZF12A8C135B50
p2811
aVSOGDTQS12A6310D7D1
p2812
aVSOVOBKJ12A6D4F6A2D
p2813
aVSONEKLN12AB0186891
p2814
aVSOCJWPI12A8C13D357
p2815
aa(lp2816
VSOLLXYK12A6D4F70A2
p2817
aVSOLXFQD12AB018601E
p2818
aa(lp2819
VSOHKFQT12A8C1348CA
p2820
aVSOAZQZI12A8C13234A
p2821
aVSOUYZZD12A8C13DDDF
p2822
aa(lp2823
VSOLXNYV12A6D4F62CD
p2824
aVSOIHUEZ12A8C142E06
p2825
aa(lp2826
VSORGUXE12A8C143E11
p2827
aVSOAMNXU12AB018C55D
p2828
aVSOCQYEP12A8C1402FD
p2829
aVSOVXFOD12AB0187339
p2830
aVSOIJVLN12A6D4F764F
p2831
aa(lp2832
VSOBPTMB12AB017EE94
p2833
aVSORGIVX12AB01817EE
p2834
aVSOQYYEX12AB01873C9
p2835
aa(lp2836
VSOJRODB12AB0184CB7
p2837
aVSOKEJWW12AB017BD72
p2838
aVSOHSXDW12A8C143A13
p2839
aa(lp2840
VSOFWKXK12AB017CBCA
p2841
aVSOPSJCL12A6D4FADE7
p2842
aa(lp2843
VSOCHYDE12A8C13E438
p2844
aVSOSVQZQ12A6701EBAE
p2845
aa(lp2846
VSOAZCUF12A58A7AD40
p2847
aVSOBMURV12A8C139E55
p2848
aa(lp2849
VSORRDBX12A8C1381BC
p2850
aVSORZPQS12A58A7B4C8
p2851
aVSOZDIOV12A6701D7E9
p2852
aa(lp2853
VSOHSAYJ12A8AE48A05
p2854
aVSOUAJLR12A6D4F972C
p2855
aVSOWLBBQ12A6D4F7DFC
p2856
aVSOHVHWD12A8C13C7CF
p2857
aa(lp2858
VSODYHXY12A8C14326D
p2859
aVSOYTFCM12AB017FDCC
p2860
aa(lp2861
VSOGELHE12AB018053C
p2862
aVSOOWNGP12A8C141C40
p2863
aVSOUDEKM12AC46886BD
p2864
aVSOCFJUW12AB018D6FA
p2865
aVSOKGERN12A6D4F8195
p2866
aa(lp2867
VSONIJLQ12A6D4F7D51
p2868
aVSOUMKOJ12A8C134A11
p2869
aa(lp2870
VSOYMCQU12A6D4F6FC8
p2871
aVSOSJVJY12A679D8B1F
p2872
aVSOCPEHM12A8C13E2E9
p2873
aVSOIBBOG12A6D4F990F
p2874
aVSOCXMEH12A8C13C9E7
p2875
aVSOKKKSN12AC468A0E6
p2876
aVSOVKQFF12A6D4FAB5A
p2877
aVSOCFJUW12AB018D6FA
p2878
aa(lp2879
VSOULIVR12CF5F8743B
p2880
aVSOKOITJ12A6D4F511A
p2881
aa(lp2882
VSOKKKSN12AC468A0E6
p2883
aVSOBXKOQ12A6D4F82AF
p2884
aVSOGQHTO12AC4688ED7
p2885
aVSOGFWQY12A6D4F7028
p2886
aa(lp2887
VSOZMNAX12A58A77F88
p2888
aVSOSFZBK12A8C137A1E
p2889
aVSOSPMUS12A8C13E66D
p2890
aa(lp2891
VSODVMYI12A8C143912
p2892
aVSOPFPQB12AC3DF612E
p2893
aa(lp2894
VSOLZRZT12A6D4F89F8
p2895
aVSOFFXOE12AB018490B
p2896
aa(lp2897
VSOFIEII12AB017C1E4
p2898
aVSOUOJGU12AC468A0EC
p2899
aa(lp2900
VSOMMPHN12AB0183CF6
p2901
aVSOUVARB12AB01820D7
p2902
aa(lp2903
VSONCYAK12AAF3B49F9
p2904
aVSORZYGQ12A6701C566
p2905
aVSOWAKFE12AAF3B2E4F
p2906
aVSOQXDUU12A6310E836
p2907
aVSOJNALN12A6D4F8B4B
p2908
aVSOLCVLP12A6D4F89A7
p2909
aVSOUHAAF12A6D4FA8DB
p2910
aVSODYHXY12A8C14326D
p2911
aa(lp2912
VSOYSSFR12A6D4F885B
p2913
aVSOAIKTL12A58A7EA5A
p2914
aVSOOMXRV12A58A761DB
p2915
aVSODGDVL12AB0184238
p2916
aVSOAQDIK12AB017C40C
p2917
aVSOMNWYK12D021930A1
p2918
aa(lp2919
VSOYEDNN12A58A788F1
p2920
aVSOYDAVA12A8C13FD10
p2921
aVSOSNARG12AB0181739
p2922
aa(lp2923
VSORVAQE12A6D4F7A48
p2924
aVSOOHKMT12A8C1342A0
p2925
aVSOBZKYR12A8C13607E
p2926
aVSOILWTV12A6D4F4A4B
p2927
aVSOPKVAP12A6D4FB535
p2928
aVSOLCKCC12AB0185D72
p2929
aVSONNZAT12A8C143421
p2930
aVSOLQLXI12A8C135F71
p2931
aa(lp2932
VSOMEHZO12A670209FF
p2933
aVSOUDIAF12873FD5545
p2934
aVSOEETTE12AB018706B
p2935
aa(lp2936
VSOCROIQ12A6D4F6469
p2937
aVSOWCLTO12A67021CEC
p2938
aVSOHLPTM12A6D4F664D
p2939
aa(lp2940
VSOSRWGV12A67AD8577
p2941
aVSOXYDRV12A67021A3C
p2942
aa(lp2943
VSOCSMZG12AB0182E5B
p2944
aVSOJBUYK12A8C1395DF
p2945
aa(lp2946
VSOHIXLL12AB018734F
p2947
aVSORJVPL12AB0184DAD
p2948
aVSOXBUJM12A58A7E890
p2949
aa(lp2950
VSOVUIFQ12AB017EFD7
p2951
aVSOMARGO12A8C141500
p2952
aVSONPZJR12D021B0DA6
p2953
aa(lp2954
VSONNKJG12A58A7C703
p2955
aVSORPNKO12A6D4F885D
p2956
aVSOVIUNE12A8AE4561D
p2957
aVSONCOLJ12A8AE45A7A
p2958
aVSOFDUNY12A8C14363B
p2959
aVSOXGLIX12A8AE45624
p2960
aVSOSUJII12A8C134BBE
p2961
aVSOFYVTU12A8C13BB08
p2962
aVSOCJZXU12AB0185A8C
p2963
aVSOGDOHD12A8C13EB2D
p2964
aa(lp2965
VSOYMCNW12AB01807E0
p2966
aVSOZNWLB12A6D4FAAC5
p2967
aVSOWSDCM12AB01874BA
p2968
aa(lp2969
VSOQFDPX12A8C141779
p2970
aVSOLIHVY12A8C13ED83
p2971
aVSOHDKLW12A8C13E03B
p2972
aVSOVBBIU12A6D4FA3EB
p2973
aVSOXZHUO12D0219970F
p2974
aVSOKVHRS12A8C1332D9
p2975
aa(lp2976
VSOOKCKP12A8C13310D
p2977
aVSOGQHTO12AC4688ED7
p2978
aa(lp2979
VSONRKIU12A58A78F09
p2980
aVSOMOTZD12A8C143EB9
p2981
aa(lp2982
VSOHYBQL12AB0188A78
p2983
aVSOIDSPL12AB0182DF0
p2984
aVSOCUXEI12AC9075AD8
p2985
aVSOEFWBY12A8C135408
p2986
aa(lp2987
VSOFUCYX12AC468E413
p2988
aVSOFAFYW12A6D4F7580
p2989
aa(lp2990
VSONGBOK12A8C140744
p2991
aVSOMCGXJ12AB018E79D
p2992
aa(lp2993
VSOQGNTL12A6D4F7DCD
p2994
aVSOGCBYN12A6D4FBD86
p2995
aa(lp2996
VSODGLMM12A8C1430BC
p2997
aVSOJWFOK12A6D4F7DB9
p2998
aa(lp2999
VSORLHNG12A8C13F776
p3000
aVSOAUYUI12A679CF21E
p3001
aa(lp3002
VSOCCRKJ12A6D4F9178
p3003
aVSODYYWD12A8C139491
p3004
aVSOFUZAE12A6D4F5ECF
p3005
aa(lp3006
VSOHSMVT12A6701BEB6
p3007
aVSOAKUHS12A6D4FB1CE
p3008
aa(lp3009
VSOTFLSN12AB01807EA
p3010
aVSOZKOJE12AB017DE75
p3011
aa(lp3012
VSOMSXLM12AB0180614
p3013
aVSOMBWGK12AAFF43463
p3014
aa(lp3015
VSOZYSMY12A6D4FB483
p3016
aVSOMTTAS12AB017F099
p3017
aa(lp3018
VSOPOUVA12AB017F971
p3019
aVSOVHPKU12A8C13F65B
p3020
aa(lp3021
VSOQDTGK12A58A7AC7E
p3022
aVSOQWVQM12A8C13F665
p3023
aa(lp3024
VSOCKOVM12AB017F2D0
p3025
aVSONUIMX12A8C1422DC
p3026
aa(lp3027
VSOICNRZ12A8C13E128
p3028
aVSOUCXMN12AB0182F03
p3029
aa(lp3030
VSOUVIQV12AB018209E
p3031
aVSOTAWNJ12A8C13FEFC
p3032
aVSOULCMG12A67ADD6D2
p3033
aa(lp3034
VSONEVMQ12AAF3B4114
p3035
aVSOJULCS12A8C13A29F
p3036
aVSOFRHZO12A58A78305
p3037
aVSOAGJIG12A6310E831
p3038
aVSOTRGIU12AC9097D35
p3039
aVSOQEUJV12A6D4F814D
p3040
aa(lp3041
VSOSKMMY12A8C144428
p3042
aVSOSRIWS12AB018F5C3
p3043
aVSOUZOBJ12AB0186F2F
p3044
aVSONVXVX12A6D4F62C8
p3045
aa(lp3046
VSOYBJDB12A58A7C928
p3047
aVSOITEBY12A6D4F4800
p3048
aVSOVDXOX12A8C136B86
p3049
aa(lp3050
VSOJCKGC12AB018514B
p3051
aVSOVHIIY12A58A7A606
p3052
aa(lp3053
VSOFMUNJ12A58A7ECA1
p3054
aVSOEWOLZ12A6D4FA2B7
p3055
aVSOPWFMJ12A8C131FCE
p3056
aVSOFYBXM12A67020E79
p3057
aVSORZPQS12A58A7B4C8
p3058
aa(lp3059
VSOAGZVX12AB01862E2
p3060
aVSOXAUFJ12AB01827C7
p3061
aVSOMZFCR12AB018C39B
p3062
aa(lp3063
VSOOTTBO12AB018BE3B
p3064
aVSOGJXNC12AC468BA30
p3065
aa(lp3066
VSOEZGPR12AB017FDA5
p3067
aVSOFKDTM12A67ADAC5F
p3068
aa(lp3069
VSOYCRTQ12A6310E84E
p3070
aVSODGDVL12AB0184238
p3071
aa(lp3072
VSOZXVWK12AB018B865
p3073
aVSOHCWSW12AF72A31AC
p3074
aa(lp3075
VSOQGJOQ12AB0181C93
p3076
aVSOKRQNU12A67ADA22E
p3077
aVSOLBPRF12A8C13CB9B
p3078
aa(lp3079
VSOZCCFF12A8C13E00A
p3080
aVSOCVIYI12AB0181DC5
p3081
aa(lp3082
VSOSWTFU12A8C133AA9
p3083
aVSOCASJY12A8C13C2B8
p3084
aa(lp3085
VSOUDEKM12AC46886BD
p3086
aVSOAIKKF12A8C135FF5
p3087
aa(lp3088
VSOVBCQP12D02191E98
p3089
aVSOAPDEY12A81C210A9
p3090
aVSOASPFZ12AB0183704
p3091
aa(lp3092
VSOJQCVF12D0219763F
p3093
aVSOFMUNJ12A58A7ECA1
p3094
aVSOOKXYY12A58A7812A
p3095
aVSONKCZR12A8C13FF4B
p3096
aVSOUENAE12A6D4FADE2
p3097
aVSOMNWYK12D021930A1
p3098
aa(lp3099
VSOZJOOI12A8C13C717
p3100
aVSOUXBGB12AC468A91B
p3101
aVSOLEPED12AB01830FD
p3102
aa(lp3103
VSOBBHQG12A58A7ADC6
p3104
aVSOSWHZB12A6D4F75C8
p3105
aa(lp3106
VSOZBBFL12A8C134B00
p3107
aVSOEYQYT12AB018E5CE
p3108
aa(lp3109
VSOFPVDO12A8C134BED
p3110
aVSOHWBIM12A6701CFDB
p3111
aVSOTMZNI12AB0184F0B
p3112
aVSOJCJFA12A8C137588
p3113
aa(lp3114
VSOUJIAO12AB017A98D
p3115
aVSORODLN12AB017C72C
p3116
aVSOFPALX12AB017F864
p3117
aa(lp3118
VSOCMUKY12D02194EE0
p3119
aVSOUMKOJ12A8C134A11
p3120
aVSOMBLQN12D0219333C
p3121
aVSOLPXGF12D02190755
p3122
aa(lp3123
VSOFEWAF12A6701D7EC
p3124
aVSOPBQBH12A670212BA
p3125
aa(lp3126
VSOLXCWK12A58A7CCFC
p3127
aVSOZPTPT12A679AE5A0
p3128
aa(lp3129
VSOEJYBW12A8C134B17
p3130
aVSOWHUPN12A6D4F7D50
p3131
aVSODFUST12AB01805B3
p3132
aVSOGPQHA12AF72A8950
p3133
aVSOFMUNJ12A58A7ECA1
p3134
aa(lp3135
VSOJDMPG12A58A7C131
p3136
aVSOEOSEE12AB01871CA
p3137
aa(lp3138
VSOBNJHO12A6D4F842B
p3139
aVSORUSDT12A8C136069
p3140
aa(lp3141
VSOLVTJP12A6D4F7670
p3142
aVSOHBYWL12AAF3B428F
p3143
aVSOQEUJV12A6D4F814D
p3144
aVSODQPUF12AF72A4298
p3145
aVSOHOTGM12A58A7F77D
p3146
aVSOFHZSQ12AAF3B2D1A
p3147
aa(lp3148
VSOUFHIQ12AB018F515
p3149
aVSOPVEQE12AB018B598
p3150
aVSOEFGHX12A6310E839
p3151
aVSOJTBXR12A8C142951
p3152
aVSOMITZT12AAF3B27E5
p3153
aVSODDKWS12A8C13C0FE
p3154
aa(lp3155
VSOBXXJI12A6D4F64AF
p3156
aVSOONWUM12A6D4F936D
p3157
aVSOEIUZH12AB0185672
p3158
aVSOJDCAO12AB018C0A8
p3159
aVSOCSPCB12A8C13C223
p3160
aa(lp3161
VSOXEZKP12A8C13BAA3
p3162
aVSOWXDCF12AB018C46A
p3163
aVSORZAPL12A6D4F9972
p3164
aVSOGJJOB12AAF3B1DEF
p3165
aa(lp3166
VSOANAXD12A8C131EE5
p3167
aVSOTNHUH12A8C13D23E
p3168
aa(lp3169
VSOSNTUU12A6D4F971D
p3170
aVSOZJOOI12A8C13C717
p3171
aVSOSNARG12AB0181739
p3172
aVSOVBCQP12D02191E98
p3173
aVSONRKMT12A8C14041E
p3174
aVSOEZCPN12A6D4FB47A
p3175
aVSOFXBUV12AB0187A06
p3176
aa(lp3177
VSOIDSUR12AB017C872
p3178
aVSOMFVPE12AF72A2D30
p3179
aa(lp3180
VSODYRSW12A8C141046
p3181
aVSOJZEAW12AB017F953
p3182
aVSOQTVJR12AB0180548
p3183
aVSOFKDTM12A67ADAC5F
p3184
aa(lp3185
VSOGUFOA12AC46863A1
p3186
aVSOPOZDA12A6D4F75CC
p3187
aa(lp3188
VSOOUAWR12AB0184A1E
p3189
aVSOFTXDD12A8C1432EA
p3190
aVSOKLJTK12AB017F30E
p3191
aa(lp3192
VSONVXVX12A6D4F62C8
p3193
aVSOSWUQW12AB018253D
p3194
aa(lp3195
VSOZVCLH12A8C139E01
p3196
aVSOUDKZY12AB0185A3A
p3197
aVSOHUFBZ12A58A7E00D
p3198
aa(lp3199
VSOOMXRV12A58A761DB
p3200
aVSOVVFLL12A8C141087
p3201
aVSOYUDDY12A8C142D17
p3202
aVSOMZFCR12AB018C39B
p3203
aVSODGDVL12AB0184238
p3204
aVSOMNWYK12D021930A1
p3205
aVSOWKDWW12AB0181413
p3206
aa(lp3207
VSOKHRYZ12A58A79F24
p3208
aVSOHSFJV12AB0184371
p3209
aa(lp3210
VSONNGDG12A8C140B1A
p3211
aVSOIXDBG12A8C1333F1
p3212
aVSOYSSFR12A6D4F885B
p3213
aVSOJPVCB12A8C138914
p3214
aa(lp3215
VSOFHTLG12A6D4FAED5
p3216
aVSOAIKTL12A58A7EA5A
p3217
aa(lp3218
VSOXAQNX12A6701E15C
p3219
aVSOERVTY12A670201D6
p3220
aVSOHSGAG12A58A75FEE
p3221
aa(lp3222
VSOZGOKN12A58A7BAF8
p3223
aVSOSYEMQ12A58A7878E
p3224
aVSOMIGIU12AF729CD1A
p3225
aa(lp3226
VSONVFQL12A58A7B195
p3227
aVSOMARWU12AF729E5B6
p3228
aVSOKZKYL12A6701F40D
p3229
aa(lp3230
VSOZIJBU12AB017E41F
p3231
aVSOHHIXX12A6310F3C2
p3232
aa(lp3233
VSOZYNLB12A6D4F6BF3
p3234
aVSOGRWVE12A8AE488B1
p3235
aVSOKPASY12A8C14135F
p3236
aVSOOBQZS12A58A7B9CB
p3237
aVSOQFQKY12A8C137DA4
p3238
aVSOAGMOX12A8C1399D1
p3239
aVSOIWEYE12D02191C75
p3240
aa(lp3241
VSOWYXKY12AB0186BDC
p3242
aVSOBFDWJ12AB018B5E3
p3243
aa(lp3244
VSOBKNOO12AC46899FC
p3245
aVSOKOHLU12A6701E10E
p3246
aVSOROCYE12A58A7AB5D
p3247
aVSOAIKKF12A8C135FF5
p3248
aVSODOYPC12A8AE48021
p3249
aa(lp3250
VSOAVNXG12A6D4F8855
p3251
aVSOVYWKP12AC468E658
p3252
aVSOATRRM12A67021A42
p3253
aa(lp3254
VSORPYUD12AB018AEFD
p3255
aVSOWXJVR12A67ADAC58
p3256
aVSOBDAQQ12A6D4FA04F
p3257
aVSOLEPED12AB01830FD
p3258
aVSOVATSC12AB01797B3
p3259
aa(lp3260
VSOTEVSZ12A6D4F8241
p3261
aVSODFUST12AB01805B3
p3262
aa(lp3263
VSOTVOZH12AAF3B3CBF
p3264
aVSODAAHV12AC46870F3
p3265
aVSOMZKCF12A8C1432B0
p3266
aVSOCCATJ12AB0188DF7
p3267
aVSOTCLPA127CF890425
p3268
aVSOFEHLW12AB0186CDB
p3269
aa(lp3270
VSOXGDOO12A6D4F9748
p3271
aVSOCUGSL12A8C135065
p3272
aVSOQRCFD12A3F1EA920
p3273
aa(lp3274
VSOARKXH12A8C131582
p3275
aVSOXONZC12A67ADF6DA
p3276
aa(lp3277
VSOIPHBY12A6D4FA090
p3278
aVSOBSPWR12A6D4F78C9
p3279
aa(lp3280
VSOHIMYM12A6D4F93D6
p3281
aVSOSKLTL12A6D4F60EF
p3282
aVSOIIETD12D021943C0
p3283
aVSOOWNGP12A8C141C40
p3284
aVSOZDIOV12A6701D7E9
p3285
aVSOGRWVE12A8AE488B1
p3286
aVSOWRWEJ12A6D4F9123
p3287
aVSOXMBFV12A58A7F3AE
p3288
aVSORTTQU12A67ADD072
p3289
aa(lp3290
VSOBWCBF12A8C1443FB
p3291
aVSOANAXD12A8C131EE5
p3292
aVSOROCYE12A58A7AB5D
p3293
aa(lp3294
VSODAAHV12AC46870F3
p3295
aVSOCIWDW12A8C13D406
p3296
aa(lp3297
VSOAZWJE12A6701E10F
p3298
aVSOLOCZW12AB018B623
p3299
aa(lp3300
VSOFUBSQ12A67ADD6BF
p3301
aVSOHTELQ12AB017B473
p3302
aa(lp3303
VSOPWTJO12A8C139F19
p3304
aVSONNBRI12A6BD4F243
p3305
aa(lp3306
VSOMPCHB12A8C13475B
p3307
aVSOUHQLA12A8C13C7D2
p3308
aa(lp3309
VSOWHUPN12A6D4F7D50
p3310
aVSOOYOTE12A81C21557
p3311
aa(lp3312
VSOUMUNT12A6D4F764D
p3313
aVSOLNEGI12A6701CB8B
p3314
aVSOFPBRD12A6D4FAD6C
p3315
aVSOKLJTK12AB017F30E
p3316
aVSOTRSIF12A6D4F8C2D
p3317
aa(lp3318
VSOAZYBY12A8C14260E
p3319
aVSOMYEVE12CF5F87B50
p3320
aa(lp3321
VSONIJLQ12A6D4F7D51
p3322
aVSOKGERN12A6D4F8195
p3323
aa(lp3324
VSOUDRCO12A6D4FB3AF
p3325
aVSOCFJUW12AB018D6FA
p3326
aVSOACQHA12A8C143257
p3327
aa(lp3328
VSOGQHTO12AC4688ED7
p3329
aVSOPHSCF12AB018B539
p3330
aa(lp3331
VSOAASUT12A8C13E8CD
p3332
aVSOKQIHY12A58A7BE6E
p3333
aa(lp3334
VSOOBQZS12A58A7B9CB
p3335
aVSOQFWTV12AB017EC81
p3336
aa(lp3337
VSOOWNGP12A8C141C40
p3338
aVSOLNEGI12A6701CB8B
p3339
aVSOWHUPN12A6D4F7D50
p3340
aVSOUIOGK12AB017F0D4
p3341
aa(lp3342
VSOQTVJR12AB0180548
p3343
aVSOMZKCF12A8C1432B0
p3344
aVSOOCWHK12A8C137627
p3345
aVSOSXQAY12A8AE48B67
p3346
aa(lp3347
VSOKDONI12D021987B3
p3348
aVSOVBBZR12AB017F913
p3349
aVSOBYCGK12AB0180D47
p3350
aa(lp3351
VSOFUBSQ12A67ADD6BF
p3352
aVSORGTFV12D02198922
p3353
aVSOYOCPY12A8C13554F
p3354
aVSOFMUNJ12A58A7ECA1
p3355
aa(lp3356
VSOROCYE12A58A7AB5D
p3357
aVSOYBJDB12A58A7C928
p3358
aVSOOFLTG12AB017DB27
p3359
aVSOLYLOO12A8AE45876
p3360
aVSOLSGXH12A8C13A7D6
p3361
aVSODQGBL12A8C133C9B
p3362
aVSOSKMMY12A8C144428
p3363
aVSOZDIOV12A6701D7E9
p3364
aVSOXJVPT12A8C141CA6
p3365
aVSOBDAQQ12A6D4FA04F
p3366
aVSONYDGS12A6D4F8B58
p3367
aVSOJULCS12A8C13A29F
p3368
aVSOZJOOI12A8C13C717
p3369
aVSOVASPD12A8C133211
p3370
aVSODVXBW12A8C13F7B6
p3371
aVSOQBXXW12AC39274D6
p3372
aVSOITEBY12A6D4F4800
p3373
aVSOLVTJP12A6D4F7670
p3374
aVSOFEWAF12A6701D7EC
p3375
aVSOKWTMY12A8C13A7EC
p3376
aa(lp3377
VSOMXBVM12A8C1315AD
p3378
aVSOLWYYT12A8C1406E9
p3379
aVSOGQTPP12AB0186708
p3380
aa(lp3381
VSOZMSLR12A6701FDA7
p3382
aVSOCPJMV12AB018A01F
p3383
aa(lp3384
VSONXCTN12A58A78E4B
p3385
aVSOEWEVP12A8C13A82B
p3386
aVSOLBFZF12A8C144AF5
p3387
aVSOVDQMP12A8C137A1F
p3388
aa(lp3389
VSOQUDLO12AB018626F
p3390
aVSOPFAOP12A6D4F7D52
p3391
aVSOYVWTC12A8C135865
p3392
aa(lp3393
VSOGYDWE12A8C143EB1
p3394
aVSOTQGMN12A6D4F794E
p3395
aa(lp3396
VSOVFMTC12A58A7CE82
p3397
aVSOGFTOU12AB018374A
p3398
aa(lp3399
VSONSVHE12AB0188665
p3400
aVSONNANS12AB017F757
p3401
aVSOBAIGL12A8C138206
p3402
aVSOBAAMD12AB01869DB
p3403
aa(lp3404
VSOCFQKV12A8C14074E
p3405
aVSOCVDIR12A6D4F7196
p3406
aVSOMPWYU12A58A7DBBA
p3407
aVSOBABSF12A8AE46709
p3408
aVSOUTOWI12A8C145A5F
p3409
aVSOFMUNJ12A58A7ECA1
p3410
aVSOHRIKL12AB0186468
p3411
aa(lp3412
VSOFYPIA12AB018C167
p3413
aVSOQXDUU12A6310E836
p3414
aVSOIZTKO12A8C135A36
p3415
aVSODOMOT12AB018BBF8
p3416
aVSOGEBBN12A8C137101
p3417
aVSOISVHE12A8C141483
p3418
aVSOEDHRT12A58A7A600
p3419
aa(lp3420
VSOYOZJH12A8C14216C
p3421
aVSOGLSNX12A8C133A90
p3422
aa(lp3423
VSOSEHDD12A58A7B2CA
p3424
aVSOFKCWS12A8C134911
p3425
aVSONETOO12A8C133918
p3426
aVSOSPFNZ12A58A7852C
p3427
aa(lp3428
VSOMMDWU12AB017C991
p3429
aVSOWGSWQ12AF72A659D
p3430
aa(lp3431
VSOPFAZI12A6D4F799E
p3432
aVSOZDIOV12A6701D7E9
p3433
aVSOMRVNW12A8C138D41
p3434
aVSOATHZV12A58A788DA
p3435
aVSOYBJDB12A58A7C928
p3436
aVSOOQASH12A8C1353D8
p3437
aVSOMZKCF12A8C1432B0
p3438
aa(lp3439
VSOUHQLA12A8C13C7D2
p3440
aVSODOUYN12AB01811AE
p3441
aVSOINSGF12A8C133517
p3442
aVSOEVKFI12AB017F888
p3443
aVSOXOBUH12AB0183195
p3444
aVSORHKLQ12A8C1415A9
p3445
aVSOTQNCP12AF72A8806
p3446
aa(lp3447
VSOYKFER12A582918B0
p3448
aVSOHZIEV12AB018003B
p3449
aa(lp3450
VSOMUGZK12A8C1406F6
p3451
aVSOOVWTG12AB018BD64
p3452
aa(lp3453
VSOEJHBX12A8C1381C6
p3454
aVSOBLLRP12A6D4FD0B0
p3455
aVSOMMCZT12A8C142B24
p3456
aVSOZDIOV12A6701D7E9
p3457
aVSOWRWEJ12A6D4F9123
p3458
aa(lp3459
VSOFPFMC12AB0186E63
p3460
aVSOPWFMJ12A8C131FCE
p3461
aVSOFYPIA12AB018C167
p3462
aVSODTCIJ12A8AE48A33
p3463
aVSOIUIAR12A8C1457EB
p3464
aVSOMJJKE12A6BD4D404
p3465
aVSOCNHLH12AC3DF6897
p3466
aVSOLVTJP12A6D4F7670
p3467
aa(lp3468
VSOGHZVY12A6701DCAE
p3469
aVSODQGBL12A8C133C9B
p3470
aa(lp3471
VSODVGTU12A6310E82B
p3472
aVSOSZULY12AC468B3DE
p3473
aVSOJCBCF12AB0186756
p3474
aVSOAMLPJ12A6D4F7A35
p3475
aVSOHGYTI12A8C132B5A
p3476
aa(lp3477
VSOPLOOM12A6702091A
p3478
aVSOMMCZT12A8C142B24
p3479
aa(lp3480
VSOYJKXH12A6D4F9A74
p3481
aVSOPLQTT12A8C13A298
p3482
aVSOKYVIY12A58A7F4C2
p3483
aa(lp3484
VSOBNGVJ12A58A7B0AF
p3485
aVSOQRSJL12AB0181D36
p3486
aa(lp3487
VSOCDROK12A67ADD6BE
p3488
aVSOBEGQQ12A67ADC913
p3489
aa(lp3490
VSOUMKOJ12A8C134A11
p3491
aVSOZYNLB12A6D4F6BF3
p3492
aVSOZIJBU12AB017E41F
p3493
aVSOCFJUW12AB018D6FA
p3494
aVSOFUANX12AB0180538
p3495
aVSOWHUPN12A6D4F7D50
p3496
aa(lp3497
VSOHRIKL12AB0186468
p3498
aVSOVASPD12A8C133211
p3499
aVSONRVTI12AC46860AF
p3500
aVSOAFWJK12A8C136FA2
p3501
aa(lp3502
VSOQFWTV12AB017EC81
p3503
aVSOVBCQP12D02191E98
p3504
aVSODVTJU12A8C13E0E0
p3505
aVSORSORV12A6D4F65C6
p3506
aVSOMCFCM12A8C142386
p3507
aVSOUDRCO12A6D4FB3AF
p3508
aa(lp3509
VSOZDIOV12A6701D7E9
p3510
aVSOKGERN12A6D4F8195
p3511
aVSOKSDBV12A8C141BFD
p3512
aa(lp3513
VSOVXWSU12A58A77C1A
p3514
aVSOQFQKY12A8C137DA4
p3515
aVSOTFEZY12A6702096B
p3516
aa(lp3517
VSOAASUT12A8C13E8CD
p3518
aVSONMOFS12A8C144B5B
p3519
aVSOTRJER12A8C140037
p3520
aVSOEWOLZ12A6D4FA2B7
p3521
aa(lp3522
VSOVBCQP12D02191E98
p3523
aVSOSNARG12AB0181739
p3524
aVSOSTGHO12AB0186AB1
p3525
aVSOKDONI12D021987B3
p3526
aa(lp3527
VSOQDYVZ12D021B40D7
p3528
aVSOUAFNC12A8C1344E2
p3529
aVSOSUTZH12A81C22A34
p3530
aVSOWEWRG12A679AE598
p3531
aVSOBTGLX12A8C143ECC
p3532
aVSOHYHBL12A8C13FFBC
p3533
aa(lp3534
VSOKDCCR12A67AD8564
p3535
aVSOWHPDK12AB0180083
p3536
aa(lp3537
VSOWLIHS12A58A7BB62
p3538
aVSONCCDY12A58A7DCA2
p3539
aVSOIDQRA12A8C13F48D
p3540
aVSOQFDPA12A58A7BA06
p3541
aa(lp3542
VSODQGBL12A8C133C9B
p3543
aVSOLSGXH12A8C13A7D6
p3544
aVSORBNYX12AAF3B410F
p3545
aVSOMWCSJ12AB017FE6B
p3546
aa(lp3547
VSOCLSFE12AB0183D3E
p3548
aVSORIYVD12AB01855C1
p3549
aVSOKNKAX12A6D4F9DD1
p3550
aVSOBIQJG12AB0185A17
p3551
aa(lp3552
VSOVCFKW12AB0181CB4
p3553
aVSOKBYAE12A6D4FA2B2
p3554
aVSOEEJGG12AB0184B61
p3555
aVSOMPRHU12A6D4F62C4
p3556
aa(lp3557
VSOIANXM12AB018004D
p3558
aVSOFATCD12AB0184BBD
p3559
aa(lp3560
VSOPLOOM12A6702091A
p3561
aVSOLDVPD12AF729B92F
p3562
aVSOTAWNJ12A8C13FEFC
p3563
aVSOLOCZW12AB018B623
p3564
aVSOOHTEC12A6D4F99D8
p3565
aVSOBCDEE12A6310E8AE
p3566
aVSOLEPED12AB01830FD
p3567
aVSOFKDTM12A67ADAC5F
p3568
aVSONNBRI12A6BD4F243
p3569
aVSOYYNCP12A6D4FAD8D
p3570
aVSOOBQZS12A58A7B9CB
p3571
aa(lp3572
VSOFFZEB12A58A7983F
p3573
aVSOQTJHJ12AB017F97D
p3574
aVSOAIKKF12A8C135FF5
p3575
aVSODLSAZ12AB017EE51
p3576
aVSOOIYIH12AB017B43D
p3577
aa(lp3578
VSOSCZEC12A8C133500
p3579
aVSODAAHV12AC46870F3
p3580
aVSODGTAD12AB0181571
p3581
aa(lp3582
VSOCKJGK12A8C137AE2
p3583
aVSOLPSXH12A8C13AEED
p3584
aVSOKQUYE12AB018A989
p3585
aa(lp3586
VSOAFPHC12A8C13D902
p3587
aVSOQLZDC12A8C13E00A
p3588
aa(lp3589
VSOCROIQ12A6D4F6469
p3590
aVSOREPVL12A8C13F02B
p3591
aa(lp3592
VSOIMTIH12A8AE46285
p3593
aVSOFRPWV12AB017E58C
p3594
aVSOOCZAZ12A3F1EA635
p3595
aa(lp3596
VSOQBXXW12AC39274D6
p3597
aVSOSZULY12AC468B3DE
p3598
aVSOBCDEE12A6310E8AE
p3599
aVSOLEPED12AB01830FD
p3600
aVSOCYWKJ12A8C135C53
p3601
aa(lp3602
VSOGVBTG12A8C13F799
p3603
aVSOUIOGK12AB017F0D4
p3604
aa(lp3605
VSOFKLAE12AB01873F6
p3606
aVSOYKFER12A582918B0
p3607
aVSOVHIIY12A58A7A606
p3608
aVSOLPXGF12D02190755
p3609
aa(lp3610
VSOTAWNJ12A8C13FEFC
p3611
aVSOPVFXW12A8C13C2D2
p3612
aVSORRDBX12A8C1381BC
p3613
aa(lp3614
VSOIUMEH12AB01813A5
p3615
aVSOXJLMW12A58A7CFE9
p3616
aaa(lp3617
g753
ag756
ag759
ag765
a(lp3618
VSOKRDOK12A8AE47D4E
p3619
aVSODHFGA12AB0181F27
p3620
aa(lp3621
VSOBGKYO12A8AE45638
p3622
aVSODXFAE12A6D4F9BF9
p3623
aVSOZXOGL12A8C1416A0
p3624
aa(lp3625
VSODQUOT12A8C13543D
p3626
aVSORARXV12A8C133D77
p3627
aVSOLLZSX12A8C13C355
p3628
aa(lp3629
VSOUHZHO12A6310DF90
p3630
aVSOOELXZ12A6D4F86E9
p3631
aa(lp3632
VSOJCNHV12A8C13EAB7
p3633
aVSOWCLTO12A67021CEC
p3634
aa(lp3635
VSONFJHJ12A8C1337EA
p3636
aVSOEBPUD12A6701C527
p3637
aVSOGYMZT12AC46895DF
p3638
aVSOBSPGM12A8C143184
p3639
aVSODTPBM12A8C1339D7
p3640
aVSOMJOPO12A8C13A36A
p3641
aVSOLUASX12CF5F889B5
p3642
aag2311
ag2315
ag650
a(lp3643
VSOXAERY12A81C216F4
p3644
aVSOPSOEE12A67AD8E40
p3645
aa(lp3646
VSOKEZNU12A67ADD6D1
p3647
aVSORQZDG12A6D4FC43F
p3648
aVSOXFEBT12A6D4F954E
p3649
aa(lp3650
VSOQRVCG12AB018A96F
p3651
aVSOSUBWD12D02193054
p3652
aVSOGWYKQ12A8C133727
p3653
aVSOAKUMJ12A6BD55CFB
p3654
aVSOFRQWQ12AB01801A4
p3655
aVSOGCFOC12A67020E70
p3656
aVSOKPASY12A8C14135F
p3657
aVSOSUEHO12A6D4F90B3
p3658
aa(lp3659
VSOAASUT12A8C13E8CD
p3660
aVSOMPTZY12A5891ED3F
p3661
aa(lp3662
VSOXGKYP12AB018B429
p3663
aVSOJLQEL12A6310E2F1
p3664
aVSOESBWM12A58A7D8D3
p3665
aVSOKDONI12D021987B3
p3666
aa(lp3667
VSOSXQAY12A8AE48B67
p3668
aVSOWKLYP12A6D4F75A8
p3669
aag1539
ag1542
ag2413
ag2417
ag2581
ag769
ag772
ag179
ag231
ag234
ag238
ag267
ag270
ag1392
ag1395
a(lp3670
VSOLBPNT12A8C13DB30
p3671
aVSOGBVRW12AB01797CF
p3672
aa(lp3673
VSOZCEPJ12AB0188611
p3674
aVSONNTMK12AB017BC16
p3675
aVSOPEGDX12AB017EA4F
p3676
aVSOWXFHV12A8C142A76
p3677
aVSOIQAPQ12A6D4F6E9C
p3678
aa(lp3679
VSOUWDVC12A58A7AD6D
p3680
aVSOTJDVA12AB0184459
p3681
aVSORRDYF12A8C13CB0A
p3682
aag1941
ag1944
ag1947
ag1218
ag1221
ag1224
a(lp3683
VSOPRWIY12A8C13232D
p3684
aVSOHWNNJ12AB0186BEF
p3685
aVSOPDEJZ12A8C139F4B
p3686
aa(lp3687
VSOSPPAB12A8AE47335
p3688
aVSOVISRD12A8C1429C5
p3689
aa(lp3690
VSOOPZDQ12CF5F86C5E
p3691
aVSOQASDI12AB0183CCF
p3692
aVSOCMDGZ12AB0184C65
p3693
aag2264
ag2268
a(lp3694
VSOMWFLP12AC468B6F0
p3695
aVSOHKWOZ12A8C1319F7
p3696
aa(lp3697
VSOEYNEL12A6D4F7653
p3698
aVSOTQNCP12AF72A8806
p3699
aa(lp3700
VSOABJKV12AB01838B1
p3701
aVSOGVJRL12A8C142093
p3702
aVSOGLMHC12A6702147C
p3703
aag2437
ag2440
a(lp3704
VSOLOCZW12AB018B623
p3705
aVSOZJOOI12A8C13C717
p3706
aVSOSRTTV12A588392EF
p3707
aa(lp3708
VSOLEPED12AB01830FD
p3709
aVSOJYNTZ12A81C21A0A
p3710
aVSOBECLR12A6D22723E
p3711
aa(lp3712
VSOVBCQP12D02191E98
p3713
aVSOWHUPN12A6D4F7D50
p3714
aVSORSORV12A6D4F65C6
p3715
aa(lp3716
VSOTIFSQ12A6702084D
p3717
aVSOMQIAB12A8C134B02
p3718
aVSOMVWFA12A6D4F56F3
p3719
aa(lp3720
VSOXYKUE12AB0188641
p3721
aVSOJNKYQ12AB0181DA5
p3722
aVSOXOBUH12AB0183195
p3723
aa(lp3724
VSOOAAWM12CF5702403
p3725
aVSOBRGCH12AB01834F2
p3726
aa(lp3727
VSORBHDO12A58A7A911
p3728
aVSODFKCJ12A8C136A26
p3729
aVSOBLKGC12A8C135ED6
p3730
aVSOFYBFZ12A8C142947
p3731
aag2092
ag1652
ag1657
ag550
ag553
ag557
ag563
ag1975
ag1981
ag2131
ag2134
ag2137
a(lp3732
VSOYWQQA12A6D4F83B2
p3733
aVSOFECZG12A8C144496
p3734
aVSOBKLHH12AB017FF7D
p3735
aa(lp3736
VSOWXEPO12AB0187924
p3737
aVSOAVTHW12AB0188627
p3738
aVSOCVDIR12A6D4F7196
p3739
aa(lp3740
VSOXOFAR12A58A7F92B
p3741
aVSOXTRKH12A8C13ED4F
p3742
aVSOEHKCU12AB0185049
p3743
aVSORRDBX12A8C1381BC
p3744
aag837
ag840
ag996
ag3222
ag3226
ag3230
ag1082
ag1085
ag2626
ag2631
ag255
ag261
ag1575
ag1580
ag1586
ag2950
ag2954
a(lp3745
VSOSFTJL12A6701DEAD
p3746
aVSOUDIAF12873FD5545
p3747
aVSOKAAZF12AB018ABB2
p3748
aVSORQLJR12D021B0DBD
p3749
aVSOHGNHZ12D02197924
p3750
aVSOFPZIX12A6701CFAD
p3751
aag539
ag818
ag2549
ag2553
ag2557
ag3233
ag3241
a(lp3752
VSOHGMUP12A6D4FA2C9
p3753
aVSOVOOAO12A8C13EDA0
p3754
aVSOPGKJT12A58A7BC36
p3755
aVSONPZJR12D021B0DA6
p3756
aVSOUSFUK12AB018952B
p3757
aVSOCOQBV12AB0183B87
p3758
aVSOHIJEH12A58A778E7
p3759
aag1459
ag264
ag685
ag688
a(lp3760
VSODAAHV12AC46870F3
p3761
aVSOROCYE12A58A7AB5D
p3762
aa(lp3763
VSOBKNOO12AC46899FC
p3764
aVSOSVRYL12CF5CFADC6
p3765
aVSOZBVZI12A8C143CA0
p3766
aVSORBBSA12A8C134EA4
p3767
aVSOOHVCD12A8C1330FF
p3768
aa(lp3769
VSOXXENW12A81C22774
p3770
aVSOKWZZF12A8C133E77
p3771
aVSOMIXXI12A6701CB8D
p3772
aVSOJLQEL12A6310E2F1
p3773
aVSOSGPVW12A58A76A36
p3774
aVSOHKQYR12A6701E309
p3775
aVSOVBBZR12AB017F913
p3776
aVSOSDATU12A58A7D067
p3777
aVSOOCWHK12A8C137627
p3778
aa(lp3779
VSOEZZGU12AAF3B1E69
p3780
aVSOTCNAF12AB018E5DB
p3781
aag3351
ag3356
ag928
ag932
ag935
ag939
ag943
ag1917
ag1920
ag1369
ag1376
ag992
ag1746
ag1749
ag1752
ag1755
a(lp3782
VSOEDHRT12A58A7A600
p3783
aVSOYSHLF12A58A7CFBA
p3784
aVSOWXAOL12AB017F986
p3785
aa(lp3786
VSONSVHE12AB0188665
p3787
aVSOSZHCE12A67ADD6D9
p3788
aVSOFYBXM12A67020E79
p3789
aVSOGJXNC12AC468BA30
p3790
aag1045
ag1049
ag1053
ag2211
ag2215
ag2218
ag1821
ag1824
ag1828
ag2297
ag2301
ag1695
ag1700
ag1704
ag2979
ag2982
ag2987
ag3135
ag3138
a(lp3791
VSOFMFSN12A8C141BF2
p3792
aVSOAKGGV12A8C141C90
p3793
aa(lp3794
VSOFWRDF12A6D4F9558
p3795
aVSOCYMCS12A58A7AF11
p3796
aa(lp3797
VSOECNZE12A6701E32C
p3798
aVSONYUMY12A8C13568B
p3799
aa(lp3800
VSOGLENB12A6D4F76B7
p3801
aVSOLKNFC12A8C137707
p3802
aag1903
ag504
ag1528
ag1531
ag1534
a(lp3803
VSOPVSSX12AB0184AEB
p3804
aVSOUAFNC12A8C1344E2
p3805
aVSOXOBUH12AB0183195
p3806
aa(lp3807
VSONSTMR12D021B40A3
p3808
aVSOFEHLW12AB0186CDB
p3809
aVSODVTJU12A8C13E0E0
p3810
aa(lp3811
VSOJMBIC12A6D4F6938
p3812
aVSOVFNJW12A6D4FA04C
p3813
aa(lp3814
VSOIIYEG12CF533CFC0
p3815
aVSOHDCZZ12A6D4F9835
p3816
aag1986
ag1989
ag1992
ag1995
ag1999
ag727
ag730
ag733
ag2245
ag2248
ag2255
ag2473
ag2478
a(lp3817
VSOSKMMY12A8C144428
p3818
aVSOQKSXV12A8C14075C
p3819
aa(lp3820
VSOKHBWW12AB01893B4
p3821
aVSOWGSWQ12AF72A659D
p3822
aVSOPYGAO12A58A7B35D
p3823
aVSONYDGS12A6D4F8B58
p3824
aVSODTCIJ12A8AE48A33
p3825
aVSOLVTJP12A6D4F7670
p3826
aVSOTJBFM12A8C13D208
p3827
aVSOMYEVE12CF5F87B50
p3828
aVSODWGUC12A6D4F8147
p3829
aVSOPRXPJ12A8C1354B5
p3830
aVSOIMRFE12D021B3D23
p3831
aVSOPVNVJ12CF5D8EEE2
p3832
aa(lp3833
VSOBWCBF12A8C1443FB
p3834
aVSOGXANU12AB01860FC
p3835
aa(lp3836
VSORXWIN12A58A7AF99
p3837
aVSOCGGII12A6D4F7599
p3838
aVSOXCSOP12D021B3C3F
p3839
aVSOZRXQH12AB0188235
p3840
aVSOPVLHY12AB01820C6
p3841
aa(lp3842
VSODVGTU12A6310E82B
p3843
aVSOKHBWW12AB01893B4
p3844
aVSOBLLRP12A6D4FD0B0
p3845
aag3589
ag3592
ag1020
ag1023
ag1026
a(lp3846
VSOMQQUD12A8C14230B
p3847
aVSOHWVCA12AB018E22D
p3848
aa(lp3849
VSOFTJXM12AB01853B4
p3850
aVSORQWTE12AB0188A70
p3851
aag694
ag698
ag3490
ag3497
ag3502
ag3218
ag1340
ag1345
ag1348
ag1351
ag1354
a(lp3852
VSOCSKAU12AB01896F9
p3853
aVSOLAIIE12A6D4F982A
p3854
aa(lp3855
VSOKVZTQ12A58A7BF4B
p3856
aVSOIPYGD12A6701CD87
p3857
aag2806
ag2816
a(lp3858
VSOVZQAD12A8C13398E
p3859
aVSOOYVVG12A6D4FCB27
p3860
aa(lp3861
VSOWNEGY12A8C141B8D
p3862
aVSOBFGPC12A8C131237
p3863
aa(lp3864
VSOFJFTF12A8C138A37
p3865
aVSOYDRDR12A81C20BAC
p3866
aag1475
ag1478
ag1483
ag1486
ag1490
a(lp3867
VSONLJIF12AB01852A8
p3868
aVSOJGEPM12A8C133B54
p3869
aa(lp3870
VSOFFNZT12AB018367D
p3871
aVSOSUQZP12AB0184242
p3872
aa(lp3873
VSOLLMHV12AAF3B4A95
p3874
aVSONFHGW12D021B3CAD
p3875
aVSOJPZPP12A6D4F59FF
p3876
aVSOLYLOO12A8AE45876
p3877
aVSOAGDKC12AB0188FC6
p3878
aa(lp3879
VSOIOELM12AB01837BE
p3880
aVSOODFHP12AB0184A67
p3881
aVSOWQYKT12AB01823F3
p3882
aag1380
ag1386
ag29
ag32
ag2177
ag2181
ag2186
a(lp3883
VSOKQSDH12AB0188B1A
p3884
aVSOPFHJS12A8C13D5E4
p3885
aVSOXQVNW12AAF3B2DBC
p3886
aVSONIASX127D4A6E64E
p3887
aVSOJKCQI12A8C13D5E1
p3888
aVSOQZQYJ12A6D4F974F
p3889
aa(lp3890
VSOKNIST12A8C13EBC2
p3891
aVSOFRQWQ12AB01801A4
p3892
aa(lp3893
VSOWOTBH12A8C13D5CE
p3894
aVSOSBICL12AB0189563
p3895
aVSOLFEXO12AB0187985
p3896
aa(lp3897
VSOCRDNB12AB0185CAE
p3898
aVSOIUMEH12AB01813A5
p3899
aa(lp3900
VSOTJOZQ12AC468B71B
p3901
aVSOISAOE12AB017CA47
p3902
aVSOZHGHN12AB018C967
p3903
aa(lp3904
VSOBMURV12A8C139E55
p3905
aVSOBITVY12A8C134125
p3906
aVSOUOYPB12AB018A1CB
p3907
aVSOMBLQN12D0219333C
p3908
aag1592
ag1597
ag1601
ag2940
ag1059
ag1063
ag2114
ag2117
ag2121
a(lp3909
VSOWUHHZ12A8C13F129
p3910
aVSOWTXQN12A8C13261A
p3911
aVSOGEXHU12AAF3B3D2E
p3912
aVSOHGNHZ12D02197924
p3913
aa(lp3914
VSOKXYCE12A8C13228A
p3915
aVSOTCCJU12A8C131BF9
p3916
aVSOFWRIC12A6701E9EE
p3917
aag1929
ag1932
ag1935
ag1938
ag1846
ag1849
ag535
ag3118
ag3123
ag3126
ag3129
ag1029
ag1032
ag1037
ag1040
a(lp3918
VSODDYML12AB0188C50
p3919
aVSORGIVX12AB01817EE
p3920
aa(lp3921
VSONRWNN12AB017E1C3
p3922
aVSODTHSZ12A58A7CD21
p3923
aa(lp3924
VSOVCZFY12A58A7BD8E
p3925
aVSODFFUC12AB0188034
p3926
aa(lp3927
VSOBPFZS12AB018583F
p3928
aVSOTIHNQ12AB0187151
p3929
aVSOWYITB12AB0180924
p3930
aVSOUNZHQ12A58A7D6FB
p3931
aag3109
ag3114
ag3141
ag3148
ag3155
ag846
ag849
ag852
ag2826
ag2832
ag2836
ag2840
ag2843
ag2846
ag2304
ag2307
ag322
ag325
ag328
ag331
ag334
a(lp3932
VSOPRLOC12A8C137F08
p3933
aVSOGWYCK12AB0187C43
p3934
aag163
ag166
ag169
ag173
a(lp3935
VSOAQDIK12AB017C40C
p3936
aVSOYOCPY12A8C13554F
p3937
aVSOFEHLW12AB0186CDB
p3938
aVSODYHXY12A8C14326D
p3939
aVSOOANCR12AB0181117
p3940
aVSOEJYBW12A8C134B17
p3941
aag1056
ag2081
ag2088
ag1108
ag1113
ag2058
ag1227
ag1236
ag1239
ag542
ag546
ag1320
ag1323
ag3034
ag3041
ag3046
ag3050
ag2965
ag221
ag224
ag484
ag487
a(lp3942
VSOYYCIV12A8C13883F
p3943
aVSOKAMXI12A8C144465
p3944
aa(lp3945
VSOBFMGD12A8C140849
p3946
aVSORNVJU12A58A7EC3E
p3947
aa(lp3948
VSOOZMHD12A8C144BF2
p3949
aVSOMBLQN12D0219333C
p3950
aVSOJDCAO12AB018C0A8
p3951
aa(lp3952
VSOTNTAB12AB018F824
p3953
aVSOCPGZW12A8C132870
p3954
aVSOSZYUS12AB018AF4B
p3955
aVSOTGUPV12CF5F88023
p3956
aa(lp3957
VSOFSGFS12AB018549A
p3958
aVSOFLDBD12A8AE47E4C
p3959
aa(lp3960
VSODFKCJ12A8C136A26
p3961
aVSOCCATJ12AB0188DF7
p3962
aa(lp3963
VSOMCFCM12A8C142386
p3964
aVSOAIKTL12A58A7EA5A
p3965
aVSOKDONI12D021987B3
p3966
aa(lp3967
VSOCOHTY12AB018C0F5
p3968
aVSOILBRM12A81C2158F
p3969
aVSOOHVCD12A8C1330FF
p3970
aVSOJQFYK12AB018B5EC
p3971
aa(lp3972
VSOVBCQP12D02191E98
p3973
aVSOLNEGI12A6701CB8B
p3974
aVSOYKFER12A582918B0
p3975
aa(lp3976
VSOXOBUH12AB0183195
p3977
aVSOWHUPN12A6D4F7D50
p3978
aVSOOIYIH12AB017B43D
p3979
aVSOIAZXV12A6D4F9366
p3980
aa(lp3981
VSOSSRTI12A8C142B26
p3982
aVSOPUJIO12A6D4F7D67
p3983
aag150
ag154
ag157
a(lp3984
VSOXEMIT12A8C135FBC
p3985
aVSOUZFJI12AB018C801
p3986
aVSORSAVG12A6D4F7A39
p3987
aa(lp3988
VSOHXWVK12A8AE4728D
p3989
aVSOFKLAE12AB01873F6
p3990
aa(lp3991
VSOFFPYH12A8C13AD0D
p3992
aVSOAVCKG12A8C13FC5C
p3993
aa(lp3994
VSOLXGKI12A6D4F9754
p3995
aVSONNGDG12A8C140B1A
p3996
aa(lp3997
VSOKJELB12A8C141BAA
p3998
aVSOZBYWR12A8C133BC3
p3999
aag1740
ag1743
ag2993
ag2996
ag2999
ag194
ag198
ag202
ag2591
ag2595
ag2598
ag3085
ag3088
ag3092
ag2495
ag2504
ag946
ag952
ag955
ag2578
ag355
ag365
ag370
ag376
a(lp4000
VSOKPRDN12A67021A3B
p4001
aVSOIMAAD12AB017CE47
p4002
aVSORYHQK12A8C1366E0
p4003
aa(lp4004
VSOEELNN12AB018AC8D
p4005
aVSOLHNIL12AC9097A14
p4006
aVSOJVIJK12A8C13D0BD
p4007
aag1441
ag1450
ag1453
ag2665
ag1000
ag1004
ag1012
ag1648
ag2318
ag2324
ag2335
ag2923
ag2932
ag2936
ag2681
ag2688
ag2691
a(lp4008
VSOMPZOV12AB018B94A
p4009
aVSOPFGAC12AB018916C
p4010
aag2575
ag2099
ag2103
ag2106
ag2110
ag2352
ag2355
ag2361
ag3331
ag3334
ag3337
ag3342
ag3347
a(lp4011
VSORVAQE12A6D4F7A48
p4012
aVSOSSZYW12A8C13482C
p4013
aVSOMRWUD12A6D4FB4C4
p4014
aVSOUYWXC12A8C13951B
p4015
aVSODSLKP12D02198B80
p4016
aVSODHFGA12AB0181F27
p4017
aa(lp4018
VSOUAMUK12AB01897EC
p4019
aVSOQPGFK12A6D4F942B
p4020
aa(lp4021
VSOGOYBN12AF729FB22
p4022
aVSORVVMA12A6D4F830D
p4023
aVSOOSWUB12A6D4F74F3
p4024
aVSOPWIPJ12A8C14209F
p4025
aa(lp4026
VSOKCSDX12A8C1351C5
p4027
aVSOSNEUS12A58A7A530
p4028
aVSOAKXZH12A8C134590
p4029
aag3542
ag3547
ag3552
ag3557
a(lp4030
VSOTAWNJ12A8C13FEFC
p4031
aVSOJQCVF12D0219763F
p4032
aa(lp4033
VSOZYNLB12A6D4F6BF3
p4034
aVSOIRIOB12A8AE455E1
p4035
aVSONIJLQ12A6D4F7D51
p4036
aa(lp4037
VSOESBWM12A58A7D8D3
p4038
aVSOOBQZS12A58A7B9CB
p4039
aVSONRKMT12A8C14041E
p4040
aag2797
ag2801
ag2019
ag2024
ag2029
ag1895
ag1898
ag2222
ag2228
ag2231
ag2234
ag2239
ag1710
ag1640
ag1645
ag429
ag432
a(lp4041
VSOVCQWK12AB01866EE
p4042
aVSOLDVPD12AF729B92F
p4043
aVSOBSGVY12AB017F18C
p4044
aa(lp4045
VSOPGGLO12A8C142E4B
p4046
aVSODXBQS12AF72A1CA6
p4047
aVSOOTKKG12A8C142548
p4048
aa(lp4049
VSOMRLQY12A8C141544
p4050
aVSOXMMNK12A6310D7C3
p4051
aVSOYSAMP12A8C13D682
p4052
aag607
ag610
a(lp4053
VSOQNHXT12A58A7EAB2
p4054
aVSOBHVJA12A8C134509
p4055
aVSOHKKCY12A6701EC02
p4056
aag176
ag381
ag384
ag2867
ag2870
ag286
ag291
a(lp4057
VSOZMRKC12AB01807AE
p4058
aVSOFFPYH12A8C13AD0D
p4059
aVSOESIQD12AF72A3AD6
p4060
aVSOMJJKE12A6BD4D404
p4061
aVSORWOBC12AC468B77C
p4062
aVSOMJZVG12A8C13FD0A
p4063
aVSOOMTSM12D021B2372
p4064
aVSOHHNDC12A8C13224F
p4065
aa(lp4066
VSOSFJTW12A8C13311E
p4067
aVSODZJCH12A8C132ADC
p4068
aa(lp4069
VSODQGBL12A8C133C9B
p4070
aVSONLRZV12AB017F991
p4071
aa(lp4072
VSODEPJN12A8C143A69
p4073
aVSOALARH12AB0186CB6
p4074
aag35
ag39
ag42
ag45
ag294
ag299
ag303
ag306
ag775
ag778
ag781
ag789
ag793
ag3321
ag3324
ag3328
ag3381
ag3384
ag855
ag858
ag861
ag2033
ag273
ag276
ag280
ag283
ag3534
ag3537
ag317
ag3166
ag3169
ag1883
ag1886
ag1892
ag2943
ag2946
a(lp4075
VSOCDNQL12A8C13B678
p4076
aVSOASVIB12A8C139435
p4077
aag3082
ag3560
ag3572
a(lp4078
VSOKYVIY12A58A7F4C2
p4079
aVSOFMFXI12A6310DF3E
p4080
aa(lp4081
VSOYPTAZ12A6D4F5A09
p4082
aVSOYUOCO12AB0186034
p4083
aag1326
ag1329
ag1335
ag889
ag893
ag906
ag3450
ag2622
a(lp4084
VSORKTYO12A6D4F712F
p4085
aVSOLDZWV12A6701EFD1
p4086
aa(lp4087
VSOWLIHS12A58A7BB62
p4088
aVSOVYVIN12AB0180A76
p4089
aa(lp4090
VSORNUCK12A8C1433DC
p4091
aVSOFJOHF12AB0183CE8
p4092
aa(lp4093
VSOZAPQK12AB0180A72
p4094
aVSOOEVIA12A67AD8573
p4095
aag2422
ag2425
ag2428
ag2432
ag1280
ag1284
ag1291
ag1299
ag959
ag962
ag967
ag970
a(lp4096
VSOYYAQB12A6D4F91C0
p4097
aVSOQUOHV12A8C13FF29
p4098
aVSOQWBTN12A6701FDAB
p4099
aa(lp4100
VSOAYNQS12A58A7744E
p4101
aVSOTWGQZ12A6D4F9367
p4102
aag2706
ag2711
ag2718
ag3294
ag3297
ag3300
ag3303
ag3306
ag3274
ag1506
ag1509
ag1512
ag1516
ag1519
ag1522
ag572
a(lp4103
VSOMBUPK12AC46867BC
p4104
aVSOQSIUH12AB017FE13
p4105
aa(lp4106
VSOMBDHQ12A6D4FB804
p4107
aVSOUTNRU12A8C141526
p4108
aVSOAABQL12A67020E76
p4109
aag1398
ag1404
ag614
ag617
ag622
ag1772
ag1775
ag1780
a(lp4110
VSOTCLPA127CF890425
p4111
aVSOANAXD12A8C131EE5
p4112
aag348
ag351
ag21
ag26
ag2096
ag3053
ag3059
ag3063
ag3066
ag3069
a(lp4113
VSOJQCVF12D0219763F
p4114
aVSOHSAYJ12A8AE48A05
p4115
aVSOVBCQP12D02191E98
p4116
aVSOMNWYK12D021930A1
p4117
aVSOSNARG12AB0181739
p4118
aVSODJQUS12A6701D1D3
p4119
aVSOLIHVY12A8C13ED83
p4120
aVSOBTGNJ12A6D4F6E0F
p4121
aVSOKAAZF12AB018ABB2
p4122
aa(lp4123
VSOGRWVE12A8AE488B1
p4124
aVSOISMAR12AB018CB41
p4125
aVSOGYOJU12AF729D038
p4126
aag2634
ag2638
a(lp4127
VSOQRUUL12AB0180B58
p4128
aVSOQBXXW12AC39274D6
p4129
aag403
ag406
a(lp4130
VSOLTBXW12A67020B82
p4131
aVSOBWXBZ12AB01807A1
p4132
aVSOANAXD12A8C131EE5
p4133
aVSODYHXY12A8C14326D
p4134
aVSOXRLIZ12AB01831A5
p4135
aVSORSORV12A6D4F65C6
p4136
aa(lp4137
VSOLFLVK12AC3DF6B39
p4138
aVSOMUUYJ12A58A7877E
p4139
aa(lp4140
VSONBHFL12A6D4F7987
p4141
aVSOEVKFI12AB017F888
p4142
aag2585
ag566
ag1357
ag1360
ag1365
a(lp4143
VSOOICCF12A6701FBD3
p4144
aVSOFMHKW12A6D4F4F8B
p4145
aVSOJJFJV12A8C138C12
p4146
aVSOHVZPA12A8C13C813
p4147
aag1605
ag1609
ag1614
ag1617
a(lp4148
VSOYYCIV12A8C13883F
p4149
aVSOKAMXI12A8C144465
p4150
aa(lp4151
VSOBFMGD12A8C140849
p4152
aVSORNVJU12A58A7EC3E
p4153
aa(lp4154
VSOOZMHD12A8C144BF2
p4155
aVSOMBLQN12D0219333C
p4156
aVSOJDCAO12AB018C0A8
p4157
aa(lp4158
VSOTNTAB12AB018F824
p4159
aVSOCPGZW12A8C132870
p4160
aVSOSZYUS12AB018AF4B
p4161
aVSOTGUPV12CF5F88023
p4162
aa(lp4163
VSOFSGFS12AB018549A
p4164
aVSOFLDBD12A8AE47E4C
p4165
aag246
ag249
ag252
ag3439
ag3447
a(lp4166
VSOFDNON12A8C13FA3E
p4167
aVSOLISQK12A8C1416AF
p4168
aVSONJHQP12A6D4F5D8C
p4169
aa(lp4170
VSOFQEKD12A58A776F4
p4171
aVSOOOYVI12A8C146012
p4172
aVSOWTXBR12AB017CA8D
p4173
aVSOEMXRH12A58A7D0F9
p4174
aa(lp4175
VSOUINFV12A6D4F7DEB
p4176
aVSOVDCPG12AB0188F4F
p4177
aVSOEVJCY12A6D4FE836
p4178
aag2784
a(lp4179
VSOUFGAS12A58A7CBE2
p4180
aVSOSUIFT12A8C144ABE
p4181
aVSOKDONI12D021987B3
p4182
aa(lp4183
VSOFCVLP12AB017E87C
p4184
aVSOLNEGI12A6701CB8B
p4185
aVSOEWHHE12B350586B4
p4186
aa(lp4187
VSOGIAQB12A8C13B228
p4188
aVSOVSLWD12AB018380A
p4189
aVSOQHIWS12A6D4FBD8E
p4190
aVSOPZLKO12A6701FCF1
p4191
aVSOODECY12A8C131A57
p4192
aa(lp4193
VSOQFQKY12A8C137DA4
p4194
aVSOGHZVY12A6701DCAE
p4195
aa(lp4196
VSOUNWMS12AAF3B4CA7
p4197
aVSOKIUVE12A67AD7299
p4198
aVSOGUTDD12D021B22A6
p4199
aag1314
ag185
ag188
ag191
ag2483
ag2486
ag2791
ag2794
ag2546
ag2668
ag2671
a(lp4200
VSODIXCE12A67020E8E
p4201
aVSONUVQK12A67AD8559
p4202
aag2644
ag2649
ag2653
ag2656
ag2659
ag3277
ag3280
ag3290
ag3180
ag3185
ag3188
ag3192
a(lp4203
VSOKQIHY12A58A7BE6E
p4204
aVSODRRZO12A6D4F9A6D
p4205
aa(lp4206
VSOVEKQE12A6D4F6BF6
p4207
aVSOZZOMQ12A6D4FD696
p4208
aa(lp4209
VSOXHSGF12A6D4FDBCD
p4210
aVSOFVSZL12A58A7A6AA
p4211
aVSOIKEGE12AAF3B12E8
p4212
aag1758
ag1688
ag1691
ag1674
ag2735
a(lp4213
VSOGGWSY12A6D4F95F9
p4214
aVSOCSSQT12A8C13CD2E
p4215
aa(lp4216
VSOYJNEA12A8C13907F
p4217
aVSOMFLJD12A8C131BAD
p4218
aVSOVVXWK12A8C131ED7
p4219
aVSOECQHR12A8C135299
p4220
aag2608
ag2612
ag2617
ag1139
ag1145
ag2969
ag2976
ag973
ag976
ag986
ag989
a(lp4221
VSOSWUQW12AB018253D
p4222
aVSOXTGZU12AB017E3E6
p4223
aa(lp4224
VSODYEXW12A8C133C63
p4225
aVSONTMOC12AF729C1DE
p4226
aVSOCFESW12A8C145336
p4227
aVSODWTSP12A67AD855F
p4228
aag2403
ag2409
ag3471
ag3477
ag3480
ag3420
ag3423
ag3428
ag3431
a(lp4229
VSODYEXW12A8C133C63
p4230
aVSOWLOFV12AB017E8BF
p4231
aVSOTAWNJ12A8C13FEFC
p4232
aVSOZOECI12A8C13C3B7
p4233
aVSOJGMPE12A8C146014
p4234
aVSODLDUK12A8C1426B7
p4235
aVSOBSLLP12A6D4FA953
p4236
aVSOJRMFG12AB0188C75
p4237
aVSOQKSXV12A8C14075C
p4238
aVSOXRLIZ12AB01831A5
p4239
aa(lp4240
VSOZVRKO12AB0188D6C
p4241
aVSOYISYG12A6D4F8149
p4242
aVSOGWKCR12A6D4FBD7F
p4243
aVSOALYGD12AB0182E22
p4244
aVSOWFUBS12AB0182F74
p4245
aVSOVLJEB12A58A7B46D
p4246
aag2912
ag2919
a(lp4247
VSORUBPK12AB0187B8C
p4248
aVSOLUMQM12AB0188EF6
p4249
aa(lp4250
VSOBFDWJ12AB018B5E3
p4251
aVSOKQIHY12A58A7BE6E
p4252
aag411
ag420
ag2036
ag2043
ag2365
ag2376
ag2379
ag2382
a(lp4253
VSOXTSKV12A67ADA23D
p4254
aVSOMJOPO12A8C13A36A
p4255
aVSOOADJC12A8C130652
p4256
aa(lp4257
VSOWVVKB12A6D4F889E
p4258
aVSOPPCAE12A6701F592
p4259
aa(lp4260
VSOOFLTG12AB017DB27
p4261
aVSOALKBV12A6D4F6EE2
p4262
aVSOEQPFR12A8C13565C
p4263
aa(lp4264
VSONHGJX12A8C132CD3
p4265
aVSOZRPKH12AB0186A53
p4266
aa(lp4267
VSOCAPQV12A67021501
p4268
aVSOITEBY12A6D4F4800
p4269
aVSOJWBKG12A58A76977
p4270
aa(lp4271
VSOGKAWV12A6D4F889D
p4272
aVSOHDCZZ12A6D4F9835
p4273
aVSOCMGQH12CF5465276
p4274
aVSOWHUPN12A6D4F7D50
p4275
aa(lp4276
VSOZJFPU12A8C141BEE
p4277
aVSOFPIXQ12AB0181908
p4278
aVSOAOHTO12A58A79418
p4279
aVSONBHBZ12AB018778C
p4280
aa(lp4281
VSOHGMUP12A6D4FA2C9
p4282
aVSOAYJHJ12A8C137DC4
p4283
aVSOIWEYE12D02191C75
p4284
aag1462
a(lp4285
VSORMLCD12AF72AAAF5
p4286
aVSOPNPUU12A8C13F842
p4287
aVSOKQAZF12A81C204CE
p4288
aVSOZDWWW12AB017D028
p4289
aag799
ag810
ag80
ag2273
ag2280
ag509
ag516
ag520
ag3309
ag3312
ag3318
a(lp4290
VSOGXANU12AB01860FC
p4291
aVSOHUESZ12AB0183AFA
p4292
aa(lp4293
VSOBUJZV12AB017ACCB
p4294
aVSOGSYHF12A58A7AA2C
p4295
aa(lp4296
VSODXPFT12A58A7AD98
p4297
aVSOGAWVV12A6701C8D4
p4298
aVSOTAOAG12AB0186089
p4299
aa(lp4300
VSOEJHBX12A8C1381C6
p4301
aVSOFIBNH12A6BD55CF6
p4302
aa(lp4303
VSOSJXME12AB018019C
p4304
aVSOLGRHL12A8C13C29A
p4305
aVSOXZIBD12A8C130FEB
p4306
aa(lp4307
VSOQTJHJ12AB017F97D
p4308
aVSOPVFXW12A8C13C2D2
p4309
aa(lp4310
VSOBLKGC12A8C135ED6
p4311
aVSOEUSDI12AB0187C5F
p4312
aag3244
ag3250
ag3254
ag3260
ag3263
a(lp4313
VSOFGJIT12A6701C130
p4314
aVSOTXUCR12A58A7C415
p4315
aa(lp4316
VSOZNXDV12A58A78C3B
p4317
aVSOXZRLM12AB01817FF
p4318
aVSODWGUC12A6D4F8147
p4319
aVSOWTVNL12A58A7C44F
p4320
aVSORPTFW12A6701DD13
p4321
aa(lp4322
VSOIHCXN12A6D4F997E
p4323
aVSOLZRZT12A6D4F89F8
p4324
aa(lp4325
VSOIMVDF12AB0188E2E
p4326
aVSOXEWEF12AC4687FD0
p4327
aa(lp4328
VSODNMOT12AB018209E
p4329
aVSOVOARN12AB0183CDD
p4330
aa(lp4331
VSOWVRBQ12AB017FAE9
p4332
aVSOVMFOI12A81C21C57
p4333
aVSOOXMCB12A8C144428
p4334
aVSOQMTML12A58A7A909
p4335
aa(lp4336
VSOKTSLI12A67ADE3E0
p4337
aVSOBESPR12A8C140055
p4338
aVSOWNHJD12A8C14059B
p4339
aa(lp4340
VSOWFVAQ12AB0187A4F
p4341
aVSOHQLZR12AB017E540
p4342
aag1803
ag1208
ag1212
ag1215
ag2738
ag2741
ag2750
ag2753
ag2189
ag2193
ag2199
ag2203
ag2207
ag1707
a(lp4343
VSOEWMIM12A6D4F7982
p4344
aVSOBQZIJ12A6D4F9450
p4345
aa(lp4346
VSOBVWUO12AF729F6E7
p4347
aVSOMPUUC12A6701D708
p4348
aag120
ag123
ag128
ag132
ag135
ag141
ag144
ag3099
ag3103
ag1170
ag1177
ag1181
ag2489
ag2492
ag1275
a(lp4349
VSOAASUT12A8C13E8CD
p4350
aVSOMPCHB12A8C13475B
p4351
aVSOEKDPZ12A8AE47A0B
p4352
aVSOTNHUH12A8C13D23E
p4353
aVSOROBOC12AB0187D5D
p4354
aVSOUTOWI12A8C145A5F
p4355
aVSOUHQLA12A8C13C7D2
p4356
aVSOUAFNC12A8C1344E2
p4357
aa(lp4358
VSOPBQBH12A670212BA
p4359
aVSOKAAZF12AB018ABB2
p4360
aVSOHRIKL12AB0186468
p4361
aa(lp4362
VSOWAHPT12A8C13CCA0
p4363
aVSOLIHVY12A8C13ED83
p4364
aVSOZYNLB12A6D4F6BF3
p4365
aVSOFSHWK12A8C14106C
p4366
aVSOHDCZZ12A6D4F9835
p4367
aag2283
ag2286
ag2290
ag2294
ag1729
ag1732
ag1736
ag2662
a(lp4368
VSOFHSSI12A6D4FB3C5
p4369
aVSOAFWJK12A8C136FA2
p4370
aa(lp4371
VSOJQOZY12A67020932
p4372
aVSOSPVLB12AB0186C03
p4373
aa(lp4374
VSOYRWPN12A6D4FC432
p4375
aVSOGAAJG12A6701DFEF
p4376
aa(lp4377
VSOAIZVF12AB018529F
p4378
aVSOPMYFK12AB0183CAF
p4379
aVSOKZHEL12A8C141B2A
p4380
aag2443
ag626
ag631
ag634
ag643
ag646
ag524
ag528
ag531
a(lp4381
VSOKAAML12A6D4FA00D
p4382
aVSOQPGFK12A6D4F942B
p4383
aVSOBHSUL12A8C13A439
p4384
aVSOMOANH12A6D4F7A56
p4385
aa(lp4386
VSOWTDBV12A8C141F04
p4387
aVSOUPLEW12A58A7BCBB
p4388
aag1852
ag1857
ag1863
ag2879
ag2882
ag2887
ag1547
ag1550
ag1553
ag470
ag473
a(lp4389
VSOLCPEH12A6D4F9903
p4390
aVSOVACOU12AB0188CAD
p4391
aVSOKWRNL12A58A8162D
p4392
aag3015
a(lp4393
VSOLPJUV12A58A7A587
p4394
aVSOVBBZR12AB017F913
p4395
aVSOTMPUJ12A8C137113
p4396
aVSODQVKH12AB017FD5E
p4397
aVSOSNARG12AB0181739
p4398
aa(lp4399
VSOACQHA12A8C143257
p4400
aVSOGMTBB12A58A759EC
p4401
aa(lp4402
VSOYMCQU12A6D4F6FC8
p4403
aVSOKQIHY12A58A7BE6E
p4404
aag2703
a(lp4405
VSONSVHE12AB0188665
p4406
aVSOOXOGZ12AB0184526
p4407
aVSOMXMAC12A8C1363C0
p4408
aVSOITEBY12A6D4F4800
p4409
aVSOAIKKF12A8C135FF5
p4410
aVSOMZKCF12A8C1432B0
p4411
aVSOZJEAW12A58A761DB
p4412
aa(lp4413
VSOYSHLF12A58A7CFBA
p4414
aVSOOIYIH12AB017B43D
p4415
aVSOHSRQP12AB018B60F
p4416
aVSOHIUEC12AB017F9A7
p4417
aVSOOSORU12A8C142DC1
p4418
aa(lp4419
VSOTACHP12A67021B35
p4420
aVSOMBLQN12D0219333C
p4421
aVSOKVTPS12A8C135096
p4422
aVSOFLZQI12AB018908E
p4423
aag706
ag709
ag243
a(lp4424
VSOSNTMO12A6D4FAB35
p4425
aVSOXAXAB12A6D4F7130
p4426
aa(lp4427
VSOMZIQI12AB017F9B8
p4428
aVSORZPQS12A58A7B4C8
p4429
aa(lp4430
VSOUKKWU12A8C142687
p4431
aVSODFYCF12A58A7A6BA
p4432
aVSORHCVD12AB01853FC
p4433
aVSOWKKXI12AC468A91E
p4434
aVSOZGZQR12AB017DCA9
p4435
aa(lp4436
VSOSZULY12AC468B3DE
p4437
aVSOIVPIT12A6D4F9128
p4438
aVSOKLEUD12AB0186A1C
p4439
aVSOHGTGF12AB017E508
p4440
aVSOXKVQM12A8C1423EF
p4441
aVSOSVRYL12CF5CFADC6
p4442
aa(lp4443
VSOODTPL12AB01828C5
p4444
aVSOPLIRG12A6310D796
p4445
aVSOTOCAD12A6701DE00
p4446
aa(lp4447
VSOLYLOO12A8AE45876
p4448
aVSOAHNNT12A8C1435D7
p4449
aVSOFJGFF12AB0187682
p4450
aVSOLAZNJ12A67020E6A
p4451
aVSOIEXBM12A8C14377E
p4452
aVSOFNYHF12AB01869D1
p4453
aa(lp4454
VSOUYDQJ12A8C140FA8
p4455
aVSOKNOTN12AB0183CC3
p4456
aVSOCFQKV12A8C14074E
p4457
aa(lp4458
VSOZJOOI12A8C13C717
p4459
aVSOLOCZW12AB018B623
p4460
aa(lp4461
VSONSTMR12D021B40A3
p4462
aVSOATHZV12A58A788DA
p4463
aa(lp4464
VSOVHIIY12A58A7A606
p4465
aVSOFKDTM12A67ADAC5F
p4466
aVSOKHRYZ12A58A79F24
p4467
aVSOJYNTZ12A81C21A0A
p4468
aa(lp4469
VSOBGMVL12A58533A32
p4470
aVSOAIKKF12A8C135FF5
p4471
aVSOVATSC12AB01797B3
p4472
aVSOXPHNN12A8C13F655
p4473
aVSOITKRJ12A58A7F04F
p4474
aVSOCDROK12A67ADD6BE
p4475
aag2454
ag2457
ag1678
ag1681
a(lp4476
VSOYSAJA12A670214CF
p4477
aVSOMYGDY12A6310F1C3
p4478
aVSOFGNYY12AF72A6AC4
p4479
aVSOHHGPF12A6701FC3A
p4480
aa(lp4481
VSOWOWZP12A6D4F8A73
p4482
aVSOEVEJT12A8C13B858
p4483
aVSOPYTXS12A6D4FD4A1
p4484
aag1244
ag1249
ag1253
ag3453
ag3459
ag3468
ag1467
ag1470
a(lp4485
VSOQTOMH12A6D4FCD0D
p4486
aVSOBHAVZ12A8C137BC2
p4487
aa(lp4488
VSOCROIQ12A6D4F6469
p4489
aVSOREPVL12A8C13F02B
p4490
aa(lp4491
VSOKRDOK12A8AE47D4E
p4492
aVSODHFGA12AB0181F27
p4493
aa(lp4494
VSOBGKYO12A8AE45638
p4495
aVSODXFAE12A6D4F9BF9
p4496
aVSOZXOGL12A8C1416A0
p4497
aa(lp4498
VSODQUOT12A8C13543D
p4499
aVSORARXV12A8C133D77
p4500
aVSOLLZSX12A8C13C355
p4501
aag309
ag313
ag1494
ag1502
ag2757
ag2760
ag2764
ag2463
ag2466
ag2470
ag1668
a(lp4502
VSOAGRTS12A8C13B86B
p4503
aVSORQVWO12A3F1EAB4A
p4504
aVSOGPYBC12A6D4F8EA1
p4505
aag3484
ag3487
a(lp4506
VSOZHGHN12AB018C967
p4507
aVSOCRDNB12AB0185CAE
p4508
aVSOQZSNY12AB0184DB0
p4509
aag1761
ag1764
ag1769
a(lp4510
VSOJMBIC12A6D4F6938
p4511
aVSONSCAW12A679CF222
p4512
aa(lp4513
VSOMNWYK12D021930A1
p4514
aVSONBKAJ12A8C13D2CF
p4515
aa(lp4516
VSOBZMOI12A8AE4827F
p4517
aVSOLVTJP12A6D4F7670
p4518
aa(lp4519
VSOPZANB12AF72A8FA4
p4520
aVSOCTQCK12A58A7B8B1
p4521
aa(lp4522
VSONSTMR12D021B40A3
p4523
aVSOMQQUD12A8C14230B
p4524
aVSOZIJBU12AB017E41F
p4525
aag821
ag826
ag832
ag2061
ag2064
ag2067
aa(lp4526
g2849
ag2853
ag2858
ag2861
ag1846
ag1849
ag2273
ag2280
ag585
ag589
ag594
a(lp4527
VSODSDRR12A8C1367A1
p4528
aVSOMFZCC12A67020A11
p4529
aag815
ag1280
ag1284
ag1291
ag1299
ag1056
ag4057
ag4066
ag4069
ag4072
ag4381
ag4386
ag1244
ag1249
ag1253
ag2826
ag2832
ag2836
ag2840
ag2843
ag2846
ag29
ag32
ag1539
ag1542
ag3704
ag3708
ag3712
ag3716
ag2879
ag2882
ag2887
ag1467
ag1470
ag1227
ag1236
ag1239
ag865
ag868
ag871
ag876
ag879
ag1662
ag1410
ag1413
ag1417
ag1059
ag1063
ag4096
ag4100
ag3490
ag3497
ag3502
ag1729
ag1732
ag1736
ag1986
ag1989
ag1992
ag1995
ag1999
ag1130
ag1133
ag1136
ag4041
ag4045
ag4049
ag2245
ag2248
ag2255
ag1623
ag1626
ag4127
ag3141
ag3148
ag3155
ag338
ag341
ag345
ag4113
ag4123
ag2797
ag2801
ag3
ag7
ag12
ag17
ag1678
ag1681
ag1746
ag1749
ag1752
ag1755
ag2575
ag246
ag249
ag252
ag470
ag473
ag3918
ag3921
ag3924
ag3927
ag2058
ag4148
ag4151
ag4154
ag4158
ag4163
ag163
ag166
ag169
ag173
ag1710
ag4331
ag4336
ag4340
ag996
ag2735
ag411
ag420
ag1772
ag1775
ag1780
ag1170
ag1177
ag1181
ag185
ag188
ag191
ag2125
ag818
ag4084
ag4087
ag4090
ag4093
a(lp4530
VSOQIBJI12AB018D71E
p4531
aVSOPOMRR12A6D4FB68D
p4532
aVSOGHQLH12A6D4F7D5C
p4533
aa(lp4534
VSOBCVCU12AB01827A3
p4535
aVSOMJVCW12A8AE45581
p4536
aVSOXYQEJ12AB0184B62
p4537
aag2665
ag4290
ag4293
ag4296
ag294
ag299
ag303
ag306
ag3351
ag3356
ag4247
ag4250
ag4485
ag2002
ag2006
ag2011
ag1652
ag1657
ag2588
ag317
ag2662
ag309
ag313
ag243
ag1139
ag1145
ag992
ag1369
ag1376
ag4405
ag4413
ag4419
ag4000
ag4004
ag2070
ag2073
ag2061
ag2064
ag2067
ag1392
ag1395
ag2560
ag2565
a(lp4538
VSOUAFNC12A8C1344E2
p4539
aVSOIEHXP12A8C139271
p4540
aa(lp4541
VSOZWJEP12A6310E1F5
p4542
aVSODFKCJ12A8C136A26
p4543
aa(lp4544
VSOWPKOG12AB01897FD
p4545
aVSORDMEA12A8C143164
p4546
aVSOUFABE12A6701CFFF
p4547
aag2264
ag2268
ag1950
ag1956
ag1962
ag1868
ag1871
ag1877
ag1880
ag4053
ag3534
ag3537
ag2768
ag2771
ag2443
ag1494
ag1502
ag4371
ag4374
ag4377
ag2304
ag2307
ag550
ag553
ag557
ag563
ag2979
ag2982
ag2987
ag2608
ag2612
ag2617
ag3099
ag3103
ag1575
ag1580
ag1586
ag1740
ag1743
ag381
ag384
ag2352
ag2355
ag2361
ag3377
ag4458
ag4461
ag1903
ag1326
ag1329
ag1335
a(lp4548
VSOMAWFY12A6D4F798B
p4549
aVSOSKMMY12A8C144428
p4550
aVSOFIUPM12A8C1329B8
p4551
aVSOQKSXV12A8C14075C
p4552
aVSOWLOFV12AB017E8BF
p4553
aVSONVTRV12A8C140FF3
p4554
aVSOOKXYY12A58A7812A
p4555
aVSOSWFXR12A8C1433E4
p4556
aVSOKISIH12AB0188610
p4557
aVSONSTMR12D021B40A3
p4558
aVSOUOEML12A8C135884
p4559
aVSOFNJAM12A8C13C5CB
p4560
aVSOKAAZF12AB018ABB2
p4561
aVSOBSOAS12A58A76FC6
p4562
aVSOAIKTL12A58A7EA5A
p4563
aa(lp4564
VSOEVKFI12AB017F888
p4565
aVSODOUYN12AB01811AE
p4566
aVSOKNKAX12A6D4F9DD1
p4567
aVSOGVNAR12AB0187914
p4568
aVSOBFSLR12A8C132F14
p4569
aag1117
ag1120
ag1123
ag1045
ag1049
ag1053
ag4196
ag959
ag962
ag967
ag970
ag2081
ag2088
ag3331
ag3334
ag3337
ag3342
ag3347
ag4200
ag403
ag406
ag3002
ag3006
ag3009
ag3012
ag98
ag101
ag104
ag108
ag112
ag1398
ag1404
ag855
ag858
ag861
ag4502
ag1208
ag1212
ag1215
ag2867
ag2870
a(lp4570
VSOUINFV12A6D4F7DEB
p4571
aVSOJAZHR12A8C139401
p4572
aag727
ag730
ag733
ag3791
ag3794
ag3797
ag3800
a(lp4573
VSOKCIQR12A58A7DB94
p4574
aVSOHKJCJ12A6D4F601C
p4575
aVSOSOMWG12CF530D54E
p4576
aa(lp4577
VSOWZBPI12A8C13E76C
p4578
aVSOVHTBG12AF729EB93
p4579
aag3294
ag3297
ag3300
ag3303
ag3306
ag821
ag826
ag832
ag2591
ag2595
ag2598
ag3085
ag3088
ag3092
ag2969
ag2976
ag4313
ag4316
ag4213
ag1108
ag1113
ag714
ag717
ag721
a(lp4580
VSOHUUSX12AB017E37C
p4581
aVSOBGPSK12A679CF223
p4582
aa(lp4583
VSOCPSWP12A670214F2
p4584
aVSORRMAU12AB0185D11
p4585
aag3782
ag3786
ag35
ag39
ag42
ag45
ag4253
ag3745
ag843
ag3803
ag3807
ag3811
ag3814
ag607
ag610
ag4021
ag4026
ag3578
ag3582
ag3586
ag429
ag432
ag3309
ag3312
ag3318
ag3883
ag3890
ag3893
ag3897
ag3900
ag3904
ag2403
ag2409
ag147
ag3560
ag3572
ag1380
ag1386
ag1917
ag1920
ag80
ag1422
ag1425
ag1431
ag1435
ag1438
ag4476
ag4481
ag273
ag276
ag280
ag283
ag176
a(lp4586
VSOGKLSB12B0B807E68
p4587
aVSOEOHUD12A8C142C4E
p4588
aa(lp4589
VSOXHWVY12AB017CC83
p4590
aVSOZEILI12A8AE48B71
p4591
aVSORGDVZ12AB017D2A5
p4592
aVSOKFKYV12A81C21830
p4593
aVSOFYPIA12AB018C167
p4594
aVSOCONZS12A6D4F7E03
p4595
aa(lp4596
VSOUBEMJ12A58A79B6C
p4597
aVSOGZSAF12AB018BE50
p4598
aVSOVMTIG12A670212B5
p4599
aag2510
ag2513
ag2516
ag1761
ag1764
ag1769
ag2668
ag2671
ag1648
ag150
ag154
ag157
ag267
ag270
a(lp4600
VSOHKJDI12AB01808C1
p4601
aVSOCFCLI12AB0186EAA
p4602
aag524
ag528
ag531
ag3670
ag3673
ag3679
ag973
ag976
ag986
ag989
ag2222
ag2228
ag2231
ag2234
ag2239
ag3852
ag3855
ag2446
ag2449
ag4008
ag1089
ag1092
ag1095
ag889
ag893
ag906
ag2806
ag2816
ag1357
ag1360
ag1365
ag2965
ag1640
ag1645
ag4285
ag2644
ag2649
ag2653
ag2656
ag2659
ag355
ag365
ag370
ag376
ag694
ag698
ag3166
ag3169
ag928
ag932
ag935
ag939
ag943
ag1688
ag1691
ag846
ag849
ag852
ag4368
ag1965
ag685
ag688
ag2903
ag1784
ag1788
ag1792
ag1795
ag1800
ag1528
ag1531
ag1534
ag1941
ag1944
ag1947
ag3233
ag3241
ag4143
a(lp4603
VSOLYQUS12A58A76A30
p4604
aVSOZRFIV12A8C140D13
p4605
aa(lp4606
VSOACFGN12A8C145429
p4607
aVSONMHUG12A6D4FB1CF
p4608
aVSOQFOIO12D021B0EEB
p4609
aVSOESZWF12A6D4FDB99
p4610
aa(lp4611
VSORVAQE12A6D4F7A48
p4612
aVSOMNGJR12A8C1324A3
p4613
aVSOZAWWB12A58A7C1C5
p4614
aag2681
ag2688
ag2691
ag2706
ag2711
ag2718
ag4179
ag4183
ag4187
ag4193
ag4349
ag4358
ag4362
ag2413
ag2417
ag4464
ag4469
ag387
ag4030
ag4033
ag4037
ag1758
ag4506
ag231
ag234
ag238
ag460
ag463
ag467
ag1275
ag535
ag799
ag810
ag2622
ag3277
ag3280
ag3290
a(lp4615
VSOIRQGO12A8C1357E4
p4616
aVSOHRIKL12AB0186468
p4617
aa(lp4618
VSOOCAUT12AB0183281
p4619
aVSOANAXD12A8C131EE5
p4620
aag4510
ag4513
ag4516
ag4519
ag4522
ag481
ag2993
ag2996
ag2999
ag3180
ag3185
ag3188
ag3192
ag1895
ag1898
ag1185
ag1188
ag1195
ag1199
ag1202
ag1205
ag2694
ag2697
ag2700
ag3135
ag3138
ag3720
ag3724
ag3727
ag2096
ag1304
ag1307
ag1311
ag3932
ag3118
ag3123
ag3126
ag3129
ag3683
ag3687
ag3690
ag1148
ag1151
ag1154
ag1158
ag1164
ag2912
ag2919
ag2791
ag2794
ag1082
ag1085
ag2483
ag2486
ag2703
ag1674
ag1102
ag1105
a(lp4621
VSOFPKMG12A6D4F7801
p4622
aVSOPLIRG12A6310D796
p4623
aa(lp4624
VSOJQFYK12AB018B5EC
p4625
aVSOROCYE12A58A7AB5D
p4626
aa(lp4627
VSOJXVFW12CF5F86A85
p4628
aVSOKOHLU12A6701E10E
p4629
aa(lp4630
VSOFIBNH12A6BD55CF6
p4631
aVSOOXSQV12A58A7C140
p4632
aVSOXZIBD12A8C130FEB
p4633
aa(lp4634
VSODUVWD12A8C13FBF5
p4635
aVSOCOHTY12AB018C0F5
p4636
aVSOBDAQQ12A6D4FA04F
p4637
aa(lp4638
VSOOUAWR12AB0184A1E
p4639
aVSOVASNS12A8C13884B
p4640
aVSOLOCZW12AB018B623
p4641
aa(lp4642
VSOZJEAW12A58A761DB
p4643
aVSOGUZVN12A8AE46A53
p4644
aVSOFEHLW12AB0186CDB
p4645
aVSOQLIVK12AB01807DA
p4646
aag3589
ag3592
ag2546
ag3509
ag3513
ag3517
ag3522
ag3527
ag4491
ag4494
ag4498
ag1832
ag1835
ag1838
ag1842
ag3222
ag3226
ag3230
ag2099
ag2103
ag2106
ag2110
ag490
ag501
ag2177
ag2181
ag2186
ag3659
ag3662
ag3667
ag509
ag516
ag520
ag706
ag709
ag2757
ag2760
ag2764
a(lp4647
VSOVPZPI12AF729F7E1
p4648
aVSOVIUNE12A8AE4561D
p4649
aa(lp4650
VSOEBZKY12A6310D82A
p4651
aVSOPTORR12A6D4FA00C
p4652
aVSORZYRR12A8C139737
p4653
aVSOXKHPH12A6701C50C
p4654
aa(lp4655
VSOFGSPL12A6D4F755A
p4656
aVSOJRCWE12A6701BED0
p4657
aa(lp4658
VSOSFVPN12A6D4F92ED
p4659
aVSOSSZBN12A6D4FD111
p4660
aVSODTYKF12A8C133CFF
p4661
aVSOWHRLR12AB017B4C9
p4662
aag3732
ag3736
ag3740
ag3244
ag3250
ag3254
ag3260
ag3263
ag264
ag2033
ag542
ag546
ag1668
ag4130
ag4137
ag4140
ag3218
ag227
ag946
ag952
ag955
ag650
a(lp4663
VSOSNTUU12A6D4F971D
p4664
aVSOLMLGN12A6D4F9107
p4665
aVSOJQCVF12D0219763F
p4666
aVSODQGBL12A8C133C9B
p4667
aVSOXYHSF12A8C13E1CD
p4668
aa(lp4669
VSOFIUPM12A8C1329B8
p4670
aVSOXJLMW12A58A7CFE9
p4671
aa(lp4672
VSOKAAZF12AB018ABB2
p4673
aVSOINTRI12AB0183A90
p4674
aa(lp4675
VSOZLRTP12A6D4FA495
p4676
aVSOJPVCB12A8C138914
p4677
aVSOFQSJW12A6BD4E0AD
p4678
aVSOHSAYJ12A8AE48A05
p4679
aVSOFQJMB12A8C13558A
p4680
aVSODIOXK12A8C1315C1
p4681
aa(lp4682
VSOGLWDQ12AB018139E
p4683
aVSOFPFMC12AB0186E63
p4684
aVSONRVTI12AC46860AF
p4685
aVSOSTLLM12A81C21647
p4686
aVSOOGYIH12A6310D81F
p4687
aVSOTNUDZ12AB018862F
p4688
aVSOTRGIU12AC9097D35
p4689
aVSOOMHNV12AB017F644
p4690
aVSOGZDHA12A6D4F9A07
p4691
aVSOMMCZT12A8C142B24
p4692
aVSOPSBWY12A8C142BFC
p4693
aag1506
ag1509
ag1512
ag1516
ag1519
ag1522
ag504
a(lp4694
VSODOUYN12AB01811AE
p4695
aVSOGKBTR12AC468D871
p4696
aa(lp4697
VSOMLNPL12A6D4F9CE8
p4698
aVSOUQNRH12A679D8ABC
p4699
aVSOVEDFD12A8C13E6F1
p4700
aa(lp4701
VSOFLDKH12A670201FE
p4702
aVSOKCNLH12A67ADD6EB
p4703
aag676
ag679
ag682
ag391
ag397
ag400
ag4424
ag4427
ag1684
ag1459
ag736
ag739
ag742
ag1695
ag1700
ag1704
ag1929
ag1932
ag1935
ag1938
ag2473
ag2478
ag2092
ag3984
ag3988
ag3991
ag3994
ag3997
ag4430
ag4436
ag4443
ag4447
ag4454
ag745
ag1605
ag1609
ag1614
ag1617
ag4075
ag1075
ag1078
a(lp4704
VSODDYZR12A67ADAC6A
p4705
aVSOXAERY12A81C216F4
p4706
aa(lp4707
VSOPPJKR12A58A7F60B
p4708
aVSOTRVWY12AB0186234
p4709
aag179
ag1475
ag1478
ag1483
ag1486
ag1490
ag2019
ag2024
ag2029
ag2036
ag2043
ag3321
ag3324
ag3328
ag626
ag631
ag634
ag643
ag646
ag753
ag756
ag759
ag765
ag1000
ag1004
ag1012
ag3034
ag3041
ag3046
ag3050
ag3420
ag3423
ag3428
ag3431
a(lp4710
VSORRDBX12A8C1381BC
p4711
aVSOWHJCR12A6D4FAC71
p4712
aVSOJPVCB12A8C138914
p4713
aa(lp4714
VSOLEPED12AB01830FD
p4715
aVSOACEJK12A8C136E19
p4716
aa(lp4717
VSOJCBCF12AB0186756
p4718
aVSOGEPBI12A6D4F9742
p4719
aa(lp4720
VSOQCQXB12AAA15D764
p4721
aVSOQJXBM12AB01883A6
p4722
aVSOSPWRB12A6701E8BA
p4723
aVSOKDKSL12A6701D460
p4724
aa(lp4725
VSOJQFYK12AB018B5EC
p4726
aVSOKWPSN12AF72A1240
p4727
aVSOAIKTL12A58A7EA5A
p4728
aVSOGJEAH12AB0188EF7
p4729
aag2489
ag2492
ag3439
ag3447
ag3450
ag1098
ag2165
ag2168
ag2171
ag2174
ag4300
ag4303
ag4307
ag4310
ag2581
ag2211
ag2215
ag2218
ag3274
ag566
ag4257
ag4260
ag4264
ag4267
ag4271
ag4276
ag4281
ag206
ag211
ag214
ag217
ag2463
ag2466
ag2470
ag2784
ag1020
ag1023
ag1026
ag2365
ag2376
ag2379
ag2382
ag576
ag582
ag3858
ag3861
ag3864
ag3404
ag3412
ag3643
ag3646
ag3650
ag2283
ag2286
ag2290
ag2294
ag4389
ag255
ag261
ag4203
ag4206
ag4209
ag3161
ag3015
ag1314
ag1906
ag1909
ag1913
ag539
ag2318
ag2324
ag2335
ag2585
ag2189
ag2193
ag2199
ag2203
ag2207
ag691
aa(lp4730
g1648
ag1280
ag1284
ag1291
ag1299
ag4548
ag4564
ag3618
ag3621
ag3625
ag3629
ag3632
ag3635
ag2520
ag2525
ag1740
ag1743
ag815
ag3180
ag3185
ag3188
ag3192
ag3803
ag3807
ag3811
ag3814
ag4213
ag355
ag365
ag370
ag376
ag4313
ag4316
ag4368
ag3141
ag3148
ag3155
ag4290
ag4293
ag4296
ag4229
ag4240
ag3166
ag3169
ag1965
ag1821
ag1824
ag1828
ag3034
ag3041
ag3046
ag3050
ag4247
ag4250
ag2437
ag2440
ag3542
ag3547
ag3552
ag3557
ag2495
ag2504
ag2634
ag2638
ag194
ag198
ag202
ag1917
ag1920
ag267
ag270
ag381
ag384
ag1304
ag1307
ag1311
ag227
ag524
ag528
ag531
ag3509
ag3513
ag3517
ag3522
ag3527
ag4300
ag4303
ag4307
ag4310
ag1772
ag1775
ag1780
ag80
ag585
ag589
ag594
ag3942
ag3945
ag3948
ag3952
ag3957
ag2070
ag2073
ag2819
ag2823
ag1710
ag655
ag663
ag668
ag3534
ag3537
ag769
ag772
ag1556
ag1564
ag1571
ag3643
ag3646
ag3650
ag3053
ag3059
ag3063
ag3066
ag3069
ag2002
ag2006
ag2011
ag1729
ag1732
ag1736
ag4285
ag2940
ag4057
ag4066
ag4069
ag4072
ag4322
ag4325
ag4328
ag246
ag249
ag252
ag4000
ag4004
ag3659
ag3662
ag3667
ag2081
ag2088
ag1139
ag1145
ag3099
ag3103
ag4580
ag4583
ag2585
ag429
ag432
ag4491
ag4494
ag4498
ag231
ag234
ag238
ag4710
ag4714
ag4717
ag4720
ag4725
ag1170
ag1177
ag1181
a(lp4731
VSOWHUPN12A6D4F7D50
p4732
aVSOQHCFT12A8BEEEB3F
p4733
aa(lp4734
VSOLIHVY12A8C13ED83
p4735
aVSOBYCGK12AB0180D47
p4736
aVSOZYNLB12A6D4F6BF3
p4737
aVSOZPTPT12A679AE5A0
p4738
aa(lp4739
VSOQFWTV12AB017EC81
p4740
aVSOMOTXO12A6701D279
p4741
aag1528
ag1531
ag1534
ag2662
ag2965
ag1852
ag1857
ag1863
ag4030
ag4033
ag4037
ag484
ag487
ag2578
ag3161
ag4103
ag4106
ag1695
ag1700
ag1704
ag3351
ag3356
ag4458
ag4461
ag2058
ag3670
ag3673
ag3679
ag2849
ag2853
ag2858
ag2861
ag1605
ag1609
ag1614
ag1617
ag1218
ag1221
ag1224
ag481
a(lp4742
VSOZUSMF12A8C139D90
p4743
aVSOFWNCU12AB01805B1
p4744
aVSOLRIGA12A8C1413F8
p4745
aVSOKSJYP12A6D4FADC5
p4746
aVSOHCGNH12AF72A485D
p4747
aVSOVSSKU12A8AE48BFB
p4748
aVSOMRWUD12A6D4FB4C4
p4749
aag1623
ag1626
ag2365
ag2376
ag2379
ag2382
ag3932
ag1320
ag1323
ag2546
ag2681
ag2688
ag2691
ag1506
ag1509
ag1512
ag1516
ag1519
ag1522
ag2413
ag2417
ag889
ag893
ag906
ag51
ag56
ag59
ag65
ag68
ag71
ag74
ag77
ag4424
ag4427
ag2352
ag2355
ag2361
ag4600
ag1326
ag1329
ag1335
ag3578
ag3582
ag3586
ag411
ag420
ag2622
ag2757
ag2760
ag2764
ag1868
ag1871
ag1877
ag1880
ag3846
ag3849
ag2703
ag1475
ag1478
ag1483
ag1486
ag1490
ag4381
ag4386
ag1895
ag1898
ag928
ag932
ag935
ag939
ag943
ag4203
ag4206
ag4209
ag3294
ag3297
ag3300
ag3303
ag3306
ag855
ag858
ag861
ag120
ag123
ag128
ag132
ag135
ag141
ag144
ag1340
ag1345
ag1348
ag1351
ag1354
ag550
ag553
ag557
ag563
ag3858
ag3861
ag3864
ag2879
ag2882
ag2887
ag243
ag2912
ag2919
ag387
ag3321
ag3324
ag3328
ag490
ag501
ag391
ag397
ag400
ag4110
ag1784
ag1788
ag1792
ag1795
ag1800
ag3439
ag3447
ag264
ag504
ag273
ag276
ag280
ag283
ag3118
ag3123
ag3126
ag3129
ag3277
ag3280
ag3290
ag2806
ag2816
ag1941
ag1944
ag1947
ag846
ag849
ag852
a(lp4750
VSOZZZOV12A6D4F6812
p4751
aVSOUUUDL12A6D4F6813
p4752
aVSOKBJOE12A58A7AB7A
p4753
aVSOQEPOG12A6D4F9F5A
p4754
aa(lp4755
VSOWJVKO12AB017F614
p4756
aVSOUGBCP12A58A7B8F3
p4757
aVSOKWKBB12AB017F5D2
p4758
aVSOQLZXJ12A6D4F63CA
p4759
aVSOILIMQ12AB0188483
p4760
aVSODZQPF12A6D4F971A
p4761
aa(lp4762
VSOIHFAK12A6D4F9F79
p4763
aVSOKVSAG12AAA8C597F
p4764
aag1380
ag1386
ag3222
ag3226
ag3230
ag2141
ag2146
ag2152
ag2156
ag2162
ag4393
ag4399
ag4402
ag176
ag576
ag582
ag2581
ag2283
ag2286
ag2290
ag2294
ag3560
ag3572
ag3981
ag4586
ag4589
ag4596
ag3270
ag3404
ag3412
ag4166
ag4170
ag4175
ag2386
ag2390
ag2398
ag1668
ag1029
ag1032
ag1037
ag1040
ag2943
ag2946
ag470
ag473
ag2454
ag2457
ag4506
ag1098
ag694
ag698
ag1059
ag1063
ag2608
ag2612
ag2617
ag3683
ag3687
ag3690
ag3015
ag3109
ag3114
ag4127
ag1688
ag1691
ag4053
ag2591
ag2595
ag2598
ag1075
ag1078
ag1906
ag1909
ag1913
ag3596
ag3602
ag3605
ag3610
ag3614
a(lp4765
VSOEUQCA12A67020E8A
p4766
aVSOYYNCP12A6D4FAD8D
p4767
aag1102
ag1105
ag435
ag438
ag451
ag2463
ag2466
ag2470
ag2923
ag2932
ag2936
ag2211
ag2215
ag2218
ag4510
ag4513
ag4516
ag4519
ag4522
ag1259
ag1262
ag1265
ag1272
ag1674
ag2867
ag2870
a(lp4768
VSORIJTB12A58A7A701
p4769
aVSOOHDKW12A8C13B6D7
p4770
aVSOYSCYH12AB0182F87
p4771
aVSODQWZA12A8C1380A5
p4772
aa(lp4773
VSOIOGJV12AF729DBA4
p4774
aVSOUHTWB12A8C13BA4D
p4775
aag3082
ag2993
ag2996
ag2999
ag2528
ag2534
ag2539
ag676
ag679
ag682
ag3791
ag3794
ag3797
ag3800
ag4349
ag4358
ag4362
ag2304
ag2307
ag753
ag756
ag759
ag765
ag4196
ag2222
ag2228
ag2231
ag2234
ag2239
ag4084
ag4087
ag4090
ag4093
ag3960
ag3963
ag3967
ag3972
ag3976
ag2264
ag2268
ag4502
ag185
ag188
ag191
ag1761
ag1764
ag1769
ag3760
ag3763
ag3769
ag3779
ag1539
ag1542
ag348
ag351
ag3471
ag3477
ag3480
ag535
ag2061
ag2064
ag2067
ag799
ag810
ag3817
ag3820
ag3833
ag3836
ag3842
ag1148
ag1151
ag1154
ag1158
ag1164
ag650
ag4488
ag706
ag709
ag4603
ag4606
ag4611
ag1575
ag1580
ag1586
ag2797
ag2801
ag150
ag154
ag157
ag818
ag4476
ag4481
ag3720
ag3724
ag3727
ag3018
ag3021
ag3024
ag3027
ag3030
ag3490
ag3497
ag3502
ag714
ag717
ag721
ag3909
ag3914
ag4663
ag4669
ag4672
ag4675
ag4682
ag2036
ag2043
ag1903
ag4615
ag4618
ag2273
ag2280
ag1494
ag1502
ag4021
ag4026
ag2665
ag4221
ag4224
ag2422
ag2425
ag2428
ag2432
ag2560
ag2565
ag3309
ag3312
ag3318
ag1684
ag673
ag1640
ag1645
ag2694
ag2697
ag2700
ag539
ag3704
ag3708
ag3712
ag3716
ag2403
ag2409
ag4573
ag4577
ag2768
ag2771
ag3085
ag3088
ag3092
ag4096
ag4100
ag1746
ag1749
ag1752
ag1755
ag1244
ag1249
ag1253
ag4216
ag255
ag261
ag2165
ag2168
ag2171
ag2174
ag1620
ag3381
ag3384
ag2019
ag2024
ag2029
ag4113
ag4123
ag775
ag778
ag781
ag789
ag793
ag3453
ag3459
ag3468
ag597
ag600
ag603
ag1846
ag1849
ag2177
ag2181
ag2186
ag1275
ag322
ag325
ag328
ag331
ag334
ag147
ag2549
ag2553
ag2557
ag4694
ag4697
ag4701
ag1185
ag1188
ag1195
ag1199
ag1202
ag1205
ag509
ag516
ag520
ag3852
ag3855
ag3782
ag3786
ag3002
ag3006
ag3009
ag3012
ag4257
ag4260
ag4264
ag4267
ag4271
ag4276
ag4281
ag685
ag688
ag1369
ag1376
ag2903
ag2443
ag1357
ag1360
ag1365
ag98
ag101
ag104
ag108
ag112
ag1459
ag3883
ag3890
ag3893
ag3897
ag3900
ag3904
ag1392
ag1395
ag3072
ag3075
ag3079
ag1045
ag1049
ag1053
ag4621
ag4624
ag4627
ag4630
ag4634
ag4638
ag4642
ag403
ag406
ag4011
ag4018
ag626
ag631
ag634
ag643
ag646
ag2706
ag2711
ag2718
ag1803
ag4041
ag4045
ag4049
ag3
ag7
ag12
ag17
ag1986
ag1989
ag1992
ag1995
ag1999
ag3484
ag3487
ag3233
ag3241
ag286
ag291
ag4078
ag4081
ag3218
ag317
ag1467
ag1470
ag1950
ag1956
ag1962
ag460
ag463
ag467
ag2775
ag2778
ag2781
ag3984
ag3988
ag3991
ag3994
ag3997
ag2489
ag2492
ag1227
ag1236
ag1239
ag4485
ag4530
ag4534
ag4253
ag2125
ag2644
ag2649
ag2653
ag2656
ag2659
ag2575
ag4570
ag1314
ag1130
ag1133
ag1136
ag3389
ag3393
ag3396
ag3399
ag865
ag868
ag871
ag876
ag879
ag4075
ag4148
ag4151
ag4154
ag4158
ag4163
ag2891
ag2894
ag2897
ag2900
ag4389
ag4430
ag4436
ag4443
ag4447
ag4454
ag572
ag1462
ag3195
ag3199
ag3207
ag3210
ag3215
ag2096
ag4405
ag4413
ag4419
aa(lp4776
g1102
ag1105
ag1605
ag1609
ag1614
ag1617
ag539
ag150
ag154
ag157
ag1668
ag2413
ag2417
ag2578
ag51
ag56
ag59
ag65
ag68
ag71
ag74
ag77
ag3560
ag3572
ag4476
ag4481
ag992
ag1227
ag1236
ag1239
ag607
ag610
ag255
ag261
ag2849
ag2853
ag2858
ag2861
ag1340
ag1345
ag1348
ag1351
ag1354
ag2665
ag221
ag224
ag2588
ag3858
ag3861
ag3864
ag338
ag341
ag345
ag865
ag868
ag871
ag876
ag879
ag3161
ag1761
ag1764
ag1769
ag1208
ag1212
ag1215
ag2626
ag2631
ag1772
ag1775
ag1780
ag2297
ag2301
ag2950
ag2954
ag3180
ag3185
ag3188
ag3192
ag3732
ag3736
ag3740
ag2694
ag2697
ag2700
ag4166
ag4170
ag4175
ag4203
ag4206
ag4209
ag484
ag487
ag2096
ag2019
ag2024
ag2029
ag4458
ag4461
ag3817
ag3820
ag3833
ag3836
ag3842
ag2879
ag2882
ag2887
ag4506
ag4030
ag4033
ag4037
ag1108
ag1113
ag1082
ag1085
ag1494
ag1502
ag4765
ag1707
ag1244
ag1249
ag1253
ag2036
ag2043
ag2546
ag1422
ag1425
ag1431
ag1435
ag1438
ag2943
ag2946
ag3509
ag3513
ag3517
ag3522
ag3527
ag1662
ag460
ag463
ag467
ag2002
ag2006
ag2011
ag2273
ag2280
ag2520
ag2525
ag3233
ag3241
ag3803
ag3807
ag3811
ag3814
ag2443
ag3643
ag3646
ag3650
ag322
ag325
ag328
ag331
ag334
ag2826
ag2832
ag2836
ag2840
ag2843
ag2846
ag1986
ag1989
ag1992
ag1995
ag1999
ag246
ag249
ag252
ag2352
ag2355
ag2361
ag3351
ag3356
ag691
ag4586
ag4589
ag4596
ag2489
ag2492
ag147
ag572
ag1280
ag1284
ag1291
ag1299
ag2061
ag2064
ag2067
ag1320
ag1323
ag3294
ag3297
ag3300
ag3303
ag3306
ag1314
ag3106
ag2581
ag655
ag663
ag668
ag1259
ag1262
ag1265
ag1272
ag1575
ag1580
ag1586
ag4502
ag928
ag932
ag935
ag939
ag943
ag3704
ag3708
ag3712
ag3716
ag996
ag673
ag2211
ag2215
ag2218
ag1547
ag1550
ag1553
ag264
ag745
ag855
ag858
ag861
ag1740
ag1743
ag1846
ag1849
ag231
ag234
ag238
ag3542
ag3547
ag3552
ag3557
ag1117
ag1120
ag1123
ag4663
ag4669
ag4672
ag4675
ag4682
ag3683
ag3687
ag3690
ag3589
ag3592
ag3659
ag3662
ag3667
ag1695
ag1700
ag1704
ag3981
ag3420
ag3423
ag3428
ag3431
ag597
ag600
ag603
ag4148
ag4151
ag4154
ag4158
ag4163
ag3277
ag3280
ag3290
ag3484
ag3487
ag2634
ag2638
ag4491
ag4494
ag4498
ag3
ag7
ag12
ag17
ag2940
ag4615
ag4618
ag818
ag179
ag1059
ag1063
ag2784
ag3984
ag3988
ag3991
ag3994
ag3997
ag3002
ag3006
ag3009
ag3012
ag1075
ag1078
ag946
ag952
ag955
ag3377
ag1170
ag1177
ag1181
ag614
ag617
ag622
ag1746
ag1749
ag1752
ag1755
ag3222
ag3226
ag3230
ag1357
ag1360
ag1365
ag1929
ag1932
ag1935
ag1938
ag317
ag3195
ag3199
ag3207
ag3210
ag3215
ag3018
ag3021
ag3024
ag3027
ag3030
ag2099
ag2103
ag2106
ag2110
ag3932
ag3274
ag1218
ag1221
ag1224
ag1528
ag1531
ag1534
ag206
ag211
ag214
ag217
ag267
ag270
ag2311
ag2315
ag411
ag420
ag4580
ag4583
ag3596
ag3602
ag3605
ag3610
ag3614
ag2386
ag2390
ag2398
ag1784
ag1788
ag1792
ag1795
ag1800
ag3439
ag3447
ag1883
ag1886
ag1892
ag1941
ag1944
ag1947
ag1326
ag1329
ag1335
ag3720
ag3724
ag3727
ag1392
ag1395
ag4331
ag4336
ag4340
ag4179
ag4183
ag4187
ag4193
ag2245
ag2248
ag2255
ag1975
ag1981
ag1684
ag4075
ag3752
ag4424
ag4427
ag3960
ag3963
ag3967
ag3972
ag3976
ag1556
ag1564
ag1571
ag2528
ag2534
ag2539
ag2681
ag2688
ag2691
ag1459
ag4548
ag4564
ag4057
ag4066
ag4069
ag4072
ag4103
ag4106
ag3745
ag4000
ag4004
ag1398
ag1404
ag1832
ag1835
ag1838
ag1842
ag714
ag717
ag721
ag2791
ag2794
ag2189
ag2193
ag2199
ag2203
ag2207
ag227
ag843
ag309
ag313
ag685
ag688
ag185
ag188
ag191
ag1821
ag1824
ag1828
ag3578
ag3582
ag3586
ag348
ag351
ag4290
ag4293
ag4296
ag2437
ag2440
ag2473
ag2478
ag2560
ag2565
ag736
ag739
ag742
ag1674
ag194
ag198
ag202
ag1950
ag1956
ag1962
ag4464
ag4469
ag837
ag840
ag3846
ag3849
ag4021
ag4026
ag387
ag4704
ag4707
ag1640
ag1645
ag4405
ag4413
ag4419
ag3015
ag4078
ag4081
ag1304
ag1307
ag1311
ag2806
ag2816
ag2575
ag815
ag1098
ag391
ag397
ag400
ag4113
ag4123
ag3085
ag3088
ag3092
ag381
ag384
ag4485
ag3270
ag694
ag698
ag3244
ag3250
ag3254
ag3260
ag3263
ag4257
ag4260
ag4264
ag4267
ag4271
ag4276
ag4281
ag3534
ag3537
ag3135
ag3138
ag509
ag516
ag520
ag4130
ag4137
ag4140
ag1539
ag1542
ag4053
ag504
ag3852
ag3855
ag1710
ag4603
ag4606
ag4611
ag3760
ag3763
ag3769
ag3779
ag2446
ag2449
ag2222
ag2228
ag2231
ag2234
ag2239
ag4229
ag4240
ag3490
ag3497
ag3502
ag2735
ag2422
ag2425
ag2428
ag2432
ag1903
ag4127
ag2177
ag2181
ag2186
ag889
ag893
ag906
ag4221
ag4224
ag2912
ag2919
ag355
ag365
ag370
ag376
ag550
ag553
ag557
ag563
ag2585
ag4011
ag4018
ag2706
ag2711
ag2718
ag542
ag546
ag1130
ag1133
ag1136
ag4368
ag3694
ag3697
ag3700
ag4322
ag4325
ag4328
ag4530
ag4534
ag2033
ag2495
ag2504
ag2549
ag2553
ag2557
ag3450
ag2454
ag2457
ag4430
ag4436
ag4443
ag4447
ag4454
ag2993
ag2996
ag2999
ag4096
ag4100
ag2867
ag2870
ag4300
ag4303
ag4307
ag4310
ag4731
ag4734
ag4739
ag524
ag528
ag531
ag1917
ag1920
ag2703
ag2644
ag2649
ag2653
ag2656
ag2659
ag650
ag4285
ag4247
ag4250
ag1275
ag2757
ag2760
ag2764
ag2264
ag2268
ag2969
ag2976
ag1467
ag1470
ag3218
ag3389
ag3393
ag3396
ag3399
ag821
ag826
ag832
ag1185
ag1188
ag1195
ag1199
ag1202
ag1205
ag2365
ag2376
ag2379
ag2382
ag1506
ag1509
ag1512
ag1516
ag1519
ag1522
ag3618
ag3621
ag3625
ag3629
ag3632
ag3635
ag1056
ag2131
ag2134
ag2137
ag3471
ag3477
ag3480
ag973
ag976
ag986
ag989
ag3942
ag3945
ag3948
ag3952
ag3957
ag2070
ag2073
ag1965
ag403
ag406
ag4573
ag4577
ag4371
ag4374
ag4377
ag4213
ag1806
ag1648
ag769
ag772
ag3166
ag3169
ag3782
ag3786
ag3082
ag4313
ag4316
ag1652
ag1657
ag3867
ag3870
ag3873
ag3879
ag3118
ag3123
ag3126
ag3129
ag1462
ag1729
ag1732
ag1736
ag1089
ag1092
ag1095
ag706
ag709
ag3453
ag3459
ag3468
ag3404
ag3412
ag1148
ag1151
ag1154
ag1158
ag1164
ag1895
ag1898
ag286
ag291
ag4510
ag4513
ag4516
ag4519
ag4522
ag4710
ag4714
ag4717
ag4720
ag4725
ag2510
ag2513
ag2516
ag4621
ag4624
ag4627
ag4630
ag4634
ag4638
ag4642
ag4008
ag3034
ag3041
ag3046
ag3050
ag243
ag2081
ag2088
ag4200
ag163
ag166
ag169
ag173
ag2775
ag2778
ag2781
ag35
ag39
ag42
ag45
ag1369
ag1376
ag959
ag962
ag967
ag970
ag1758
ag3099
ag3103
aa(lp4777
g1539
ag1542
ag4300
ag4303
ag4307
ag4310
ag2969
ag2976
ag403
ag406
ag179
ag4313
ag4316
ag3389
ag3393
ag3396
ag3399
ag2413
ag2417
ag3404
ag3412
ag2165
ag2168
ag2171
ag2174
ag2979
ag2982
ag2987
ag2912
ag2919
ag3846
ag3849
ag1506
ag1509
ag1512
ag1516
ag1519
ag1522
ag1605
ag1609
ag1614
ag1617
ag1244
ag1249
ag1253
ag3141
ag3148
ag3155
ag3782
ag3786
ag4506
ag2560
ag2565
ag4647
ag4650
ag4655
ag4658
ag524
ag528
ag531
ag676
ag679
ag682
ag535
ag4127
ag4021
ag4026
ag1441
ag1450
ag1453
ag1846
ag1849
ag2903
ag694
ag698
ag3166
ag3169
ag2735
ag3858
ag3861
ag3864
ag2273
ag2280
ag1806
ag348
ag351
ag2575
ag1000
ag1004
ag1012
ag1357
ag1360
ag1365
ag2489
ag2492
ag2483
ag2486
ag539
ag509
ag516
ag520
ag3
ag7
ag12
ag17
ag4405
ag4413
ag4419
ag3720
ag3724
ag3727
ag4011
ag4018
ag1906
ag1909
ag1913
ag4216
ag255
ag261
ag3932
ag4000
ag4004
ag1740
ag1743
ag1868
ag1871
ag1877
ag1880
ag221
ag224
a(lp4778
VSOZKBQG12A8C1350D4
p4779
aVSOMAHBB12A8C139EBD
p4780
aVSOGNRLV12A8151DCBC
p4781
aVSOQZRMJ12A6D4FD8BE
p4782
aag2318
ag2324
ag2335
ag843
ag1547
ag1550
ag1553
ag3760
ag3763
ag3769
ag3779
ag4710
ag4714
ag4717
ag4720
ag4725
ag4694
ag4697
ag4701
ag2092
ag1148
ag1151
ag1154
ag1158
ag1164
ag4110
ag4322
ag4325
ag4328
ag706
ag709
ag736
ag739
ag742
ag3560
ag3572
ag4476
ag4481
ag3377
ag2738
ag2741
ag2750
ag2753
ag3453
ag3459
ag3468
ag2546
ag3791
ag3794
ag3797
ag3800
ag2819
ag2823
ag1929
ag1932
ag1935
ag1938
ag35
ag39
ag42
ag45
ag1139
ag1145
ag3309
ag3312
ag3318
ag1674
ag4229
ag4240
ag504
ag1623
ag1626
ag3960
ag3963
ag3967
ag3972
ag3976
ag3177
ag1098
ag1056
ag3659
ag3662
ag3667
ag4430
ag4436
ag4443
ag4447
ag4454
ag3752
ag4570
ag799
ag810
ag185
ag188
ag191
ag194
ag198
ag202
ag3439
ag3447
ag4458
ag4461
ag4750
ag4755
ag4762
ag267
ag270
ag29
ag32
ag273
ag276
ag280
ag283
ag411
ag420
ag4200
ag2549
ag2553
ag2557
ag865
ag868
ag871
ag876
ag879
ag2965
ag3106
ag4221
ag4224
ag3683
ag3687
ag3690
ag2520
ag2525
ag435
ag438
ag451
ag815
ag1208
ag1212
ag1215
ag2311
ag2315
ag1275
ag2588
ag2131
ag2134
ag2137
ag4621
ag4624
ag4627
ag4630
ag4634
ag4638
ag4642
ag4253
ag1102
ag1105
ag3294
ag3297
ag3300
ag3303
ag3306
ag4530
ag4534
ag2304
ag2307
ag4510
ag4513
ag4516
ag4519
ag4522
ag597
ag600
ag603
ag286
ag291
ag2081
ag2088
ag1784
ag1788
ag1792
ag1795
ag1800
ag1986
ag1989
ag1992
ag1995
ag1999
ag4424
ag4427
ag3981
ag1380
ag1386
ag2993
ag2996
ag2999
ag2791
ag2794
ag3509
ag3513
ag3517
ag3522
ag3527
ag1475
ag1478
ag1483
ag1486
ag1490
ag3984
ag3988
ag3991
ag3994
ag3997
ag1668
ag4586
ag4589
ag4596
ag2891
ag2894
ag2897
ag2900
ag429
ag432
ag4030
ag4033
ag4037
ag1772
ag1775
ag1780
ag460
ag463
ag467
ag1059
ag1063
ag1652
ag1657
ag2662
ag2222
ag2228
ag2231
ag2234
ag2239
ag4580
ag4583
ag231
ag234
ag238
ag3694
ag3697
ag3700
ag626
ag631
ag634
ag643
ag646
ag4393
ag4399
ag4402
ag4768
ag4773
ag309
ag313
ag1259
ag1262
ag1265
ag1272
ag2581
ag585
ag589
ag594
ag607
ag610
ag959
ag962
ag967
ag970
ag4203
ag4206
ag4209
ag3018
ag3021
ag3024
ag3027
ag3030
ag4742
ag4502
ag3918
ag3921
ag3924
ag3927
ag2099
ag2103
ag2106
ag2110
ag3053
ag3059
ag3063
ag3066
ag3069
ag3274
ag2943
ag2946
ag1410
ag1413
ag1417
ag855
ag858
ag861
ag1803
ag1975
ag1981
ag3180
ag3185
ag3188
ag3192
ag4765
ag566
ag1369
ag1376
ag572
ag1903
ag691
ag2297
ag2301
ag21
ag26
ag1218
ag1221
ag1224
ag4538
ag4541
ag4544
ag1832
ag1835
ag1838
ag1842
ag4285
ag4196
ag3161
ag2495
ag2504
ag1082
ag1085
ag4075
ag2757
ag2760
ag2764
ag3817
ag3820
ag3833
ag3836
ag3842
ag846
ag849
ag852
ag3867
ag3870
ag3873
ag3879
ag946
ag952
ag955
ag4731
ag4734
ag4739
ag4008
ag150
ag154
ag157
ag2283
ag2286
ag2290
ag2294
ag4389
ag2125
ag2826
ag2832
ag2836
ag2840
ag2843
ag2846
ag3244
ag3250
ag3254
ag3260
ag3263
ag3670
ag3673
ag3679
ag1688
ag1691
ag2626
ag2631
ag818
ag3852
ag3855
ag4488
ag80
ag2528
ag2534
ag2539
ag1494
ag1502
ag3471
ag3477
ag3480
ag1314
ag4213
ag1528
ag1531
ag1534
ag3542
ag3547
ag3552
ag3557
ag2950
ag2954
ag484
ag487
ag1575
ag1580
ag1586
ag4603
ag4606
ag4611
ag1620
ag1895
ag1898
ag1695
ag1700
ag1704
ag1467
ag1470
ag2668
ag2671
ag1227
ag1236
ag1239
ag3233
ag3241
ag2990
ag3490
ag3497
ag3502
ag973
ag976
ag986
ag989
ag4041
ag4045
ag4049
ag1117
ag1120
ag1123
ag3082
ag1710
ag1020
ag1023
ag1026
ag3085
ag3088
ag3092
ag2264
ag2268
ag294
ag299
ag303
ag306
ag2849
ag2853
ag2858
ag2861
ag322
ag325
ag328
ag331
ag334
ag685
ag688
ag2446
ag2449
ag2806
ag2816
ag614
ag617
ag622
ag837
ag840
ag2019
ag2024
ag2029
ag2061
ag2064
ag2067
ag3643
ag3646
ag3650
ag3072
ag3075
ag3079
ag928
ag932
ag935
ag939
ag943
ag2189
ag2193
ag2199
ag2203
ag2207
ag3450
ag1170
ag1177
ag1181
ag2879
ag2882
ag2887
ag3270
ag1758
ag490
ag501
ag1917
ag1920
ag1821
ag1824
ag1828
ag3331
ag3334
ag3337
ag3342
ag3347
ag673
ag355
ag365
ag370
ag376
ag3222
ag3226
ag3230
ag470
ag473
ag2058
ag1029
ag1032
ag1037
ag1040
ag714
ag717
ag721
ag3909
ag3914
ag1950
ag1956
ag1962
ag1746
ag1749
ag1752
ag1755
ag3195
ag3199
ag3207
ag3210
ag3215
ag4113
ag4123
ag821
ag826
ag832
ag51
ag56
ag59
ag65
ag68
ag71
ag74
ag77
ag206
ag211
ag214
ag217
ag2454
ag2457
ag3732
ag3736
ag3740
ag914
ag921
ag4491
ag4494
ag4498
ag1965
ag4148
ag4151
ag4154
ag4158
ag4163
ag120
ag123
ag128
ag132
ag135
ag141
ag144
ag2784
ag3578
ag3582
ag3586
ag2463
ag2466
ag2470
ag4464
ag4469
ag391
ag397
ag400
ag1089
ag1092
ag1095
ag2386
ag2390
ag2398
ag1883
ag1886
ag1892
ag2352
ag2355
ag2361
ag2703
ag3484
ag3487
ag3704
ag3708
ag3712
ag3716
ag163
ag166
ag169
ag173
ag2634
ag2638
ag1459
ag3745
ag3618
ag3621
ag3625
ag3629
ag3632
ag3635
ag246
ag249
ag252
ag243
ag2578
ag1130
ag1133
ag1136
ag2473
ag2478
ag4548
ag4564
ag1707
ag147
ag1392
ag1395
ag2422
ag2425
ag2428
ag2432
ag4143
ag2923
ag2932
ag2936
ag576
ag582
ag1684
ag3099
ag3103
ag4381
ag4386
ag2245
ag2248
ag2255
ag338
ag341
ag345
ag387
ag4078
ag4081
ag1280
ag1284
ag1291
ag1299
ag3381
ag3384
ag1326
ag1329
ag1335
aa(lp4783
g946
ag952
ag955
ag4253
ag2222
ag2228
ag2231
ag2234
ag2239
ag2189
ag2193
ag2199
ag2203
ag2207
ag2806
ag2816
ag1941
ag1944
ag1947
ag714
ag717
ag721
ag4464
ag4469
ag1674
ag4694
ag4697
ag4701
ag1662
ag3942
ag3945
ag3948
ag3952
ag3957
ag3643
ag3646
ag3650
ag2528
ag2534
ag2539
ag1089
ag1092
ag1095
ag150
ag154
ag157
ag2520
ag2525
ag4586
ag4589
ag4596
ag4057
ag4066
ag4069
ag4072
ag484
ag487
ag4300
ag4303
ag4307
ag4310
ag2993
ag2996
ag2999
ag1975
ag1981
ag542
ag546
ag4143
ag673
ag273
ag276
ag280
ag283
ag51
ag56
ag59
ag65
ag68
ag71
ag74
ag77
ag4008
ag3439
ag3447
ag3015
ag2644
ag2649
ag2653
ag2656
ag2659
ag1556
ag1564
ag1571
ag4502
ag3180
ag3185
ag3188
ag3192
ag1462
ag1678
ag1681
ag3420
ag3423
ag3428
ag3431
ag2036
ag2043
ag3981
ag1986
ag1989
ag1992
ag1995
ag1999
ag147
ag3589
ag3592
ag4075
ag435
ag438
ag451
ag1494
ag1502
ag1729
ag1732
ag1736
ag1056
ag3960
ag3963
ag3967
ag3972
ag3976
ag2125
ag1392
ag1395
ag504
ag3618
ag3621
ag3625
ag3629
ag3632
ag3635
ag29
ag32
ag2058
ag1102
ag1105
ag2283
ag2286
ag2290
ag2294
ag1668
ag736
ag739
ag742
ag2665
ag2950
ag2954
ag4053
ag1758
ag4166
ag4170
ag4175
ag4424
ag4427
ag4322
ag4325
ag4328
ag4393
ag4399
ag4402
ag3745
ag1459
ag322
ag325
ag328
ag331
ag334
ag2165
ag2168
ag2171
ag2174
ag4247
ag4250
ag120
ag123
ag128
ag132
ag135
ag141
ag144
ag381
ag384
ag2819
ag2823
ag2081
ag2088
ag3935
ag3294
ag3297
ag3300
ag3303
ag3306
ag267
ag270
ag973
ag976
ag986
ag989
ag2797
ag2801
ag4331
ag4336
ag4340
ag3135
ag3138
ag2581
ag1170
ag1177
ag1181
ag4041
ag4045
ag4049
ag2912
ag2919
ag837
ag840
ag1314
ag2510
ag2513
ag2516
ag3560
ag3572
ag2622
ag3018
ag3021
ag3024
ag3027
ag3030
ag3244
ag3250
ag3254
ag3260
ag3263
ag1575
ag1580
ag1586
ag2578
ag2694
ag2697
ag2700
ag3782
ag3786
ag2141
ag2146
ag2152
ag2156
ag2162
ag597
ag600
ag603
ag1506
ag1509
ag1512
ag1516
ag1519
ag1522
ag481
ag996
ag4196
ag4349
ag4358
ag4362
ag4371
ag4374
ag4377
ag4221
ag4224
ag1903
ag2211
ag2215
ag2218
ag1929
ag1932
ag1935
ag1938
ag227
ag572
ag3106
ag1528
ag1531
ag1534
ag194
ag198
ag202
ag3218
ag1304
ag1307
ag1311
ag2735
ag1803
ag3596
ag3602
ag3605
ag3610
ag3614
ag769
ag772
ag387
ag1275
ag4213
ag179
ag403
ag406
ag3233
ag3241
ag1340
ag1345
ag1348
ag1351
ag1354
ag1620
ag889
ag893
ag906
ag4580
ag4583
ag2826
ag2832
ag2836
ag2840
ag2843
ag2846
ag650
ag1852
ag1857
ag1863
ag3720
ag3724
ag3727
ag846
ag849
ag852
ag4603
ag4606
ag4611
ag3381
ag3384
ag1710
ag2489
ag2492
ag2092
ag3484
ag3487
ag1098
ag2775
ag2778
ag2781
ag2304
ag2307
ag3109
ag3114
ag3852
ag3855
ag2413
ag2417
ag2791
ag2794
ag3099
ag3103
ag4742
ag2495
ag2504
ag745
ag2891
ag2894
ag2897
ag2900
ag4389
ag3670
ag3673
ag3679
ag3453
ag3459
ag3468
ag4096
ag4100
ag221
ag224
ag4600
ag727
ag730
ag733
ag4110
ag1846
ag1849
ag4710
ag4714
ag4717
ag4720
ag4725
ag2867
ag2870
ag1746
ag1749
ag1752
ag1755
ag4663
ag4669
ag4672
ag4675
ag4682
ag2738
ag2741
ag2750
ag2753
ag3803
ag3807
ag3811
ag3814
ag3321
ag3324
ag3328
ag2297
ag2301
ag1895
ag1898
ag3918
ag3921
ag3924
ag3927
ag4021
ag4026
ag1185
ag1188
ag1195
ag1199
ag1202
ag1205
ag4084
ag4087
ag4090
ag4093
ag3141
ag3148
ag3155
ag4750
ag4755
ag4762
ag2403
ag2409
ag163
ag166
ag169
ag173
ag655
ag663
ag668
ag535
ag3752
ag4570
ag992
ag1707
ag1917
ag1920
ag4538
ag4541
ag4544
ag4485
ag914
ag921
ag1605
ag1609
ag1614
ag1617
ag1684
ag2849
ag2853
ag2858
ag2861
ag614
ag617
ag622
ag3791
ag3794
ag3797
ag3800
ag2706
ag2711
ag2718
ag3166
ag3169
ag4615
ag4618
ag2634
ag2638
ag2546
ag585
ag589
ag594
ag3331
ag3334
ag3337
ag3342
ag3347
ag243
ag2703
ag685
ag688
ag21
ag26
ag2662
ag4778
ag4313
ag4316
ag1740
ag1743
ag753
ag756
ag759
ag765
ag4647
ag4650
ag4655
ag4658
ag490
ag501
ag355
ag365
ag370
ag376
ag815
ag4458
ag4461
ag1422
ag1425
ag1431
ag1435
ag1438
ag286
ag291
ag4285
ag3404
ag3412
ag1784
ag1788
ag1792
ag1795
ag1800
ag706
ag709
ag3534
ag3537
ag1883
ag1886
ag1892
ag2446
ag2449
ag1326
ag1329
ag1335
ag2969
ag2976
ag2585
ag2681
ag2688
ag2691
ag348
ag351
ag1648
ag818
ag4203
ag4206
ag4209
ag1259
ag1262
ag1265
ag1272
ag3277
ag3280
ag3290
ag1539
ag1542
ag3883
ag3890
ag3893
ag3897
ag3900
ag3904
ag1117
ag1120
ag1123
ag4179
ag4183
ag4187
ag4193
ag4476
ag4481
ag3867
ag3870
ag3873
ag3879
ag246
ag249
ag252
ag2626
ag2631
ag1441
ag1450
ag1453
ag2177
ag2181
ag2186
ag2879
ag2882
ag2887
ag98
ag101
ag104
ag108
ag112
ag2990
ag2575
ag3694
ag3697
ag3700
ag4148
ag4151
ag4154
ag4158
ag4163
ag1467
ag1470
ag775
ag778
ag781
ag789
ag793
ag1020
ag1023
ag1026
ag1906
ag1909
ag1913
ag2940
ag3177
ag4200
ag550
ag553
ag557
ag563
ag2903
ag294
ag299
ag303
ag306
ag4573
ag4577
ag1000
ag1004
ag1012
ag3351
ag3356
ag4257
ag4260
ag4264
ag4267
ag4271
ag4276
ag4281
ag3817
ag3820
ag3833
ag3836
ag3842
ag3509
ag3513
ag3517
ag3522
ag3527
ag2757
ag2760
ag2764
ag309
ag313
ag4731
ag4734
ag4739
ag4000
ag4004
ag1688
ag1691
ag4430
ag4436
ag4443
ag4447
ag4454
ag3309
ag3312
ag3318
ag1623
ag1626
ag264
ag4704
ag4707
ag4030
ag4033
ag4037
ag3072
ag3075
ag3079
ag4530
ag4534
ag80
ag3
ag7
ag12
ag17
ag2019
ag2024
ag2029
ag1045
ag1049
ag1053
ag460
ag463
ag467
ag576
ag582
ag1227
ag1236
ag1239
ag2365
ag2376
ag2379
ag2382
ag855
ag858
ag861
ag1950
ag1956
ag1962
ag959
ag962
ag967
ag970
ag3053
ag3059
ag3063
ag3066
ag3069
ag3377
ag4368
ag4765
ag411
ag420
ag1821
ag1824
ag1828
ag1280
ag1284
ag1291
ag1299
ag338
ag341
ag345
ag2943
ag2946
ag2560
ag2565
ag2591
ag2595
ag2598
ag1029
ag1032
ag1037
ag1040
ag2463
ag2466
ag2470
ag3542
ag3547
ag3552
ag3557
ag470
ag473
ag1380
ag1386
ag1772
ag1775
ag1780
ag2923
ag2932
ag2936
ag1244
ag1249
ag1253
ag1357
ag1360
ag1365
ag1640
ag1645
ag1139
ag1145
ag4229
ag4240
ag3161
ag1806
ag3085
ag3088
ag3092
ag4130
ag4137
ag4140
ag3760
ag3763
ag3769
ag3779
ag3490
ag3497
ag3502
ag2483
ag2486
ag4113
ag4123
ag3704
ag3708
ag3712
ag3716
ag3002
ag3006
ag3009
ag3012
aa(lp4784
g1883
ag1886
ag1892
ag4742
ag264
ag1148
ag1151
ag1154
ag1158
ag1164
ag685
ag688
ag3034
ag3041
ag3046
ag3050
ag317
ag3694
ag3697
ag3700
ag1410
ag1413
ag1417
ag4313
ag4316
ag150
ag154
ag157
ag4000
ag4004
ag4221
ag4224
ag246
ag249
ag252
ag4213
ag1895
ag1898
ag928
ag932
ag935
ag939
ag943
ag4502
ag3450
ag3351
ag3356
ag3
ag7
ag12
ag17
ag1475
ag1478
ag1483
ag1486
ag1490
ag4349
ag4358
ag4362
ag3453
ag3459
ag3468
ag1098
ag4166
ag4170
ag4175
ag727
ag730
ag733
ag391
ag397
ag400
ag650
ag4196
ag2446
ag2449
ag3643
ag3646
ag3650
ag2662
ag3618
ag3621
ag3625
ag3629
ag3632
ag3635
ag4008
ag914
ag921
ag1917
ag1920
ag3439
ag3447
ag4530
ag4534
ag4527
ag1852
ag1857
ag1863
ag179
ag2131
ag2134
ag2137
ag2626
ag2631
ag1528
ag1531
ag1534
ag4458
ag4461
ag2797
ag2801
ag4300
ag4303
ag4307
ag4310
ag1547
ag1550
ag1553
ag3389
ag3393
ag3396
ag3399
ag2483
ag2486
ag4021
ag4026
ag1707
ag959
ag962
ag967
ag970
ag4603
ag4606
ag4611
ag1029
ag1032
ag1037
ag1040
ag1648
ag2386
ag2390
ag2398
ag4506
ag3072
ag3075
ag3079
ag1539
ag1542
ag4053
ag4393
ag4399
ag4402
ag1422
ag1425
ag1431
ag1435
ag1438
ag3331
ag3334
ag3337
ag3342
ag3347
ag4464
ag4469
ag2681
ag2688
ag2691
ag2422
ag2425
ag2428
ag2432
ag2520
ag2525
ag2061
ag2064
ag2067
ag3106
ag3277
ag3280
ag3290
ag4075
ag2634
ag2638
ag2588
ag3960
ag3963
ag3967
ag3972
ag3976
ag98
ag101
ag104
ag108
ag112
ag4381
ag4386
ag1740
ag1743
ag4179
ag4183
ag4187
ag4193
ag775
ag778
ag781
ag789
ag793
ag3166
ag3169
ag3099
ag3103
ag736
ag739
ag742
ag1304
ag1307
ag1311
ag4030
ag4033
ag4037
ag3085
ag3088
ag3092
ag267
ag270
ag294
ag299
ag303
ag306
ag3858
ag3861
ag3864
ag1494
ag1502
ag815
ag3381
ag3384
ag481
ag3509
ag3513
ag3517
ag3522
ag3527
ag626
ag631
ag634
ag643
ag646
ag4229
ag4240
ag1326
ag1329
ag1335
ag2950
ag2954
ag4078
ag4081
ag2879
ag2882
ag2887
ag2019
ag2024
ag2029
ag504
ag4253
ag2549
ag2553
ag2557
ag1674
ag1821
ag1824
ag1828
ag2993
ag2996
ag2999
ag4424
ag4427
ag1459
ag655
ag663
ag668
ag3791
ag3794
ag3797
ag3800
ag3218
ag2849
ag2853
ag2858
ag2861
ag4130
ag4137
ag4140
ag4580
ag4583
ag4143
ag2903
ag2819
ag2823
ag535
ag411
ag420
ag1020
ag1023
ag1026
ag2622
ag3732
ag3736
ag3740
ag2245
ag2248
ag2255
ag4148
ag4151
ag4154
ag4158
ag4163
ag2495
ag2504
ag1640
ag1645
ag3118
ag3123
ag3126
ag3129
ag1605
ag1609
ag1614
ag1617
ag2694
ag2697
ag2700
ag4510
ag4513
ag4516
ag4519
ag4522
ag4247
ag4250
ag3942
ag3945
ag3948
ag3952
ag3957
ag1575
ag1580
ag1586
ag1903
ag4491
ag4494
ag4498
ag4704
ag4707
ag1620
ag2578
ag2806
ag2816
ag460
ag463
ag467
ag1986
ag1989
ag1992
ag1995
ag1999
ag176
ag4710
ag4714
ag4717
ag4720
ag4725
ag1082
ag1085
ag614
ag617
ag622
ag550
ag553
ag557
ag563
ag2211
ag2215
ag2218
ag1592
ag1597
ag1601
ag4485
ag4331
ag4336
ag4340
ag1846
ag1849
ag2510
ag2513
ag2516
ag2099
ag2103
ag2106
ag2110
ag221
ag224
ag4127
ag4343
ag4346
ag865
ag868
ag871
ag876
ag879
ag3720
ag3724
ag3727
ag566
ag3244
ag3250
ag3254
ag3260
ag3263
ag1868
ag1871
ag1877
ag1880
ag2706
ag2711
ag2718
ag1803
ag597
ag600
ag603
ag3270
ag2273
ag2280
ag21
ag26
ag855
ag858
ag861
ag2768
ag2771
ag2943
ag2946
ag4110
ag1089
ag1092
ag1095
ag2283
ag2286
ag2290
ag2294
ag576
ag582
ag2165
ag2168
ag2171
ag2174
ag3817
ag3820
ag3833
ag3836
ag3842
ag2403
ag2409
ag4041
ag4045
ag4049
ag2311
ag2315
ag470
ag473
ag1929
ag1932
ag1935
ag1938
ag889
ag893
ag906
ag2058
ag3177
ag3109
ag3114
ag1772
ag1775
ag1780
ag387
ag4371
ag4374
ag4377
ag1688
ag1691
ag509
ag516
ag520
ag2585
ag3760
ag3763
ag3769
ag3779
ag2703
ag3404
ag3412
ag769
ag772
ag1280
ag1284
ag1291
ag1299
ag4615
ag4618
ag490
ag501
ag3471
ag3477
ag3480
ag2591
ag2595
ag2598
ag185
ag188
ag191
ag1441
ag1450
ag1453
ag243
ag1506
ag1509
ag1512
ag1516
ag1519
ag1522
ag2644
ag2649
ag2653
ag2656
ag2659
ag1784
ag1788
ag1792
ag1795
ag1800
ag1950
ag1956
ag1962
ag539
ag973
ag976
ag986
ag989
ag255
ag261
ag2940
ag3683
ag3687
ag3690
ag3180
ag3185
ag3188
ag3192
ag996
ag1941
ag1944
ag1947
ag4096
ag4100
ag35
ag39
ag42
ag45
ag4476
ag4481
ag3222
ag3226
ag3230
ag1320
ag1323
ag403
ag406
ag524
ag528
ag531
ag484
ag487
ag3782
ag3786
ag206
ag211
ag214
ag217
ag381
ag384
ag2912
ag2919
ag3596
ag3602
ag3605
ag3610
ag3614
ag2735
ag3984
ag3988
ag3991
ag3994
ag3997
ag3321
ag3324
ag3328
ag2463
ag2466
ag2470
ag3670
ag3673
ag3679
ag4257
ag4260
ag4264
ag4267
ag4271
ag4276
ag4281
ag163
ag166
ag169
ag173
ag51
ag56
ag59
ag65
ag68
ag71
ag74
ag77
ag1758
ag2826
ag2832
ag2836
ag2840
ag2843
ag2846
ag1832
ag1835
ag1838
ag1842
ag676
ag679
ag682
ag2923
ag2932
ag2936
ag2757
ag2760
ag2764
ag3377
ag3542
ag3547
ag3552
ag3557
ag4647
ag4650
ag4655
ag4658
ag3141
ag3148
ag3155
ag120
ag123
ag128
ag132
ag135
ag141
ag144
ag2454
ag2457
ag2081
ag2088
ag4084
ag4087
ag4090
ag4093
ag2891
ag2894
ag2897
ag2900
ag2965
ag542
ag546
ag1369
ag1376
ag4203
ag4206
ag4209
ag4103
ag4106
ag745
ag1662
ag29
ag32
ag2560
ag2565
ag3867
ag3870
ag3873
ag3879
ag355
ag365
ag370
ag376
ag3233
ag3241
ag3659
ag3662
ag3667
ag4586
ag4589
ag4596
ag1075
ag1078
ag1380
ag1386
ag843
ag1059
ag1063
ag2264
ag2268
ag1208
ag1212
ag1215
ag4570
ag4621
ag4624
ag4627
ag4630
ag4634
ag4638
ag4642
ag1906
ag1909
ag1913
ag846
ag849
ag852
ag4663
ag4669
ag4672
ag4675
ag4682
ag2033
ag435
ag438
ag451
ag2437
ag2440
ag2784
ag1170
ag1177
ag1181
ag1623
ag1626
ag1695
ag1700
ag1704
ag1668
ag2222
ag2228
ag2231
ag2234
ag2239
ag286
ag291
ag4113
ag4123
ag3589
ag3592
ag3932
ag2352
ag2355
ag2361
ag2297
ag2301
ag338
ag341
ag345
ag2738
ag2741
ag2750
ag2753
ag1259
ag1262
ag1265
ag1272
ag3018
ag3021
ag3024
ag3027
ag3030
ag3490
ag3497
ag3502
ag4011
ag4018
ag1056
ag4405
ag4413
ag4419
ag4368
ag1652
ag1657
ag4538
ag4541
ag4544
ag3918
ag3921
ag3924
ag3927
ag4290
ag4293
ag4296
ag1678
ag1681
ag3161
ag3082
ag799
ag810
ag2473
ag2478
ag2575
ag818
ag3704
ag3708
ag3712
ag3716
ag607
ag610
ag673
ag3274
ag3745
ag992
ag3578
ag3582
ag3586
ag714
ag717
ag721
ag1398
ag1404
ag1729
ag1732
ag1736
ag1965
aa(lp4785
g4229
ag4240
ag1695
ag1700
ag1704
ag4130
ag4137
ag4140
ag1662
ag4485
ag294
ag299
ag303
ag306
ag4110
ag4216
ag3180
ag3185
ag3188
ag3192
ag4349
ag4358
ag4362
ag348
ag351
ag3439
ag3447
ag4464
ag4469
ag4750
ag4755
ag4762
ag3817
ag3820
ag3833
ag3836
ag3842
ag267
ag270
ag2588
ag3274
ag4704
ag4707
ag4257
ag4260
ag4264
ag4267
ag4271
ag4276
ag4281
ag1929
ag1932
ag1935
ag1938
ag1903
ag4041
ag4045
ag4049
ag1803
ag2058
ag3331
ag3334
ag3337
ag3342
ag3347
ag585
ag589
ag594
ag4530
ag4534
ag2125
ag3471
ag3477
ag3480
ag2990
ag3177
ag2879
ag2882
ag2887
ag317
ag80
ag2002
ag2006
ag2011
ag2473
ag2478
ag1494
ag1502
ag387
ag1688
ag1691
ag3852
ag3855
ag576
ag582
ag1652
ag1657
ag1950
ag1956
ag1962
ag2365
ag2376
ag2379
ag2382
ag2311
ag2315
ag4084
ag4087
ag4090
ag4093
ag539
ag3218
ag3935
ag1684
ag1320
ag1323
ag2019
ag2024
ag2029
ag4221
ag4224
ag865
ag868
ag871
ag876
ag879
ag4200
ag4000
ag4004
ag1369
ag1376
ag1710
ag2189
ag2193
ag2199
ag2203
ag2207
ag2036
ag2043
ag3
ag7
ag12
ag17
ag691
ag3453
ag3459
ag3468
ag843
ag2806
ag2816
ag1227
ag1236
ag1239
ag4527
ag3578
ag3582
ag3586
ag179
ag607
ag610
ag1852
ag1857
ag1863
ag4778
ag550
ag553
ag557
ag563
ag2304
ag2307
ag3377
ag4663
ag4669
ag4672
ag4675
ag4682
ag2454
ag2457
ag2797
ag2801
ag4603
ag4606
ag4611
ag2626
ag2631
ag3883
ag3890
ag3893
ag3897
ag3900
ag3904
ag4694
ag4697
ag4701
ag3161
ag3270
ag4765
ag1117
ag1120
ag1123
ag4179
ag4183
ag4187
ag4193
ag1575
ag1580
ag1586
ag3233
ag3241
ag4057
ag4066
ag4069
ag4072
ag992
ag2560
ag2565
ag3099
ag3103
ag1620
ag2940
ag769
ag772
ag2950
ag2954
ag2912
ag2919
ag2495
ag2504
ag1674
ag185
ag188
ag191
ag4166
ag4170
ag4175
ag914
ag921
ag4430
ag4436
ag4443
ag4447
ag4454
ag3106
ag4030
ag4033
ag4037
ag3909
ag3914
ag4615
ag4618
ag2165
ag2168
ag2171
ag2174
ag1314
ag996
ag1821
ag1824
ag1828
ag1075
ag1078
ag2403
ag2409
ag1868
ag1871
ag1877
ag1880
ag4021
ag4026
ag3018
ag3021
ag3024
ag3027
ag3030
ag3984
ag3988
ag3991
ag3994
ag3997
ag221
ag224
ag753
ag756
ag759
ag765
ag4424
ag4427
ag2297
ag2301
ag3542
ag3547
ag3552
ag3557
ag566
ag1098
ag3222
ag3226
ag3230
ag855
ag858
ag861
ag4075
ag1906
ag1909
ag1913
ag2033
ag4008
ag745
ag4548
ag4564
ag4600
ag1640
ag1645
ag3803
ag3807
ag3811
ag3814
ag4381
ag4386
ag1089
ag1092
ag1095
ag535
ag2891
ag2894
ag2897
ag2900
ag338
ag341
ag345
ag206
ag211
ag214
ag217
ag3244
ag3250
ag3254
ag3260
ag3263
ag3704
ag3708
ag3712
ag3716
ag3450
ag597
ag600
ag603
ag1392
ag1395
ag1410
ag1413
ag1417
ag1986
ag1989
ag1992
ag1995
ag1999
ag821
ag826
ag832
ag2644
ag2649
ag2653
ag2656
ag2659
ag411
ag420
ag2849
ag2853
ag2858
ag2861
ag1340
ag1345
ag1348
ag1351
ag1354
ag959
ag962
ag967
ag970
ag98
ag101
ag104
ag108
ag112
ag946
ag952
ag955
ag481
ag3490
ag3497
ag3502
ag429
ag432
ag1170
ag1177
ag1181
ag2283
ag2286
ag2290
ag2294
ag3053
ag3059
ag3063
ag3066
ag3069
ag322
ag325
ag328
ag331
ag334
ag3858
ag3861
ag3864
ag4488
ag4096
ag4100
ag176
ag3034
ag3041
ag3046
ag3050
ag4253
ag4580
ag4583
ag3321
ag3324
ag3328
ag355
ag365
ag370
ag376
ag1459
ag2443
ag2245
ag2248
ag2255
ag2264
ag2268
ag1148
ag1151
ag1154
ag1158
ag1164
ag2668
ag2671
ag2826
ag2832
ag2836
ag2840
ag2843
ag2846
ag3404
ag3412
ag1605
ag1609
ag1614
ag1617
ag1539
ag1542
ag2141
ag2146
ag2152
ag2156
ag2162
ag3560
ag3572
ag4290
ag4293
ag4296
ag2437
ag2440
ag572
ag714
ag717
ag721
ag231
ag234
ag238
ag1422
ag1425
ag1431
ag1435
ag1438
ag309
ag313
ag2738
ag2741
ag2750
ag2753
ag504
ag2581
ag4586
ag4589
ag4596
ag2352
ag2355
ag2361
ag120
ag123
ag128
ag132
ag135
ag141
ag144
ag1441
ag1450
ag1453
ag2768
ag2771
ag2222
ag2228
ag2231
ag2234
ag2239
ag2903
ag1623
ag1626
ag3596
ag3602
ag3605
ag3610
ag3614
ag4247
ag4250
ag928
ag932
ag935
ag939
ag943
ag694
ag698
ag4103
ag4106
ag706
ag709
ag2681
ag2688
ag2691
ag1895
ag1898
ag4502
ag435
ag438
ag451
ag4371
ag4374
ag4377
ag3732
ag3736
ag3740
ag1185
ag1188
ag1195
ag1199
ag1202
ag1205
ag4213
ag3720
ag3724
ag3727
ag815
ag1108
ag1113
ag2483
ag2486
ag3942
ag3945
ag3948
ag3952
ag3957
ag3166
ag3169
ag542
ag546
ag2528
ag2534
ag2539
ag2386
ag2390
ag2398
ag3932
ag2422
ag2425
ag2428
ag2432
ag4389
ag4322
ag4325
ag4328
ag1056
ag818
ag2092
ag1259
ag1262
ag1265
ag1272
ag4538
ag4541
ag4544
ag1941
ag1944
ag1947
ag3135
ag3138
ag1029
ag1032
ag1037
ag1040
ag1975
ag1981
ag4113
ag4123
ag2591
ag2595
ag2598
ag2070
ag2073
ag1208
ag1212
ag1215
ag4313
ag4316
ag163
ag166
ag169
ag173
ag3618
ag3621
ag3625
ag3629
ag3632
ag3635
ag3195
ag3199
ag3207
ag3210
ag3215
ag3659
ag3662
ag3667
ag2585
ag246
ag249
ag252
ag3484
ag3487
ag21
ag26
ag4127
ag3670
ag3673
ag3679
ag1678
ag1681
ag2489
ag2492
ag2662
ag4768
ag4773
ag1467
ag1470
ag4710
ag4714
ag4717
ag4720
ag4725
ag3509
ag3513
ag3517
ag3522
ag3527
ag2099
ag2103
ag2106
ag2110
ag391
ag397
ag400
ag1280
ag1284
ag1291
ag1299
ag1304
ag1307
ag1311
ag4476
ag4481
ag1556
ag1564
ag1571
ag655
ag663
ag668
ag1772
ag1775
ag1780
ag4343
ag4346
ag2575
ag1020
ag1023
ag1026
ag2510
ag2513
ag2516
ag1244
ag1249
ag1253
ag1883
ag1886
ag1892
ag4148
ag4151
ag4154
ag4158
ag4163
ag2943
ag2946
ag4491
ag4494
ag4498
ag1917
ag1920
ag3752
ag1130
ag1133
ag1136
ag4570
ag2775
ag2778
ag2781
ag2622
ag2784
ag2081
ag2088
ag1059
ag1063
ag460
ag463
ag467
ag889
ag893
ag906
ag3381
ag3384
ag1082
ag1085
ag1761
ag1764
ag1769
ag1668
ag2114
ag2117
ag2121
ag4196
ag1758
ag381
ag384
ag3745
ag1218
ag1221
ag1224
ag4510
ag4513
ag4516
ag4519
ag4522
ag484
ag487
ag4647
ag4650
ag4655
ag4658
ag3277
ag3280
ag3290
ag4506
ag1707
ag3118
ag3123
ag3126
ag3129
ag3867
ag3870
ag3873
ag3879
ag1139
ag1145
ag3389
ag3393
ag3396
ag3399
ag3643
ag3646
ag3650
ag837
ag840
ag2520
ag2525
ag3085
ag3088
ag3092
ag1846
ag1849
ag2578
ag2177
ag2181
ag2186
ag3960
ag3963
ag3967
ag3972
ag3976
ag51
ag56
ag59
ag65
ag68
ag71
ag74
ag77
ag2965
ag4203
ag4206
ag4209
ag4458
ag4461
ag2993
ag2996
ag2999
ag2819
ag2823
aa(lp4786
g4110
ag889
ag893
ag906
ag29
ag32
ag3984
ag3988
ag3991
ag3994
ag3997
ag2473
ag2478
ag4530
ag4534
ag2668
ag2671
ag1784
ag1788
ag1792
ag1795
ag1800
ag3618
ag3621
ag3625
ag3629
ag3632
ag3635
ag4203
ag4206
ag4209
ag1314
ag4290
ag4293
ag4296
ag2222
ag2228
ag2231
ag2234
ag2239
ag1929
ag1932
ag1935
ag1938
ag1806
ag3294
ag3297
ag3300
ag3303
ag3306
ag2311
ag2315
ag1506
ag1509
ag1512
ag1516
ag1519
ag1522
ag80
ag1605
ag1609
ag1614
ag1617
ag4704
ag4707
ag753
ag756
ag759
ag765
ag4368
ag2495
ag2504
ag2806
ag2816
ag2965
ag470
ag473
ag2923
ag2932
ag2936
ag2757
ag2760
ag2764
ag348
ag351
ag3791
ag3794
ag3797
ag3800
ag818
ag2662
ag4502
ag4053
ag535
ag2245
ag2248
ag2255
ag4257
ag4260
ag4264
ag4267
ag4271
ag4276
ag4281
ag2903
ag1868
ag1871
ag1877
ag1880
ag1130
ag1133
ag1136
ag2993
ag2996
ag2999
ag3760
ag3763
ag3769
ag3779
ag3085
ag3088
ag3092
ag1684
ag1208
ag1212
ag1215
ag2560
ag2565
ag3782
ag3786
ag1459
ag1441
ag1450
ag1453
ag3578
ag3582
ag3586
ag1648
ag4113
ag4123
ag2819
ag2823
ag509
ag516
ag520
ag120
ag123
ag128
ag132
ag135
ag141
ag144
ag98
ag101
ag104
ag108
ag112
ag355
ag365
ag370
ag376
ag2463
ag2466
ag2470
ag614
ag617
ag622
ag3222
ag3226
ag3230
ag706
ag709
ag4506
ag403
ag406
ag1494
ag1502
ag1218
ag1221
ag1224
ag2738
ag2741
ag2750
ag2753
ag2131
ag2134
ag2137
ag2177
ag2181
ag2186
ag1668
ag1803
ag572
ag2422
ag2425
ag2428
ag2432
ag655
ag663
ag668
ag3233
ag3241
ag2520
ag2525
ag2189
ag2193
ag2199
ag2203
ag2207
ag597
ag600
ag603
ag2867
ag2870
ag727
ag730
ag733
ag3195
ag3199
ag3207
ag3210
ag3215
ag150
ag154
ag157
ag3720
ag3724
ag3727
ag4381
ag4386
ag2608
ag2612
ag2617
ag550
ag553
ag557
ag563
ag3659
ag3662
ag3667
ag2070
ag2073
ag4148
ag4151
ag4154
ag4158
ag4163
ag4143
ag4096
ag4100
ag2019
ag2024
ag2029
ag585
ag589
ag594
ag2826
ag2832
ag2836
ag2840
ag2843
ag2846
ag4405
ag4413
ag4419
ag4527
ag3643
ag3646
ag3650
ag3484
ag3487
ag855
ag858
ag861
ag1467
ag1470
ag992
ag4011
ag4018
ag3053
ag3059
ag3063
ag3066
ag3069
ag227
ag1357
ag1360
ag1365
ag1895
ag1898
ag4488
ag4253
ag1620
ag2304
ag2307
ag264
ag1000
ag1004
ag1012
ag3439
ag3447
ag1688
ag1691
ag3177
ag576
ag582
ag1592
ag1597
ag1601
ag460
ag463
ag467
ag185
ag188
ag191
ag1082
ag1085
ag221
ag224
ag2211
ag2215
ag2218
ag3883
ag3890
ag3893
ag3897
ag3900
ag3904
ag1170
ag1177
ag1181
ag4663
ag4669
ag4672
ag4675
ag4682
ag3670
ag3673
ag3679
ag2979
ag2982
ag2987
ag4485
ag2437
ag2440
ag1975
ag1981
ag3852
ag3855
ag2443
ag691
ag179
ag4078
ag4081
ag3118
ag3123
ag3126
ag3129
ag3404
ag3412
ag3471
ag3477
ag3480
ag1108
ag1113
ag4615
ag4618
ag163
ag166
ag169
ag173
ag539
ag685
ag688
ag391
ag397
ag400
ag1707
ag3596
ag3602
ag3605
ag3610
ag3614
ag2581
ag2990
ag3034
ag3041
ag3046
ag3050
ag865
ag868
ag871
ag876
ag879
ag1227
ag1236
ag1239
ag1139
ag1145
ag4229
ag4240
ag1075
ag1078
ag4586
ag4589
ag4596
ag1821
ag1824
ag1828
ag3732
ag3736
ag3740
ag3932
ag1623
ag1626
ag1547
ag1550
ag1553
ag2575
ag504
ag1950
ag1956
ag1962
ag2489
ag2492
ag2879
ag2882
ag2887
ag4216
ag3244
ag3250
ag3254
ag3260
ag3263
ag4647
ag4650
ag4655
ag4658
ag4621
ag4624
ag4627
ag4630
ag4634
ag4638
ag4642
ag3534
ag3537
ag3331
ag3334
ag3337
ag3342
ag3347
ag1740
ag1743
ag769
ag772
ag973
ag976
ag986
ag989
ag1528
ag1531
ag1534
ag946
ag952
ag955
ag2912
ag2919
ag2681
ag2688
ag2691
ag3109
ag3114
ag4130
ag4137
ag4140
ag176
ag4768
ag4773
ag4510
ag4513
ag4516
ag4519
ag4522
ag2591
ag2595
ag2598
ag1410
ag1413
ag1417
ag4778
ag3745
ag2318
ag2324
ag2335
ag4343
ag4346
ag3270
ag928
ag932
ag935
ag939
ag943
ag1772
ag1775
ag1780
ag1020
ag1023
ag1026
ag2940
ag2943
ag2946
ag4600
ag3321
ag3324
ag3328
ag1089
ag1092
ag1095
ag2454
ag2457
ag255
ag261
ag3942
ag3945
ag3948
ag3952
ag3957
ag4057
ag4066
ag4069
ag4072
ag1056
ag3918
ag3921
ag3924
ag3927
ag4389
ag1422
ag1425
ag1431
ag1435
ag1438
ag1695
ag1700
ag1704
ag4710
ag4714
ag4717
ag4720
ag4725
ag1556
ag1564
ag1571
ag35
ag39
ag42
ag45
ag2626
ag2631
ag2791
ag2794
ag1662
ag3135
ag3138
ag3274
ag2002
ag2006
ag2011
ag273
ag276
ag280
ag283
ag2365
ag2376
ag2379
ag2382
ag429
ag432
ag959
ag962
ag967
ag970
ag51
ag56
ag59
ag65
ag68
ag71
ag74
ag77
ag3377
ag775
ag778
ag781
ag789
ag793
ag1117
ag1120
ag1123
ag4103
ag4106
ag676
ag679
ag682
ag1259
ag1262
ag1265
ag1272
ag1148
ag1151
ag1154
ag1158
ag1164
ag4538
ag4541
ag4544
ag411
ag420
ag821
ag826
ag832
ag1758
ag21
ag26
ag1652
ag1657
ag4166
ag4170
ag4175
ag3072
ag3075
ag3079
ag2588
ag736
ag739
ag742
ag1986
ag1989
ag1992
ag1995
ag1999
ag435
ag438
ag451
ag2297
ag2301
ag286
ag291
ag2099
ag2103
ag2106
ag2110
ag4200
ag231
ag234
ag238
ag4603
ag4606
ag4611
ag799
ag810
ag3909
ag3914
ag2273
ag2280
ag294
ag299
ag303
ag306
ag3180
ag3185
ag3188
ag3192
ag4000
ag4004
ag3981
ag2283
ag2286
ag2290
ag2294
ag3389
ag3393
ag3396
ag3399
ag3752
ag1539
ag1542
ag2665
ag2125
ag322
ag325
ag328
ag331
ag334
ag3450
ag1326
ag1329
ag1335
ag246
ag249
ag252
ag542
ag546
ag4580
ag4583
ag1462
ag1045
ag1049
ag1053
ag4213
ag1029
ag1032
ag1037
ag1040
ag1102
ag1105
ag4430
ag4436
ag4443
ag4447
ag4454
ag2033
ag2510
ag2513
ag2516
ag2483
ag2486
ag4464
ag4469
ag2694
ag2697
ag2700
ag2634
ag2638
ag2891
ag2894
ag2897
ag2900
ag3867
ag3870
ag3873
ag3879
ag4694
ag4697
ag4701
ag4313
ag4316
ag2549
ag2553
ag2557
ag1903
ag3002
ag3006
ag3009
ag3012
ag4458
ag4461
ag484
ag487
ag4331
ag4336
ag4340
ag1832
ag1835
ag1838
ag1842
ag2114
ag2117
ag2121
ag1746
ag1749
ag1752
ag1755
ag3161
ag3218
ag694
ag698
ag2969
ag2976
ag1059
ag1063
ag2622
ag1280
ag1284
ag1291
ag1299
ag1320
ag1323
ag490
ag501
ag996
ag243
ag2784
ag4742
ag4300
ag4303
ag4307
ag4310
ag1369
ag1376
ag4424
ag4427
ag338
ag341
ag345
ag1475
ag1478
ag1483
ag1486
ag1490
ag3
ag7
ag12
ag17
ag566
ag1244
ag1249
ag1253
ag3351
ag3356
ag1965
ag3683
ag3687
ag3690
ag4731
ag4734
ag4739
ag1906
ag1909
ag1913
ag4750
ag4755
ag4762
ag1275
ag4491
ag4494
ag4498
ag4179
ag4183
ag4187
ag4193
ag2735
ag2096
ag4548
ag4564
ag524
ag528
ag531
aa.