(lp1
(lp2
(lp3
VSOEPDZY12A6D4F72DD
p4
aVSOGFRWP12A6310EDBF
p5
aa(lp6
VSOYVTUO12CF5F87BC6
p7
aVSOCWWJQ12A58A783EF
p8
aVSOPUUTO12A8C142F8C
p9
aVSOMQVXX12A58A7B56E
p10
aVSOQXNDH12AC9074EC3
p11
aa(lp12
VSOZKDMB12B0B80C4AC
p13
aVSOHMWZZ12AB017DD1B
p14
aa(lp15
VSOYIEKE12A8C141815
p16
aVSOCZUBU12A8C1311DD
p17
aa(lp18
VSOGBFJT12AB018F365
p19
aVSOOGYVB12A6D4F82EC
p20
aVSOPASUJ12A8C136BA0
p21
aa(lp22
VSOOTMLO12AB017F842
p23
aVSOJLYFD12A8C1451A9
p24
aVSOJAYHV12A8C13F29A
p25
aa(lp26
VSOTWWZV12D02191B01
p27
aVSOBWDFR12A8C131CAD
p28
aVSOLIGMO12AB017C1A4
p29
aa(lp30
VSOAOETG12A8C139985
p31
aVSOCTSGO12AC468A14D
p32
aVSOWZMGC12AB018612C
p33
aa(lp34
VSONAZWN12A8151C957
p35
aVSOSPMBG12AB017B8A0
p36
aVSOZOSTH12A6D4FB48E
p37
aVSOYTYFN12A6D4F890D
p38
aVSOHEZOI12D021989AA
p39
aVSOLOZRE12A8C133256
p40
aa(lp41
VSOLHNIL12AC9097A14
p42
aVSOQONVE12A8C143F59
p43
aVSOWINPK12AB0185D6A
p44
aVSOIPXGR12A8C13EEBA
p45
aVSOCMUYL12AB018D6DC
p46
aa(lp47
VSOGPUTX12A58A7C7CB
p48
aVSORBBDO12A8AE47AEE
p49
aVSOVUAIQ12A6D4FA180
p50
aVSOBHAEF12AB0187C3F
p51
aVSOHXJIW12A8C13C203
p52
aVSOLKVLW12A6310D907
p53
aa(lp54
VSORPJMO12B0B806C2B
p55
aVSOHKQXJ12A8C13801D
p56
aVSOPPKQD12A81358272
p57
aa(lp58
VSOOZMHD12A8C144BF2
p59
aVSOPGPTD12A6310E032
p60
aVSOCLSID12A8C1395DF
p61
aVSOWIMTQ12AB0186D45
p62
aVSOBEBRO12A8C13A69E
p63
aa(lp64
VSOFOQGI12A6D4F8932
p65
aVSOVKNKJ12A6D4FD01D
p66
aa(lp67
VSOPUROF12A8C1389D3
p68
aVSOFHTIO12A6D4F6128
p69
aVSOCVEZQ12A58A78A13
p70
aa(lp71
VSOORCWC12A6310EA5E
p72
aVSORTDSD12A6D4F798B
p73
aa(lp74
VSOVGWXA12AB0180C28
p75
aVSOJZCLI12A8C133BB4
p76
aa(lp77
VSOCRHFJ12A67021D74
p78
aVSOZYZKF12A6310F9A2
p79
aa(lp80
VSOOYHJV12A58A7E9CD
p81
aVSOUTICS12A8C13C96C
p82
aa(lp83
VSOHLKPL12A6D4FB05C
p84
aVSOVLRSW12A8C132324
p85
aa(lp86
VSOIJSZR12A8C145290
p87
aVSOROWYQ12A6D4F86F7
p88
aVSOSFERF12A6D4FC329
p89
aa(lp90
VSOTCYAF12A81C1FCCA
p91
aVSOPQREY12B0B80B7B4
p92
aVSOLAGOT12A8C131AE3
p93
aVSOXQCID12A6D4FB81F
p94
aa(lp95
VSOTYRRB12A58A7DFE0
p96
aVSOKXABV12B0B8061EB
p97
aa(lp98
VSOOEZWW12A8C1402BB
p99
aVSORKZFB12A6D4FCABC
p100
aVSOOCRKC12D0219917F
p101
aVSOPQJKW12A58A7AB38
p102
aa(lp103
VSODUZYO12A58A75BE1
p104
aVSOXDIDW12B0B80954B
p105
aVSOYATTR12A670215F7
p106
aVSOPEAAB12A6701F63B
p107
aVSOGQKLV12AB0185D9F
p108
aVSOXNOYN12A6D4FB4B4
p109
aVSOVJVXR12A6701C0C8
p110
aVSOPAISF12AB01863CA
p111
aa(lp112
VSOYXYMD12A6701DC87
p113
aVSOFERJG12A8AE46C62
p114
aVSOCPBUW12AB01849D2
p115
aa(lp116
VSOAXKYT12A6701EF89
p117
aVSOHLPMN12A8151DCDA
p118
aa(lp119
VSODMGSB12A81C21DAA
p120
aVSOZPBSQ12A6D4F7827
p121
aVSOXMGLL12A58A7B3C7
p122
aa(lp123
VSOWPWTX12A8C1381E9
p124
aVSOPWYCL12D02197B12
p125
aVSOYOFST12D0219B4BA
p126
aa(lp127
VSOLANPM12AC46895E0
p128
aVSOCVTLJ12A6310F0FD
p129
aVSOJENBI12A58A7D07F
p130
aVSOZJSAD12A6310F322
p131
aa(lp132
VSOAWAEQ12D0219A20A
p133
aVSOJUCBN12AB018825E
p134
aa(lp135
VSOWOBQK12A8C13A5F0
p136
aVSOYWQSL12A67020A21
p137
aVSOFMOXD12D0219AE3A
p138
aa(lp139
VSOIECBG12A6701E940
p140
aVSOGLQRU12D02194A18
p141
aVSOSYBRB12A8C13CCC9
p142
aVSOYMDHB12A6D4F8C6F
p143
aVSOYNWJZ12A8C13A5F7
p144
aVSOZZDGI12A67020F28
p145
aVSOCRNTA12A8C13CCB6
p146
aa(lp147
VSOVOECI12AF729DC39
p148
aVSOZGFSJ12A67020A23
p149
aa(lp150
VSORPBRR12A8C13979C
p151
aVSOVYSKZ12A58A7992D
p152
aVSORZUFU12AB018DCA3
p153
aVSOOSCVF12A8C137E14
p154
aVSOVLEEA12A6D4F6DF8
p155
aVSOXODFD12A8AE48868
p156
aa(lp157
VSOHIFYW12A8C136B6A
p158
aVSOIUXEF12A8AE479A3
p159
aVSOLMLQF12A6D4FA42F
p160
aVSOEWWJF12A6310E262
p161
aa(lp162
VSOHJRKR12AB0188738
p163
aVSOCGJMG12A8C1361B3
p164
aa(lp165
VSOUSKYH12A8C134308
p166
aVSOUBYJX12A8C1339A4
p167
aVSORQPGB12AB017E8BB
p168
aVSOXPMIV12A6701EF9E
p169
aa(lp170
VSOFLGTK12AB0182082
p171
aVSONHZMO12B0B8078A7
p172
aVSORHRSZ12AB017F534
p173
aVSOYNZTE12A6D4F6FB7
p174
aVSOHTYIR12A8C135EFE
p175
aVSOAJJDS12A8C13A3FB
p176
aVSOKBFBB12A6701DC77
p177
aa(lp178
VSOKWCMU12A8C13636D
p179
aVSOHVOPH12A67AD9539
p180
aa(lp181
VSOLMYII12A67021345
p182
aVSOXVBNQ12A6701CFBA
p183
aa(lp184
VSOXJZAG12A6D4F9A6F
p185
aVSOOEFFM12AB017CFFE
p186
aa(lp187
VSOCGBHF12AB0189243
p188
aVSORJUGQ12AB017CFC3
p189
aVSOGPMWB12A8C136D81
p190
aVSOQATIZ12AB017CFF5
p191
aa(lp192
VSOODSUT12A6D4F5A9C
p193
aVSOOPMOB12AB0182028
p194
aVSOJJLKV12A8C137F0F
p195
aVSOSLZXV12A8C1354C9
p196
aVSODWLTX12A6D4F89C8
p197
aVSOJRAVB12AF72A2AB1
p198
aVSOKNJZO12A8C139449
p199
aVSOJGEIS12AF729B2F5
p200
aa(lp201
VSOAVQUN12AF729E47B
p202
aVSOJLZZC12A8C13C5BB
p203
aVSORDDGI12AB017EEF0
p204
aa(lp205
VSOMHHKG12A8C133C3B
p206
aVSOMMBJP12A8C139D10
p207
aa(lp208
VSOJLGOV12AB017E995
p209
aVSOTYGGI12A8C13D686
p210
aVSOQTZYK12A58A7E220
p211
aa(lp212
VSOHTUXB12AC46853BA
p213
aVSOYBACH12AF729C4E4
p214
aVSOKMCJK12A6D4F6105
p215
aVSOPHSBZ12A6D4F9693
p216
aa(lp217
VSORGTSS12AB018E5B0
p218
aVSODRKZT12A58A7E459
p219
aVSONGKMP12AB0181535
p220
aVSOVJYXY12AC468A93E
p221
aVSOCVBFV12A6701FB94
p222
aa(lp223
VSOTRDLO12A8C13EEE5
p224
aVSOPRSXU12A8C143777
p225
aVSOWFPUV12D0219048C
p226
aVSOQBKSY12AB017CFB8
p227
aa(lp228
VSOIMAAD12AB017CE47
p229
aVSOVRGFL12AC4687488
p230
aa(lp231
VSOLHNIL12AC9097A14
p232
aVSOGWFJE12B34F1C0EA
p233
aVSOBIGKJ12AB017D9F2
p234
aVSOZDRQA12AB0187E61
p235
aVSOCABCH12AB0184CA5
p236
aa(lp237
VSOGUJWE12A81C20BE5
p238
aVSOQZRIM12A582917DD
p239
aa(lp240
VSOLWUKD12A8C138AFA
p241
aVSOIDJXS12CF5F880B5
p242
aVSOMYYLT12A6D4FA41C
p243
aVSOVPUXX12A6D4FAC56
p244
aa(lp245
VSOMVSPK12A6D4F7D45
p246
aVSOGFWUD12A6D4F6A71
p247
aa(lp248
VSOSGPSW12D021907EB
p249
aVSOYOFST12D0219B4BA
p250
aVSOXMBKU12A8C13455C
p251
aa(lp252
VSOCWTSA12A58A78ED6
p253
aVSOESSRH12AB01828D7
p254
aa(lp255
VSOEBOWM12AB017F279
p256
aVSOIJSZR12A8C145290
p257
aa(lp258
VSOCGTRL12A8C137063
p259
aVSOKXHLY12AB018490C
p260
aVSOBIFEU12A6D4F6502
p261
aa(lp262
VSOODTGE12AB017F3B0
p263
aVSOQWHFM12A8C138FF8
p264
aVSONAYMY12A8C135304
p265
aVSOHHALP12A6D4FB6A8
p266
aVSOGVDGD12AB017B9A4
p267
aVSOBSAAN12A8C135B63
p268
aVSODIUED12A6701C446
p269
aVSOZUBKR12A8C146A83
p270
aVSODLMSF12A6D4F752A
p271
aVSOESRBI12A8C1317FB
p272
aa(lp273
VSOLSACQ12AF72A1BBE
p274
aVSOICMUA12AB0181375
p275
aVSOYFFTT12A8C144F1F
p276
aa(lp277
VSOALTIZ12A8C140440
p278
aVSOUIARE12A8C13F677
p279
aa(lp280
VSODPPVY12A8C13C6E4
p281
aVSOIWPQF12A6D4FDA82
p282
aVSOFUROX12A58A7ACFC
p283
aVSOTWMQQ12A81C23BB2
p284
aa(lp285
VSOGFXFC12A8AE494BE
p286
aVSOSNWER12A8C13B75B
p287
aa(lp288
VSOCZFHX12AB018EB1B
p289
aVSOYHLBG12A8C139398
p290
aa(lp291
VSOFCEBT12A6D4F826F
p292
aVSOISQVK12A8C141244
p293
aVSOGHLQD12A8C1412A6
p294
aVSOLJXWH12A6D4F8277
p295
aa(lp296
VSOMDRHJ12D02191AB4
p297
aVSOOYLGA12A8C1455B3
p298
aVSOUQLQU12A8C139703
p299
aa(lp300
VSODUEEC12AB0183BC6
p301
aVSOEABKX12A6D4F8295
p302
aa(lp303
VSOVZOGZ12A8C14123E
p304
aVSODDWZN12AB018B406
p305
aVSOLRTZD12AB01822F2
p306
aVSOUKTHA12D0219AC1F
p307
aVSOGQYWL12A6701E777
p308
aa(lp309
VSOGSWDO12A67020807
p310
aVSONBMJI12A6D4F82B7
p311
aVSOPVGUH12D02193746
p312
aVSOODTGE12AB017F3B0
p313
aa(lp314
VSOHNGYM12AB0186148
p315
aVSOOEZWW12A8C1402BB
p316
aVSOPPRIE12AAA8C598A
p317
aa(lp318
VSOUEBPM12A6D4F9337
p319
aVSOYGJTE12D021B0BA3
p320
aa(lp321
VSOXNDXG12A6D4F78EB
p322
aVSOTAJWO12A6D4FAF84
p323
aVSOQMIVG12A679D7E28
p324
aVSOBYZRW12A58A7ABF1
p325
aa(lp326
VSOOLUOY12A6D4FC424
p327
aVSOOXYEN12A6310F2AA
p328
aa(lp329
VSOANVEM12A6701E40D
p330
aVSOUPDNB12A8C13A431
p331
aa(lp332
VSOACNEI12A58A78438
p333
aVSONDUPV12A6D2270F0
p334
aa(lp335
VSOAMUYE12AB0186CE6
p336
aVSOBNLKQ12A8C137AD3
p337
aVSOLLASY129F082F691
p338
aa(lp339
VSOZOEFS12CF5F87968
p340
aVSOSLZXV12A8C1354C9
p341
aVSOGTVLQ12A8C13130E
p342
aa(lp343
VSODECVE12AB018E47E
p344
aVSOSSIFU12A6D4F6EF3
p345
aVSOTPDUH12A8C133980
p346
aVSOBEREE12A6D4F5B53
p347
aa(lp348
VSOMBGRE12A8C131E39
p349
aVSOGICDN12A58A75C1F
p350
aa(lp351
VSOLGYOK12D02198DC9
p352
aVSOWMGIM12D0219A270
p353
aa(lp354
VSOOVSQL12A8C13E2EA
p355
aVSONTQQQ12A8C1349FF
p356
aVSOLKPPX12A8C131FF1
p357
aVSOQUWHS12A6701C6B9
p358
aVSOKQBZU12A58A787DC
p359
aVSOGCFTG12AF72A4C4B
p360
aa(lp361
VSOESOXZ12AF72A7535
p362
aVSOJWJAE12CF4E03F70
p363
aVSOLGFZF12A8C13FADC
p364
aa(lp365
VSODOUKL12CF5F87667
p366
aVSORMEMH12A8C137DC6
p367
aVSOGHSQA12A8C14098E
p368
aVSOOALAI12AF72AA613
p369
aa(lp370
VSOHQELP12A8C13645A
p371
aVSOGLBDH12AB018847B
p372
aa(lp373
VSOKXYIL12AB0189157
p374
aVSOMAKIT12A58A7E292
p375
aa(lp376
VSOLMWNQ12AB0187324
p377
aVSOQGVCS12AF72A078D
p378
aVSOFUFYI12A6D4F9F17
p379
aVSOPGJNU12CF5F887B1
p380
aVSOSJJMN12A8C13BAB9
p381
aVSONTWAN12A58A7DF5A
p382
aa(lp383
VSOHUUFD12A6701DBD7
p384
aVSOZBIVL12A8C13DB46
p385
aVSOXCYCM12A8C136013
p386
aVSOTSXGM12A8C135C70
p387
aVSOCPHFZ12A8C13C036
p388
aVSOMRLCU12AB0185E51
p389
aVSODKTIY12AB0188309
p390
aVSOWWVFE12A58A79646
p391
aVSOILDCJ12AB01822FE
p392
aVSOQBQQI12A6310E02F
p393
aVSOKXSOJ12A8AE460C2
p394
aVSOOZZRR12AF72A43DD
p395
aa(lp396
VSODMBBJ12A8C1398B2
p397
aVSOCULDL12AB0182B8E
p398
aVSOHSDLI12A58A77585
p399
aVSODVXOJ12A8C13BC2F
p400
aVSOBCXJF12A8C13E731
p401
aa(lp402
VSOHNXSV12A8C1423FE
p403
aVSOAMOHC12CF5F879C6
p404
aVSOHIVPW12A8C131CDE
p405
aa(lp406
VSODHUOR12A8C14029C
p407
aVSOWNAPL12CF5F879C7
p408
aa(lp409
VSOBDOTS12A6701DC62
p410
aVSOPJZNT12AB018E9DC
p411
aa(lp412
VSOHBFNM12A6D4F79A9
p413
aVSOYYRMV12AB017E842
p414
aa(lp415
VSOFJBCL12A6D4FA42E
p416
aVSOOSTKN12A8C131FCC
p417
aa(lp418
VSOXQNKJ12A8C13705B
p419
aVSOUETWN12A6701EB1B
p420
aVSOSQOVC12A8C133ECF
p421
aVSOZVJUG12A8C13BF6B
p422
aVSOKCMZW12AB0183EB0
p423
aa(lp424
VSOVSSQW12A8C136F0F
p425
aVSOCFGIT12A8C13E64F
p426
aVSOODDXY12CF5664FAD
p427
aa(lp428
VSOCGASN12A67ADE3E7
p429
aVSOOKMGS12AB0181705
p430
aa(lp431
VSOXEAQS12AF729E0EB
p432
aVSOMOXSE12B0B80BEBB
p433
aa(lp434
VSORXKPM12A67AE2286
p435
aVSOURCIC12A81C1F959
p436
aVSOIDZJN12A58A7B2F6
p437
aa(lp438
VSOKSARW12CF5F871D7
p439
aVSOZDQIV12A6D4FA3E3
p440
aVSOGHLPM12A6D4F8009
p441
aVSOUXNST12A6D4F657A
p442
aVSOXYFCH12A6BD4D5C9
p443
aa(lp444
VSOLLMFO12A81C21749
p445
aVSOPOSLB12A67ADE948
p446
aa(lp447
VSONKXIB12A58A7BCF0
p448
aVSOVNGDQ12CF5F87619
p449
aVSOMDJRE12AF72A7325
p450
aa(lp451
VSOXERNK12A8C1409D8
p452
aVSODGACR12A8C141936
p453
aVSOFMFYW12A8C13C14D
p454
aa(lp455
VSOHVHKM12A8C13F716
p456
aVSOPMJGR12AB017E321
p457
aa(lp458
VSONENHZ12A8C13A186
p459
aVSOGZNMT12AF72A3E0C
p460
aa(lp461
VSOOHYCQ12A8C13FBE6
p462
aVSODYZIU12A8C13FBD9
p463
aVSOCCPYP12A8C13FBEC
p464
aVSOLOYTE12A8C13FBE9
p465
aVSOFHLXS12A58A77A5F
p466
aVSOWSVLJ12A8C13FBDD
p467
aa(lp468
VSORPLLH12A8C13FC0B
p469
aVSOJZGMT12A8C13FBF2
p470
aa(lp471
VSOPNEPV12A8C13FBE9
p472
aVSOOBQKZ12A8C13FC0E
p473
aa(lp474
VSOYHKDM12A67ADA727
p475
aVSOJRQAM12A67ADE7EF
p476
aVSOCFBSO12AF729B1D7
p477
aa(lp478
VSOGXEOC12A6D4FB6C9
p479
aVSOZERJS12AC9070FF3
p480
aa(lp481
VSOPMJMF12A6D4F9EFD
p482
aVSOSKBFK12A6D4FBCAF
p483
aVSOCCKZC12A8C14004D
p484
aVSOCEJKB12A8C13B7E3
p485
aVSOPONUS12A6D4FB437
p486
aa(lp487
VSOCYAQD12D021B18B1
p488
aVSOMDLRV12A6D4F74D2
p489
aVSOPGISP12AB0180D3C
p490
aVSOSJECG12AF72A4DE0
p491
aa(lp492
VSOVKPXJ12AB01896BB
p493
aVSOUJAEE12A6701F904
p494
aVSOELFVA12A6D4FCA2A
p495
aVSOWIPGH12A81C22A79
p496
aa(lp497
VSOEJSJB12A8C13FF5B
p498
aVSOFZJEL12A58A77FEF
p499
aa(lp500
VSOXERNK12A8C1409D8
p501
aVSOOHCEP12AB0187DBD
p502
aVSOWHSHI12A6D4F982C
p503
aVSOESQVT12A8C141547
p504
aVSOSOXYF12A8C141647
p505
aa(lp506
VSOIHAIA12AB01825F1
p507
aVSOFSXON12A8C133CC4
p508
aVSOOUYQX12A8C135544
p509
aVSOATHUP12A8C131DC3
p510
aVSOAYKDR12A8C135536
p511
aVSODMSGO12AB0188ADB
p512
aVSOALWQW12A8C143C1F
p513
aVSOPVMPU127D977E2E5
p514
aa(lp515
VSOJABDE12D02198E3B
p516
aVSOKEMKI12AB0180389
p517
aa(lp518
VSOPGLTT12A67020D4D
p519
aVSOYIPFY12A8C13AF8C
p520
aa(lp521
VSOCYUCD12AB0181E12
p522
aVSOQUZJH12AC961830F
p523
aVSOTMQTY12A6D4F9F70
p524
aVSOWJJDE12A8C141F76
p525
aVSOKBVSM12A8C13B67B
p526
aVSOZRONU12A8C1368E1
p527
aa(lp528
VSOJPXLA12AB0186FD0
p529
aVSOOEEYG12A6D4FAB8A
p530
aVSONOLXZ12AB0182DD8
p531
aa(lp532
VSOQQPHB12AB01847F8
p533
aVSONZZTV12A8C139C92
p534
aa(lp535
VSOMQWBH12A8AE44A40
p536
aVSOHNRJO12A8AE44A2B
p537
aVSOUFWDY12A8AE45BAB
p538
aa(lp539
VSOZRNFS12AF72A3EB5
p540
aVSOXJRTO12A8C13F734
p541
aVSOLCKPL12AB018488F
p542
aVSOJRZSW12CF5F8930A
p543
aVSOLJYEI12A8C13F7B3
p544
aVSOCONZX12A8C13F7BC
p545
aVSOQXJRY12A8C13F7C8
p546
aVSOVSGJB12A8C13F772
p547
aVSOWXBCX12AF72A30F4
p548
aVSOWHJGC12A8C13F7A6
p549
aVSOUBLBY12A8C13DA03
p550
aVSOBVHPV12AB018432F
p551
aVSOIPSKD12CF5F882BA
p552
aa(lp553
VSOFEPMD12A8C13B9EA
p554
aVSOWDWCG12A81C22155
p555
aVSOZVVMJ12A58A7C548
p556
aa(lp557
VSOOHYZC12AC3DF92D3
p558
aVSOSRIHB12A8C13608B
p559
aa(lp560
VSOVRCRT12A6D4FA66D
p561
aVSONOLXZ12AB0182DD8
p562
aVSODMXVR12A58A7CF3B
p563
aVSOFKBXG12A8C13CA84
p564
aVSOOPLKU12AF72AB53F
p565
aVSOMAKIT12A58A7E292
p566
aVSOLMLQF12A6D4FA42F
p567
aa(lp568
VSOWGHHQ12A67021878
p569
aVSOMGSMM12A58A774F9
p570
aa(lp571
VSOBDZVH12AC468AB54
p572
aVSOOPXFY12A6701DE4C
p573
aVSOBPICV12A8151CDF1
p574
aVSORWGRQ12A8C13FFA1
p575
aVSOAUMAT12A8C13C5EC
p576
aa(lp577
VSODFDJT12A8C13A08E
p578
aVSOPRCSF12A8C142416
p579
aa(lp580
VSOWGPIX12AB017FD9B
p581
aVSOLLVFE12A6D4F9793
p582
aa(lp583
VSOEXXAJ12A8C13AD79
p584
aVSOKRTTG12A8C13D9A3
p585
aVSOFENYK12CEB121A06
p586
aVSOGKTGP12AB0184C11
p587
aVSOMTYDO12AB017DDEB
p588
aVSORIJHP12A8C13CDD9
p589
aa(lp590
VSOYHXSV12D021B0A95
p591
aVSOXGFOR12A6701D980
p592
aVSONPTRO12AF6E5E956
p593
aVSOXLVRT12A58A7E8F5
p594
aa(lp595
VSOUQKMD12A8C130ED9
p596
aVSOAKMCY12A58A7CF95
p597
aa(lp598
VSOYPJUD12A8C142162
p599
aVSOOCLQD12A8C13689D
p600
aVSOWURSI12A6D4FA4B7
p601
aa(lp602
VSOHXBBH12A6D4FAEFF
p603
aVSOUBHNI12A58A7B600
p604
aVSODYWBD12A8C139845
p605
aVSOTOHHT12A6D4F957B
p606
aVSOMBPLA12AB01810CF
p607
aVSODJZGV12A6D4F91D0
p608
aVSONXLOK12A8C13E7FF
p609
aa(lp610
VSOWOGIQ12A8C131CB8
p611
aVSOHRRIF12A67ADE946
p612
aVSODCDJS12AF72A7593
p613
aVSOOWJZM12A6D4F7995
p614
aVSOWLUAD12A6701C7F8
p615
aa(lp616
VSOTTRLC12AB01894DF
p617
aVSOCEDHA12A6D4FAC8A
p618
aVSOCPWWE12A6D4F3E3D
p619
aVSOMAEDB12A8C131DCA
p620
aa(lp621
VSOLWYHC12A8C13C47D
p622
aVSOPPHII12A6701F35D
p623
aa(lp624
VSOPVMPU127D977E2E5
p625
aVSOZDYMX12A58A7D443
p626
aVSOYFRVX12AAF3B3F3E
p627
aVSOUFPIT12A8C1436E9
p628
aVSOOXMSN12A58A7A8D3
p629
aVSOSBLHB12AB018895D
p630
aVSOKXYIL12AB0189157
p631
aVSOMTLPL12A6702085A
p632
aVSOIWMSK12A6D4F8A22
p633
aa(lp634
VSOEIXVA12A8C14242B
p635
aVSOBHIJO12A6D4FA26C
p636
aVSOTFNDA12A8C13CA5C
p637
aa(lp638
VSOLJQOK12A8C14028B
p639
aVSORYTJR12AB01823D6
p640
aVSOMAYIJ12A8C13DF9B
p641
aa(lp642
VSOFBNAZ12A8C141934
p643
aVSOUAHGM12A8C142415
p644
aa(lp645
VSOFEQLV12A6D4FC55D
p646
aVSOJAOGQ12AF72A2B31
p647
aVSOIHVYM12A8C13585D
p648
aa(lp649
VSOZKSUN12A8C13F2C6
p650
aVSOTPLDS12A6D4FA013
p651
aa(lp652
VSOYBVDI12A6701C3B7
p653
aVSOPFJWP12A6D4FA674
p654
aVSOMAEDB12A8C131DCA
p655
aa(lp656
VSOTQKDV12A58A7B823
p657
aVSOJNTWD12A67021D2C
p658
aVSOLMLQF12A6D4FA42F
p659
aa(lp660
VSOTNJYO12A8C143DAF
p661
aVSOZTBIS12A6D4FD061
p662
aVSOCPWWE12A6D4F3E3D
p663
aVSORVZYG12CF5F88152
p664
aa(lp665
VSOUWCKH12A6D4FA4A8
p666
aVSOCLSLO12A8C137815
p667
aa(lp668
VSOJYJOK12B0B8084DE
p669
aVSOSOLGI12AB017D198
p670
aa(lp671
VSOAEJGR12A8C13AEB3
p672
aVSOXPWEG12A8C13E70B
p673
aa(lp674
VSOYXCKX12AF72AAE91
p675
aVSOLMUNP12CF5169FCC
p676
aVSOWVPRG12AB017F4EB
p677
aVSOIXFZF12A8C130F39
p678
aVSOXKWED12AF72A9043
p679
aVSOWNKBG12A67020F77
p680
aVSOJULNG12A8C1345FA
p681
aVSOQJVXJ12A8C132D1E
p682
aa(lp683
VSOWOBQK12A8C13A5F0
p684
aVSODHLKV12A8C13E056
p685
aVSOYXYFV12A8C13BD2D
p686
aVSOUBYJX12A8C1339A4
p687
aa(lp688
VSOCKVKB12A8AE47CD9
p689
aVSOUQIVA12A8C13E085
p690
aVSOZHUTM12A8C13A5E3
p691
aa(lp692
VSOHNDIB12A58A79AB1
p693
aVSOBCRUE12A81C224B5
p694
aa(lp695
VSOSFNHO12A8C135AF0
p696
aVSOBJROJ12A8C1327A3
p697
aVSOHWFSX12AB0182124
p698
aVSOSTBLT12A6310F992
p699
aa(lp700
VSONCNQU12A6D4F7FE1
p701
aVSOSVNOS12AB01831D7
p702
aVSOJUJDC12A8C1340C0
p703
aa(lp704
VSOQQWFI12A67020F95
p705
aVSODTRMS12D021B1E9A
p706
aVSOMJJKF12A6D4FEAA9
p707
aVSOGXSZG12A8C13A1C1
p708
aa(lp709
VSODZFBX12A6D4F81C8
p710
aVSONEZJT12AB0187318
p711
aa(lp712
VSOEBOJB12AB0184FCE
p713
aVSOWSCMF12A8AE456BB
p714
aa(lp715
VSOITJYC12A8C1433A7
p716
aVSOMWIQI12AC468A9A6
p717
aVSORGCPU12A8C1341DD
p718
aVSOHAMYR12A6D4F9AE0
p719
aVSODOTXH12AC90711E9
p720
aVSOOONQY12A8C13DF5E
p721
aa(lp722
VSOFGWNX12AB018F477
p723
aVSOPAVAQ12AB0183D06
p724
aVSOJAOGQ12AF72A2B31
p725
aVSODDTOB12D021B25E2
p726
aVSOLOYAW12A8C138063
p727
aVSOFMTUK12A8C13577E
p728
aVSORVRMR12A8C134606
p729
aVSOVYZXY12A6701EAE3
p730
aVSONAGTJ12A8C13F27B
p731
aVSOVBWGY12AC3DF4658
p732
aVSOBSVKS12A8C1443A3
p733
aVSONWGOO12A8AE482DD
p734
aa(lp735
VSOCBUOI12A81C205AA
p736
aVSOODHLO12AF72A1980
p737
aa(lp738
VSOROJER12A8C140911
p739
aVSOKVLVS12AC3DFB65B
p740
aVSONGKMP12AB0181535
p741
aa(lp742
VSOEOXGY12D02199501
p743
aVSOSIVDH12A81C2204B
p744
aVSOVHBSB12A8C133CAF
p745
aa(lp746
VSOPRMBW12A6702028A
p747
aVSOOWCWQ12A6701EB07
p748
aVSOVGXLX12AB017DDA4
p749
aVSOPTOQG12A67020C0C
p750
aa(lp751
VSOHGUIR12AB0188759
p752
aVSOSMBNX12D021908CF
p753
aVSOFQRQK12AAF3B4F1D
p754
aa(lp755
VSOTWLJL12A58A7DA90
p756
aVSORDYVO12A8C141A40
p757
aVSOEAJTP12A6310D999
p758
aVSOJMCMC12AB017E502
p759
aa(lp760
VSOGQAFL12A8C13F5AA
p761
aVSONJNCJ12A8151DCA7
p762
aVSOBMAFJ12A8C137C88
p763
aa(lp764
VSOYZJGH12CF5465164
p765
aVSOIMAAD12AB017CE47
p766
aVSODEBBK12A67FFB42B
p767
aVSOKASSZ12A58A7D6E3
p768
aa(lp769
VSOINADO12A8C14001A
p770
aVSOFBPAU12AB0185675
p771
aVSOTXPIE12AF72AB7E3
p772
aa(lp773
VSOPKZFH12A8C144103
p774
aVSOOAHBX12AC4687467
p775
aVSOSSTUN12AB018D5C5
p776
aVSOLALOC12A8C14467E
p777
aVSONHJUD12A6701E5D0
p778
aa(lp779
VSOYADQF12A8C141E01
p780
aVSOBEBRO12A8C13A69E
p781
aVSOERKLC12A8C13A6A7
p782
aa(lp783
VSOVUAIQ12A6D4FA180
p784
aVSONRDIS12A8C130C66
p785
aVSOJGFYN12A58A7AEAA
p786
aVSOTEZFR12AB0185B8F
p787
aVSOCWWCN12AF72AA2FA
p788
aVSOHFANW12A8C133838
p789
aVSONWUCR12A6D4F82BB
p790
aVSOPMUQL12C106D0782
p791
aa(lp792
VSOPJZJY12AB0180AF6
p793
aVSOLOFQJ12AB0184320
p794
aVSOUUHWK12AC468EE48
p795
aVSOBECBB12A8C14116C
p796
aVSOKNFWB12A6D4F8AA9
p797
aVSOLVFYI12A58A79481
p798
aVSOAQZOC12A58A7EE1C
p799
aVSOVOPYF12A8C138689
p800
aVSODBTCD12A58A7A35A
p801
aVSOFFPWY12AC468EE4C
p802
aVSOLRDJB12A58A7A005
p803
aVSOOGSME12A8C13868C
p804
aa(lp805
VSOCNRMF12AB0182FFD
p806
aVSONRIBF12A582A2169
p807
aVSOXAGTK129F069CB43
p808
aa(lp809
VSOVYRXD12CF5F89062
p810
aVSOSYMSX12A6310DFE2
p811
aVSOSCJLH12AF72A11FD
p812
aVSOUMKQY12AC4687B8B
p813
aVSOIIMGT12AC3DF84C6
p814
aVSOXQANB12A6701FAA4
p815
aa(lp816
VSOCNERU12A58A7CBCB
p817
aVSOARXSQ12A67020F78
p818
aVSOJGFYN12A58A7AEAA
p819
aVSOQWKPG12A8C138D4D
p820
aVSOYOUEC12A58A7B4AB
p821
aVSOWYSXX12A8C13353A
p822
aa(lp823
VSOBXVNE12A8C131DBA
p824
aVSOCBNYL12A8C13404D
p825
aVSOFMTUK12A8C13577E
p826
aVSOHZCHN12AF729F303
p827
aVSOQYKGR12A8C131DCE
p828
aVSOKIXPG12A8C13D86F
p829
aa(lp830
VSOYWCWG12A8C131DD3
p831
aVSOXMSZW12A8C13FA74
p832
aa(lp833
VSOAYXFL12A8C131F0D
p834
aVSOHVLOB12A6701E989
p835
aVSOOQILK12A8C13135E
p836
aa(lp837
VSOLHOYE12A67020F83
p838
aVSOTUUWK12AB01821C6
p839
aVSOFQKAX12AB017C68F
p840
aa(lp841
VSOFVOQL12A6D4F7456
p842
aVSOSABUI12AB0182CB5
p843
aa(lp844
VSOLJZKI12AB0186D1C
p845
aVSOHWRJH12A8C139AFC
p846
aa(lp847
VSOLTVDG12A8C14454A
p848
aVSONVOPW12A670208F4
p849
aVSOYCUOB12A8C143692
p850
aa(lp851
VSOFSETB12A8C134038
p852
aVSOXDUSG12A8C134034
p853
aVSOPWVTH12AB01843CE
p854
aVSOILYJI12A8C140D9E
p855
aVSODDSOG12A8C140DAB
p856
aVSOPXLWJ12A8C132639
p857
aVSOAUFOF12AB0180C65
p858
aVSOBPFAB12A8C140A2C
p859
aVSOTKCJD12AF729F372
p860
aVSORUGSI12A67ADE86C
p861
aa(lp862
VSOPGZDN12A6D4F9C9D
p863
aVSOQAFSW12A67021430
p864
aa(lp865
VSOMVORT12AB01812B0
p866
aVSOIHHFD12AB01812FA
p867
aVSOHAVET12A6D4F8CB1
p868
aVSOPCRJH12A679D8ADF
p869
aVSOYKZRN12AF729EEFC
p870
aa(lp871
VSOHMQXJ12A8AE47DE5
p872
aVSOBWDFY12A58A7B175
p873
aa(lp874
VSOKPXAZ12A58A802CF
p875
aVSOFBTYM12A6D227205
p876
aVSOXXASM12A67ADE975
p877
aa(lp878
VSOHPHBA12AB017B0C4
p879
aVSODZEIF12AB018A28E
p880
aa(lp881
VSOLCKAS12A8C14242A
p882
aVSOFMOXD12D0219AE3A
p883
aVSOXFAOM12A8C136E22
p884
aa(lp885
VSOZBVHE12A8C1382BF
p886
aVSODMAYX12A6D4F7AC4
p887
aVSOEZCZG12A8C13AC73
p888
aa(lp889
VSOCWIWP12AB018D16D
p890
aVSONYVNA12AF72A3AF8
p891
aVSOINRYO12AB017C708
p892
aa(lp893
VSOHPXOY12AB017CFD9
p894
aVSODWMQF12A8C136D70
p895
aa(lp896
VSOLRVZZ12A58A7E04A
p897
aVSOMIBMR12AB0186952
p898
aVSORGQWD12A8C145590
p899
aVSOVDJSR12A8C138C6E
p900
aa(lp901
VSOMTUAP12A8C13DCC6
p902
aVSOUOHAP12A8AE4775D
p903
aVSOFQECM12A8C1396CB
p904
aa(lp905
VSOENYKM12AC4689DFE
p906
aVSOPGMMY12A8C134F36
p907
aa(lp908
VSOCFGIT12A8C13E64F
p909
aVSOQULRS12A8C13D784
p910
aVSOPXLWJ12A8C132639
p911
aVSOPRSXU12A8C143777
p912
aVSOXSGWI12A8C1381CA
p913
aVSOKTWYA12AF72A2D2E
p914
aVSOFUDED12A81C218BD
p915
aVSOXNDXG12A6D4F78EB
p916
aa(lp917
VSOXZAUQ12A8C13E415
p918
aVSONCGUA12A6D4FB9B2
p919
aVSOSBICO12A8C140342
p920
aVSOXEAQS12AF729E0EB
p921
aVSONMXTY12A8C145D31
p922
aa(lp923
VSOCGAVZ12A670204AF
p924
aVSOFKPGP12AAF3B3F78
p925
aVSOWPWTX12A8C1381E9
p926
aVSOMWYDG12A8C14376B
p927
aa(lp928
VSONHWIM12A8C1379F2
p929
aVSOMAIFI12A8C13930D
p930
aVSOKHTYK12AF72A46AF
p931
aa(lp932
VSOHATSR12A6702045F
p933
aVSOINEXW12A58A790F1
p934
aVSOEDQBM12A6701E0BD
p935
aVSORJUFZ12A67ADAF25
p936
aVSOBZTLU12A8C13C62B
p937
aa(lp938
VSOBSUVM12A8C13F7BC
p939
aVSOHXUTT12A6310D9F3
p940
aa(lp941
VSOOTFKD12AB01813AA
p942
aVSONFXOM12AB01843E7
p943
aVSOADBYV12A8C145005
p944
aVSOGFIUF12A6D4F736E
p945
aVSOXBEZV12AB0187CEE
p946
aa(lp947
VSOWBXSN12A8C13A9E9
p948
aVSOCNQSW12A6D4F891C
p949
aa(lp950
VSOAIQYM12A6701F507
p951
aVSOAVZDO12A8AE47FE2
p952
aVSOXTBGF12A6D4FB49C
p953
aa(lp954
VSOALDUQ12AF72A6B32
p955
aVSOCCXYC12A8C142754
p956
aVSOFLAGT12A58A7F597
p957
aa(lp958
VSOEBOWM12AB017F279
p959
aVSOFWMPP12D02193ABD
p960
aa(lp961
VSOKVSAG12AAA8C597F
p962
aVSOEUIUI12A58A7CD98
p963
aVSODAOYZ12AF72A04B5
p964
aVSONZLKB12A8C13241C
p965
aa(lp966
VSOBECLR12A6D22723E
p967
aVSOVBZNO12A67AE0A58
p968
aVSOOIQZC12A6701FEA1
p969
aVSOBAKOT12A67021B3D
p970
aa(lp971
VSOIWCMR12A8AE46A94
p972
aVSOGOPNS12AC468BB44
p973
aVSORWLJM12A6D4F9C0C
p974
aVSOSCPOI12A8C139F02
p975
aa(lp976
VSOVEIBB12A8C13E5C3
p977
aVSODHYGQ12AB0188286
p978
aVSOLYVAA12AF72A366B
p979
aVSOQPHIG12A67AD749F
p980
aVSOABHNP12A8AE46E82
p981
aVSOIHSEH12D021B59C2
p982
aVSOIZLKI12A6D4F7B61
p983
aVSOGOZLT12A6D4FB302
p984
aVSOSSPEZ12A58A7676F
p985
aVSOONCBO12A6D4F6D0E
p986
aVSOUWROC12A8C141CF3
p987
aVSOJWBYS12A67AE17A1
p988
aVSOQQKXM12AB018622E
p989
aVSOAUEOX12AB0188519
p990
aVSOTOVIL12A8C133FAA
p991
aVSOQCHZC12A8C1346D3
p992
aa(lp993
VSOZVVMJ12A58A7C548
p994
aVSOJDXRQ12D0219B1F5
p995
aVSOSANIQ12AC468C900
p996
aa(lp997
VSOPZUIN12A6D4F91E3
p998
aVSOSTIID12A8C134289
p999
aVSOTCSQB12A6D4F5BBB
p1000
aVSONZKUP12A8AE466BA
p1001
aa(lp1002
VSOBTVZY12AB0187D08
p1003
aVSOJDYWJ12A6D4F3E34
p1004
aVSOAEPAP12A6701C3B6
p1005
aVSOJMTOU12A8C131DC8
p1006
aa(lp1007
VSOADTFF12A8C1383DB
p1008
aVSORFVGD12A58A79EBF
p1009
aVSOBJVDD12A8C13D983
p1010
aVSOVDDPT12AB0185D18
p1011
aVSONDGEH12A8C144BE1
p1012
aa(lp1013
VSOTKRCP12A6D4F6148
p1014
aVSOFHTIO12A6D4F6128
p1015
aVSORJEKI12A6701F45D
p1016
aVSOINKEZ12A6310E1FC
p1017
aVSOXOOIF12A6702067D
p1018
aVSOGPIOY12A58A7F7AD
p1019
aVSOAXWAM12A6D4F7514
p1020
aVSOVXTZF12A670207D2
p1021
aVSOFMOXD12D0219AE3A
p1022
aVSOYXZST12A58A7A37E
p1023
aa(lp1024
VSOJSLMH12D021B0D6D
p1025
aVSOKTIJR12A8C134945
p1026
aVSOPTWDT12A6D4F81E3
p1027
aa(lp1028
VSOKUCXB12A6D4FAC0C
p1029
aVSOCHNQF12AB01857DA
p1030
aVSOOANEZ12A6D4F7499
p1031
aVSOIBEDZ12A6D4FA5D6
p1032
aVSOLERTO12A8C13623C
p1033
aVSOISVHE12A8C141483
p1034
aVSOQTCVA12A8C133CB4
p1035
aVSOIQGYE12A58A78D23
p1036
aVSOFYVFY12A8C1325D9
p1037
aa(lp1038
VSOCDNWJ12A6310EA3C
p1039
aVSOSHFTA12A6D4FC508
p1040
aVSODXBSS12A6310EA40
p1041
aa(lp1042
VSOCDNWJ12A6310EA3C
p1043
aVSOQYGWK12AB017EF99
p1044
aa(lp1045
VSOIIDJM12AB017AFEB
p1046
aVSOLBZPD12A8C135F79
p1047
aa(lp1048
VSOCLQXP12A8C143630
p1049
aVSOSOXYF12A8C141647
p1050
aVSOGFZYR12A8C134D61
p1051
aa(lp1052
VSOFZBRG12D0219A470
p1053
aVSOSDXCG12A8151D772
p1054
aa(lp1055
VSOTCJGM12D021B32AD
p1056
aVSOGUTNO12A6701F672
p1057
aVSOXSMPE12A6D4F7EB8
p1058
aa(lp1059
VSOWPVXY12A8C13B814
p1060
aVSOJYYZL12A8C14107E
p1061
aa(lp1062
VSOXWTIF12A8C145020
p1063
aVSOUSLKG12A58A7D490
p1064
aVSOPQRWJ12A8C132A10
p1065
aa(lp1066
VSOJITPC12AB018877E
p1067
aVSOSPAMT12A8C142FEC
p1068
aVSONJYIT12A8C137A58
p1069
aVSONYUKY12A6D4FB44E
p1070
aa(lp1071
VSOMNOZB12AB0181E7A
p1072
aVSOVZGLW12A8AE4570B
p1073
aa(lp1074
VSOMNPXG12AB0181DA1
p1075
aVSONGNWC12A670207BD
p1076
aVSOPCNRL12A8C13516E
p1077
aa(lp1078
VSOTULEJ12AF729ED29
p1079
aVSODEZAI127D977CFBA
p1080
aa(lp1081
VSOKXIJE12A58A76B20
p1082
aVSOBNCYQ12AB01876B5
p1083
aa(lp1084
VSOJAIDQ12A6310E015
p1085
aVSOYVXRG12A6701F2F9
p1086
aa(lp1087
VSOUJZNM12A81C22B18
p1088
aVSOSPTOE12A6D4F938C
p1089
aVSONANFG12AF72A8A05
p1090
aVSODKOHP12A8AE46D3D
p1091
aa(lp1092
VSOKSAJJ12A67020C31
p1093
aVSOXQKEH12A8C137F45
p1094
aVSOKGULH12A6D4F70BB
p1095
aVSOMUKCJ12A8C1442CE
p1096
aVSOTFIWJ12A6701E0BA
p1097
aa(lp1098
VSOTXEEH12A6D4F7F24
p1099
aVSOPAMVK12A8AE48E11
p1100
aVSOCYVVO12AB01886A0
p1101
aVSOCWTSA12A58A78ED6
p1102
aVSOIJFJG12A8C132230
p1103
aa(lp1104
VSOYVRZI12A6D4FC73F
p1105
aVSOAUAZJ12A6D4F8594
p1106
aVSOLFDCM12A6D4F7A7C
p1107
aVSOSWMJM12A8C144040
p1108
aVSOWFQHT12A6D4F5E55
p1109
aVSOKIDML12A8C13527A
p1110
aa(lp1111
VSOUKATQ12AB017AB61
p1112
aVSOPCPOL12CF5F87CCC
p1113
aVSOYWOAH12A8C13D8AD
p1114
aa(lp1115
VSOCQJYB12AB017E855
p1116
aVSOZHUUI12A6701D7B6
p1117
aVSOYXUDL12A582A2695
p1118
aa(lp1119
VSOIGCVK12A8C1441C0
p1120
aVSOEYBHE12AB0180A85
p1121
aVSOPWVTH12AB01843CE
p1122
aVSOCVTLJ12A6310F0FD
p1123
aa(lp1124
VSOFSGDO12A670202AB
p1125
aVSOQZEYA12A8C13A2A0
p1126
aVSOUGSAO12A8C138749
p1127
aVSOIPCGZ12A8C13C805
p1128
aVSOPXKYD12A6D4FA876
p1129
aVSOMXQGH12A8C13CBEF
p1130
aVSOMEGDD12CF533D033
p1131
aVSOZRYST12812D07C72
p1132
aVSOCUXRT12A58A76100
p1133
aa(lp1134
VSOKKDSV12A8C132E64
p1135
aVSOYZVWL12B0B80BC65
p1136
aa(lp1137
VSOKHDYQ12AB017D321
p1138
aVSOILARU12AC468D4D4
p1139
aa(lp1140
VSOBDAQQ12A6D4FA04F
p1141
aVSOLHJTV12AB017F3DB
p1142
aVSORHLNA12A6701F0B6
p1143
aa(lp1144
VSOSPMAL12A6D4F74E1
p1145
aVSOVZASY12A6701F1E3
p1146
aa(lp1147
VSOBYRND12AB018AD67
p1148
aVSOKWQNT12AB018474F
p1149
aVSOXYIEY12A58A78DC6
p1150
aVSOVFJFT12A6D4FA2BB
p1151
aa(lp1152
VSOPQOJT12A58A7C207
p1153
aVSODGOZT12A6D4FCE88
p1154
aVSOAHAQG12A81C2163B
p1155
aa(lp1156
VSOJOGRK12A8C1313A7
p1157
aVSONDYKJ12AB017E0C9
p1158
aVSOVMNCJ12A6D4FA235
p1159
aVSOIGFML12AB017F3C7
p1160
aa(lp1161
VSOPLVNW12AB0180F07
p1162
aVSOKKZZD12AB0181BCE
p1163
aVSODPEWE12AB0188779
p1164
aVSOATBPC12B34F265AF
p1165
aa(lp1166
VSOQIGTF12AAA15EB04
p1167
aVSOJASDD12A6D4FB115
p1168
aa(lp1169
VSOBIMZX12A8C13E6AC
p1170
aVSOJOKWX12AB0188347
p1171
aVSOOJLSM12AB0180267
p1172
aa(lp1173
VSOKMJAV12AB0187854
p1174
aVSOHSDLI12A58A77585
p1175
aVSOZDGEW12A8C13E748
p1176
aa(lp1177
VSOAXLTG12A81C22660
p1178
aVSOUVSJO12A6701E174
p1179
aVSOWFQHT12A6D4F5E55
p1180
aa(lp1181
VSOSSMZG12AB0186687
p1182
aVSOEBGKF12A6D4FADB1
p1183
aVSOOXLND12A6D4FE36E
p1184
aa(lp1185
VSOVZRCY12A8C1380C7
p1186
aVSOWZGGD12A58A76E3A
p1187
aa(lp1188
VSOCTZSW12A8C141EEC
p1189
aVSOHIGFV12A8AE4713E
p1190
aVSOMXDDL12A6D4F97DE
p1191
aVSOPBIOY12AB01835BF
p1192
aa(lp1193
VSOYGZKG12A8C13FC74
p1194
aVSOUOCLG12CF5F8703E
p1195
aa(lp1196
VSOVLJVC12AB01809F8
p1197
aVSOOSQSQ12CF5F87BD0
p1198
aa(lp1199
VSOZNZHT12A6701ECF9
p1200
aVSOUTROM12A6D4FE9C8
p1201
aa(lp1202
VSOUFTTQ12A67AE2282
p1203
aVSOVRCRT12A6D4FA66D
p1204
aa(lp1205
VSORCWWM12A8C132FFD
p1206
aVSOLCBLZ12A6D4F6A7B
p1207
aVSOGVJTG12A6701E991
p1208
aVSOPDFZN12A670215C4
p1209
aVSOGLZCT12A6D4FAF98
p1210
aVSOHHALP12A6D4FB6A8
p1211
aa(lp1212
VSOHWVJJ12AB0185F6D
p1213
aVSOGQYMO12A58A7BC15
p1214
aVSOYURIX12A6701E960
p1215
aVSODITIL12A6D4F6E4D
p1216
aVSOZZIIQ12D02197970
p1217
aVSOLETKQ12A6D4F86FD
p1218
aVSOPQZTX12A6D4FC70F
p1219
aVSOBEJJF12A6701C447
p1220
aVSOPVGUH12D02193746
p1221
aVSOYOWIZ12CF5F87DC8
p1222
aa(lp1223
VSOTRCGO12D021B51A2
p1224
aVSOFSXXO12A6D4FD10C
p1225
aVSOXLVRT12A58A7E8F5
p1226
aa(lp1227
VSOIPTIG12A8C13E99E
p1228
aVSOSVCMS12A6D4F522E
p1229
aa(lp1230
VSOVTSDU12A58A7D4D6
p1231
aVSONYELH12AF72A2C15
p1232
aVSOEUOET12AF72A0B8C
p1233
aa(lp1234
VSOLZXUJ12A58A7DF59
p1235
aVSOLXABZ12A6D4F84AF
p1236
aVSOKXPCS12A6D4F77DA
p1237
aVSOZPCZL12A6D4F954E
p1238
aVSOWEUOO12A6D4F6D0C
p1239
aVSOONCBO12A6D4F6D0E
p1240
aVSOLLNTU12A6701CFDC
p1241
aVSOLPKEF12A8C14503D
p1242
aa(lp1243
VSOQXION12A8C145031
p1244
aVSOYXFXR12A58A7C513
p1245
aVSOJXELR12A6D4FA409
p1246
aVSOGXCSP12AC468A5C6
p1247
aa(lp1248
VSOPQLBY12A6310E992
p1249
aVSOJCRUY12A67ADA4C2
p1250
aa(lp1251
VSOWJFVX12AF72A56AF
p1252
aVSOKVLIJ12A81C21DD8
p1253
aa(lp1254
VSOSSMGA12A67020F9A
p1255
aVSODGWQO12A58A7DE28
p1256
aa(lp1257
VSOGXQVV12AB018B8D3
p1258
aVSOCVTLJ12A6310F0FD
p1259
aVSOTJCFT12A8AE47546
p1260
aVSOBNLES12A679C8053
p1261
aa(lp1262
VSOXOVCL12A6701F0AF
p1263
aVSOQIADE12A8C140E49
p1264
aVSOSKMQR12A8C13352C
p1265
aVSOHSYCY12A8C13204E
p1266
aVSOFQUCD12AB018516B
p1267
aVSOQLTAT12D02191D8F
p1268
aVSOMCVKM12CF5F87C53
p1269
aVSOHPETF12A8C1311E0
p1270
aa(lp1271
VSOJKMLL12A6D4FB046
p1272
aVSODMHZW12AC3DFA00D
p1273
aa(lp1274
VSOLMJJN12A6D4F647F
p1275
aVSOLCKPL12AB018488F
p1276
aVSOSJRDV12A67AD84DC
p1277
aVSODXJVJ12A8C13B97A
p1278
aVSOJGQYH12A6D4F663A
p1279
aVSOMNGMO12A6702187E
p1280
aVSOUTXQX12A8AE4734A
p1281
aVSOGDELK12A8C1343CF
p1282
aVSOYRSLT12A67ADA69D
p1283
aVSOYWICS12A8C13DC14
p1284
aVSOTYRRB12A58A7DFE0
p1285
aVSOMRGHP12A8C142424
p1286
aVSOSWMGF12AF72A8FF1
p1287
aVSOZBZPO12A8AE46C71
p1288
aVSOAZICE12A67020742
p1289
aVSOPFGUZ12A8C1355F1
p1290
aVSORZKXO12D021B2DB5
p1291
aVSOOLKWU12A6D4F73B8
p1292
aVSODUZYO12A58A75BE1
p1293
aVSOBDZVH12AC468AB54
p1294
aVSODJOYQ12A58A7D951
p1295
aa(lp1296
VSOXVGMZ12B0B808BFF
p1297
aVSOCLKNN12A6D4FCA2C
p1298
aVSOCSBYB12A58A7C38D
p1299
aVSOQRHLQ12A6D4F8F12
p1300
aa(lp1301
VSOCSFLF12A8C13E7FB
p1302
aVSOFGKOE12A58A7DB22
p1303
aa(lp1304
VSOFQOEB12A8C1380A2
p1305
aVSOZABTR12A58A7D235
p1306
aa(lp1307
VSOTCBOW12D021900F5
p1308
aVSOZPCZL12A6D4F954E
p1309
aVSOQZRIM12A582917DD
p1310
aVSOLHAEK12AF729EC21
p1311
aVSOVSCEE12A6D4F80D6
p1312
aVSOAAVNU12A6D4F65BA
p1313
aVSOHJXWJ12A58A7ED45
p1314
aVSORILPN12A8C135087
p1315
aa(lp1316
VSOSRIHB12A8C13608B
p1317
aVSOWKFHD12A8C131320
p1318
aVSOKZYQG12A6D2282F8
p1319
aVSOFLFMX12A58A806D7
p1320
aVSORBMRY12A6D4FA230
p1321
aa(lp1322
VSOEBOWM12AB017F279
p1323
aVSOGUBGT12A8C13EAAF
p1324
aVSOUIYYD12A8C13EAE8
p1325
aVSOOEAYQ12CF5F86D5D
p1326
aVSOMYRJW12AB018D130
p1327
aa(lp1328
VSONTWAN12A58A7DF5A
p1329
aVSOVBZNO12A67AE0A58
p1330
aVSOPFHBE12A8C130C53
p1331
aVSOLMWNQ12AB0187324
p1332
aa(lp1333
VSODXSUC12D021B252D
p1334
aVSOCDNWJ12A6310EA3C
p1335
aVSOHUUFD12A6701DBD7
p1336
aVSOIETIB12A6701FDE2
p1337
aa(lp1338
VSOSZFOX12A81C2230C
p1339
aVSOCGASN12A67ADE3E7
p1340
aVSOMWIQI12AC468A9A6
p1341
aVSOLPHJL12A6D4FB4D5
p1342
aVSOKVSAG12AAA8C597F
p1343
aVSOYJRZE12AB0184261
p1344
aa(lp1345
VSOVJFXL12AB0184210
p1346
aVSOCZIAG12A6D4F8A36
p1347
aVSOAEJGR12A8C13AEB3
p1348
aVSOQTVZX12A6310E151
p1349
aVSOBPFAB12A8C140A2C
p1350
aa(lp1351
VSOBBULB12AB0180E01
p1352
aVSOGQEVI12CF54651C8
p1353
aa(lp1354
VSOCVQYV12A8C1341F4
p1355
aVSOOMNPL12AB017F76C
p1356
aVSOCEVGD12A679D7E8B
p1357
aVSOWWFRK12AF72A08B8
p1358
aVSOZVVMJ12A58A7C548
p1359
aVSOKQBDZ12AB018019D
p1360
aa(lp1361
VSOPYMQH12A6D4F93F5
p1362
aVSOPMVTW12AF72A720A
p1363
aVSOINTXZ12AF729FB66
p1364
aVSODMAOP12A8C143254
p1365
aa(lp1366
VSOLYNKA12A6D4FC2D8
p1367
aVSOJSJKL12AF72A431B
p1368
aVSOQLTLT12AB017CD8E
p1369
aVSOGIUZT12AB0181494
p1370
aa(lp1371
VSOUCIVH12B3505595A
p1372
aVSOVMCNT12A58A7752E
p1373
aa(lp1374
VSOFDENQ12AB017FD79
p1375
aVSOVJXJU12A6310E226
p1376
aa(lp1377
VSOQGFMU12A8C140C6E
p1378
aVSOCUQMK12A8C135B78
p1379
aVSOVSWVR12AAF3B3A9B
p1380
aVSODKOHP12A8AE46D3D
p1381
aVSOBINQD12A6D4F7003
p1382
aa(lp1383
VSOMOXSE12B0B80BEBB
p1384
aVSODDMHL12AF72A51C1
p1385
aa(lp1386
VSOPXKYD12A6D4FA876
p1387
aVSOSSXCC12A8C13E412
p1388
aVSOXNDXG12A6D4F78EB
p1389
aVSOTZPHT12AAF3B3F60
p1390
aVSOENFDI12A58A7C35A
p1391
aa(lp1392
VSOVUZFR12AF72A7A6B
p1393
aVSOSTEOF12AB018AA46
p1394
aVSOFWKTO12AF72A5DDF
p1395
aa(lp1396
VSONXDOY12AB01827ED
p1397
aVSOJUSHW12CF5CFD768
p1398
aVSOHMZXV12A6D4F8E4E
p1399
aVSOHFTTD12A6D4F97A0
p1400
aVSOLMGCH12A8AE47BC1
p1401
aVSOKPHTL12A8AE47058
p1402
aa(lp1403
VSOJXNJK12AB01885FD
p1404
aVSOFEFOP12AF72AB069
p1405
aVSOGFJDX12A6701E1FE
p1406
aVSOUPHUC12A6D4F6C1D
p1407
aa(lp1408
VSOIKLVJ12AB018CB73
p1409
aVSOOXXVC12D0219A367
p1410
aa(lp1411
VSOPGCYR12A6D4F79AD
p1412
aVSOHCBGC12A6D4FA858
p1413
aa(lp1414
VSOIDTKS12A670200EA
p1415
aVSOQBHTG12A6D4FC7FC
p1416
aa(lp1417
VSOWPCOX12A6D4FB67D
p1418
aVSOUHXWQ12D02193D20
p1419
aVSOTVTIV12A81C20316
p1420
aa(lp1421
VSOPWBOA12A6D4FA84D
p1422
aVSOARPHS12A6D4FB4C4
p1423
aVSOXDDBS12A8C13B494
p1424
aa(lp1425
VSOXNTYT12AB01830EC
p1426
aVSOCPXNW12A6310E92C
p1427
aVSOOKYXK12A8C140B6F
p1428
aa(lp1429
VSOUUUDL12A6D4F6813
p1430
aVSOCQWPP12AB01883EB
p1431
aVSORACYK12D02193097
p1432
aVSOJPVCB12A8C138914
p1433
aVSOXYUVR12A67020490
p1434
aVSOGUVCK12A58A7E71D
p1435
aa(lp1436
VSOALITF12A6310DFCD
p1437
aVSOOTKFL12AB01858D6
p1438
aa(lp1439
VSOEMUPN12AB018D4EB
p1440
aVSOEQBSG12A67AD869E
p1441
aa(lp1442
VSOUQJDY12A6701D2EF
p1443
aVSOVPVKY12A6D4F6F86
p1444
aa(lp1445
VSOFIKBK12A6D4F93C7
p1446
aVSOTGTJB12AB017E594
p1447
aVSOTWWZV12D02191B01
p1448
aVSOTDKQX12A8C138A3C
p1449
aa(lp1450
VSOBWDFR12A8C131CAD
p1451
aVSOZOSTH12A6D4FB48E
p1452
aVSOUKKZB12A8C138A28
p1453
aVSOINEDY12A6D4FB48C
p1454
aa(lp1455
VSOSPTOE12A6D4F938C
p1456
aVSOPPWHZ12A6D4FA416
p1457
aVSOGWRHH12A8C1312F0
p1458
aVSOMAKIT12A58A7E292
p1459
aVSOEKSGJ12A67AE227E
p1460
aVSOIBBCQ12A6D4F9711
p1461
aVSOLLMFO12A81C21749
p1462
aVSOGAQYH12AB018AFDA
p1463
aVSOLKIIS12A6701C7F9
p1464
aVSOXHYVQ12AB0187949
p1465
aVSOUUGCN12A58A7A380
p1466
aVSOTTRLC12AB01894DF
p1467
aVSOWYNYF12D02192A4E
p1468
aa(lp1469
VSOCGYKU12A8C13B4D9
p1470
aVSOALHOR12A8C13313F
p1471
aa(lp1472
VSORRQLS12A81C20B79
p1473
aVSOMDJRE12AF72A7325
p1474
aa(lp1475
VSORTRVW12CF5F87748
p1476
aVSOZBKEQ12A58A7CE77
p1477
aa(lp1478
VSOMXONX12A8C136AE2
p1479
aVSOSYEJO12A67ADF6B5
p1480
aa(lp1481
VSOUFYKD12A8C140463
p1482
aVSOKOWGN12A81C21DD0
p1483
aVSORXOWT12AB0185F26
p1484
aa(lp1485
VSOZDGEW12A8C13E748
p1486
aVSOQGVCS12AF72A078D
p1487
aVSOXWJQM12A8AE483D8
p1488
aVSOBJTXN12A6D4FDC7E
p1489
aa(lp1490
VSOBBCFD12A8AE4703B
p1491
aVSOOTMZT12AF72A226E
p1492
aVSOAESHR12A8AE48CF5
p1493
aVSOZXFBI12AB018BC28
p1494
aa(lp1495
VSOLSXHI12A8C137F59
p1496
aVSOZYFTB12AF72A8785
p1497
aa(lp1498
VSOCUSRK12A8C13CEDF
p1499
aVSOQQCJJ12A6D4F8050
p1500
aVSOKVYDN12A8C1331B2
p1501
aVSOHTUXB12AC46853BA
p1502
aVSOGZEKH12A58A79419
p1503
aa(lp1504
VSOOKGQL12A8C141506
p1505
aVSOGBGRX12A8C132A1B
p1506
aVSORXSRO12A8C135C76
p1507
aa(lp1508
VSOELEJG12A8C142FA7
p1509
aVSOWAUFE12A8C1368B9
p1510
aa(lp1511
VSOCCRVM12A6310E239
p1512
aVSOFIPKJ12A8AE44A35
p1513
aa(lp1514
VSOFNJRC12A6702010B
p1515
aVSODORVA12A8C13B259
p1516
aVSOUOBSU12A58A7CD4B
p1517
aVSOKOTER12AF729ED7D
p1518
aVSOMSSJU12D0219A380
p1519
aVSOCBKBN12A6702031C
p1520
aVSOPHJXS12AB017BF69
p1521
aVSOIIWQY12A6701F7C4
p1522
aVSOKJUFY12AB017F1DD
p1523
aa(lp1524
VSOXLRKG12AB0185B15
p1525
aVSOIBUAA12D021930BB
p1526
aVSOEBNLP12AB018AA42
p1527
aa(lp1528
VSOSKYPY12A8C138198
p1529
aVSOVDLVT12A58A7B988
p1530
aa(lp1531
VSOKXDQH12AC4687FB7
p1532
aVSOTBZTU12A6D4F86F7
p1533
aa(lp1534
VSONMIVB12A8C13B7C8
p1535
aVSOPWKEX12A8C13B4F0
p1536
aa(lp1537
VSOXWAIM12A6701D46E
p1538
aVSOBDGQD12A58A7C5DF
p1539
aVSOCFPSZ12A6D4FCA89
p1540
aa(lp1541
VSOASIRB12A8C13DBB8
p1542
aVSODDVNC12A679D8AD4
p1543
aVSOBBKGF12A8C1311EE
p1544
aVSOFKHCP12A8AE460AF
p1545
aVSOXWYPP12A8AE46279
p1546
aa(lp1547
VSOVDAQI12AB0183C55
p1548
aVSOGRCBF12A8C13233B
p1549
aVSOYWQSL12A67020A21
p1550
aVSOVRGFL12AC4687488
p1551
aa(lp1552
VSOJNJYR12A8C1417B4
p1553
aVSOKCGKU12D02198A30
p1554
aVSOHJXBQ12A8C135417
p1555
aVSOXYPIQ12A58A78713
p1556
aVSODDCXC12AF72A66F1
p1557
aVSODJMPP12A670214B8
p1558
aa(lp1559
VSOPXLWJ12A8C132639
p1560
aVSOBTBUM12AF729DC5D
p1561
aa(lp1562
VSOBEIJB12AF72A3F35
p1563
aVSOHYXSC12AB017CEB9
p1564
aa(lp1565
VSOWOLLQ12A58A7EA58
p1566
aVSOWKIFN12A8C140058
p1567
aa(lp1568
VSOICKFS12A58A78DDC
p1569
aVSOFPHXA12A8C14517E
p1570
aa(lp1571
VSOCTFKI12A6D4F9708
p1572
aVSOBTRWU12AB018CB46
p1573
aVSOFLURK12A8C130037
p1574
aa(lp1575
VSOVKQVZ12AF729D09D
p1576
aVSOIFECX12A8C130262
p1577
aVSOYHMYP12A8C13BFDC
p1578
aVSOTZYST12A6D4FAD1D
p1579
aa(lp1580
VSODRZOF12AB0184C1A
p1581
aVSOVZADJ12D02193FB7
p1582
aVSODNCLI12A8C143487
p1583
aa(lp1584
VSOFGSLS12A6D4F9C6A
p1585
aVSOMRQWV12A8C13E2D7
p1586
aVSOSGTEZ12A8C13C689
p1587
aVSOKSPLA12A6D4FC01F
p1588
aVSONSGSV12D02198A87
p1589
aVSONLNXE12AB0186BE6
p1590
aVSODRZDD12A6D4FA3FE
p1591
aVSOBPAXN12A8C130CD7
p1592
aa(lp1593
VSOQOLHX12A8C13CDEB
p1594
aVSOKIOAA12A6D4F9415
p1595
aVSOCINXK12AB01899EF
p1596
aa(lp1597
VSOJPKEU12A8C141941
p1598
aVSOEMTIS12A8C13A62F
p1599
aVSOSNIVS12A6D4F7DF1
p1600
aa(lp1601
VSOHJBBU12A6D4FA21F
p1602
aVSORAIJD12A58A78DF0
p1603
aa(lp1604
VSOXKVNB12AF72A7A16
p1605
aVSOBCMWQ12AB0182DD3
p1606
aa(lp1607
VSOKYVJO12A8C135F4B
p1608
aVSOPRUYQ12A8C140016
p1609
aa(lp1610
VSOQHCFT12A8BEEEB3F
p1611
aVSOSUYOY12A6D4F96A8
p1612
aa(lp1613
VSOLMYII12A67021345
p1614
aVSOGGBIY12A58A7DBAA
p1615
aVSOKJXXJ12A3F1EAF40
p1616
aVSOXNMQN12AB01831AA
p1617
aVSOQLZXJ12A6D4F63CA
p1618
aVSOOFUUZ12A8C13FDA9
p1619
aVSOXDLRI12AB018409E
p1620
aVSOMLHIF12A6D4F6963
p1621
aa(lp1622
VSOHYLLJ12AB0184D5F
p1623
aVSOWCXSQ12AC960A525
p1624
aVSOMDKBT12A8C134151
p1625
aVSOVRISG12AF72A04C8
p1626
aa(lp1627
VSOZRMVM12AB0186BE1
p1628
aVSOGRPPY12AC4686C51
p1629
aa(lp1630
VSODXUEN12AC468F2EE
p1631
aVSOZGJMU12A8C135C77
p1632
aa(lp1633
VSOUHYFD12A8C139C3E
p1634
aVSOUURYC12A8C136D6D
p1635
aa(lp1636
VSOIYQTX12AB017F4A1
p1637
aVSOJCKCN12A8C138377
p1638
aVSOFTJYI12AF72A4A6C
p1639
aVSODUBRC12AF729E94A
p1640
aVSOSHPEE12A6D4F8E10
p1641
aVSOJHQRU12A6310E952
p1642
aVSOINLEG12AB01847D0
p1643
aa(lp1644
VSOHJXKL12A6D4FB836
p1645
aVSOWCGCN12A58A7796F
p1646
aVSORQPGK12AB0184D13
p1647
aa(lp1648
VSOKASRY12A6D4F938D
p1649
aVSOZUMAJ12AB017F88F
p1650
aa(lp1651
VSOADTHS12AB0187E11
p1652
aVSOQRKRH12A8C137886
p1653
aVSOGCPVQ12A8C1341B4
p1654
aa(lp1655
VSOFQJBI12AB01828D6
p1656
aVSOSNBYK12AB0182B57
p1657
aa(lp1658
VSOSCCAK12AB017BBA6
p1659
aVSOUQDKY12AB017F8CB
p1660
aVSOPOVET12CF5F873D4
p1661
aa(lp1662
VSONWRGT12AB01860B1
p1663
aVSOSCPYV12AB0184BA6
p1664
aVSONQVLD12A58A797DF
p1665
aVSORRQLS12A81C20B79
p1666
aa(lp1667
VSOEHVLQ12A8C134E88
p1668
aVSOOXLND12A6D4FE36E
p1669
aa(lp1670
VSOBSUVM12A8C13F7BC
p1671
aVSOVHBSB12A8C133CAF
p1672
aVSODWZGN12A8C142A38
p1673
aa(lp1674
VSOIQXQT12A6D4F83A6
p1675
aVSOKDMNX12AC468B3C1
p1676
aa(lp1677
VSOZVNDX12A6D4F98E9
p1678
aVSOMHQEB12AB017F309
p1679
aVSOSPNFO12AC9070FE7
p1680
aVSOVGXLX12AB017DDA4
p1681
aVSOWGDQR12AB01894BB
p1682
aVSOLJQOK12A8C14028B
p1683
aVSOHTCSE12CF5F88919
p1684
aa(lp1685
VSOSWMJM12A8C144040
p1686
aVSOQXDXM12A8C134E8E
p1687
aa(lp1688
VSOAHKKZ12AB0187347
p1689
aVSONXCBE12AB0183900
p1690
aa(lp1691
VSOPYNHK12AB017E7D2
p1692
aVSORBGRZ12D021B2802
p1693
aa(lp1694
VSOQVKPI12A81C21859
p1695
aVSOQBCFW12A58A79C08
p1696
aVSOINLOQ12A8C13E299
p1697
aVSOJSXUO12A58A7CC40
p1698
aa(lp1699
VSOULHOL12AB01885D7
p1700
aVSOXRFIS12A8C13F8C6
p1701
aVSOULASL12A8C136C39
p1702
aVSOHIMSE12A8C13D094
p1703
aVSOWPMRD12A58A7A3BA
p1704
aVSOULZBG12AF729C36D
p1705
aVSONAQRQ12AB017FD0B
p1706
aVSOSOJGE12A8C1363D6
p1707
aVSOFYSLV12AB018426B
p1708
aVSOWVELM12A8C13194F
p1709
aa(lp1710
VSOGBLMI12AB01856AC
p1711
aVSOKCCAJ12AAF3B527B
p1712
aVSOKYJHA12AB01809D6
p1713
aa(lp1714
VSOEKWUQ12A67021D53
p1715
aVSOKFTSQ12A8C131A1A
p1716
aa(lp1717
VSOPQLBY12A6310E992
p1718
aVSOEAPYF12AB0180A21
p1719
aVSOHIFAL12A6D4FC5AA
p1720
aa(lp1721
VSOEOTBT12A8C134231
p1722
aVSOJFTBY12AB017E39B
p1723
aVSORGBIT12A6D4F7AC5
p1724
aVSOBFMGD12A8C140849
p1725
aa(lp1726
VSOBDGQD12A58A7C5DF
p1727
aVSOCJHCA12AB0187533
p1728
aVSOYHQOK12AF72A750B
p1729
aa(lp1730
VSOQJYJQ12CF5F886DC
p1731
aVSOXVYPD12A6D4F76E7
p1732
aVSOWOLRF12A58A77FE3
p1733
aa(lp1734
VSOCNRMF12AB0182FFD
p1735
aVSOMZRWW12A6D4FB461
p1736
aa(lp1737
VSOYOFST12D0219B4BA
p1738
aVSOJSUHG12A670215B6
p1739
aVSOGTOVY12A8C134B6A
p1740
aVSOVXBTV12A8AE4525E
p1741
aa(lp1742
VSOWNPVL12A8C144A6F
p1743
aVSOPGOME12A58A7B636
p1744
aVSOYPYHT12A8C144A54
p1745
aVSOUUOAG12A8C144A63
p1746
aVSOTKPQV12A6D4F9091
p1747
aVSOXWTIF12A8C145020
p1748
aVSOCXRXS12A6D4F9096
p1749
aa(lp1750
VSOHQBNE12A58A797DA
p1751
aVSOMPIGS12A8C136A41
p1752
aVSOCFXSX12A6D4F7518
p1753
aVSODVCXB12D021B2768
p1754
aa(lp1755
VSOWIBBQ12A6D4F7C42
p1756
aVSOFOZNF12A67020862
p1757
aVSOHHMRB12A6D4FB5EA
p1758
aVSOXXXSG12A67AD84D9
p1759
aVSOTVUZQ12AB0186C39
p1760
aVSOWGJGE12D02193306
p1761
aVSORJEKI12A6701F45D
p1762
aVSOWBXSN12A8C13A9E9
p1763
aVSOPHZSM12A8C140146
p1764
aa(lp1765
VSOGSKNQ12A6D4FA43D
p1766
aVSOOMHPX12A8C13FF6E
p1767
aVSOGNWBU12D02198E99
p1768
aVSOQONFW12A8C13478F
p1769
aa(lp1770
VSOLYRUQ12AB0183E4C
p1771
aVSOYVFJU12D0219B52A
p1772
aVSOWUZVU12A6D4F914D
p1773
aVSOBSNNU12A8C140F01
p1774
aVSONQEYS12AF72AABC9
p1775
aVSOJDRGP12A8AE4789F
p1776
aVSODZDBP12A8C1442C2
p1777
aVSONPJIJ12A6701F0B0
p1778
aVSOCQNII12A6D4FD0EF
p1779
aVSOFBBZQ12A8C134EDB
p1780
aVSODCMHB12A8C138523
p1781
aVSOHFTTD12A6D4F97A0
p1782
aVSOJXELR12A6D4FA409
p1783
aa(lp1784
VSOZMBVX12AB01826FC
p1785
aVSOAHHMT12B0B807675
p1786
aa(lp1787
VSOLCKAS12A8C14242A
p1788
aVSOUBVDN12CF530D538
p1789
aa(lp1790
VSOTXEEH12A6D4F7F24
p1791
aVSOORUPA12A6701F304
p1792
aa(lp1793
VSODDVNC12A679D8AD4
p1794
aVSORGVBV12A8C134547
p1795
aVSOPRUYQ12A8C140016
p1796
aVSOTFPLO12A6D4F7AC8
p1797
aa(lp1798
VSOHVJSR12A6701E952
p1799
aVSOSIORU12A58291A54
p1800
aVSOJXLTS12AB017A58B
p1801
aVSOOKMHJ12AB018A514
p1802
aVSOMDBEA12A8AE463E9
p1803
aa(lp1804
VSOPHCFS12A8C13A237
p1805
aVSOVYQRV12A8C13C048
p1806
aVSOLRRPM12A58A7A7F4
p1807
aVSOWAAEO12A6D4F74EF
p1808
aVSOCNERU12A58A7CBCB
p1809
aVSOMSRYM12A6D4FB41C
p1810
aVSOKTAXJ12A8C13FEAC
p1811
aa(lp1812
VSOZHCCU12A8C140577
p1813
aVSOPGPXF12A8C13FCAC
p1814
aa(lp1815
VSOMDZQT12AB017FD73
p1816
aVSORYPRL12A8C140F99
p1817
aVSOHEZLZ12AC468BBBA
p1818
aa(lp1819
VSOGPKTP12A58A7E9CC
p1820
aVSOMOXSE12B0B80BEBB
p1821
aa(lp1822
VSOGMCSJ12A58A7B95B
p1823
aVSOQZRIM12A582917DD
p1824
aVSOZAINI12A8C141731
p1825
aa(lp1826
VSOQCVDN12AB0180622
p1827
aVSOSGMPX12A8C134FB5
p1828
aVSOQNVTB12AB01869AB
p1829
aVSOLCKAS12A8C14242A
p1830
aa(lp1831
VSOWXEXD12B0B80BCED
p1832
aVSOCEVGD12A679D7E8B
p1833
aVSOQCMMA12A8C13E240
p1834
aVSOZSSUB12A58A7C965
p1835
aVSONQXEU12A58A7DEC8
p1836
aa(lp1837
VSOVLGTO12A8C1348EE
p1838
aVSOOLVBC12AB018231D
p1839
aa(lp1840
VSOGWFVV12A8AE470F4
p1841
aVSOGRDNF12A8C1341ED
p1842
aVSOIIVGZ12A8C1320CF
p1843
aa(lp1844
VSONQEYS12AF72AABC9
p1845
aVSOKVSAP12A8C1359CE
p1846
aVSOBDCGZ12AB018222F
p1847
aVSOGJNVW12AF72A2A61
p1848
aVSOAXWON12A8C140CD2
p1849
aa(lp1850
VSOSPXWA12AB0181875
p1851
aVSOZOSTH12A6D4FB48E
p1852
aVSOXILJO12A6D4F4B17
p1853
aa(lp1854
VSOCKQOE12D0219A9A0
p1855
aVSOMNULF12A8C135F65
p1856
aa(lp1857
VSOQOXRJ12A8C1402D6
p1858
aVSOZDRQA12AB0187E61
p1859
aVSOELOVM12AB018557E
p1860
aVSOOPXFY12A6701DE4C
p1861
aVSOOJBOO12AB0187196
p1862
aVSOSGZOE12AB01814B2
p1863
aVSOSFAEU12AB018CB70
p1864
aVSOMMNED12AB0183804
p1865
aa(lp1866
VSOQCILP12D021B296E
p1867
aVSOXFTXV12A8C142A32
p1868
aVSOSEROH12A58A7CA55
p1869
aVSOGRCBF12A8C13233B
p1870
aVSOEQUML12AF72A5001
p1871
aa(lp1872
VSOVBGMX12A58A79C74
p1873
aVSOELQEU12A6D4F62EE
p1874
aVSOGZTJI12A6701E100
p1875
aVSOSJNTV12A58A791FE
p1876
aVSORRPYV12A8AE46078
p1877
aVSOXLVJQ12A6D4F7D22
p1878
aVSODKYFX12D0219BC06
p1879
aVSOPPRIE12AAA8C598A
p1880
aVSOIBSPZ12A6D4F5E54
p1881
aVSOJMJMP12AB0188A71
p1882
aa(lp1883
VSORBBDO12A8AE47AEE
p1884
aVSODBRGV12A58A7BE3F
p1885
aVSOFHJPS12A6BD537A0
p1886
aVSOTJLQW12A8C13F87A
p1887
aVSOFKHCP12A8AE460AF
p1888
aVSOYVIRB12A8C13E544
p1889
aVSOVUAIQ12A6D4FA180
p1890
aa(lp1891
VSOJHDPK12A6D4FA9A0
p1892
aVSOFCGMI12A8C13ED3B
p1893
aVSOGWTRU12AB017E28E
p1894
aVSOEHYOK12AB0180778
p1895
aVSOPGZDN12A6D4F9C9D
p1896
aVSOULNVH12A6D4F875D
p1897
aa(lp1898
VSOYCMQD12AF72A0E0A
p1899
aVSORFWGQ12A6310D7FD
p1900
aVSOZWAGF12AB018681A
p1901
aVSOGRDWY12A6D4FA740
p1902
aVSOBKHVO12A6D4F7CFE
p1903
aVSOIMAAD12AB017CE47
p1904
aVSOWNZGX12A8C131AA0
p1905
aVSOUECYK12A6D4FA96E
p1906
aa(lp1907
VSOBFMGD12A8C140849
p1908
aVSOMXURA12A8C13287E
p1909
aa(lp1910
VSOZXQNA12A58A77206
p1911
aVSOLYNVO12AB018BB0F
p1912
aa(lp1913
VSOHEMRK12AB01829B3
p1914
aVSOHYWMM12AB0189CF7
p1915
aa(lp1916
VSORPUNK12AB017F2E6
p1917
aVSOJALSO12A6D4FADCA
p1918
aVSOVNRVP12AAF3B5352
p1919
aVSOBWRTZ12AF72AA26E
p1920
aVSOTJLQW12A8C13F87A
p1921
aa(lp1922
VSOLZOXI12A58A7A0D3
p1923
aVSOOLHMR12A6D4F84A8
p1924
aVSOHPETF12A8C1311E0
p1925
aa(lp1926
VSOPWYCL12D02197B12
p1927
aVSOINRYO12AB017C708
p1928
aVSOMVPRW12A8C13A9B0
p1929
aa(lp1930
VSOXNDBB12A58A7C279
p1931
aVSOINLEG12AB01847D0
p1932
aVSOPHYRA12AF72A2667
p1933
aa(lp1934
VSODRDPP12AB017DDF9
p1935
aVSOTWLJL12A58A7DA90
p1936
aVSOSOJGE12A8C1363D6
p1937
aa(lp1938
VSOKEVTF12A58A7D8B9
p1939
aVSOOCYQI12A8C132F15
p1940
aa(lp1941
VSOVFWZD12D02191C02
p1942
aVSOIPECI12B0B80A191
p1943
aa(lp1944
VSOQKYSR12AB018AA82
p1945
aVSOQNLIG12A6D4F937D
p1946
aVSOUVWTD12A8C13CA15
p1947
aa(lp1948
VSOBBKGF12A8C1311EE
p1949
aVSOMBNVR12AF72A736E
p1950
aa(lp1951
VSOXOVCL12A6701F0AF
p1952
aVSOTAILR12A8C132F58
p1953
aVSORCPQI12A8C1380AA
p1954
aVSOWJMGE12A6D4F58B7
p1955
aa(lp1956
VSOMKOAR12A8C13EDA9
p1957
aVSOIHFAK12A6D4F9F79
p1958
aVSOONZHT12A8C13DBC6
p1959
aVSOFWDCB12A6D4F9E11
p1960
aVSOSXSMM12B0B808B45
p1961
aa(lp1962
VSOANHHU12A58A7844A
p1963
aVSOBTHIU12A8C138923
p1964
aa(lp1965
VSOAWZSV12A6D4FCDBD
p1966
aVSOMKROL12A8C1442FE
p1967
aa(lp1968
VSOCHULO12A58A7D141
p1969
aVSOJFTNX12A6D4F5D44
p1970
aa(lp1971
VSOIANEF12A58A76472
p1972
aVSOFTVSI12AB0185957
p1973
aaa(lp1974
g1916
ag1922
ag1926
ag1930
ag809
ag816
ag652
ag656
ag660
ag665
ag1048
ag1052
ag1055
ag1910
ag1913
ag74
ag396
ag837
ag841
ag844
ag847
ag532
ag535
ag1374
ag1377
a(lp1975
VSOMMQMU12AB0185802
p1976
aVSOWXZBQ12A6701D997
p1977
aVSOVFWZD12D02191C02
p1978
aVSOBINQD12A6D4F7003
p1979
aa(lp1980
VSOFLDOK12A8C13E8F7
p1981
aVSOEFNJM12A6701C8BE
p1982
aa(lp1983
VSOBNLES12A679C8053
p1984
aVSOWGXHV12A6D4F7008
p1985
aVSOSIBAS12A8C134D86
p1986
aVSOQXION12A8C145031
p1987
aVSONGABP12A8C1442D4
p1988
aa(lp1989
VSOUIJUP12A6D4F84D9
p1990
aVSOSKYPY12A8C138198
p1991
aVSONNSYV12A8C146BEC
p1992
aVSOZPBSQ12A6D4F7827
p1993
aa(lp1994
VSOBJSLW12A6D4F9158
p1995
aVSOBCAIE12A8C13FE0E
p1996
aa(lp1997
VSOMQYAC12A8C1383C3
p1998
aVSOOSQSQ12CF5F87BD0
p1999
aVSOPFRZX12A6D4F8263
p2000
aVSOHNRJO12A8AE44A2B
p2001
aVSODZCFK12A8C1309BF
p2002
aVSOCPCBA12A81C23BB3
p2003
aVSOFIPKJ12A8AE44A35
p2004
aVSOMSSJU12D0219A380
p2005
aag1812
ag1607
ag1610
ag1613
ag1622
ag722
ag735
ag764
ag769
ag773
ag779
ag135
ag139
ag147
a(lp2006
VSOMSWFL12AB017AEFF
p2007
aVSOVARTH12AB018829B
p2008
aa(lp2009
VSODZCFK12A8C1309BF
p2010
aVSOVCEGB12A6D228251
p2011
aa(lp2012
VSOQGQVS12A6701F756
p2013
aVSOIZXRZ12AF72A388C
p2014
aa(lp2015
VSOHPCBZ12A8C133C4F
p2016
aVSOMRLCU12AB0185E51
p2017
aa(lp2018
VSOCSPTI12D0219358B
p2019
aVSOXMYFI12A6701F436
p2020
aag83
ag86
ag90
ag95
ag1965
ag1968
ag712
ag715
ag332
ag709
ag98
ag339
ag343
a(lp2021
VSOGGEJV12AF72A41E3
p2022
aVSOMQMFR12A8C137B1F
p2023
aVSOOCRKC12D0219917F
p2024
aag1485
ag1490
ag1495
a(lp2025
VSOMKSCO12A6D4F9F66
p2026
aVSOUKJBD12AB0188809
p2027
aVSOEIAKD12A8C13EC2A
p2028
aa(lp2029
VSOZPQMD12AB01816B5
p2030
aVSOZIAQZ12AB0180978
p2031
aa(lp2032
VSOUONHO12D02199ECB
p2033
aVSOQLILB12AB01816E4
p2034
aag1815
ag1819
a(lp2035
VSOOZOEW12A8C1438C6
p2036
aVSOCZIKN12A6D4F84B4
p2037
aVSONVPVP12AF72A6851
p2038
aVSOCIPRA12A8C1326DA
p2039
aVSOUGAYN12A6D4F6E90
p2040
aVSOPUBVA12AB017DD0B
p2041
aVSOJENBI12A58A7D07F
p2042
aa(lp2043
VSODNQJO12A6310F970
p2044
aVSOPCBBR12AB01848FD
p2045
aVSOOYQXS12A6D4F84B9
p2046
aVSOTPGQL12A8C14122F
p2047
aVSONYHRU12A6701D2EC
p2048
aa(lp2049
VSOZJSAD12A6310F322
p2050
aVSOGRFXS12AB017E4FB
p2051
aa(lp2052
VSOFABBR12AC468C530
p2053
aVSOQDZTQ12A8C13FBB9
p2054
aVSOBMFCR12A8C1354DF
p2055
aa(lp2056
VSOOEAZR12A8C13FBD3
p2057
aVSOAPLSG12A8C13FBBD
p2058
aa(lp2059
VSOPKFYV12A6310DF61
p2060
aVSOCRVWC12A6310F991
p2061
aVSOSXNJI12AB0181634
p2062
aVSONKXIB12A58A7BCF0
p2063
aVSOSXCVJ12A8C13C4BD
p2064
aVSOXZBVW12A8C1370F2
p2065
aVSOVNGDQ12CF5F87619
p2066
aVSOGKLYN12AB017F155
p2067
aag1429
ag1436
ag1439
ag1442
a(lp2068
VSOEYNNC12AF72A2E89
p2069
aVSOPZVSB12A8C13E2EF
p2070
aa(lp2071
VSOVEHQH12A6D4F5F56
p2072
aVSOUJAEH12A6D4FD07D
p2073
aVSOCULJG12A8AE4714D
p2074
aVSOMQRSF12A58A7B126
p2075
aag376
ag383
ag1694
ag1699
ag928
ag932
ag938
a(lp2076
VSOLUFIW12AB018C340
p2077
aVSOKGEYP12A6D4F5EE7
p2078
aVSOMTFRZ12AB018172F
p2079
aa(lp2080
VSOLMGCH12A8AE47BC1
p2081
aVSOYXWGN12A8C13BD58
p2082
aag621
ag624
ag634
ag26
ag30
ag34
ag288
a(lp2083
VSOKCGKU12D02198A30
p2084
aVSOCXRXS12A6D4F9096
p2085
aVSOELEJG12A8C142FA7
p2086
aVSODTHGM12A81C214A7
p2087
aVSORTHVW12A6D4FA1DD
p2088
aVSOVUAIQ12A6D4FA180
p2089
aa(lp2090
VSOJADVA12A6D4FAAB3
p2091
aVSOPZVRY12A8C1339DF
p2092
aVSOCTNUT12AF72AAEA9
p2093
aVSOALFJM12A6701C40F
p2094
aag1831
ag1837
ag1840
ag418
ag424
ag428
ag431
ag103
ag112
ag116
ag1475
ag1478
ag1481
a(lp2095
VSOYJCVV12AB0184E40
p2096
aVSOMTHYJ12A58A76E95
p2097
aa(lp2098
VSOFYBVR12A58A7D5AE
p2099
aVSOZVNRS12AB017E293
p2100
aa(lp2101
VSOSRMMS12A8C1445B8
p2102
aVSOYXNRE12AB0181D2E
p2103
aVSOQBMYC12AB018478B
p2104
aVSOPRCSF12A8C142416
p2105
aVSOLTGIX12A8AE4941B
p2106
aa(lp2107
VSOXYAWP12A8C1373C9
p2108
aVSOLFACV12A81C21B14
p2109
aag1322
ag1328
ag1333
ag1338
ag1511
ag1514
ag1524
ag1528
a(lp2110
VSOGKGDF12AF72A5DD6
p2111
aVSOIVXRG12A8C13EC3C
p2112
aVSOQZEYA12A8C13A2A0
p2113
aVSOXZOKH12A6701F23C
p2114
aa(lp2115
VSOONUTJ12A6701D7B4
p2116
aVSOGYMUP12A6D4FBC01
p2117
aVSOFOSWD12A6D4F9089
p2118
aa(lp2119
VSOUANOU12A81C21E5F
p2120
aVSOHWXHK12A6701D7B9
p2121
aVSOEIOPE12A8C13B891
p2122
aVSOWQNXZ12A8C13C297
p2123
aag201
ag205
ag208
a(lp2124
VSOAGSVB12A8C132D4E
p2125
aVSOTVYTQ12A8C14461B
p2126
aVSOLKFEW12AC468D505
p2127
aVSOEDRHH12A6D4FAD71
p2128
aVSOIJVDR12A58A7DC5F
p2129
aVSOFQNWM12AB0186B55
p2130
aVSOJYSXM12A6D4F67A3
p2131
aa(lp2132
VSOSPNFO12AC9070FE7
p2133
aVSOPOXUE12A6D4F76E1
p2134
aVSODLIYQ12AC9072FC9
p2135
aa(lp2136
VSORILEN12A6D4FAC0E
p2137
aVSOHBFGD12A670206C3
p2138
aag871
ag874
ag878
ag1784
ag1787
ag1790
ag1793
ag1498
ag1504
ag1508
ag258
ag262
ag638
ag642
ag645
ag649
ag993
ag997
ag1002
a(lp2139
VSOZDNDN12AB01883E9
p2140
aVSOCOVTB12AB0183949
p2141
aVSONKYKX12AB01837C2
p2142
aa(lp2143
VSOIMAAD12AB017CE47
p2144
aVSOTXPIE12AF72AB7E3
p2145
aa(lp2146
VSOINLEG12AB01847D0
p2147
aVSOPGPTD12A6310E032
p2148
aag1059
ag1062
ag1066
ag1071
ag1074
ag1078
ag1081
ag500
ag506
ag515
ag751
ag755
ag760
ag1934
ag1938
ag1580
ag1584
ag1593
ag1597
a(lp2149
VSOGQDVF12A8C13F262
p2150
aVSORDRWA12A813568CD
p2151
aVSOITRJA12AB018A083
p2152
aVSOGIXRG12A8C135536
p2153
aVSOCAYDV12A81C22352
p2154
aVSOGEYNN12A6D4FCCE2
p2155
aVSOONWUM12A6D4F936D
p2156
aVSOZNRPL12AB0187995
p2157
aVSOFHZSQ12AAF3B2D1A
p2158
aVSOAHLTS12AB018C1AE
p2159
aVSOQVAPZ12AC9071B98
p2160
aVSOIYQTX12AB017F4A1
p2161
aVSOGCQQH12AB0184C46
p2162
aVSOJCBCF12AB0186756
p2163
aVSOQORVH12AB017AA9F
p2164
aVSOKPRIV12AB0189AA0
p2165
aVSOVHOSX12D021932EA
p2166
aVSORUTRC12AB0183B76
p2167
aVSOFENYK12CEB121A06
p2168
aVSOKFGRR12AB0183534
p2169
aVSOFRQWQ12AB01801A4
p2170
aVSOPNQMJ12AB017F56C
p2171
aVSOJIYNC12A8C142205
p2172
aVSOLMUHR12AB018B2D8
p2173
aVSOEZFRT12A6D4F6562
p2174
aVSOVKHDV12AB0187269
p2175
aa(lp2176
VSOVPPMQ12AB018417C
p2177
aVSONIEDN12AB0184AB9
p2178
aa(lp2179
VSOQDMXT12A6D4F8255
p2180
aVSOXCFYL12A8C13B7E9
p2181
aa(lp2182
VSOJUSHW12CF5CFD768
p2183
aVSOPHLSY12A6702003C
p2184
aVSOMTYRF12A6701CFDD
p2185
aVSOTLHUV12A6D4FC541
p2186
aVSOWZTHA12AF72A26B7
p2187
aVSOBRGZW12A8C13C541
p2188
aVSOYWBMZ12A6D4F793C
p2189
aVSOXNGCY12D021B263C
p2190
aVSOQQQUE12D0219336C
p2191
aVSOMEGDD12CF533D033
p2192
aag1205
ag1212
a(lp2193
VSOZQIUY12A6D4F7DDF
p2194
aVSOCICDX12A670206C1
p2195
aVSOMUIFU12AB0183D81
p2196
aVSOIPSKD12CF5F882BA
p2197
aa(lp2198
VSOANUZX12AB018825A
p2199
aVSOGZWQS12A58A7CA2B
p2200
aVSOQXPRB12A58A775F2
p2201
aa(lp2202
VSOXYMDV12A8C13BAD6
p2203
aVSOXTWGA12A8C13B5C9
p2204
aVSODLENQ12AF72A3DA9
p2205
aVSOUIQDI12A8C13B5F9
p2206
aVSOPIIER12AB018926A
p2207
aa(lp2208
VSOOIVNN12A6701F281
p2209
aVSOLZRFV12A6D4F289B
p2210
aVSOGVWBQ12AB017FBA7
p2211
aa(lp2212
VSOBAHMO12A58A7B731
p2213
aVSOPAISF12AB01863CA
p2214
aVSOBJZKT12A8C140FA9
p2215
aVSOMBMND12A8C138723
p2216
aa(lp2217
VSOIKUGQ12A6D4F95D6
p2218
aVSOWKBVQ12D0219A06E
p2219
aVSOUVCRX12AB0186D25
p2220
aVSOGTDJQ12A8C13324F
p2221
aag461
ag468
ag471
ag474
ag1408
ag1411
ag1414
ag1417
ag1421
a(lp2222
VSOFHUOF12AB0183A78
p2223
aVSORCWZU12A6D4FA78B
p2224
aVSOPCJFG12AB01858CC
p2225
aVSOYJOLL12A8AE45991
p2226
aVSOCQXTU12AB017EB94
p2227
aa(lp2228
VSONPIBQ12D021B14FC
p2229
aVSOHPYOS12A8C13D08F
p2230
aag1274
ag458
a(lp2231
VSOSKDGO12AF729F9BF
p2232
aVSOCDNWJ12A6310EA3C
p2233
aVSOCRWPP12A6D4F3DB1
p2234
aVSOEXMJG12A8C13EC18
p2235
aVSOKBJOE12A58A7AB7A
p2236
aVSOFZRIY12A58A7EBE6
p2237
aVSOSPPCM12A8C13F5FE
p2238
aVSOPPWHT12A8C13A5A4
p2239
aVSOSCERR12A58A7E236
p2240
aVSOFKXUK12A58A7B58B
p2241
aVSOFJALD12A6D4F7FC7
p2242
aVSOZQJHZ12A58A77971
p2243
aVSODZKPN12D021B3BD7
p2244
aVSOORPXN12A58A7771C
p2245
aVSOWZECM12A8C13F5DE
p2246
aVSOPDPKY12AB017D012
p2247
aa(lp2248
VSOPDPKY12AB017D012
p2249
aVSOWPFRJ12A8C13EC0F
p2250
aag1710
ag1714
ag1717
ag150
ag157
ag162
ag1667
ag1670
a(lp2251
VSOWWYBK12A8C145607
p2252
aVSOSXTMT12A8C1404BC
p2253
aVSOGVQTZ12A6D4FB490
p2254
aVSOJILUX12A81C202FD
p2255
aVSONWGOD12A8C13D36E
p2256
aVSOGWDXI12D02198B94
p2257
aVSOXNOYN12A6D4FB4B4
p2258
aVSOVPDVD12A6701E260
p2259
aa(lp2260
VSOJUJNJ12A6D4F9C61
p2261
aVSOMGYDK12A8C13E984
p2262
aa(lp2263
VSOOFAQQ12CF5465266
p2264
aVSOGRCBF12A8C13233B
p2265
aa(lp2266
VSOWDUTV12A67020692
p2267
aVSOHXTHT12A8AE478D9
p2268
aVSOKBPDK12A6D4FB679
p2269
aVSOTIHNY12AB0184742
p2270
aVSOHGYNZ12A8C13E052
p2271
aVSOYJLDR12A8C13D375
p2272
aVSOSFAEU12AB018CB70
p2273
aVSOXTBGF12A6D4FB49C
p2274
aVSOMBUPN12D021B218A
p2275
aVSOJITPC12AB018877E
p2276
aag444
ag447
ag451
ag455
a(lp2277
VSORWDAF12A67ADA708
p2278
aVSOZQGXP12A8C13ED25
p2279
aVSOAAOUI12AB018381C
p2280
aVSODFTHP12A58A7AA9F
p2281
aVSOSYMNF12A6D4F9090
p2282
aVSOWRYDE12A6D4FB44E
p2283
aVSOCFWYR12A58A7A3A2
p2284
aVSOUHSQJ12AB0180F39
p2285
aVSOAUITV12A6D4F8FA7
p2286
aVSOLUUNH12A8C1311FF
p2287
aVSOLRISV12A8AE48DDC
p2288
aag553
ag557
ag560
ag1307
ag1316
a(lp2289
VSOZYKGK12A6D4F7EFB
p2290
aVSOXEUKS12A6D4FE1C3
p2291
aVSOMIVDF12A6D4FE1C1
p2292
aVSOOVXBT12A6D4F6897
p2293
aag1262
ag1271
a(lp2294
VSOAOAFS12AAF3B5120
p2295
aVSOADNBE12A6701F94A
p2296
aVSODLGZW12A6701F09E
p2297
aVSOBGXGT12A6D4F5781
p2298
aa(lp2299
VSOMMUBU12AB017DED3
p2300
aVSOBBKGF12A8C1311EE
p2301
aVSOCKDQN12A8C140339
p2302
aa(lp2303
VSOREMMB12A58A7DCAB
p2304
aVSOEOJHS12AB017F3DC
p2305
aVSOMQYAC12A8C1383C3
p2306
aVSOLMBIR12A5891F907
p2307
aVSOAOAFS12AAF3B5120
p2308
aag1455
ag1469
ag1472
ag738
ag742
ag746
a(lp2309
VSOVPPMQ12AB018417C
p2310
aVSOODHLO12AF72A1980
p2311
aVSOKJILN12AB0182BC9
p2312
aa(lp2313
VSODSBFY12A8C141360
p2314
aVSORBCNQ12CF5F88823
p2315
aVSOUOVUP12A8C13E949
p2316
aVSODGUUH12A6D4F9343
p2317
aVSOQXDXM12A8C134E8E
p2318
aVSOOLHRZ12A8C134E90
p2319
aag1024
ag1028
ag518
ag521
ag528
ag595
ag434
ag438
ag1883
ag1891
ag1898
ag1907
ag598
ag602
ag610
ag492
ag497
ag805
ag1866
ag1872
a(lp2320
VSONIKFU12A6701ED4A
p2321
aVSOXLVRT12A58A7E8F5
p2322
aVSOWUFNN12D021909C0
p2323
aVSOWKFHD12A8C131320
p2324
aa(lp2325
VSOKSHXM12A8C13B210
p2326
aVSOCYADY12A8C13BCF1
p2327
aVSOFNVBL12A6D4F9F78
p2328
aVSOROJER12A8C140911
p2329
aVSOROGUW12A58A7CAFF
p2330
aVSOXIKKF12AB01850D4
p2331
aVSOVQCKJ12A6D4F9C07
p2332
aVSONCAKK12D0219A899
p2333
aVSODXJVJ12A8C13B97A
p2334
aag1345
ag1351
a(lp2335
VSOKOTZG12A6D4F9519
p2336
aVSOJMJHO12A8C142C85
p2337
aVSOKJFYL12AB01879D0
p2338
aVSOPFSNM12AB017C856
p2339
aa(lp2340
VSOUZBOB12A6D4FC00A
p2341
aVSOBZXCU12A67AE1818
p2342
aVSOTRDVJ12A8C13975E
p2343
aVSOUCVLU12A67ADBAC0
p2344
aVSOCJHPS12A6D4F8523
p2345
aVSOROGUW12A58A7CAFF
p2346
aa(lp2347
VSOHQFLV12A6D4F863A
p2348
aVSOLOCFZ12A8C13C78A
p2349
aVSOLXSHU12A6D4F98DF
p2350
aa(lp2351
VSOGKVWZ12A8C140DA3
p2352
aVSOWBLAQ12A8C13C152
p2353
aVSOKKKBX12A8AE48C5F
p2354
aVSOGLLTK1286ED9D565
p2355
aag1770
ag1134
ag1137
ag1140
ag1144
ag1147
ag1166
ag1169
ag1173
ag1366
ag1371
ag954
ag958
ag961
ag966
ag1658
ag1662
ag1750
ag1755
ag1765
ag1185
ag1188
ag1193
ag132
a(lp2356
VSOQXECK12A58A7AE0A
p2357
aVSOXWEYU12AB018D1AA
p2358
aVSOUUVEB12A6D4FD67F
p2359
aa(lp2360
VSOWSLPR12A8C135B1C
p2361
aVSORHFMC12AB0186DD0
p2362
aa(lp2363
VSOOYOEZ12AB0181FBB
p2364
aVSORHNQM12AB01864FE
p2365
aa(lp2366
VSONZAMX12AB018D1DD
p2367
aVSOMLHQM12A8C13B87A
p2368
aag851
ag862
ag865
ag905
ag1627
ag1630
ag1633
ag1636
ag314
ag318
a(lp2369
VSOCCXYC12A8C142754
p2370
aVSOUUSQS12A8C141F31
p2371
aa(lp2372
VSOIZLND12A8C136A08
p2373
aVSOGXHRG12A8C13B132
p2374
aVSOOXLND12A6D4FE36E
p2375
aa(lp2376
VSOYSKNJ12AB0180AB0
p2377
aVSOWJVKO12AB017F614
p2378
aVSOGRNNX12A58A7BC65
p2379
aVSOFYBOE12A6D4F5AA0
p2380
aVSONLLQO12AB0185A6B
p2381
aVSOKLUKW12A58A7B7A8
p2382
aag1651
ag1655
a(lp2383
VSOQOXRJ12A8C1402D6
p2384
aVSOZDRQA12AB0187E61
p2385
aVSOELOVM12AB018557E
p2386
aVSOOPXFY12A6701DE4C
p2387
aVSOOJBOO12AB0187196
p2388
aVSOSGZOE12AB01814B2
p2389
aVSOSFAEU12AB018CB70
p2390
aVSOMMNED12AB0183804
p2391
aa(lp2392
VSOARPVY12A6701EB00
p2393
aVSOLMESC12AF729AA5A
p2394
aa(lp2395
VSOLVFYI12A58A79481
p2396
aVSOLHAEK12AF729EC21
p2397
aVSOLXIWB12AB01836D7
p2398
aVSOIFPXF12A8C1360AE
p2399
aa(lp2400
VSOJNTBJ12A58A7B01B
p2401
aVSOVSBMS12A6D4F4535
p2402
aVSOOUDTH12A6D4F60A6
p2403
aa(lp2404
VSOFQNWM12AB0186B55
p2405
aVSONTWAN12A58A7DF5A
p2406
aag1354
ag1361
ag1248
ag1251
ag1254
ag1257
ag1196
ag1199
ag1202
ag402
ag406
ag409
ag412
ag1951
ag1956
ag1152
ag15
ag18
ag22
a(lp2407
VSONTSST12CF5F88B42
p2408
aVSOVOKCQ12A8C1343A5
p2409
aVSOLGFZF12A8C13FADC
p2410
aVSOEASCH12A8C137073
p2411
aVSOWDWCG12A81C22155
p2412
aVSOQUNKO12A6D4F524B
p2413
aag1721
ag1726
ag1730
ag1734
ag1383
ag1386
ag1392
a(lp2414
VSONNSYV12A8C146BEC
p2415
aVSOIVXUZ12A6701F305
p2416
aVSOMQYAC12A8C1383C3
p2417
aVSOWBXSN12A8C13A9E9
p2418
aVSOCQFDB12A6D4F7ABC
p2419
aVSOKSHHP12AF729E6EF
p2420
aa(lp2421
VSOGSKNQ12A6D4FA43D
p2422
aVSOSFAEU12AB018CB70
p2423
aVSOTYOZM12A6D4F915D
p2424
aag1098
ag1104
ag1111
a(lp2425
VSODQSLR12A81C21F27
p2426
aVSOOZNMN12AB0181759
p2427
aa(lp2428
VSOULPZZ12A8C139C1C
p2429
aVSORIQQT12B0B8066D3
p2430
aVSOWSCMF12A8AE456BB
p2431
aVSOTRDLO12A8C13EEE5
p2432
aVSOBDZVH12AC468AB54
p2433
aVSONMXTY12A8C145D31
p2434
aa(lp2435
VSOXMEFA12A8C13E41F
p2436
aVSOXEAQS12AF729E0EB
p2437
aa(lp2438
VSOYINSW12B0B80BEBD
p2439
aVSOPFUEQ12A8C13BDD4
p2440
aVSOHCWKB12B0B8063CC
p2441
aVSOTJCFT12A8AE47546
p2442
aVSOKUQTM12A81C218C4
p2443
aVSORGTSS12AB018E5B0
p2444
aVSOMWYDG12A8C14376B
p2445
aag1962
ag41
ag47
ag54
ag58
ag64
ag478
ag481
ag487
ag1396
ag1403
ag1677
ag1685
ag881
ag885
ag889
ag237
ag240
ag245
ag1737
a(lp2446
VSOVFWZD12D02191C02
p2447
aVSOIPECI12B0B80A191
p2448
aa(lp2449
VSOQKYSR12AB018AA82
p2450
aVSOQNLIG12A6D4F937D
p2451
aVSOUVWTD12A8C13CA15
p2452
aa(lp2453
VSOBBKGF12A8C1311EE
p2454
aVSOMBNVR12AF72A736E
p2455
aa(lp2456
VSOJKSMH12A8C13DA67
p2457
aVSOFWKKF12A8C136B20
p2458
aVSOVKMYG12A6701D1A4
p2459
aa(lp2460
VSOYMOIL12A8C13E507
p2461
aVSOQKBUJ12A6D4F7D6F
p2462
aag321
ag326
ag329
ag539
ag896
ag901
ag941
a(lp2463
VSOJJLKV12A8C137F0F
p2464
aVSOKGZWL12A8C136127
p2465
aVSOKALSK12AF72ABFDE
p2466
aVSOFYBOE12A6D4F5AA0
p2467
aVSOCNLOL12AB0186923
p2468
aa(lp2469
VSONPSPN12A8C13C466
p2470
aVSOJEHVW12AF72A2BF1
p2471
aa(lp2472
VSODVDAI12A8C136F53
p2473
aVSOOPMOB12AB0182028
p2474
aVSOQCHEI12AB017A1C6
p2475
aVSOSBAIR12A6D4F8480
p2476
aVSOWPFIU12A6D4F5AF1
p2477
aa(lp2478
VSOOTLVA12A58A7B2D9
p2479
aVSOHOBAA12A6D4F6F54
p2480
aVSOZCIJA12AC3DF924F
p2481
aag1857
ag1798
ag1804
ag1177
ag1181
ag212
ag217
ag223
ag568
ag571
ag577
ag1223
ag1227
a(lp2482
VSORRDKP12A58A7FF1A
p2483
aVSODZOBI12AC468A8FD
p2484
aVSOVZMAN12A6D4FE1DA
p2485
aVSOXKRZJ12A58A79050
p2486
aa(lp2487
VSOFOQGI12A6D4F8932
p2488
aVSOMZBOC12A6D4F93C2
p2489
aa(lp2490
VSOVDAQI12AB0183C55
p2491
aVSORQOKM12D021930FF
p2492
aa(lp2493
VSOAGHIV12AB018A5A5
p2494
aVSOWJTUF12A81C22E74
p2495
aa(lp2496
VSOOMOUX12A58A799B9
p2497
aVSOBCEGW12A8C13DEA2
p2498
aVSOLRMDK12A3F1ECD21
p2499
aVSOQBCHU12A58A7DE7C
p2500
aa(lp2501
VSOJDWNC12AB0183A40
p2502
aVSOJVBUE12D021903D2
p2503
aa(lp2504
VSONVTNI12AB0183390
p2505
aVSOSQYLH12A81C22EC1
p2506
aVSOCEMQV12AB01837D9
p2507
aa(lp2508
VSOJLMWK12A8C131F05
p2509
aVSOIRQCF12A8C1337CE
p2510
aVSOKNCXS12AB01867BE
p2511
aVSONCWXR12D021B1283
p2512
aa(lp2513
VSOENSDH12AB0180E1B
p2514
aVSOIJZMC12A8AE48BE2
p2515
aVSODEYMM12A81C22BB3
p2516
aVSODMFXW12A8BEE954F
p2517
aVSODGBTS12A8C137FBE
p2518
aVSOSOYWF12AF72A254A
p2519
aa(lp2520
VSOVNHTL12A6D22281A
p2521
aVSORSVWF12A6D222815
p2522
aag616
ag1941
ag1944
ag1948
ag1425
ag273
ag277
ag280
ag285
ag1038
ag1042
ag1045
ag181
ag184
ag187
ag192
aa(lp2523
g1965
ag1968
ag1134
ag1137
ag1140
ag1144
ag1147
ag1798
ag1804
ag2193
ag1048
ag1052
ag1055
ag893
ag1307
ag1316
ag1737
ag954
ag958
ag961
ag966
ag2006
ag2009
ag2012
ag2015
ag2018
ag1445
ag1450
ag348
ag351
ag354
ag595
ag1951
ag1956
ag83
ag86
ag90
ag95
ag1580
ag1584
ag1593
ag1597
ag908
ag917
ag923
ag695
ag700
ag704
ag1185
ag1188
ag1193
ag2149
ag2176
ag971
ag976
ag2095
ag2098
ag2101
ag2107
ag335
ag1742
ag1166
ag1169
ag1173
ag1098
ag1104
ag1111
ag1562
ag1565
ag1568
ag1571
ag1575
a(lp2524
VSOPQLBY12A6310E992
p2525
aVSOYQAVD12D02193D04
p2526
aVSOYCXUA12A8C133713
p2527
aVSOFLDOK12A8C13E8F7
p2528
aa(lp2529
VSOEXFZQ12A6D4FC33E
p2530
aVSOPNJXC12A8C1333CF
p2531
aa(lp2532
VSOTSCKX12AB01857AA
p2533
aVSONLWEK12D0219317D
p2534
aVSOYOAAM12AB01841AD
p2535
aVSOHWRJH12A8C139AFC
p2536
aVSORSQMM12AB01874EA
p2537
aa(lp2538
VSOZEUQZ12A6310E8E3
p2539
aVSOTVFIU12AC46878B7
p2540
aag2179
ag2182
ag1694
ag1699
a(lp2541
VSOVNHQB12A8C13BF25
p2542
aVSOMJKYN12AB0180B0D
p2543
aVSODKJUR12A6D4FA412
p2544
aVSORYKHD12A6D4F9716
p2545
aa(lp2546
VSOLVFQO12AC4689CB0
p2547
aVSOVDEBT12A6701F7A5
p2548
aa(lp2549
VSOUIOGK12AB017F0D4
p2550
aVSOMIXXT12D021B27DE
p2551
aag1408
ag1411
ag1414
ag1417
ag1421
ag434
ag438
ag1750
ag1755
ag1765
ag738
ag742
ag746
ag1822
ag1826
ag1601
ag1604
ag492
ag497
ag1152
a(lp2552
VSOCRAVJ12AC468E804
p2553
aVSOPUQZC12A6701C59F
p2554
aVSOTSYTH12A6701F0E6
p2555
aa(lp2556
VSOMOPAV12A6D4F76EC
p2557
aVSOLHAOI12A8C1415D8
p2558
aVSOLFGDB12AC468BB43
p2559
aVSOEATXV12A8C1363E9
p2560
aag668
ag671
ag674
ag2383
ag1721
ag1726
ag1730
ag1734
ag258
ag262
ag1812
ag2356
ag2360
ag2363
ag2366
ag2025
ag2029
ag2032
ag580
ag583
ag590
a(lp2561
VSOPIDUI12A6D4F990E
p2562
aVSOSADFP12A8C13E931
p2563
aVSOYLXVU12A8C139194
p2564
aVSOPWBHC12AF72A7B35
p2565
aa(lp2566
VSOXRHVW12AF72A57B2
p2567
aVSOSCVUX12A6D4F812B
p2568
aVSOBPNMG12AAF3B48D8
p2569
aa(lp2570
VSOKILGU12A8C13F565
p2571
aVSOZTUIS12A8AE46A4D
p2572
aVSOTHAWB12A8C142B2E
p2573
aVSOREQJL12A8C13C67E
p2574
aVSOSJNMG12A6D4FB86E
p2575
aVSOMVNEP12A6D4FC22E
p2576
aag1383
ag1386
ag1392
ag2309
ag2313
ag616
ag2463
ag2469
ag2472
ag2478
ag2076
ag2080
ag2407
a(lp2577
VSONVPVP12AF72A6851
p2578
aVSOCVQYV12A8C1341F4
p2579
aVSOMCVKM12CF5F87C53
p2580
aVSOEQWNZ12A6D4F787C
p2581
aa(lp2582
VSOHTHLP12A58A7EF54
p2583
aVSOTFPLO12A6D4F7AC8
p2584
aag1024
ag1028
ag1084
ag1087
ag1092
ag1857
ag2369
ag2372
ag2376
ag314
ag318
ag2251
ag2260
ag2263
ag2266
ag1651
ag1655
ag1916
ag1922
ag1926
ag1930
ag291
ag296
ag300
ag303
ag309
a(lp2585
VSOUUACJ12A8C13ABDE
p2586
aVSOGEWKG12AF729FA46
p2587
aVSOXOOIF12A6702067D
p2588
aVSORRPIM12A6701EA17
p2589
aa(lp2590
VSODTVZF12A6310E1FA
p2591
aVSOXNOYN12A6D4FB4B4
p2592
aVSORJEKI12A6701F45D
p2593
aag2335
ag2340
ag2347
ag2351
ag1934
ag1938
ag1296
ag1301
ag1304
ag518
ag521
ag528
ag361
ag365
ag370
ag373
ag103
ag112
ag116
ag1541
ag1547
ag1552
ag1559
ag712
ag715
ag783
ag792
ag1677
ag1685
ag823
ag830
ag833
ag1475
ag1478
ag1481
ag2198
ag2202
ag2208
ag2212
ag2217
ag1322
ag1328
ag1333
ag1338
ag2139
ag2143
ag2146
ag228
ag231
ag1115
ag1119
ag1124
ag1354
ag1361
ag1429
ag1436
ag1439
ag1442
ag709
ag805
ag751
ag755
ag760
ag2083
ag2090
ag332
ag2425
ag2428
ag2435
ag2438
ag396
a(lp2594
VSOJHDPK12A6D4FA9A0
p2595
aVSOQMAMM12A6D4F9A6B
p2596
aag2294
ag2299
ag2303
ag764
ag769
ag773
ag779
ag1262
ag1271
ag905
ag928
ag932
ag938
ag15
ag18
ag22
ag288
ag461
ag468
ag471
ag474
ag41
ag47
ag54
ag58
ag64
ag1248
ag1251
ag1254
ag1257
ag1230
ag1234
ag1243
ag1396
ag1403
ag2222
ag2228
ag1177
ag1181
ag1710
ag1714
ag1717
ag837
ag841
ag844
ag847
ag896
ag901
ag2482
ag2487
ag2490
ag1989
ag1994
ag1997
ag1667
ag1670
ag1274
ag638
ag642
ag645
ag649
ag2392
ag2395
ag2400
ag2404
ag1498
ag1504
ag1508
ag568
ag571
ag577
ag652
ag656
ag660
ag665
ag1975
ag1980
ag1983
ag2289
a(lp2597
VSOAMKUI12A8C143148
p2598
aVSOLYVAA12AF72A366B
p2599
aag77
ag80
ag74
ag532
ag535
ag851
ag862
ag865
ag1196
ag1199
ag1202
ag881
ag885
ag889
ag2035
ag2043
ag2049
ag458
ag1644
ag1648
ag26
ag30
ag34
ag1511
ag1514
ag1524
ag1528
a(lp2600
VSOPTLNG12A6701EB7F
p2601
aVSOJDXRQ12D0219B1F5
p2602
aVSOCKCOR12A8C136FEF
p2603
aa(lp2604
VSOCACOZ12A81C216D1
p2605
aVSOIEHEL12AAA8C6628
p2606
aVSOYXFXR12A58A7C513
p2607
aa(lp2608
VSOYWDNB12A6D4F7DCA
p2609
aVSOMJQYM12A8C13772F
p2610
aVSOOCKPO12A67021D10
p2611
aVSOBCFKL12A8C13131E
p2612
aa(lp2613
VSOCAXWE12A8C13CEC0
p2614
aVSOPOQRJ12A6D4FC417
p2615
aVSOHQAKK12A8C131323
p2616
aag418
ag424
ag428
ag431
ag376
ag383
ag1674
a(lp2617
VSOEBOWM12AB017F279
p2618
aVSOCIGKL12A8AE48233
p2619
aVSOGUBGT12A8C13EAAF
p2620
aVSOLMWNQ12AB0187324
p2621
aVSOMYRJW12AB018D130
p2622
aVSOHJRKR12AB0188738
p2623
aa(lp2624
VSOZBIVL12A8C13DB46
p2625
aVSOLMYII12A67021345
p2626
aa(lp2627
VSOPQJAZ12A6310F168
p2628
aVSOTHUTZ12A6D4F7A7B
p2629
aag1366
ag1371
ag1007
ag1013
ag553
ag557
ag560
ag2446
ag2449
ag2453
ag2124
ag2132
ag2136
ag722
ag735
ag1844
ag1850
ag1854
ag1607
ag1610
ag1613
ag1622
ag165
ag170
ag178
ag1866
ag1872
ag1156
ag1161
ag2052
ag2056
ag2059
ag941
ag1658
ag1662
a(lp2630
VSONIKFU12A6701ED4A
p2631
aVSOCTUNF12A6701ED40
p2632
aVSOGBZXR12A8C146953
p2633
aVSONUYJK12A6701ED44
p2634
aVSOAJIDU12A679AE5BA
p2635
aVSONRETF12A6D4F9601
p2636
aVSOCJRPP12AF729A925
p2637
aVSOHFHPR12AB018A522
p2638
aVSOCRLSU12A679AE5B0
p2639
aVSOWGJLE12A679AE5A7
p2640
aVSOEKKDE12A58A7C98B
p2641
aVSOZLDVG12A6701ED42
p2642
aVSOMWGWN12AF72A23D0
p2643
aa(lp2644
VSOGPXPN12A6701ED45
p2645
aVSOTPOHX12A8C146939
p2646
aag1059
ag1062
ag1066
ag1071
ag1074
ag1078
ag1081
ag1941
ag1944
ag1948
ag1455
ag1469
ag1472
ag2456
ag2460
ag1815
ag1819
ag1223
ag1227
ag150
ag157
ag162
ag621
ag624
ag634
aa(lp2647
g1396
ag1403
ag2021
ag1115
ag1119
ag1124
ag971
ag976
ag361
ag365
ag370
ag373
ag2482
ag2487
ag2490
ag1750
ag1755
ag1765
ag993
ag997
ag1002
ag712
ag715
ag444
ag447
ag451
ag455
ag2335
ag2340
ag2347
ag2351
ag851
ag862
ag865
ag638
ag642
ag645
ag649
ag2110
ag2115
ag2119
ag1694
ag1699
ag1262
ag1271
ag1742
ag461
ag468
ag471
ag474
ag396
ag1531
ag1534
ag1537
ag415
ag1822
ag1826
ag237
ag240
ag245
ag1425
ag1354
ag1361
ag212
ag217
ag223
ag2493
ag2496
ag2501
ag2504
ag478
ag481
ag487
ag2149
ag2176
ag539
ag1721
ag1726
ag1730
ag1734
ag2139
ag2143
ag2146
ag1185
ag1188
ag1193
ag1857
ag1059
ag1062
ag1066
ag1071
ag1074
ag1078
ag1081
ag2597
ag1601
ag1604
ag2600
ag2604
ag2608
ag2613
ag871
ag874
ag878
ag881
ag885
ag889
ag2425
ag2428
ag2435
ag2438
ag722
ag735
ag1866
ag1872
ag1374
ag1377
ag652
ag656
ag660
ag665
ag41
ag47
ag54
ag58
ag64
ag2508
ag2513
ag2520
ag695
ag700
ag704
ag165
ag170
ag178
ag1910
ag1913
ag83
ag86
ag90
ag95
ag1916
ag1922
ag1926
ag1930
ag492
ag497
ag1307
ag1316
ag2076
ag2080
ag26
ag30
ag34
ag1485
ag1490
ag1495
ag823
ag830
ag833
ag1408
ag1411
ag1414
ag1417
ag1421
ag132
ag1223
ag1227
ag1455
ag1469
ag1472
ag1737
ag321
ag326
ag329
ag228
ag231
ag2251
ag2260
ag2263
ag2266
ag1580
ag1584
ag1593
ag1597
ag1024
ag1028
ag1883
ag1891
ag1898
ag1907
ag376
ag383
ag1048
ag1052
ag1055
ag1651
ag1655
ag1541
ag1547
ag1552
ag1559
ag1230
ag1234
ag1243
ag805
ag1511
ag1514
ag1524
ag1528
ag273
ag277
ag280
ag285
ag119
ag123
ag127
ag2524
ag2529
ag2532
ag2538
ag2594
ag2006
ag2009
ag2012
ag2015
ag2018
ag1383
ag1386
ag1392
ag348
ag351
ag354
ag1667
ag1670
ag1296
ag1301
ag1304
ag1812
ag598
ag602
ag610
ag928
ag932
ag938
ag738
ag742
ag746
ag1429
ag1436
ag1439
ag1442
ag2577
ag2582
ag2289
ag291
ag296
ag300
ag303
ag309
ag1941
ag1944
ag1948
ag2052
ag2056
ag2059
ag2083
ag2090
ag893
ag2356
ag2360
ag2363
ag2366
a(lp2648
VSOZHOLP12A58A79EBD
p2649
aVSONIRXX12AB01853C3
p2650
aVSOPZCDA12AB0183D9A
p2651
aVSOCYOTN12A8C13A4B1
p2652
aVSONEPPU12A58A7EB97
p2653
aVSOSVEMQ12A6D4F9766
p2654
aa(lp2655
VSOMPMHN12A6702073C
p2656
aVSOMTHYJ12A58A76E95
p2657
aa(lp2658
VSOCXIHZ12A8C134D4B
p2659
aVSODZZGP12A6D4F6C2A
p2660
aag947
ag950
ag418
ag424
ag428
ag431
ag954
ag958
ag961
ag966
ag1934
ag1938
ag1205
ag1212
ag2446
ag2449
ag2453
ag1965
ag1968
ag2407
ag1156
ag1161
ag2383
ag77
ag80
ag1710
ag1714
ag1717
ag288
ag1688
ag1691
ag2630
ag2644
ag764
ag769
ag773
ag779
ag2309
ag2313
ag1498
ag1504
ag1508
ag314
ag318
ag2035
ag2043
ag2049
ag905
ag1098
ag1104
ag1111
ag2025
ag2029
ag2032
ag434
ag438
ag595
ag201
ag205
ag208
ag896
ag901
ag1844
ag1850
ag1854
ag532
ag535
ag2222
ag2228
ag1784
ag1787
ag1790
ag1793
ag580
ag583
ag590
ag1815
ag1819
ag1831
ag1837
ag1840
ag621
ag624
ag634
ag1248
ag1251
ag1254
ag1257
ag2541
ag2546
ag2549
ag1134
ag1137
ag1140
ag1144
ag1147
ag1562
ag1565
ag1568
ag1571
ag1575
a(lp2661
VSOIDXKR12AB017C04A
p2662
aVSORUGWN12A67ADCF32
p2663
aa(lp2664
VSOASESW12A6D4F7F12
p2665
aVSOCEAHY12AB0185919
p2666
aVSOFXWEE12A8C131E98
p2667
aag1770
ag1607
ag1610
ag1613
ag1622
a(lp2668
VSOPLCCM12AB01842B3
p2669
aVSOQLFRX12A6D4F9200
p2670
aa(lp2671
VSOJWOZX12AF72A04E5
p2672
aVSOQBQQI12A6310E02F
p2673
aa(lp2674
VSOROHTY12A58A79064
p2675
aVSOIJXHO12AF72A3FC4
p2676
aa(lp2677
VSOHBTJO12AB018626F
p2678
aVSOZZRHE12A6702165F
p2679
aVSOMTGKO12A6310EA6D
p2680
aa(lp2681
VSOFNMWF12A3F1ED39F
p2682
aVSODIJVC12A6D4FC48E
p2683
aVSOOACQN12A6310D90F
p2684
aVSORWJIT12A8C13B43D
p2685
aVSOUNTOM12A8C1412D3
p2686
aag518
ag521
ag528
ag258
ag262
ag2124
ag2132
ag2136
ag1345
ag1351
ag335
ag458
ag339
ag343
ag2463
ag2469
ag2472
ag2478
ag908
ag917
ag923
ag2198
ag2202
ag2208
ag2212
ag2217
ag2552
ag2556
ag2392
ag2395
ag2400
ag2404
ag1322
ag1328
ag1333
ag1338
ag332
ag402
ag406
ag409
ag412
ag1084
ag1087
ag1092
ag2068
ag2071
ag2193
ag809
ag816
aa(lp2687
g98
ag2277
ag1658
ag1662
ag1345
ag1351
ag1445
ag1450
ag1971
ag500
ag506
ag515
ag1498
ag1504
ag1508
ag1115
ag1119
ag1124
ag2617
ag2624
ag2627
ag764
ag769
ag773
ag779
ag1934
ag1938
ag1770
ag851
ag862
ag865
ag2456
ag2460
ag201
ag205
ag208
ag652
ag656
ag660
ag665
ag181
ag184
ag187
ag192
ag150
ag157
ag162
ag568
ag571
ag577
ag1710
ag1714
ag1717
ag783
ag792
ag893
ag2585
ag2590
ag1951
ag1956
ag616
ag2025
ag2029
ag2032
ag1866
ag1872
ag273
ag277
ag280
ag285
ag1274
ag2541
ag2546
ag2549
ag1750
ag1755
ag1765
ag2463
ag2469
ag2472
ag2478
ag314
ag318
ag2392
ag2395
ag2400
ag2404
ag722
ag735
ag1562
ag1565
ag1568
ag1571
ag1575
ag2320
ag2325
ag580
ag583
ag590
ag119
ag123
ag127
ag2561
ag2566
ag2570
ag1916
ag1922
ag1926
ag1930
ag2648
ag2655
ag2658
ag2052
ag2056
ag2059
ag2083
ag2090
ag871
ag874
ag878
ag993
ag997
ag1002
ag332
ag1408
ag1411
ag1414
ag1417
ag1421
ag1798
ag1804
ag1230
ag1234
ag1243
ag396
ag695
ag700
ag704
ag1084
ag1087
ag1092
ag1784
ag1787
ag1790
ag1793
ag444
ag447
ag451
ag455
ag2600
ag2604
ag2608
ag2613
ag1667
ag1670
ag321
ag326
ag329
ag1677
ag1685
ag26
ag30
ag34
ag1038
ag1042
ag1045
ag2446
ag2449
ag2453
ag1737
ag1531
ag1534
ag1537
ag1059
ag1062
ag1066
ag1071
ag1074
ag1078
ag1081
ag15
ag18
ag22
ag805
ag288
ag2668
ag2671
ag2674
ag2677
ag2681
ag434
ag438
ag478
ag481
ag487
ag2482
ag2487
ag2490
ag2110
ag2115
ag2119
ag1844
ag1850
ag1854
ag2035
ag2043
ag2049
ag41
ag47
ag54
ag58
ag64
ag1742
ag971
ag976
ag709
ag928
ag932
ag938
ag165
ag170
ag178
ag1688
ag1691
ag74
ag1475
ag1478
ag1481
ag461
ag468
ag471
ag474
ag712
ag715
ag1883
ag1891
ag1898
ag1907
ag1627
ag1630
ag1633
ag1636
ag1721
ag1726
ag1730
ag1734
ag2139
ag2143
ag2146
ag1166
ag1169
ag1173
ag2179
ag2182
ag1177
ag1181
ag1831
ag1837
ag1840
ag1485
ag1490
ag1495
ag2630
ag2644
ag2231
ag2248
ag1607
ag1610
ag1613
ag1622
ag947
ag950
ag954
ag958
ag961
ag966
ag539
ag258
ag262
ag2095
ag2098
ag2101
ag2107
ag67
ag71
ag2124
ag2132
ag2136
ag103
ag112
ag116
ag1007
ag1013
ag2577
ag2582
ag228
ag231
ag823
ag830
ag833
ag1962
ag2149
ag2176
ag809
ag816
ag1024
ag1028
ag348
ag351
ag354
ag1674
ag1541
ag1547
ag1552
ag1559
ag2006
ag2009
ag2012
ag2015
ag2018
ag683
ag688
ag692
ag2289
ag1134
ag1137
ag1140
ag1144
ag1147
ag1644
ag1648
ag1965
ag1968
ag2597
ag2309
ag2313
ag2193
ag1296
ag1301
ag1304
ag2198
ag2202
ag2208
ag2212
ag2217
ag361
ag365
ag370
ag373
ag2356
ag2360
ag2363
ag2366
ag376
ag383
ag1580
ag1584
ag1593
ag1597
ag2661
ag2664
ag1098
ag1104
ag1111
ag492
ag497
ag1248
ag1251
ag1254
ag1257
ag668
ag671
ag674
ag2222
ag2228
ag1651
ag1655
ag1601
ag1604
ag2493
ag2496
ag2501
ag2504
ag1196
ag1199
ag1202
ag1975
ag1980
ag1983
ag458
ag1383
ag1386
ag1392
ag339
ag343
ag415
ag1455
ag1469
ag1472
ag2335
ag2340
ag2347
ag2351
ag1941
ag1944
ag1948
ag598
ag602
ag610
ag335
ag2425
ag2428
ag2435
ag2438
ag2594
ag248
ag252
ag255
ag2294
ag2299
ag2303
ag518
ag521
ag528
ag2508
ag2513
ag2520
ag402
ag406
ag409
ag412
ag1156
ag1161
aa(lp2688
g2661
ag2664
ag695
ag700
ag704
ag119
ag123
ag127
ag2294
ag2299
ag2303
ag905
ag1383
ag1386
ag1392
ag1580
ag1584
ag1593
ag1597
ag1750
ag1755
ag1765
ag941
ag2383
ag823
ag830
ag833
ag1084
ag1087
ag1092
ag2025
ag2029
ag2032
ag1366
ag1371
ag77
ag80
ag2456
ag2460
ag41
ag47
ag54
ag58
ag64
ag1354
ag1361
ag1975
ag1980
ag1983
ag2585
ag2590
ag668
ag671
ag674
ag2600
ag2604
ag2608
ag2613
ag2320
ag2325
ag2083
ag2090
ag881
ag885
ag889
ag2124
ag2132
ag2136
ag1007
ag1013
ag332
ag83
ag86
ag90
ag95
ag683
ag688
ag692
ag1694
ag1699
ag2369
ag2372
ag2376
ag1048
ag1052
ag1055
ag947
ag950
ag783
ag792
ag1644
ag1648
ag132
ag2414
ag2421
ag1541
ag1547
ag1552
ag1559
ag1425
ag339
ag343
ag1248
ag1251
ag1254
ag1257
ag1844
ag1850
ag1854
ag1156
ag1161
ag1307
ag1316
ag2524
ag2529
ag2532
ag2538
ag1688
ag1691
ag2193
ag1177
ag1181
ag1962
ag851
ag862
ag865
ag568
ag571
ag577
ag1322
ag1328
ag1333
ag1338
ag1831
ag1837
ag1840
ag1857
ag971
ag976
ag764
ag769
ag773
ag779
ag1989
ag1994
ag1997
ag1798
ag1804
ag2021
ag1607
ag1610
ag1613
ag1622
ag273
ag277
ag280
ag285
ag2289
ag2139
ag2143
ag2146
ag1812
ag212
ag217
ag223
ag228
ag231
ag954
ag958
ag961
ag966
ag478
ag481
ag487
ag805
ag598
ag602
ag610
ag1815
ag1819
ag1485
ag1490
ag1495
ag461
ag468
ag471
ag474
ag74
ag418
ag424
ag428
ag431
ag237
ag240
ag245
ag893
ag1408
ag1411
ag1414
ag1417
ag1421
ag2110
ag2115
ag2119
ag1196
ag1199
ag1202
ag2356
ag2360
ag2363
ag2366
ag2446
ag2449
ag2453
ag500
ag506
ag515
ag103
ag112
ag116
ag1658
ag1662
ag1429
ag1436
ag1439
ag1442
ag396
ag2541
ag2546
ag2549
ag2309
ag2313
ag2179
ag2182
ag1784
ag1787
ag1790
ag1793
ag2463
ag2469
ag2472
ag2478
ag1152
ag201
ag205
ag208
ag2335
ag2340
ag2347
ag2351
ag2149
ag2176
ag348
ag351
ag354
ag1721
ag1726
ag1730
ag1734
ag2198
ag2202
ag2208
ag2212
ag2217
ag652
ag656
ag660
ag665
ag580
ag583
ag590
ag1223
ag1227
ag415
ag1674
ag314
ag318
ag1941
ag1944
ag1948
ag539
ag291
ag296
ag300
ag303
ag309
ag1916
ag1922
ag1926
ag1930
ag1742
ag2493
ag2496
ag2501
ag2504
ag2668
ag2671
ag2674
ag2677
ag2681
ag2630
ag2644
ag1971
ag1374
ag1377
ag1166
ag1169
ag1173
ag616
ag1601
ag1604
ag1024
ag1028
ag361
ag365
ag370
ag373
ag809
ag816
ag1965
ag1968
ag165
ag170
ag178
ag1562
ag1565
ag1568
ag1571
ag1575
ag1205
ag1212
ag444
ag447
ag451
ag455
ag492
ag497
ag321
ag326
ag329
ag150
ag157
ag162
ag1230
ag1234
ag1243
ag376
ag383
ag2407
ag2006
ag2009
ag2012
ag2015
ag2018
ag1115
ag1119
ag1124
ag15
ag18
ag22
ag993
ag997
ag1002
ag621
ag624
ag634
ag258
ag262
ag1185
ag1188
ag1193
ag402
ag406
ag409
ag412
ag181
ag184
ag187
ag192
ag553
ag557
ag560
ag1396
ag1403
ag712
ag715
ag335
ag595
ag1098
ag1104
ag1111
ag928
ag932
ag938
ag2076
ag2080
ag1511
ag1514
ag1524
ag1528
ag518
ag521
ag528
ag26
ag30
ag34
ag1770
ag3
ag6
ag12
ag2594
ag248
ag252
ag255
ag1667
ag1670
ag2052
ag2056
ag2059
ag1475
ag1478
ag1481
ag1822
ag1826
aa(lp2689
g2035
ag2043
ag2049
ag478
ag481
ag487
ag2668
ag2671
ag2674
ag2677
ag2681
ag695
ag700
ag704
ag74
ag1498
ag1504
ag1508
ag1975
ag1980
ag1983
ag1177
ag1181
ag905
ag1883
ag1891
ag1898
ag1907
ag2630
ag2644
ag361
ag365
ag370
ag373
ag683
ag688
ag692
ag1445
ag1450
ag2006
ag2009
ag2012
ag2015
ag2018
ag2124
ag2132
ag2136
ag2021
ag532
ag535
ag2198
ag2202
ag2208
ag2212
ag2217
ag1048
ag1052
ag1055
ag98
ag2095
ag2098
ag2101
ag2107
ag1429
ag1436
ag1439
ag1442
ag1098
ag1104
ag1111
ag1374
ag1377
ag1580
ag1584
ag1593
ag1597
ag181
ag184
ag187
ag192
ag1934
ag1938
ag851
ag862
ag865
ag837
ag841
ag844
ag847
ag119
ag123
ag127
ag1844
ag1850
ag1854
ag2294
ag2299
ag2303
ag1798
ag1804
ag1223
ag1227
ag2309
ag2313
ag1601
ag1604
ag598
ag602
ag610
ag738
ag742
ag746
ag2425
ag2428
ag2435
ag2438
ag1822
ag1826
ag1688
ag1691
ag1770
ag2392
ag2395
ag2400
ag2404
ag418
ag424
ag428
ag431
ag1059
ag1062
ag1066
ag1071
ag1074
ag1078
ag1081
ag1815
ag1819
ag1230
ag1234
ag1243
ag783
ag792
ag2369
ag2372
ag2376
ag908
ag917
ag923
ag809
ag816
ag1307
ag1316
ag1196
ag1199
ag1202
ag2277
ag1475
ag1478
ag1481
ag1322
ag1328
ag1333
ag1338
ag83
ag86
ag90
ag95
ag434
ag438
ag1038
ag1042
ag1045
ag1951
ag1956
ag2600
ag2604
ag2608
ag2613
ag1916
ag1922
ag1926
ag1930
ag1651
ag1655
ag1737
ag273
ag277
ag280
ag285
ag1989
ag1994
ag1997
ag2541
ag2546
ag2549
ag1485
ag1490
ag1495
ag500
ag506
ag515
ag1857
ag2561
ag2566
ag2570
ag348
ag351
ag354
ag2335
ag2340
ag2347
ag2351
ag2594
ag1694
ag1699
ag26
ag30
ag34
ag2193
ag2076
ag2080
ag291
ag296
ag300
ag303
ag309
ag15
ag18
ag22
ag1425
ag805
ag947
ag950
ag1971
ag2446
ag2449
ag2453
ag2414
ag2421
ag2222
ag2228
ag150
ag157
ag162
ag2068
ag2071
ag103
ag112
ag116
ag1541
ag1547
ag1552
ag1559
ag1248
ag1251
ag1254
ag1257
ag396
ag1274
ag993
ag997
ag1002
ag2508
ag2513
ag2520
ag201
ag205
ag208
ag132
ag2597
ag3
ag6
ag12
ag376
ag383
ag893
ag2661
ag2664
ag2149
ag2176
ag2083
ag2090
ag1742
ag1383
ag1386
ag1392
ag2320
ag2325
ag954
ag958
ag961
ag966
ag2456
ag2460
ag492
ag497
ag1366
ag1371
ag335
ag1024
ag1028
ag2617
ag2624
ag2627
ag2552
ag2556
ag415
ag2383
ag621
ag624
ag634
ag1965
ag1968
ag332
ag896
ag901
ag652
ag656
ag660
ag665
ag823
ag830
ag833
ag402
ag406
ag409
ag412
ag1354
ag1361
ag2577
ag2582
ag212
ag217
ag223
ag288
ag1166
ag1169
ag1173
ag871
ag874
ag878
ag712
ag715
ag1134
ag1137
ag1140
ag1144
ag1147
ag1455
ag1469
ag1472
ag616
ag928
ag932
ag938
ag1910
ag1913
ag237
ag240
ag245
ag1962
ag321
ag326
ag329
ag709
ag314
ag318
ag1152
ag1084
ag1087
ag1092
ag2289
ag1677
ag1685
ag722
ag735
ag580
ag583
ag590
ag1831
ag1837
ag1840
ag595
ag1156
ag1161
ag444
ag447
ag451
ag455
ag1262
ag1271
ag1627
ag1630
ag1633
ag1636
ag1866
ag1872
ag77
ag80
ag248
ag252
ag255
ag2139
ag2143
ag2146
ag228
ag231
ag2025
ag2029
ag2032
aa(lp2690
g1152
ag2594
ag1274
ag1307
ag1316
ag1366
ag1371
ag201
ag205
ag208
ag1485
ag1490
ag1495
ag2179
ag2182
ag993
ag997
ag1002
ag444
ag447
ag451
ag455
ag1166
ag1169
ag1173
ag1445
ag1450
ag165
ag170
ag178
ag150
ag157
ag162
ag2052
ag2056
ag2059
ag418
ag424
ag428
ag431
ag652
ag656
ag660
ag665
ag1115
ag1119
ag1124
ag1425
ag532
ag535
ag595
ag1059
ag1062
ag1066
ag1071
ag1074
ag1078
ag1081
ag273
ag277
ag280
ag285
ag1177
ag1181
ag1651
ag1655
ag1455
ag1469
ag1472
ag135
ag139
ag147
ag2661
ag2664
ag1084
ag1087
ag1092
ag1296
ag1301
ag1304
ag83
ag86
ag90
ag95
ag2124
ag2132
ag2136
ag2149
ag2176
ag1951
ag1956
ag74
ag2456
ag2460
ag971
ag976
ag2597
ag2076
ag2080
ag823
ag830
ag833
ag1667
ag1670
ag1627
ag1630
ag1633
ag1636
ag103
ag112
ag116
ag805
ag1737
ag1866
ag1872
ag1644
ag1648
ag2139
ag2143
ag2146
ag2309
ag2313
ag314
ag318
ag1196
ag1199
ag1202
ag291
ag296
ag300
ag303
ag309
ag783
ag792
ag1408
ag1411
ag1414
ag1417
ag1421
ag2648
ag2655
ag2658
ag954
ag958
ag961
ag966
ag568
ag571
ag577
ag947
ag950
ag1962
ag1607
ag1610
ag1613
ag1622
ag764
ag769
ag773
ag779
ag738
ag742
ag746
ag288
ag712
ag715
ag434
ag438
ag1007
ag1013
ag1975
ag1980
ag1983
ag2407
ag638
ag642
ag645
ag649
ag1262
ag1271
ag332
ag348
ag351
ag354
ag212
ag217
ag223
ag228
ag231
ag500
ag506
ag515
ag695
ag700
ag704
ag1354
ag1361
ag1562
ag1565
ag1568
ag1571
ag1575
ag461
ag468
ag471
ag474
ag2508
ag2513
ag2520
ag1048
ag1052
ag1055
ag1511
ag1514
ag1524
ag1528
ag1916
ag1922
ag1926
ag1930
ag2414
ag2421
ag539
ag2482
ag2487
ag2490
ag616
ag1989
ag1994
ag1997
ag2277
ag1674
ag2392
ag2395
ag2400
ag2404
ag1910
ag1913
ag1230
ag1234
ag1243
ag2356
ag2360
ag2363
ag2366
ag1580
ag1584
ag1593
ag1597
ag553
ag557
ag560
ag1934
ag1938
ag376
ag383
ag2006
ag2009
ag2012
ag2015
ag2018
ag2294
ag2299
ag2303
ag2552
ag2556
ag26
ag30
ag34
ag809
ag816
ag2068
ag2071
ag248
ag252
ag255
ag2025
ag2029
ag2032
ag1223
ag1227
ag335
ag2035
ag2043
ag2049
ag2493
ag2496
ag2501
ag2504
ag2021
ag1541
ag1547
ag1552
ag1559
ag1531
ag1534
ag1537
ag1941
ag1944
ag1948
ag941
ag881
ag885
ag889
ag1710
ag1714
ag1717
ag1770
ag1038
ag1042
ag1045
ag492
ag497
ag2320
ag2325
ag1475
ag1478
ag1481
ag1345
ag1351
ag361
ag365
ag370
ag373
ag751
ag755
ag760
ag1658
ag1662
ag1383
ag1386
ag1392
ag478
ag481
ag487
ag1971
ag1601
ag1604
ag896
ag901
ag2222
ag2228
ag2335
ag2340
ag2347
ag2351
ag41
ag47
ag54
ag58
ag64
ag1815
ag1819
ag3
ag6
ag12
ag2524
ag2529
ag2532
ag2538
ag2600
ag2604
ag2608
ag2613
ag1134
ag1137
ag1140
ag1144
ag1147
ag1721
ag1726
ag1730
ag1734
ag2446
ag2449
ag2453
ag1498
ag1504
ag1508
ag1857
ag2083
ag2090
ag1844
ag1850
ag1854
ag518
ag521
ag528
ag2577
ag2582
ag1677
ag1685
ag2095
ag2098
ag2101
ag2107
ag1156
ag1161
ag2463
ag2469
ag2472
ag2478
ag2110
ag2115
ag2119
ag1965
ag1968
ag1750
ag1755
ag1765
ag258
ag262
ag2193
ag119
ag123
ag127
ag2369
ag2372
ag2376
ag402
ag406
ag409
ag412
ag1688
ag1691
ag2630
ag2644
aa(lp2691
g2552
ag2556
ag376
ag383
ag668
ag671
ag674
ag1425
ag1296
ag1301
ag1304
ag2006
ag2009
ag2012
ag2015
ag2018
ag1156
ag1161
ag1975
ag1980
ag1983
ag2025
ag2029
ag2032
ag954
ag958
ag961
ag966
ag418
ag424
ag428
ag431
ag2222
ag2228
ag1651
ag1655
ag2277
ag74
ag2179
ag2182
ag444
ag447
ag451
ag455
ag2561
ag2566
ag2570
ag2198
ag2202
ag2208
ag2212
ag2217
ag638
ag642
ag645
ag649
ag288
ag478
ag481
ag487
ag2149
ag2176
ag2356
ag2360
ag2363
ag2366
ag1965
ag1968
ag461
ag468
ag471
ag474
ag41
ag47
ag54
ag58
ag64
ag1784
ag1787
ag1790
ag1793
ag3
ag6
ag12
ag1737
ag291
ag296
ag300
ag303
ag309
ag712
ag715
ag361
ag365
ag370
ag373
ag1262
ag1271
ag2446
ag2449
ag2453
ag1694
ag1699
ag2414
ag2421
ag1822
ag1826
ag1674
ag2139
ag2143
ag2146
ag1667
ag1670
ag568
ag571
ag577
ag2021
ag1274
ag905
ag896
ag901
ag2320
ag2325
ag1230
ag1234
ag1243
ag1059
ag1062
ag1066
ag1071
ag1074
ag1078
ag1081
ag1815
ag1819
ag1366
ag1371
ag1688
ag1691
ag83
ag86
ag90
ag95
ag881
ag885
ag889
ag321
ag326
ag329
ag1941
ag1944
ag1948
ag1185
ag1188
ag1193
ag402
ag406
ag409
ag412
ag332
ag2463
ag2469
ag2472
ag2478
ag135
ag139
ag147
ag1601
ag1604
ag165
ag170
ag178
ag947
ag950
ag971
ag976
ag98
ag67
ag71
ag1607
ag1610
ag1613
ag1622
ag823
ag830
ag833
ag2383
ag2110
ag2115
ag2119
ag1152
ag2661
ag2664
ag1115
ag1119
ag1124
ag1677
ag1685
ag15
ag18
ag22
ag1511
ag1514
ag1524
ag1528
ag695
ag700
ag704
ag1024
ag1028
ag928
ag932
ag938
ag1345
ag1351
ag2425
ag2428
ag2435
ag2438
ag1166
ag1169
ag1173
ag1910
ag1913
ag1177
ag1181
ag492
ag497
ag553
ag557
ag560
ag1812
ag1374
ag1377
ag1971
ag212
ag217
ag223
ag1989
ag1994
ag1997
ag1798
ag1804
ag181
ag184
ag187
ag192
ag1658
ag1662
ag1408
ag1411
ag1414
ag1417
ag1421
ag2251
ag2260
ag2263
ag2266
ag1354
ag1361
ag2600
ag2604
ag2608
ag2613
ag1883
ag1891
ag1898
ag1907
ag738
ag742
ag746
ag616
ag2541
ag2546
ag2549
ag621
ag624
ag634
ag518
ag521
ag528
ag764
ag769
ag773
ag779
ag2597
ag1721
ag1726
ag1730
ag1734
ag1048
ag1052
ag1055
ag1844
ag1850
ag1854
ag2482
ag2487
ag2490
ag1455
ag1469
ag1472
ag2594
ag2577
ag2582
ag1485
ag1490
ag1495
ag1475
ag1478
ag1481
ag2294
ag2299
ag2303
ag2095
ag2098
ag2101
ag2107
ag2369
ag2372
ag2376
ag722
ag735
ag2617
ag2624
ag2627
ag652
ag656
ag660
ag665
ag2335
ag2340
ag2347
ag2351
ag2231
ag2248
ag1098
ag1104
ag1111
ag2407
ag2585
ag2590
ag1742
ag434
ag438
ag458
ag248
ag252
ag255
ag539
ag348
ag351
ag354
ag500
ag506
ag515
ag132
ag2035
ag2043
ag2049
ag1498
ag1504
ag1508
ag228
ag231
ag1866
ag1872
ag709
ag339
ag343
ag941
ag837
ag841
ag844
ag847
ag201
ag205
ag208
ag1951
ag1956
ag908
ag917
ag923
ag783
ag792
ag1007
ag1013
ag2524
ag2529
ag2532
ag2538
ag396
ag1223
ag1227
ag103
ag112
ag116
ag258
ag262
ag2392
ag2395
ag2400
ag2404
ag1038
ag1042
ag1045
ag2124
ag2132
ag2136
ag2052
ag2056
ag2059
ag119
ag123
ag127
ag237
ag240
ag245
ag683
ag688
ag692
ag1562
ag1565
ag1568
ag1571
ag1575
aa(lp2692
g783
ag792
ag1750
ag1755
ag1765
ag2369
ag2372
ag2376
ag1844
ag1850
ag1854
ag273
ag277
ag280
ag285
ag1354
ag1361
ag709
ag1322
ag1328
ag1333
ag1338
ag1307
ag1316
ag2594
ag500
ag506
ag515
ag2524
ag2529
ag2532
ag2538
ag851
ag862
ag865
ag1580
ag1584
ag1593
ag1597
ag1185
ag1188
ag1193
ag1721
ag1726
ag1730
ag1734
ag2294
ag2299
ag2303
ag1688
ag1691
ag2289
ag638
ag642
ag645
ag649
ag2083
ag2090
ag2335
ag2340
ag2347
ag2351
ag1822
ag1826
ag321
ag326
ag329
ag568
ag571
ag577
ag809
ag816
ag2585
ag2590
ag1607
ag1610
ag1613
ag1622
ag2541
ag2546
ag2549
ag1812
ag616
ag2052
ag2056
ag2059
ag1408
ag1411
ag1414
ag1417
ag1421
ag1007
ag1013
ag1658
ag1662
ag1374
ag1377
ag2277
ag1857
ag683
ag688
ag692
ag881
ag885
ag889
ag1366
ag1371
ag2139
ag2143
ag2146
ag1951
ag1956
ag77
ag80
ag2577
ag2582
ag1230
ag1234
ag1243
ag212
ag217
ag223
ag258
ag262
ag119
ag123
ag127
ag288
ag1934
ag1938
ag1710
ag1714
ag1717
ag478
ag481
ag487
ag764
ag769
ag773
ag779
ag621
ag624
ag634
ag2222
ag2228
ag1866
ag1872
ag135
ag139
ag147
ag2251
ag2260
ag2263
ag2266
ag1815
ag1819
ag1916
ag1922
ag1926
ag1930
ag1677
ag1685
ag332
ag751
ag755
ag760
ag2463
ag2469
ag2472
ag2478
ag1445
ag1450
ag598
ag602
ag610
ag1455
ag1469
ag1472
ag2552
ag2556
ag1601
ag1604
ag1048
ag1052
ag1055
ag2456
ag2460
ag908
ag917
ag923
ag580
ag583
ag590
ag335
ag539
ag1274
ag2179
ag2182
ag2110
ag2115
ag2119
ag1205
ag1212
ag896
ag901
ag2309
ag2313
ag1651
ag1655
ag1667
ag1670
ag2021
ag1742
ag553
ag557
ag560
ag98
ag1396
ag1403
ag905
ag947
ag950
ag2508
ag2513
ag2520
ag2320
ag2325
ag1296
ag1301
ag1304
ag1166
ag1169
ag1173
ag237
ag240
ag245
ag2414
ag2421
ag103
ag112
ag116
ag893
ag837
ag841
ag844
ag847
ag2025
ag2029
ag2032
ag2035
ag2043
ag2049
ag738
ag742
ag746
ag1475
ag1478
ag1481
ag2383
ag1059
ag1062
ag1066
ag1071
ag1074
ag1078
ag1081
ag1024
ag1028
ag201
ag205
ag208
ag1248
ag1251
ag1254
ag1257
ag2425
ag2428
ag2435
ag2438
ag1134
ag1137
ag1140
ag1144
ag1147
ag2561
ag2566
ag2570
ag2095
ag2098
ag2101
ag2107
ag1674
ag67
ag71
ag1196
ag1199
ag1202
ag132
ag2600
ag2604
ag2608
ag2613
ag1038
ag1042
ag1045
ag928
ag932
ag938
ag1383
ag1386
ag1392
ag871
ag874
ag878
ag1798
ag1804
ag376
ag383
ag3
ag6
ag12
ag2392
ag2395
ag2400
ag2404
ag1156
ag1161
ag971
ag976
ag1485
ag1490
ag1495
ag1910
ag1913
ag1644
ag1648
ag2149
ag2176
ag165
ag170
ag178
ag2231
ag2248
ag1429
ag1436
ag1439
ag1442
ag1562
ag1565
ag1568
ag1571
ag1575
ag518
ag521
ag528
ag434
ag438
ag2482
ag2487
ag2490
ag2356
ag2360
ag2363
ag2366
ag348
ag351
ag354
ag74
ag1262
ag1271
ag1115
ag1119
ag1124
ag1152
ag458
ag1098
ag1104
ag1111
ag248
ag252
ag255
ag2407
ag228
ag231
ag1770
ag415
ag1627
ag1630
ag1633
ag1636
ag532
ag535
ag2076
ag2080
ag993
ag997
ag1002
ag1962
ag1177
ag1181
ag2124
ag2132
ag2136
ag1975
ag1980
ag1983
ag1498
ag1504
ag1508
aa.