(lp1
(lp2
(lp3
VSOLGVNI12A6D4F907C
p4
aVSOWLAMK12A8C13C8D5
p5
aa(lp6
VSOAEWOY12A6701FA3D
p7
aVSOSTCRM12A6D4F969F
p8
aa(lp9
VSOKISIH12AB0188610
p10
aVSOWPXAW12A6D4F7002
p11
aa(lp12
VSONGZZD12D02191BFB
p13
aVSOXYTLR12AB017F80E
p14
aVSOBZEGR12A6701F6A8
p15
aa(lp16
VSOVQVHE12A6D4F8A4D
p17
aVSOOFJVR12AF72A9752
p18
aVSOZKDMB12B0B80C4AC
p19
aa(lp20
VSOCPVJS12A8C143128
p21
aVSOVBPVD12A8C144C18
p22
aa(lp23
VSOCHUVL12A8C13AFFE
p24
aVSOLSODY12A8C1348AA
p25
aa(lp26
VSODYJYD12AB01855E3
p27
aVSOEUORE12A8C13953D
p28
aa(lp29
VSOPEFAT12A81C23429
p30
aVSOEFTHE12A6D4FA79D
p31
aa(lp32
VSOWHCUL12D02199D88
p33
aVSOFCVTY12AF72A493B
p34
aa(lp35
VSOEXFZQ12A6D4FC33E
p36
aVSOBOEJV12A8C1424C0
p37
aa(lp38
VSOPEVSX12A8C13B426
p39
aVSOKIJEU12A8C13DD1B
p40
aa(lp41
VSOIWMDS12AB017E8D2
p42
aVSOSKKUE12AB0180108
p43
aVSOZRHFX12A6701CD8A
p44
aa(lp45
VSOMMLLO12A8C13C942
p46
aVSOYZNBU12AF72A58F1
p47
aa(lp48
VSOLZOLK12A67ADA859
p49
aVSOLJQLO12D021B0E5A
p50
aa(lp51
VSOTLOKX12A8C1390C2
p52
aVSOLNBGK12A8C136836
p53
aa(lp54
VSOCZJWS12A6D4F9C7A
p55
aVSOZVACJ12A6D4F912A
p56
aVSOBBGTM12A6D4F6199
p57
aa(lp58
VSOLQVZE12A8AE47A25
p59
aVSOJHSZC12A6D4F82C6
p60
aVSOZUZJP12D02198638
p61
aa(lp62
VSOEUORE12A8C13953D
p63
aVSOPVXJB12A6D4F47A1
p64
aVSOAOPCG12AC468D27E
p65
aa(lp66
VSONKCBC12A8C136B1F
p67
aVSOXRTFP12A6D4F47A8
p68
aa(lp69
VSOLYQKS12A6D4FA42B
p70
aVSOLZMIL12A8C135BCA
p71
aa(lp72
VSOVKNKJ12A6D4FD01D
p73
aVSOSYIPC12A6701EA0E
p74
aa(lp75
VSORWGGM12A8C134D3B
p76
aVSODKZCO12AF729E2A3
p77
aVSOTDORA12812D0CE36
p78
aVSOTQBOZ12A58A78DB3
p79
aa(lp80
VSOEPHAK12A8C1383D5
p81
aVSOBQRTD12AF72A3F00
p82
aa(lp83
VSOZXXOF12A8C13B868
p84
aVSONLJGB12A6D4F6E20
p85
aVSOKPWKZ12AB0182223
p86
aVSOLEZRF12A6D4F8652
p87
aa(lp88
VSOSSONP12A8C145990
p89
aVSOQLTJG12A8C1439F3
p90
aa(lp91
VSOGXPMY12A6701D45F
p92
aVSOOCNDR12AF72A6292
p93
aa(lp94
VSOAVTXJ12A6D4F9838
p95
aVSOSYYSH12A58A794E5
p96
aVSOJVCVF12A6310D9A3
p97
aa(lp98
VSOJLXJL12A58A7C832
p99
aVSOXNDXG12A6D4F78EB
p100
aVSOVUBJC12D021B3D35
p101
aVSOWMGYB12A8C136507
p102
aa(lp103
VSOGBLMI12AB01856AC
p104
aVSOBMAFJ12A8C137C88
p105
aVSOMIPXY12A67ADE66D
p106
aVSOMIXXT12D021B27DE
p107
aVSOLSODY12A8C1348AA
p108
aVSOAKFQG12A8AE48426
p109
aVSOSOJGE12A8C1363D6
p110
aVSOLCCZN12AB018E2B0
p111
aVSOCYLST12A8C137E8D
p112
aVSOESTZQ12A67021556
p113
aVSOYTAEV12A8AE465C5
p114
aVSOCUARC12A6701E94D
p115
aa(lp116
VSOCZIKN12A6D4F84B4
p117
aVSOKPHTL12A8AE47058
p118
aa(lp119
VSOWSNWW12AC9074EDA
p120
aVSOYGOHH12A6310DFDB
p121
aa(lp122
VSONWZUN12A58A7D220
p123
aVSODBBVX12AB0182E5D
p124
aa(lp125
VSOHCPNG12A8C13E6C1
p126
aVSOUHUAF12A679CF1D3
p127
aa(lp128
VSOJJFTO12AAF3B1D4C
p129
aVSOBRFHP12A6D4F6991
p130
aVSOVCHEF12A8C13AD2B
p131
aa(lp132
VSOMFEJK12AB018E71F
p133
aVSOZNXMN12A8C1439A9
p134
aa(lp135
VSOGJNGD12A8C1384E2
p136
aVSOLDSIH12A6D4F7E6E
p137
aVSOXBXAK12CF51A9663
p138
aVSOBPEGX12B0B8095F3
p139
aa(lp140
VSOUGDEY12A8C1318C3
p141
aVSOFPZIX12A6701CFAD
p142
aVSOSRTIU12A8C131FC2
p143
aVSODRKWR12D0219A551
p144
aVSOMZSLE12AB0185F19
p145
aVSOZRHFX12A6701CD8A
p146
aVSOZBZFF12A6310F12D
p147
aa(lp148
VSOCVTOR12AB018601B
p149
aVSOCZPHU12A679AE587
p150
aVSOEGZHJ12A8C1443E0
p151
aa(lp152
VSOTCLCI12A58A7A94C
p153
aVSOLKBLF12A8C134D04
p154
aVSOJKSST12A6D4F8179
p155
aa(lp156
VSOPPRIE12AAA8C598A
p157
aVSOMWBJM12A6702048C
p158
aVSOBEREE12A6D4F5B53
p159
aVSOWPFRJ12A8C13EC0F
p160
aa(lp161
VSOINXVU12A6701EB6C
p162
aVSOELLMJ12A8C137EDB
p163
aa(lp164
VSOEBNVO12CF5CFC48E
p165
aVSORXSRO12A8C135C76
p166
aVSOIRMIX12A67020311
p167
aa(lp168
VSODGGKP12AAA8C6B42
p169
aVSODOTXH12AC90711E9
p170
aVSOYIMMF12AB0180F4D
p171
aVSOIIBKJ12AB017DB0C
p172
aa(lp173
VSOBNLES12A679C8053
p174
aVSOEZMOD12A8C136CC7
p175
aVSOFTCXE12A6D4F778B
p176
aVSOZFEWT12A6D4F6163
p177
aa(lp178
VSOUIXRC12AF72A4AFC
p179
aVSOMJZLT12A8C140186
p180
aa(lp181
VSOKKVXX12AB017AFB7
p182
aVSODVSPF12A8C1441BA
p183
aa(lp184
VSOFCNJP12A8C13DD78
p185
aVSOADURV12AC3DF98E7
p186
aVSOIIDJM12AB017AFEB
p187
aa(lp188
VSOCQYNR12A8C13AC0F
p189
aVSOOCRKC12D0219917F
p190
aa(lp191
VSOBZMOI12A8AE4827F
p192
aVSOQJVXN12A6D4F8BFE
p193
aa(lp194
VSOZRHFX12A6701CD8A
p195
aVSOBULTX12A6D4F69DD
p196
aVSOAGHJN12AF7299B88
p197
aVSOJMIND12A8C13E34F
p198
aVSOOAIVD12AF72ACDDD
p199
aa(lp200
VSOBYHAJ12A6701BF1D
p201
aVSOFRCGW12A81C21EA6
p202
aVSOBIRYV12A8C1405F8
p203
aVSOPQJKW12A58A7AB38
p204
aVSOEEIIE12A6D4FA25E
p205
aa(lp206
VSONODPK12A8C13F63B
p207
aVSOAMFCO12A6701F117
p208
aVSOZSHHJ12A8151CA10
p209
aa(lp210
VSONLGDV12A6D4F9297
p211
aVSOBWFXM12AB0182808
p212
aa(lp213
VSOGTABF12A8C130EE1
p214
aVSORBGRZ12D021B2802
p215
aVSOSAGCZ12A6D4F7FC6
p216
aVSOAINXH12A6D4F66F4
p217
aa(lp218
VSOVNDEY12AF72A4543
p219
aVSOYVTUO12CF5F87BC6
p220
aa(lp221
VSOKDJBH12A8AE479AB
p222
aVSOMOKCH12B0B80927B
p223
aa(lp224
VSOAZOYN12A6701EEF2
p225
aVSOKSVVI12AF72A85A8
p226
aVSOHIJIQ12A6310D913
p227
aVSOVESZU12AF72AAC11
p228
aa(lp229
VSOMLBAB12A6D4FA5F2
p230
aVSODUXUN12A67020306
p231
aVSOFFTGG12A8C13F551
p232
aa(lp233
VSOEGXCS12AF72A302F
p234
aVSOSHOAT12AB0181B0D
p235
aa(lp236
VSOKCCAJ12AAF3B527B
p237
aVSOGJMTM12A6310E17B
p238
aa(lp239
VSONKJMB12A8C138B2E
p240
aVSOINJVD12A6D4F91D3
p241
aa(lp242
VSOBAPJF12A670208FD
p243
aVSOXDUPR12CF5F87A38
p244
aVSOZKDMB12B0B80C4AC
p245
aVSOORLVA12A8C142EFD
p246
aa(lp247
VSOYKTSO12A8C1381FB
p248
aVSODXQTB12A8C13F0F7
p249
aVSOOTPVW12A8C142808
p250
aa(lp251
VSOUSLAH12AF72A18BD
p252
aVSONNLYU12A670210D6
p253
aa(lp254
VSOSKQVL12AB018D2C7
p255
aVSOBMVTU12AB0185D52
p256
aa(lp257
VSOEZGWW12B0B806CB6
p258
aVSOGUOCX12A67ADFB77
p259
aVSOKJWQW12AB018AB1A
p260
aa(lp261
VSOMZOPL12A8C136538
p262
aVSOYIRPZ12A6D4FCAB0
p263
aVSOQYMNH12A8C137AA0
p264
aVSOJABWL12A6701F12B
p265
aa(lp266
VSOUIXRC12AF72A4AFC
p267
aVSORKZFB12A6D4FCABC
p268
aVSOMBQAV12A8C137AA3
p269
aVSOAJUSM12A8C1371B9
p270
aa(lp271
VSONZKPM12A8C13D332
p272
aVSOFWONE12AF729F4D3
p273
aVSOSPMBG12AB017B8A0
p274
aa(lp275
VSOIRHXE12A58A7CB97
p276
aVSOKBKJY12AB018289E
p277
aVSOBBKWK12A8C14202F
p278
aVSOJVIDX12A8C14596F
p279
aVSOMTJVV12A8AE47F05
p280
aVSOMWNJA12A58A7538F
p281
aVSORSGTV12AB017F6D5
p282
aVSOOFUUZ12A8C13FDA9
p283
aa(lp284
VSOFOGMR12A8C140FFF
p285
aVSOMAWHJ12AB017B903
p286
aVSOLOZRE12A8C133256
p287
aVSOQCXJK12A8C13D47F
p288
aVSOKPRFU12AC4688BA9
p289
aVSOXIIIM12A6D4F66C8
p290
aa(lp291
VSOHWBGO12A6D4FA87A
p292
aVSOMJAZR12CF5F87F9F
p293
aa(lp294
VSOTVFIU12AC46878B7
p295
aVSOSUXTZ12A8C136837
p296
aVSOLCQUQ12A6D4F74D5
p297
aVSOSYMOP12AB01891B9
p298
aVSOWZKJE12A8C134D52
p299
aVSOGEIGM12A8AE47388
p300
aa(lp301
VSODYJYD12AB01855E3
p302
aVSOUQKMD12A8C130ED9
p303
aVSORVTIK12AB0183AAC
p304
aa(lp305
VSOCAAWX12A6D4F7901
p306
aVSOXUYUZ12A8C13A67E
p307
aVSOMAOJV12A67020F91
p308
aa(lp309
VSOZPOSM12A679D8ADE
p310
aVSOBXGEK12AB018FDC6
p311
aa(lp312
VSONMNYH12A8C131C99
p313
aVSOETHJA12A6310F21E
p314
aa(lp315
VSOSBNFQ12AB0185969
p316
aVSOSEBVP12A6D4F9CBB
p317
aa(lp318
VSOFBAZD12A6702184D
p319
aVSOFCPOU12A8C13BF40
p320
aVSOMFAEO12AF72A3265
p321
aVSOQWADM12AF72AA8EF
p322
aa(lp323
VSOJRVKP12AF72A5F82
p324
aVSOOFYFP12A6D4F7902
p325
aa(lp326
VSOOGKFU12A8C1439DA
p327
aVSOPEWYI12AB0185D23
p328
aa(lp329
VSOXTMVR12A8C13FFE0
p330
aVSOECIFL12A6D4F78FE
p331
aa(lp332
VSOBRRHF12AB0181335
p333
aVSORUNSN12A8C13348E
p334
aa(lp335
VSODJYLR12AC468939A
p336
aVSODUMKR12AB0186A11
p337
aa(lp338
VSOHNOOC12A8C13BF35
p339
aVSONHDRJ12A8C142547
p340
aa(lp341
VSOEGZHD12A8C13BF3D
p342
aVSOFOCYC12A8C13C548
p343
aVSOKLNIX12A81C22BCB
p344
aa(lp345
VSOQMYQG12A8C13B990
p346
aVSOLWTIS12AF72A4782
p347
aa(lp348
VSOPDPKY12AB017D012
p349
aVSOWOSBP12A6D4F857A
p350
aa(lp351
VSOVKSEG12D02199EF8
p352
aVSOKHDYA12A6D4F904C
p353
aVSOMJJRS12AF729E156
p354
aVSOKMFQY12A6D4F904A
p355
aa(lp356
VSOFXXRK12A8C139AAC
p357
aVSOEHDGB12A6D4F82E4
p358
aa(lp359
VSOOGQVE12A6D4F814F
p360
aVSOOPCEP12A6701C4DA
p361
aa(lp362
VSOSTFXC12A8C130ADD
p363
aVSOZKDMB12B0B80C4AC
p364
aa(lp365
VSOEQMWO12AAF3B3BE2
p366
aVSOPQJKW12A58A7AB38
p367
aa(lp368
VSOAKMDU12A8C1346A9
p369
aVSORGVYS12A8AE48882
p370
aVSOYWYRB12A58A7C438
p371
aa(lp372
VSOWOZNC12AB0185538
p373
aVSOSDVHO12AB01882C7
p374
aa(lp375
VSOEDBAO12A8AE476FE
p376
aVSOWUGPG12A6BD56C21
p377
aa(lp378
VSOBFBCM12AB018999A
p379
aVSOBOMQO12CF5F88767
p380
aVSOSUYOY12A6D4F96A8
p381
aa(lp382
VSOWBEFE12AB017BD96
p383
aVSOWXLGN12AF72A6CAC
p384
aa(lp385
VSOXDUPR12CF5F87A38
p386
aVSOBMAFJ12A8C137C88
p387
aa(lp388
VSOAAWQZ12A8C138B2B
p389
aVSOEWPWC12A6310D911
p390
aVSOKTXCM12A8C134D7A
p391
aa(lp392
VSOENFPZ12A6D4F81B6
p393
aVSOKGDGM12AB018B071
p394
aVSOBNZFX12CF5F87270
p395
aa(lp396
VSOSEINE12AC3DF608E
p397
aVSOZDGVM12AF729E29F
p398
aa(lp399
VSOFXPTA12A6D4F8845
p400
aVSOWPIXQ12A8C13E6B1
p401
aa(lp402
VSONMBPQ12A6D4F95A3
p403
aVSOFOWTV12AB017E7B7
p404
aVSONMNYH12A8C131C99
p405
aVSOWDPHH12AB018B6A8
p406
aa(lp407
VSOBLXNR12A8AE47722
p408
aVSOGMUTF12A6D4FC606
p409
aa(lp410
VSOQZOZB12AB018F176
p411
aVSOIPECI12B0B80A191
p412
aVSOHSHMS12A8C13BF58
p413
aVSOZCNHU12A58A7A534
p414
aVSOQGVMZ12A8C13C432
p415
aa(lp416
VSOHLLRP12A6701F2F4
p417
aVSOHJQRM12A8AE4622B
p418
aVSOCXBLC12AB018479A
p419
aa(lp420
VSOCVHOS12A58A7BBE6
p421
aVSOAOUZB12AF72A1990
p422
aVSOKGBEK12A6701E3BE
p423
aa(lp424
VSOODXRD12A6310EE5F
p425
aVSOJYYHB12D02193D56
p426
aa(lp427
VSOAINXH12A6D4F66F4
p428
aVSOWZSEB12A6D4F3C95
p429
aVSOWCRQQ12A58A7CE23
p430
aa(lp431
VSOEIGUU12A8C13069F
p432
aVSOCQXMW12A58A7E63F
p433
aa(lp434
VSOCIKKI12A6D4FBE6D
p435
aVSOSTWAE12A6D4F7948
p436
aa(lp437
VSOOXYEN12A6310F2AA
p438
aVSOAYFAT12A58A7E61B
p439
aa(lp440
VSOXCVWX12A8C14539A
p441
aVSOJGEIS12AF729B2F5
p442
aVSOEWDIL12A6701F9DF
p443
aVSOMNULF12A8C135F65
p444
aVSOOAHTU12AC4688F94
p445
aVSOTCJPW12A8C13A012
p446
aVSOASIJG12A6701F483
p447
aa(lp448
VSOWPRYI12A58A7B51A
p449
aVSOFIXAB12A58A7E2DD
p450
aa(lp451
VSOOUYTP12B0B8094B6
p452
aVSOTVFIU12AC46878B7
p453
aVSOGELZG12A6D4F865F
p454
aVSOKWTFA12AB0183C4A
p455
aVSOEDPCF12A8AE44BF0
p456
aa(lp457
VSOVKVNI12A6D4FB87A
p458
aVSOOTYQH12A8AE44C27
p459
aa(lp460
VSONRWVX12AF72A5897
p461
aVSOEEIIE12A6D4FA25E
p462
aa(lp463
VSOAOPCG12AC468D27E
p464
aVSOZMCPU12A8C1405F0
p465
aa(lp466
VSOETUOD12AB0185397
p467
aVSOZKDMB12B0B80C4AC
p468
aVSOPWBOA12A6D4FA84D
p469
aa(lp470
VSOLUGMY12AB017F74C
p471
aVSONBGOT12A6701DC53
p472
aVSOUARNN12A6D4F8EE9
p473
aVSOJMUHV12A8C13BCDD
p474
aa(lp475
VSOPVHDA12A67020947
p476
aVSOFLPUL12A8AE46A18
p477
aVSOMXIAB12A6701EED8
p478
aVSOIOTFC12AF72A59FD
p479
aa(lp480
VSOCUARC12A6701E94D
p481
aVSOUUBNX12A8C140A57
p482
aa(lp483
VSOHTDUI12A8C136662
p484
aVSOVPEME12AB018F6E3
p485
aVSORSZKX12A8C13B85B
p486
aVSODRETQ12A58A79CAE
p487
aa(lp488
VSOAHJMA12AB017DE16
p489
aVSOIFEFO12AB017D3C3
p490
aVSOVZSCE12B0B806C00
p491
aVSOVCXJR12A6701C397
p492
aVSOSZGCT12A58A79D19
p493
aa(lp494
VSOCMXJE12D021B3C6E
p495
aVSOJJQFC12AF729F4C1
p496
aa(lp497
VSOSMBNX12D021908CF
p498
aVSONYRGG12A8AE450F2
p499
aVSODHDYQ12A58A7F25B
p500
aVSOCNOXN12A6D4F4CBB
p501
aVSOWKYIJ12AB017B0AA
p502
aa(lp503
VSOMIAUZ12A58A779C5
p504
aVSOKCQKV12A8C138D70
p505
aVSORIIPU12A6D4F712F
p506
aa(lp507
VSOBQJCA12AB017F1DA
p508
aVSOVBXRX12AF72A2FE2
p509
aVSOKJVAE12A8C132CA7
p510
aa(lp511
VSOMZOPL12A8C136538
p512
aVSOAXNYV12AB0185808
p513
aa(lp514
VSOVDYXW12AB017CB97
p515
aVSOKZMMM12B0B806779
p516
aVSOROJER12A8C140911
p517
aa(lp518
VSOSYARO12A6D4F7001
p519
aVSOMGBRL12A8C143FF5
p520
aa(lp521
VSONIHQN12A8C1421A9
p522
aVSOZCXLJ12AB017FE57
p523
aVSOXSQBN12A8C140120
p524
aa(lp525
VSOCUWKY12A6D4FA41D
p526
aVSOZVECU12A8AE459A5
p527
aa(lp528
VSONRWKK12A8C13CE51
p529
aVSOBZCWJ12A58A7C659
p530
aVSOHKQMR12A6D4FAF63
p531
aa(lp532
VSOJOJGW12AB017DA1B
p533
aVSOEARZA12A8AE467DB
p534
aa(lp535
VSOFWJSL12A67AD811B
p536
aVSOBVBGI12AB017CC88
p537
aVSOJABWL12A6701F12B
p538
aa(lp539
VSOGBDWZ12AF72A1FE3
p540
aVSOUMBKJ12A67AD811E
p541
aa(lp542
VSOEFCXI12A8C13D670
p543
aVSOYZDVE12AAF3B3B18
p544
aVSOYWVMS12AB017E866
p545
aa(lp546
VSOWNMKH12A6D4F94E8
p547
aVSOIYBET12A8C13D69D
p548
aa(lp549
VSOMGBRL12A8C143FF5
p550
aVSOPSPBS12A6701E0D6
p551
aVSOZMLYI12D02191E5C
p552
aa(lp553
VSOJWALY12A6D4F66ED
p554
aVSOCGDFI12A8C137B08
p555
aa(lp556
VSOOCRKC12D0219917F
p557
aVSOEFCXI12A8C13D670
p558
aVSOTWBKI12A8C13E03E
p559
aa(lp560
VSOGBZFA12A8C136DBB
p561
aVSOSEBVP12A6D4F9CBB
p562
aVSOOQWXY12A8C136E77
p563
aVSOIZRSC12A8C13681C
p564
aVSORUFVF12AB018230B
p565
aa(lp566
VSOPGOME12A58A7B636
p567
aVSOAKHZF12AB0186DC9
p568
aVSOWZKDH12A6310F998
p569
aVSOCXEUQ12A6D4F59CF
p570
aVSOGZQID12AB017FCF0
p571
aVSOCYPHL12A8C13B2AA
p572
aVSOXHHYX12A8C132702
p573
aa(lp574
VSOGREDJ12A58A776C2
p575
aVSOOISUQ12A6701F50B
p576
aVSODVHSO12A6D4FAD47
p577
aa(lp578
VSOEOJYS12A58A75F03
p579
aVSOOACQN12A6310D90F
p580
aa(lp581
VSONBGLC12AC90712E5
p582
aVSOTZPHT12AAF3B3F60
p583
aVSOGJMTM12A6310E17B
p584
aVSOWZSEB12A6D4F3C95
p585
aVSOFWKTO12AF72A5DDF
p586
aa(lp587
VSOKMFQY12A6D4F904A
p588
aVSOKRACG12A8C1438AC
p589
aa(lp590
VSOVXJBZ12A8C14499C
p591
aVSOXGHWK12A8C13573C
p592
aVSOLTVDG12A8C14454A
p593
aa(lp594
VSOKCTIV12A6D4F8250
p595
aVSOKELER12A58A7C77B
p596
aVSOBLRAF12A8C13D091
p597
aa(lp598
VSOXBQDJ12A6D4F93CC
p599
aVSORDYVO12A8C141A40
p600
aVSOBTKDH12A58291356
p601
aa(lp602
VSONDBJB12A8C13125F
p603
aVSOBOMQO12CF5F88767
p604
aVSOBMAFJ12A8C137C88
p605
aa(lp606
VSOBMSJK12A6701F980
p607
aVSOKOWSC12A8C1373A6
p608
aVSOHIJIQ12A6310D913
p609
aa(lp610
VSOCKADU12AF72A5271
p611
aVSODPDGE12A6310E271
p612
aa(lp613
VSOMZWQQ12AAFF416CB
p614
aVSOBLFSK12AC3DF98DB
p615
aa(lp616
VSOKYWCK12A8C1318F5
p617
aVSOFRVRA12A6D4F7D71
p618
aa(lp619
VSOZKDMB12B0B80C4AC
p620
aVSOHTDUI12A8C136662
p621
aa(lp622
VSOUZIIN12AB017FB85
p623
aVSOQUDJI12AB01861D3
p624
aa(lp625
VSOLLYAH12A8C1341F3
p626
aVSOVJVRG12A67AD9360
p627
aVSOEFTHE12A6D4FA79D
p628
aVSOIZALG12A67021CD7
p629
aVSOSYMOP12AB01891B9
p630
aVSOVINEN12A8C1300A5
p631
aa(lp632
VSOKGLWX12A8C1319DB
p633
aVSOAGQAJ12AAFF429E3
p634
aVSONCOXB12A6D4F75F0
p635
aVSOCNHHN12AC3DFB01F
p636
aVSOJOMPG12D021B57A7
p637
aa(lp638
VSOZKDMB12B0B80C4AC
p639
aVSOHBTXV12A6701F976
p640
aa(lp641
VSOSVUBH12AB0187984
p642
aVSOMPPRL12AB0186C5D
p643
aa(lp644
VSOQIAOK12B0B808255
p645
aVSOLCCZN12AB018E2B0
p646
aa(lp647
VSOWKGCO12AC4687E42
p648
aVSOKVIDV12AB017AFC6
p649
aa(lp650
VSOXBCZH12A67ADAD77
p651
aVSOOCYQI12A8C132F15
p652
aVSOXXTFW12AB017CFF3
p653
aVSOHQMDD12A8C1343AB
p654
aVSOHKZSM12A8C13E5D5
p655
aa(lp656
VSOMGLED12A8C131907
p657
aVSOHYQSX12A58A78911
p658
aVSOWYFAX12A6D4F7A3D
p659
aVSOESQRP12AB0190165
p660
aVSOHKDBS12A8C131903
p661
aa(lp662
VSOEHHCE12A3F1ED465
p663
aVSOHXDVE12A6D4FA795
p664
aVSOEOFAZ12A6701C62E
p665
aa(lp666
VSOMEOJT12D02199951
p667
aVSOMGBRL12A8C143FF5
p668
aVSOBAPJF12A670208FD
p669
aa(lp670
VSOSKTWO12A8C138FCB
p671
aVSONRBVQ12A6310D98F
p672
aVSOAYYAL12AB0189C62
p673
aVSOPIOUW12A6D4F76F4
p674
aVSOSJFYF12A8C13F3E7
p675
aVSOIEGCQ12A6310F22B
p676
aa(lp677
VSOHRXNR12A6D4FB8F6
p678
aVSOQIAOK12B0B808255
p679
aVSOHZEJW12A58A78998
p680
aa(lp681
VSOMDJRE12AF72A7325
p682
aVSOEZCBY12AB017BAE1
p683
aVSONISRX12A6D4F7C39
p684
aVSODUBRC12AF729E94A
p685
aa(lp686
VSOIHRMC12A6701E0A5
p687
aVSOZGASJ12A670214A3
p688
aVSOPDFZN12A670215C4
p689
aVSOHHJYE12A8AE47599
p690
aVSODZYOU12A8C13496D
p691
aa(lp692
VSOJSWQL12AF72A879E
p693
aVSOENAYU12A6701CDB3
p694
aa(lp695
VSOXTGXZ12A6D4F9795
p696
aVSOORKXG12A81C217A2
p697
aa(lp698
VSONZKPM12A8C13D332
p699
aVSOFWONE12AF729F4D3
p700
aVSOSPMBG12AB017B8A0
p701
aa(lp702
VSOIRHXE12A58A7CB97
p703
aVSOKBKJY12AB018289E
p704
aVSOBBKWK12A8C14202F
p705
aVSOJVIDX12A8C14596F
p706
aVSOMTJVV12A8AE47F05
p707
aVSOMWNJA12A58A7538F
p708
aVSORSGTV12AB017F6D5
p709
aVSOOFUUZ12A8C13FDA9
p710
aa(lp711
VSOFOGMR12A8C140FFF
p712
aVSOMAWHJ12AB017B903
p713
aVSOLOZRE12A8C133256
p714
aVSOQCXJK12A8C13D47F
p715
aVSOKPRFU12AC4688BA9
p716
aVSOXIIIM12A6D4F66C8
p717
aa(lp718
VSOLEPTI12A8C134A1A
p719
aVSOQRJNK12D02194D50
p720
aa(lp721
VSOCRZPR12A6D4F6851
p722
aVSOSKKUE12AB0180108
p723
aa(lp724
VSONPJSL12A6D4F557D
p725
aVSOTBYQW12A6D4FE74B
p726
aVSOMYGDY12A6310F1C3
p727
aVSOPXHJH12A8C138051
p728
aVSOWXAVV12A6D4F8B1D
p729
aa(lp730
VSOVQSZA12AF72A3633
p731
aVSOVFWZD12D02191C02
p732
aa(lp733
VSOLXAEZ12A6D4F7D83
p734
aVSOHIOMW12B0B808A9B
p735
aVSOGSQWH12A8C14249F
p736
aa(lp737
VSOBISWA12A6D4F90A1
p738
aVSOZKDMB12B0B80C4AC
p739
aa(lp740
VSOJSIBX12A679C804C
p741
aVSOQXCAR12CF5F88ED4
p742
aa(lp743
VSOZUUDA12AB018C4D9
p744
aVSOZKDMB12B0B80C4AC
p745
aa(lp746
VSOGYSDR12A8AE488B9
p747
aVSONVFZT12A8C1346EA
p748
aVSOHJFKA12A6D4F8692
p749
aa(lp750
VSOYWKVE12D02199DAB
p751
aVSOYXOWX12AF72A42D3
p752
aa(lp753
VSOGIHQH12AF72A72DC
p754
aVSOIZZHA12AB017DDF1
p755
aa(lp756
VSOTWZMD12A58A767D3
p757
aVSOYSWNT12A8C13BF96
p758
aa(lp759
VSOIOTFC12AF72A59FD
p760
aVSOBAPJF12A670208FD
p761
aa(lp762
VSOBZMOI12A8AE4827F
p763
aVSOTCLCI12A58A7A94C
p764
aVSOIHMBV12A6D4FD90D
p765
aa(lp766
VSODVULJ12A58A7CA4D
p767
aVSOVZSCE12B0B806C00
p768
aa(lp769
VSOSDSAF127CF8DEAD9
p770
aVSOHKZSM12A8C13E5D5
p771
aa(lp772
VSOOUFIS12AB0188EB6
p773
aVSOSLCRU12A6701DB0B
p774
aa(lp775
VSOKLGPH12AF729F501
p776
aVSOGJNVW12AF72A2A61
p777
aa(lp778
VSOZGPUU12A8C13D7EA
p779
aVSOYKJWY12A8C13BF25
p780
aVSOROVGA12AF72A3E23
p781
aVSOMTEGI12B34F1C789
p782
aa(lp783
VSOEXKMS12A6D4FC585
p784
aVSOWDXLR12AB0181B73
p785
aa(lp786
VSOQEXTW12A81C22070
p787
aVSORKZFB12A6D4FCABC
p788
aVSOLVGAZ12A8C13E9FC
p789
aa(lp790
VSOXJENJ12AB01841FC
p791
aVSOEKEJG12A6D4FBD6B
p792
aa(lp793
VSOPCJXJ12A6D4F81B8
p794
aVSOEPXVB12A6D4FB42A
p795
aa(lp796
VSOVZOXM12A6D4F4060
p797
aVSOAKFQG12A8AE48426
p798
aVSOFYQYN12A8C133199
p799
aVSOQMKME12AB018E2B6
p800
aVSOBQKTU12A6310DF50
p801
aVSOJLZXL12A8C145965
p802
aVSOKMIPR12AB017B0E7
p803
aVSOHBTJO12AB018626F
p804
aVSOKWIGA12A6701F130
p805
aVSOPNJXC12A8C1333CF
p806
aVSOCAAWX12A6D4F7901
p807
aVSOXRRQI12A8C133245
p808
aa(lp809
VSOSTJML12AB017FE04
p810
aVSORBGRZ12D021B2802
p811
aa(lp812
VSOUPXTC12A8C134A2D
p813
aVSOZJTMY12AF729FE05
p814
aVSOMLGUK12AAFF43516
p815
aVSOZQJHZ12A58A77971
p816
aa(lp817
VSOXBNSI12A58A7D44B
p818
aVSOELPTJ12A58A7BB26
p819
aVSOETILF12A6310E26B
p820
aa(lp821
VSOUOOCR12A8C136C70
p822
aVSOPCDRW12AB017F61A
p823
aVSORLBDA12A58A7A222
p824
aVSOUZGOP12A8C13A1EA
p825
aVSOHJDCI12AB0189B4F
p826
aVSOALDUQ12AF72A6B32
p827
aVSOFRBUK12A67AD80D7
p828
aa(lp829
VSOBPYGH12A8C132DED
p830
aVSOKTECQ12A8C132196
p831
aa(lp832
VSOONHVN12A8C138C37
p833
aVSOMFLEZ12A6D4F907C
p834
aa(lp835
VSOEGJRC12A6D4F98CB
p836
aVSOKZHVF12AF72A77E7
p837
aa(lp838
VSOUVJBH12A8C139AB0
p839
aVSOECUYI12AF729DC3A
p840
aa(lp841
VSORRYHJ12AF72A3480
p842
aVSOELJVR12A67AD8119
p843
aa(lp844
VSOBMAFJ12A8C137C88
p845
aVSOJYYHB12D02193D56
p846
aa(lp847
VSOBLOXH12AB018E0DC
p848
aVSORNDDO12A8C13E27A
p849
aa(lp850
VSODMTBS12AB018E494
p851
aVSOTVFIU12AC46878B7
p852
aa(lp853
VSOFRVRA12A6D4F7D71
p854
aVSOJTEAX12AB01858C5
p855
aa(lp856
VSOQEOMU12A6D4F7D63
p857
aVSODRQIL12AB018964C
p858
aVSORBGRZ12D021B2802
p859
aa(lp860
VSOUWXKZ12A67ADF6B1
p861
aVSOZRMVM12AB0186BE1
p862
aa(lp863
VSOPMCEZ12A8C136DCD
p864
aVSOHKKIZ12A6D4F9E8E
p865
aVSOCTEOO12A8C13B873
p866
aVSOXJDGO12AAF3B54C0
p867
aa(lp868
VSOWZMGC12AB018612C
p869
aVSOMGQOD12A81C22986
p870
aVSOGPMWB12A8C136D81
p871
aa(lp872
VSOXDJPZ12AF72A3B8E
p873
aVSOXZVJN12A8C143767
p874
aa(lp875
VSOFASVS12A8C1336B9
p876
aVSOVPJOT12A8C1409FB
p877
aa(lp878
VSOYXVUQ12A6310D90C
p879
aVSODGDMY12B0B80827A
p880
aVSORZZNU12A6D4FB8F2
p881
aVSOYMEVP12AB0180EFA
p882
aa(lp883
VSOEPDZY12A6D4F72DD
p884
aVSOFTTOP12AB0182A49
p885
aa(lp886
VSOJXCFK12AF72A1B7C
p887
aVSODLFVM12A8C1439F8
p888
aa(lp889
VSODTGOI12A8C13EBE8
p890
aVSOMTEGI12B34F1C789
p891
aa(lp892
VSODKTET12A8C13125A
p893
aVSOTBYQW12A6D4FE74B
p894
aa(lp895
VSOFRVRA12A6D4F7D71
p896
aVSOFOHOE12AB018241E
p897
aa(lp898
VSOXBQDJ12A6D4F93CC
p899
aVSOCAAWX12A6D4F7901
p900
aa(lp901
VSOFYSLV12AB018426B
p902
aVSOCQGTF12A8C131F89
p903
aVSOCUCSG12A58A79BC5
p904
aVSOIOTFC12AF72A59FD
p905
aVSOPGSSN12A6D4FD1EA
p906
aa(lp907
VSOSDSAF127CF8DEAD9
p908
aVSOUMEVG12AF72A62F4
p909
aVSOWKWOO12A8C1401D1
p910
aa(lp911
VSOKWCBQ12AB018A16E
p912
aVSOXFPVI12AB0183C23
p913
aa(lp914
VSOXDCGF12A8C12FB8A
p915
aVSORJOHO12A8C138526
p916
aa(lp917
VSOUKKYR12A8C141244
p918
aVSOVQSZA12AF72A3633
p919
aVSOESGPR12A81C22DB4
p920
aVSOPQJKW12A58A7AB38
p921
aVSOQYSJD12A8C144319
p922
aa(lp923
VSOXWBMY12A8C13B06F
p924
aVSOOCIDV12A8C13542F
p925
aVSOXUYXK12A6D4F8D3F
p926
aVSODQTJM12A8C13F66A
p927
aa(lp928
VSOTVFIU12AC46878B7
p929
aVSOTDGUN12A8C143020
p930
aVSONMNYH12A8C131C99
p931
aVSOVZSCE12B0B806C00
p932
aa(lp933
VSOIYBET12A8C13D69D
p934
aVSOXBQDJ12A6D4F93CC
p935
aa(lp936
VSOOCYQI12A8C132F15
p937
aVSOZKDMB12B0B80C4AC
p938
aa(lp939
VSONEASJ12AB0182363
p940
aVSOKOXYI12AB018580F
p941
aa(lp942
VSOZBZFF12A6310F12D
p943
aVSOLUMDG12A8C14000F
p944
aa(lp945
VSOLSODY12A8C1348AA
p946
aVSOBQRTD12AF72A3F00
p947
aa(lp948
VSOMIKUU12A58A7B427
p949
aVSODPKSU12A6D4F7810
p950
aa(lp951
VSOKOUCW12AF72A930A
p952
aVSOIGAIC12AB017D3D7
p953
aVSOUAVJN12D021B1566
p954
aVSOKWMPC12A6D4FA41B
p955
aVSOGNOTL12AB0186C4F
p956
aa(lp957
VSOAWFST12AF72A12DF
p958
aVSOSYDPS12AC3DFA566
p959
aa(lp960
VSOFLDOK12A8C13E8F7
p961
aVSOVYVPA12CF5F87B4A
p962
aa(lp963
VSOJITPC12AB018877E
p964
aVSOOBGSW12A6D4F9D51
p965
aVSOENKVM12A6D4F85AA
p966
aVSOMUCFP12A6701F28E
p967
aa(lp968
VSOLSODY12A8C1348AA
p969
aVSOMOKCH12A8159E8A0
p970
aVSONMNYH12A8C131C99
p971
aVSOBOEJV12A8C1424C0
p972
aVSOPQQNK12A8C13BF46
p973
aVSOOCWGH12AC960DA0E
p974
aa(lp975
VSOKXVDU12A6D4FB40D
p976
aVSOWFSMK12A6D4F796C
p977
aVSOCIJCH12AB0183FCE
p978
aVSOSYMOP12AB01891B9
p979
aa(lp980
VSOSHOVR12AB0181436
p981
aVSOWKGWT12A6D4F6C1D
p982
aVSOFTCXE12A6D4F778B
p983
aa(lp984
VSOCBDPR12A6701F792
p985
aVSOAMFCO12A6701F117
p986
aVSOBYHAJ12A6701BF1D
p987
aVSOZKDMB12B0B80C4AC
p988
aVSOSYMOP12AB01891B9
p989
aVSORTDSD12A6D4F798B
p990
aa(lp991
VSOKZUMG12A6701C91E
p992
aVSOSGEYM12A8C13D04E
p993
aVSOTVFIU12AC46878B7
p994
aa(lp995
VSOHWBGO12A6D4FA87A
p996
aVSOHNOOC12A8C13BF35
p997
aVSOGWDVH12A6D4F6167
p998
aa(lp999
VSODZZZS12A8C133C5D
p1000
aVSOHNOOC12A8C13BF35
p1001
aVSOBNXJY12A8C13E070
p1002
aa(lp1003
VSOOJCCN12A8C1405E3
p1004
aVSOQOBZR12A8C13D08F
p1005
aa(lp1006
VSOTEBWE12A81C2365A
p1007
aVSORSQEH12A8C135410
p1008
aVSONRDLR12AB0184767
p1009
aa(lp1010
VSOIFTBM12A58A7A3E8
p1011
aVSOPMHBZ12A6701E0FE
p1012
aa(lp1013
VSOPQJKW12A58A7AB38
p1014
aVSORDYVO12A8C141A40
p1015
aa(lp1016
VSOVOUAN12AC9074CC7
p1017
aVSOBPEGX12B0B8095F3
p1018
aa(lp1019
VSOJJINB12AF72A35F5
p1020
aVSORKZFB12A6D4FCABC
p1021
aVSOMZOPL12A8C136538
p1022
aa(lp1023
VSOPCDRW12AB017F61A
p1024
aVSOMOCLQ12AB01895B4
p1025
aa(lp1026
VSOJLAIG12A6D4F7D6B
p1027
aVSODGVXC12A8C137B07
p1028
aVSOEFCXI12A8C13D670
p1029
aa(lp1030
VSOCPXRT12A58A7D124
p1031
aVSOXVVHB12CF54662D9
p1032
aa(lp1033
VSOFGBYM12AF729E245
p1034
aVSODIEYV12A8C134496
p1035
aVSOHKGUK12AF729E1C7
p1036
aVSOSGACM12AB017B7F4
p1037
aVSOCMUKY12D02194EE0
p1038
aa(lp1039
VSOETHJA12A6310F21E
p1040
aVSODMTBS12AB018E494
p1041
aVSOEUDUO12B0B806673
p1042
aVSOPBSIS12AB0187132
p1043
aa(lp1044
VSOKGCIG12A6D4F9D09
p1045
aVSOPADVB12AB018BBFE
p1046
aVSOSBSVF12AB017EC21
p1047
aVSOMWMMX12A6D4F842A
p1048
aa(lp1049
VSOTXNLC12A8AE476E6
p1050
aVSOGXIMS12A6D4F983A
p1051
aa(lp1052
VSOIEDMT12A6D4F9A09
p1053
aVSOVFYFW12A8C131F0D
p1054
aVSOKZPCE12CF5F88327
p1055
aa(lp1056
VSOWGSWQ12AF72A659D
p1057
aVSOARTSF12A8C13983F
p1058
aa(lp1059
VSOCYAQD12D021B18B1
p1060
aVSOHVEVY12AB0184067
p1061
aVSOLUXCG12A8C13C6F7
p1062
aVSOEVETD12D0219A25C
p1063
aVSOZMGGL12AB018DABA
p1064
aa(lp1065
VSOCFMQC12A6D4F81B7
p1066
aVSOXBQDJ12A6D4F93CC
p1067
aVSONGZZD12D02191BFB
p1068
aVSOOXYEN12A6310F2AA
p1069
aVSOCQZNB12AF72AD03B
p1070
aVSOOGNOC12D02198D6B
p1071
aa(lp1072
VSOBESQY12A8C13415C
p1073
aVSORDYVO12A8C141A40
p1074
aa(lp1075
VSOTTKTT12A8C13BB1E
p1076
aVSOXZMYG12A8C135021
p1077
aVSOFDBXG12B0B808312
p1078
aVSOLYNPX12A8C135016
p1079
aa(lp1080
VSODLVDX12A6310DF22
p1081
aVSOMKAOG12A8C13E853
p1082
aVSOPMPUU12A8AE46834
p1083
aVSODDSZQ12A6701C5FC
p1084
aVSOZKDMB12B0B80C4AC
p1085
aVSOQXDBN12A6D4F97A8
p1086
aVSOKQMNB12A6D4F74FD
p1087
aa(lp1088
VSOYWJKU12CF5F88DDF
p1089
aVSOAMRKM12A6D4F7AB1
p1090
aVSOJZDMW12A8151E092
p1091
aVSOUJMOE12A8C138654
p1092
aVSOBATLC12AB017CD70
p1093
aVSOKCJPR12AF72AC24D
p1094
aa(lp1095
VSOOZZVS12AB017D0B8
p1096
aVSOOPBWW12A8C142079
p1097
aVSOWKYIJ12AB017B0AA
p1098
aVSOXFWWT12AC468CDC2
p1099
aVSODZDBP12A8C1442C2
p1100
aVSORHPWW12A6310DF24
p1101
aa(lp1102
VSOQFAUN12AB0182B90
p1103
aVSOZBZFF12A6310F12D
p1104
aVSOWQEXV12A6701E3C4
p1105
aVSOQHTTS12A6701F303
p1106
aa(lp1107
VSOZUGQJ12AB0187EA5
p1108
aVSOBRQUF12AF72A7728
p1109
aa(lp1110
VSOUUOAG12A8C144A63
p1111
aVSOWNZIF12A8C13C563
p1112
aVSOCRRJX12A6701D96A
p1113
aVSOTKWAI12AAF3B3340
p1114
aVSOGDQUM12A8C13714C
p1115
aa(lp1116
VSOCAAWX12A6D4F7901
p1117
aVSONLOQQ12A8C139AF9
p1118
aa(lp1119
VSOIDABI12A670207DD
p1120
aVSOYECAU12A67021CC9
p1121
aa(lp1122
VSOJHYTV12A8C1345CD
p1123
aVSOQHXKV12A6D4F93CE
p1124
aVSOXNDXG12A6D4F78EB
p1125
aVSOIQUUP12A58A79294
p1126
aa(lp1127
VSORMPAR12A6701FFF9
p1128
aVSOKKHNX12AB01801B7
p1129
aVSOWZTOE12AB017DFA6
p1130
aVSOHDWMA12AB01835EF
p1131
aa(lp1132
VSOSJCUF12AB0180EBB
p1133
aVSOHFHRJ12AF72AB7E5
p1134
aa(lp1135
VSOMISTH12A6310E059
p1136
aVSOOCRKC12D0219917F
p1137
aa(lp1138
VSOTKWAI12AAF3B3340
p1139
aVSOTTDBR12A6D4F3FD4
p1140
aa(lp1141
VSOHMQCB12A6702092C
p1142
aVSOTCBVG12A5829175C
p1143
aVSOAQBPU12AF72A4C77
p1144
aVSOOHCBF12A8C142DDD
p1145
aVSOOIVBL12AC468B8DF
p1146
aVSOARUEA12A8C138AFA
p1147
aVSOHAGHW12A6310E90E
p1148
aa(lp1149
VSOWQATN12AC468BDE4
p1150
aVSODFRZP12A58A7E97B
p1151
aa(lp1152
VSOUMKAI12AAF3B5320
p1153
aVSOYVTUO12CF5F87BC6
p1154
aVSOCZRXF12AC468E170
p1155
aVSORKZFB12A6D4FCABC
p1156
aVSOQUDUI12A6D4F9D86
p1157
aa(lp1158
VSODYEAJ12A8C136309
p1159
aVSOCAPAZ12A6D4FACF1
p1160
aa(lp1161
VSOAPBPZ12A8C14597A
p1162
aVSOHWDOE12A58A79DD9
p1163
aa(lp1164
VSOLWNOU12A8C134FED
p1165
aVSOSLITH12A6701F08D
p1166
aVSOROJER12A8C140911
p1167
aa(lp1168
VSOFLPUL12A8AE46A18
p1169
aVSOCUWKY12A6D4FA41D
p1170
aa(lp1171
VSOQAWJC12A6D4F66F2
p1172
aVSOGBUJP12AAF3B52A7
p1173
aVSOSLZXV12A8C1354C9
p1174
aa(lp1175
VSOFJDTE12AB017EFD4
p1176
aVSOHRVOM12AB0187CC1
p1177
aa(lp1178
VSOAOBZA12AF72A5914
p1179
aVSOBEREE12A6D4F5B53
p1180
aVSOIHJDW12A6702029E
p1181
aa(lp1182
VSOLYNPX12A8C135016
p1183
aVSOCZGKX12A67ADBEDC
p1184
aVSOEZOJK12A8C131447
p1185
aa(lp1186
VSOJYYHB12D02193D56
p1187
aVSOQLZXJ12A6D4F63CA
p1188
aa(lp1189
VSODAOII12AF729D951
p1190
aVSOJSWQL12AF72A879E
p1191
aa(lp1192
VSOCGDFI12A8C137B08
p1193
aVSODRQUV12A8C137B0B
p1194
aa(lp1195
VSOTYIBM12AB0185385
p1196
aVSODTGOI12A8C13EBE8
p1197
aVSOZKDMB12B0B80C4AC
p1198
aa(lp1199
VSOSZPUK12A6701CD77
p1200
aVSOGITOE12AB018327F
p1201
aa(lp1202
VSOKWQCX12AF729F29A
p1203
aVSOCJWZY12A67021D18
p1204
aa(lp1205
VSOFMHTP12A8C13044D
p1206
aVSOOASRI12A8C136D8E
p1207
aVSOQDRUM12A8C14085F
p1208
aa(lp1209
VSOEPHAK12A8C1383D5
p1210
aVSOWEJXI12A58A7B04F
p1211
aa(lp1212
VSOYLHZX12A58A77A7B
p1213
aVSOIPLNY12A6701F534
p1214
aVSOGZQID12AB017FCF0
p1215
aa(lp1216
VSOXTBUE12AF72A27CD
p1217
aVSOYOUHY12A8C137B10
p1218
aVSOULDIR12A8C133C3A
p1219
aVSOZMCPU12A8C1405F0
p1220
aa(lp1221
VSORAKIR12AB0180987
p1222
aVSOAINXH12A6D4F66F4
p1223
aVSOPMYAG12A8AE47136
p1224
aVSOPQDBD12AB018D8E6
p1225
aVSOKNIDO12A6D4FA264
p1226
aVSOFSITY12A8C135E15
p1227
aa(lp1228
VSOKDIGZ12A8C1321E9
p1229
aVSOUKFXO12A8C1383BE
p1230
aa(lp1231
VSOGPEDV12A6D4FBD2A
p1232
aVSOPQJKW12A58A7AB38
p1233
aVSOMJZLT12A8C140186
p1234
aVSOSRRSV12A58A7E683
p1235
aVSOFCCPN12A8C1435FE
p1236
aVSOAGGWV12A6D4F9932
p1237
aVSOVWHZL12A6D4F9A7C
p1238
aVSOXQYSC12A6310E908
p1239
aa(lp1240
VSOUBFMS12A8C139E0B
p1241
aVSODOVBX12A81C2340D
p1242
aVSOZRHFX12A6701CD8A
p1243
aa(lp1244
VSOBMAFJ12A8C137C88
p1245
aVSOFBAUD12AF72A3183
p1246
aVSOBILME12A6701EEAB
p1247
aVSOJZZUX12A8C13FC44
p1248
aa(lp1249
VSOFFHEG12AB0183375
p1250
aVSOLCCZN12AB018E2B0
p1251
aVSOVFEOE12A81C215D4
p1252
aVSOFBGNM12AF72A315E
p1253
aa(lp1254
VSOSZPUK12A6701CD77
p1255
aVSOVFWZD12D02191C02
p1256
aa(lp1257
VSOLWIIO12A6D4FC343
p1258
aVSONLCPA12A58A7AC3D
p1259
aa(lp1260
VSOADISH12AB018DFAC
p1261
aVSOKCCAJ12AAF3B527B
p1262
aVSOOCYQI12A8C132F15
p1263
aa(lp1264
VSOOVKGO12A6D4FC39B
p1265
aVSONSTMR12D021B40A3
p1266
aa(lp1267
VSONLKYO12A6D4F9701
p1268
aVSOQXNDH12AC9074EC3
p1269
aa(lp1270
VSOZKDMB12B0B80C4AC
p1271
aVSOZNTAD12A67ADE6AD
p1272
aa(lp1273
VSOBBVUH12A8C132F77
p1274
aVSOCEZQO12A8C142570
p1275
aVSOCVEZQ12A58A78A13
p1276
aVSODRBNX12A8C132F7E
p1277
aVSOETWSD12A8C144DBA
p1278
aVSOHNYQT12A8C13F284
p1279
aVSOHDWMA12AB01835EF
p1280
aa(lp1281
VSOKADWM12A6D4F91EA
p1282
aVSOPPBPA12A42806189
p1283
aa(lp1284
VSOKWMPC12A6D4FA41B
p1285
aVSOGBUJP12AAF3B52A7
p1286
aVSORYGVV12CF5F891E1
p1287
aa(lp1288
VSOZKDMB12B0B80C4AC
p1289
aVSOYMILS12D021B3DFF
p1290
aa(lp1291
VSOZTNBU12AF72A1D84
p1292
aVSOEZOJK12A8C131447
p1293
aa(lp1294
VSOBCZQE12AB01850F7
p1295
aVSOSRZZU12AB017BD8D
p1296
aVSOAZWVC12AB017C440
p1297
aVSOQQWFI12A67020F95
p1298
aa(lp1299
VSOTEIUX12A8C142F63
p1300
aVSOPDUAC12AB0184EC1
p1301
aa(lp1302
VSOUEAGF12A8C131FBD
p1303
aVSOTCCFL12AF72A23AB
p1304
aVSOOODKI12A6D4FA2F5
p1305
aVSOISXVJ12A6701F1CD
p1306
aa(lp1307
VSOTSCKX12AB01857AA
p1308
aVSOQQRXS12AF72A186D
p1309
aVSOJCBAM12A6701FD04
p1310
aVSOQMRWI12A8BED0308
p1311
aa(lp1312
VSOPCDRW12AB017F61A
p1313
aVSOAHLGV12AF72A6DFC
p1314
aVSOFLDOK12A8C13E8F7
p1315
aa(lp1316
VSORVXSH12A6701E1FD
p1317
aVSONULCN12AB017F8F9
p1318
aVSOIYWPO12A8159E8B7
p1319
aVSOQKKHU12A6D4F929C
p1320
aVSOTVFIU12AC46878B7
p1321
aa(lp1322
VSOCJNZK12B0B8076C6
p1323
aVSOUGHYN12A6D4FA60C
p1324
aa(lp1325
VSOKZPCE12CF5F88327
p1326
aVSOVBORF12AC3DF57B6
p1327
aVSOUEOMD12AB01868C6
p1328
aVSORKERW12AB0183DA2
p1329
aa(lp1330
VSOORCWC12A6310EA5E
p1331
aVSOINYDQ12AB0185B1A
p1332
aa(lp1333
VSOTOHHT12A6D4F957B
p1334
aVSOIUJZI12A58290F87
p1335
aa(lp1336
VSOKVIDV12AB017AFC6
p1337
aVSOSLCRU12A6701DB0B
p1338
aVSOGLKUJ12A8AE46B92
p1339
aVSOLJWIQ12A6D4FA875
p1340
aa(lp1341
VSOTELBF12A6701FA4A
p1342
aVSOGLWSK12D0219345B
p1343
aVSOUXKQF12A6701F68E
p1344
aa(lp1345
VSOCJWZY12A67021D18
p1346
aVSOAERVR12B0B80B3EF
p1347
aVSOGMTDT12AB0187F54
p1348
aa(lp1349
VSOZKDMB12B0B80C4AC
p1350
aVSOQKYSR12AB018AA82
p1351
aVSOKBGBU12A8C13B4FE
p1352
aVSOXBQDJ12A6D4F93CC
p1353
aVSOCNPTC12A8C144911
p1354
aa(lp1355
VSOKWMPC12A6D4FA41B
p1356
aVSOYVTUO12CF5F87BC6
p1357
aVSOZKLWQ12A6310DF59
p1358
aa(lp1359
VSOMZSHY12A8C1343B0
p1360
aVSOYMYBX12A8C1361E0
p1361
aa(lp1362
VSOUTQYD12A6D4F50FE
p1363
aVSOCBUPE12A8C138817
p1364
aVSOLKIIS12A6701C7F9
p1365
aVSOFUIQP12A8C139C83
p1366
aa(lp1367
VSOVYRXD12CF5F89062
p1368
aVSOKZXMF12A6D4F50C6
p1369
aVSOKJVAE12A8C132CA7
p1370
aVSOKJZKB12AB0184D76
p1371
aVSOOCRKC12D0219917F
p1372
aVSORATWA12A6D4FA59E
p1373
aVSOXBQDJ12A6D4F93CC
p1374
aa(lp1375
VSOJJKWF12A6310D8E8
p1376
aVSOIDVCR12A6D4F7268
p1377
aVSOXQXXU12A67021CC3
p1378
aVSOGLKUJ12A8AE46B92
p1379
aVSOMJYHR12AB0184BA1
p1380
aa(lp1381
VSOGFRWP12A6310EDBF
p1382
aVSOGEHWA12A81C22D9E
p1383
aVSOFLQTC12A67021CCA
p1384
aVSOPONUS12A6D4FB437
p1385
aa(lp1386
VSOHRVOM12AB0187CC1
p1387
aVSOWFSMK12A6D4F796C
p1388
aa(lp1389
VSOSDYRH12AAA15E8AC
p1390
aVSOPTWDT12A6D4F81E3
p1391
aa(lp1392
VSOQACAA12A6D4F744C
p1393
aVSOFFCOP12A8C1422E3
p1394
aa(lp1395
VSOBPFAB12A8C140A2C
p1396
aVSOSXIZS12A58A789C4
p1397
aa(lp1398
VSOHFHRJ12AF72AB7E5
p1399
aVSOPFNMX12A6310E270
p1400
aa(lp1401
VSOGZSPS12A6D4F8418
p1402
aVSORDYVO12A8C141A40
p1403
aa(lp1404
VSONEEUH12A58A76E6D
p1405
aVSOEHQBQ12A6D4F9EA9
p1406
aa(lp1407
VSOPAENI12A81C21D1A
p1408
aVSOAMXNM12A6310D8DE
p1409
aa(lp1410
VSOTEIUX12A8C142F63
p1411
aVSOPDUAC12AB0184EC1
p1412
aa(lp1413
VSOXVZBN12AF72A2ED1
p1414
aVSOAJXFD12AB0183ACD
p1415
aVSOVVXGI12AB0184DAC
p1416
aa(lp1417
VSOGNGJX12AB01867D3
p1418
aVSOSNARC12A6D4F929E
p1419
aa(lp1420
VSOINBTQ12AB018027B
p1421
aVSOVCZDQ12D02191F5B
p1422
aa(lp1423
VSOXAUOY12A6D4F980B
p1424
aVSOPYQNA12AB0180872
p1425
aa(lp1426
VSOJMVIA12AC3DFA185
p1427
aVSOEFCXI12A8C13D670
p1428
aa(lp1429
VSOIITZG12AC468914D
p1430
aVSOZRPIQ12A8C13CE0B
p1431
aVSOHWZGV12A8C1388A7
p1432
aa(lp1433
VSOEUMEI12A8C1432FF
p1434
aVSOQLZXJ12A6D4F63CA
p1435
aa(lp1436
VSOTHGXK12AB0180E18
p1437
aVSOEBOWM12AB017F279
p1438
aa(lp1439
VSOLXAEZ12A6D4F7D83
p1440
aVSOHWBGO12A6D4FA87A
p1441
aa(lp1442
VSOOKEEB12A6D4FA78D
p1443
aVSOJLSZE12A6D4F96A4
p1444
aVSODMTBS12AB018E494
p1445
aVSOUMERN12D0219436B
p1446
aVSOBNTFK12A6701F1CF
p1447
aa(lp1448
VSOBMAFJ12A8C137C88
p1449
aVSOBZCWJ12A58A7C659
p1450
aa(lp1451
VSOZKDMB12B0B80C4AC
p1452
aVSONDBJB12A8C13125F
p1453
aa(lp1454
VSOQTUZG12AB018D1F0
p1455
aVSOVRXWW12A6D4F74D3
p1456
aVSOLZUOI12AB018713E
p1457
aa(lp1458
VSOACEDS12A6701EAAA
p1459
aVSOOBNUD12A6701F2F8
p1460
aVSOXKGID12A8C136B5D
p1461
aVSOVYUYG12A8AE47BAB
p1462
aVSOWJFVX12AF72A56AF
p1463
aVSOTVSIW12A6D4F8139
p1464
aa(lp1465
VSOEMNRK12A6D4FCA8E
p1466
aVSOYHUVH12A6D4F6D60
p1467
aVSORWOEA12AF72A3880
p1468
aa(lp1469
VSOAVOUK12A8AE47504
p1470
aVSOWCRQQ12A58A7CE23
p1471
aa(lp1472
VSOPUGAJ12AC468B2E1
p1473
aVSOJJZVN12AB0183D3B
p1474
aa(lp1475
VSOSDSAF127CF8DEAD9
p1476
aVSOWKXXX12A6D4FA798
p1477
aa(lp1478
VSOVWHZL12A6D4F9A7C
p1479
aVSOGVMMR12AB018AA21
p1480
aa(lp1481
VSOUQDVX12A6D4FDC5A
p1482
aVSODMTBS12AB018E494
p1483
aVSOIFNYM12A58A816BB
p1484
aa(lp1485
VSOPQQNK12A8C13BF46
p1486
aVSOTBCLC12A8C1311C2
p1487
aa(lp1488
VSORDYVO12A8C141A40
p1489
aVSOEMBBK12A6D4FB04F
p1490
aVSOBBVUH12A8C132F77
p1491
aVSONKJMB12A8C138B2E
p1492
aa(lp1493
VSOJWIDQ12A58A7A588
p1494
aVSODRBNX12A8C132F7E
p1495
aVSOGJMTM12A6310E17B
p1496
aa(lp1497
VSOMJZLT12A8C140186
p1498
aVSONYNMM12D021B3AF3
p1499
aVSOPQDXH12A8C133BFE
p1500
aVSOORLVA12A8C142EFD
p1501
aa(lp1502
VSOXTGXZ12A6D4F9795
p1503
aVSOHAGHW12A6310E90E
p1504
aa(lp1505
VSOZAFRA12A8C1409E6
p1506
aVSOOHDNA12B34F1F2E6
p1507
aa(lp1508
VSOMYRJW12AB018D130
p1509
aVSOXLVRT12A58A7E8F5
p1510
aVSONFROS12A8C135B79
p1511
aVSOPLGAE12A58A7CBB8
p1512
aVSOQWSTH12A6D4F58E7
p1513
aVSOTBOII12A6D4F8248
p1514
aa(lp1515
VSOVNJZT12A8AE4505E
p1516
aVSORBMRY12A6D4FA230
p1517
aVSOIAUJJ12A58A7FD28
p1518
aVSOPAEXM12AB018BCCE
p1519
aVSOGEICE12AF72A557C
p1520
aa(lp1521
VSOVTSDU12A58A7D4D6
p1522
aVSOQDMNI12AB0180BAA
p1523
aa(lp1524
VSOTGOSH12A6701F127
p1525
aVSOFBGNM12AF72A315E
p1526
aVSOYIRPZ12A6D4FCAB0
p1527
aa(lp1528
VSOQXVJK12A58A7BCE8
p1529
aVSOAQGSK12AB01864DF
p1530
aVSOXEFSB12AB0183CA6
p1531
aa(lp1532
VSOUIKSN12A6D4F789F
p1533
aVSOPVTAT12A6D4FA787
p1534
aVSOPNXUJ12A67021D5B
p1535
aVSOEASNB12A6701E102
p1536
aa(lp1537
VSORDYVO12A8C141A40
p1538
aVSODBEJB12A8C1394CB
p1539
aVSOZKDMB12B0B80C4AC
p1540
aa(lp1541
VSOIDQPD12AB017D54B
p1542
aVSOOXXXS12A8C139AC9
p1543
aa(lp1544
VSOMJAEG12A58A7BB99
p1545
aVSOHKZFV12A8C1429A8
p1546
aVSOCROAQ12A58A7A613
p1547
aa(lp1548
VSOAXOAU12CF5F88098
p1549
aVSOAGFNB12AB018DE7A
p1550
aa(lp1551
VSOLOJOP12A6310D862
p1552
aVSODNWBH12AB0189A08
p1553
aVSOZBXEL12A6D4F9046
p1554
aVSOZRPIQ12A8C13CE0B
p1555
aVSOFVBVE12AC46868DA
p1556
aa(lp1557
VSOADISH12AB018DFAC
p1558
aVSOQHLAQ12A8C13E6CF
p1559
aa(lp1560
VSOOUYTP12B0B8094B6
p1561
aVSOZTGCH12A6D4F64EB
p1562
aVSOAOPHC12A8C13CDF7
p1563
aVSOGBKBM12A8C138CAE
p1564
aa(lp1565
VSOTKCTK12AC468E80B
p1566
aVSOLHXPD12AB0182B7B
p1567
aVSOSYMOP12AB01891B9
p1568
aa(lp1569
VSOPTLLY12A58A7B21B
p1570
aVSODAIMX12A6D4F74D6
p1571
aa(lp1572
VSOERCPF12A6D4F7B94
p1573
aVSOBYIHL12A6D4FBA09
p1574
aVSOAVQLA12AB017F349
p1575
aa(lp1576
VSOKTLWI12AC3DF8512
p1577
aVSOINLEG12AB01847D0
p1578
aa(lp1579
VSORLPYW12CF5F89041
p1580
aVSOQAKCR12A6701CBD1
p1581
aVSOKLXQR12A8C13243F
p1582
aVSOFDZYJ12A6D4F9C22
p1583
aVSOJLSZE12A6D4F96A4
p1584
aa(lp1585
VSOPIEQP12A8C13F268
p1586
aVSOWUHYP12A6D4FA6E9
p1587
aa(lp1588
VSOIFLAU12AF72A38F3
p1589
aVSOLVWST12A8AE469FD
p1590
aa(lp1591
VSOZKLCM12A8C13A69B
p1592
aVSOQDMXT12A6D4F8255
p1593
aVSOUONHO12D02199ECB
p1594
aa(lp1595
VSODZYBH12AB018A94C
p1596
aVSOFYEPR12A6D4F78FD
p1597
aVSOVITCZ12A6D4F8DC7
p1598
aVSOBFAJM12A8C13F477
p1599
aa(lp1600
VSOWPIXQ12A8C13E6B1
p1601
aVSODYQPV12A8C135FF0
p1602
aVSOETIGS12A8C13BAF0
p1603
aVSOIXPYU12AF72A33EB
p1604
aVSOIIYNJ12A6D4FE177
p1605
aa(lp1606
VSOLHUWV12AF72A1557
p1607
aVSOIIKIF12A8C131B3F
p1608
aVSOOUOVF12A8C134B3D
p1609
aa(lp1610
VSOZHJKI12A81C2248F
p1611
aVSOLOIHO12A58A7C996
p1612
aVSOQQXJP12A8AE4890B
p1613
aVSOFYSLV12AB018426B
p1614
aVSOPQJYJ12AB0182202
p1615
aa(lp1616
VSOVVWTU12AB0182041
p1617
aVSOQWXBI12A6701FA49
p1618
aa(lp1619
VSOBWVHX12A8C136194
p1620
aVSOGBZFA12A8C136DBB
p1621
aa(lp1622
VSOVFLDQ12A8C13E782
p1623
aVSOCPNNV12A6D4F74DD
p1624
aVSOBAJZW12AC90732B0
p1625
aVSOCRBUH12A6D4F9FC6
p1626
aVSOFPAGZ12AB0182ECA
p1627
aVSOFOCIR12CF5F86ECF
p1628
aVSORZWVT12CF5CFD848
p1629
aa(lp1630
VSOVQPVY12A58A7B583
p1631
aVSOILMAD12A6D4F9D4A
p1632
aVSORHOKE12AB0181BE3
p1633
aa(lp1634
VSORAALB12D021989FA
p1635
aVSOYIPRJ12D021B3CBD
p1636
aVSOCWBSX12AB017F94A
p1637
aa(lp1638
VSOHCBGC12A6D4FA858
p1639
aVSOIYVSO12A6310EA64
p1640
aa(lp1641
VSOSBMRU12A8AE474FA
p1642
aVSOKXUJQ12A6D4F3C96
p1643
aa(lp1644
VSOWPWEO12A6310F228
p1645
aVSORQWQT12A8C1346C3
p1646
aVSOOPVKE12A6D4F8129
p1647
aa(lp1648
VSOGDZGS12A6D4F405C
p1649
aVSOMUCFP12A6701F28E
p1650
aa(lp1651
VSOADISH12AB018DFAC
p1652
aVSOJOXBA12A6D4FA618
p1653
aa(lp1654
VSOTEIUX12A8C142F63
p1655
aVSOPDUAC12AB0184EC1
p1656
aa(lp1657
VSOUEAGF12A8C131FBD
p1658
aVSOTCCFL12AF72A23AB
p1659
aVSOOODKI12A6D4FA2F5
p1660
aVSOISXVJ12A6701F1CD
p1661
aa(lp1662
VSOOTCFE12A6310F231
p1663
aVSONBEKD12AB01894DC
p1664
aVSORFHBD12A58A7C3E3
p1665
aVSOWPXAW12A6D4F7002
p1666
aVSONLPWR12A8C1442F4
p1667
aa(lp1668
VSOJOZTM12A8C140618
p1669
aVSOMZULB12AB018223C
p1670
aVSOWSICU12A6D4FD126
p1671
aVSOEJKBA12A8C144192
p1672
aVSOMVELR12A8C140F35
p1673
aa(lp1674
VSOEPDZY12A6D4F72DD
p1675
aVSONSDRM12A58A7AF01
p1676
aVSOFUYTQ12AC90719F0
p1677
aVSOQYMNH12A8C137AA0
p1678
aa(lp1679
VSOICTOM12A6D4FCE8F
p1680
aVSOEUIQA12A8C1338AA
p1681
aVSOSNBYK12AB0182B57
p1682
aa(lp1683
VSOMGBRL12A8C143FF5
p1684
aVSOFMXDX12D021933BF
p1685
aVSOUZIIN12AB017FB85
p1686
aa(lp1687
VSOCGAQU12A6D4FD0ED
p1688
aVSOHNOOC12A8C13BF35
p1689
aVSOQAWJC12A6D4F66F2
p1690
aa(lp1691
VSOSYMSX12A6310DFE2
p1692
aVSOOBGSW12A6D4F9D51
p1693
aVSOROJER12A8C140911
p1694
aa(lp1695
VSOFFWZZ12A6D4F66F0
p1696
aVSOPMZRD12AB017BB68
p1697
aVSOADISH12AB018DFAC
p1698
aa(lp1699
VSOFDTJH12A6D4F8A64
p1700
aVSONREXX12A8C13E32E
p1701
aa(lp1702
VSOBQNJE12A6310E268
p1703
aVSOYWTAM12A8C134D3F
p1704
aa(lp1705
VSOJGJQP12A8C14596E
p1706
aVSOPXUFA12A6D4F79EE
p1707
aa(lp1708
VSORMAIP12AF72A6885
p1709
aVSOLEKNG12B0B80BD5E
p1710
aa(lp1711
VSOLZRQN12A8C138E34
p1712
aVSOQAWJC12A6D4F66F2
p1713
aa(lp1714
VSOKWPSN12AF72A1240
p1715
aVSOWQEXV12A6701E3C4
p1716
aa(lp1717
VSOPXKYD12A6D4FA876
p1718
aVSOEMBBK12A6D4FB04F
p1719
aa(lp1720
VSOJWQUJ12AB017D326
p1721
aVSOAOMUV12AB018B851
p1722
aa(lp1723
VSOVXRSR12A6D4F8051
p1724
aVSONRWVX12AF72A5897
p1725
aVSOEGCSN12A81C225A4
p1726
aVSOQATIZ12AB017CFF5
p1727
aVSOSNPDZ12AC468AF21
p1728
aVSOQMIVG12A679D7E28
p1729
aVSOIQZXP12AF72A2044
p1730
aVSOPQJKW12A58A7AB38
p1731
aVSOPPRIE12AAA8C598A
p1732
aa(lp1733
VSOGFRWP12A6310EDBF
p1734
aVSOPIFJT12A81C221AC
p1735
aVSOFWMPP12D02193ABD
p1736
aa(lp1737
VSOBMQXK12A6701E179
p1738
aVSOYFYHO12AB0186BCB
p1739
aa(lp1740
VSOCVTLJ12A6310F0FD
p1741
aVSOEFCXI12A8C13D670
p1742
aVSOQTUZG12AB018D1F0
p1743
aa(lp1744
VSOSJFTV12A6D4F98DD
p1745
aVSOMOKCH12A8159E8A0
p1746
aVSOBQNJE12A6310E268
p1747
aVSOPQJKW12A58A7AB38
p1748
aVSOGBZFA12A8C136DBB
p1749
aa(lp1750
VSOIIBKJ12AB017DB0C
p1751
aVSOQEOZR12A6D4F7B06
p1752
aVSOCNLFS12AB0180662
p1753
aVSOPTQIE12A8C138A91
p1754
aa(lp1755
VSOSNPDZ12AC468AF21
p1756
aVSOMEEJU12AB017C973
p1757
aVSOMJAZR12CF5F87F9F
p1758
aVSOSHYJW12AB01827C0
p1759
aVSOVZSCE12B0B806C00
p1760
aVSOYLPDZ12A8C131D42
p1761
aa(lp1762
VSOTIARN12A58A7B1C0
p1763
aVSONUKOJ12A6D4F7F43
p1764
aa(lp1765
VSOGTXAH12AB0186558
p1766
aVSOLHDGF12A6D4F9A35
p1767
aVSOWKXZP12A8C141FFD
p1768
aa(lp1769
VSOZOWUP12A58A7CBDA
p1770
aVSOKKVXX12AB017AFB7
p1771
aa(lp1772
VSOLCPCT12A8C130F57
p1773
aVSORGDRM12A6D4F5AC8
p1774
aVSOSBNUV12A58A7DB10
p1775
aVSOXDVTZ12AB0185016
p1776
aVSOBHFDN12AF72A87F8
p1777
aa(lp1778
VSOHSVAE12A8C13E698
p1779
aVSOSMARC12A6D4F793C
p1780
aVSORWEEH12AF72A0B63
p1781
aa(lp1782
VSOHMVGA12AC4687E05
p1783
aVSOFJSGY12AAF3B222C
p1784
aVSOMNULF12A8C135F65
p1785
aa(lp1786
VSOLCCZN12AB018E2B0
p1787
aVSOGEONT12AB01845AD
p1788
aa(lp1789
VSOQXVJK12A58A7BCE8
p1790
aVSOYLWEJ12A6D4FB865
p1791
aVSONMEPF12A6D4F3C92
p1792
aa(lp1793
VSOAUWYT12A81C206F1
p1794
aVSOKCCAJ12AAF3B527B
p1795
aa(lp1796
VSOGYYQA12A6701F89E
p1797
aVSOSEQIZ12A8C13B853
p1798
aVSONPJIJ12A6701F0B0
p1799
aVSOCUARC12A6701E94D
p1800
aa(lp1801
VSODECVE12AB018E47E
p1802
aVSOVZMAN12A6D4FE1DA
p1803
aVSOAJXFD12AB0183ACD
p1804
aVSOTEBNA12AB018BAA8
p1805
aa(lp1806
VSOUQKMD12A8C130ED9
p1807
aVSONAQRQ12AB017FD0B
p1808
aa(lp1809
VSOEZBJN12A8C13CE48
p1810
aVSORDYVO12A8C141A40
p1811
aVSOXSOYE12A8C1439E6
p1812
aVSOHITPB12AF729F8F8
p1813
aVSOGKOYL12A6D4FAD46
p1814
aVSOEIQTI12A67021CBB
p1815
aVSOOLOCN12A6D4F7479
p1816
aVSOTFHPZ12B0B806A3E
p1817
aa(lp1818
VSORGVYS12A8AE48882
p1819
aVSOUAWSV12D02191B38
p1820
aa(lp1821
VSOSOJGE12A8C1363D6
p1822
aVSORSZKX12A8C13B85B
p1823
aa(lp1824
VSOHWBIM12A6701CFDB
p1825
aVSOKYIDV12A58A7956A
p1826
aa(lp1827
VSOFPZIX12A6701CFAD
p1828
aVSOIVFNC12A6D4FAF51
p1829
aa(lp1830
VSOKSAJJ12A67020C31
p1831
aVSOFWMPP12D02193ABD
p1832
aa(lp1833
VSOCPMIK12A6701E96D
p1834
aVSOAKMDU12A8C1346A9
p1835
aVSOEXFZQ12A6D4FC33E
p1836
aVSOJKOAN12A67AE0D72
p1837
aVSOLNDJE12A6D4FA336
p1838
aVSOHWDKN12A6D4F94F4
p1839
aa(lp1840
VSOPEMMU12A8C13F2FF
p1841
aVSONDGHW12A8AE47B4F
p1842
aVSOYRJUW12A6701C60C
p1843
aa(lp1844
VSOGWYSN12A6D4F7D77
p1845
aVSOOCRKC12D0219917F
p1846
aVSOLZFWU12AC468AE67
p1847
aVSOEFTHE12A6D4FA79D
p1848
aVSOPUROF12A8C1389D3
p1849
aVSOAQJHG12A6D4FB498
p1850
aa(lp1851
VSOPPICS12AF72A9A84
p1852
aVSOGZQID12AB017FCF0
p1853
aVSOMQYVA12AF72A70A0
p1854
aVSOHKSAA12B0B806BCE
p1855
aVSOQCLCS12A6D4F70A5
p1856
aa(lp1857
VSOXKJOB12A58A7C1F5
p1858
aVSOBGBIN12AF72A95D8
p1859
aa(lp1860
VSOOMKPT12A81C23028
p1861
aVSOKMFQY12A6D4F904A
p1862
aa(lp1863
VSOPCRJH12A679D8ADF
p1864
aVSOTXHTN12A6D4F87DB
p1865
aVSOONZHT12A8C13DBC6
p1866
aa(lp1867
VSOWEWRL12A58A7961F
p1868
aVSOXQJST12A6D4F9A4C
p1869
aVSOKVIDV12AB017AFC6
p1870
aVSOQXQOL12A8C1364FC
p1871
aVSOPMKTN12A67020900
p1872
aa(lp1873
VSOSHOVR12AB0181436
p1874
aVSOJRTGA12A8AE4866C
p1875
aVSOGLZCT12A6D4FAF98
p1876
aa(lp1877
VSOZKUDA12A6D4F9823
p1878
aVSOSYMSX12A6310DFE2
p1879
aVSOVBORF12AC3DF57B6
p1880
aa(lp1881
VSOCHUVL12A8C13AFFE
p1882
aVSOWEWRL12A58A7961F
p1883
aVSOPQFUC12A8C1445BB
p1884
aVSOKZPCE12CF5F88327
p1885
aVSOIRDUH12AB01820EE
p1886
aa(lp1887
VSOWLKGF12AB017E647
p1888
aVSOYGJQA12A58A79755
p1889
aVSOBUJOL12AB0183D2D
p1890
aa(lp1891
VSOGJMTM12A6310E17B
p1892
aVSODJOWC12A6701CD9A
p1893
aVSOPCDRW12AB017F61A
p1894
aVSOWLJDA12A6D4FCAC5
p1895
aVSOFCGSE12AF72A674F
p1896
aa(lp1897
VSOFIZRR12A6701EEF1
p1898
aVSOLJWIQ12A6D4FA875
p1899
aa(lp1900
VSOGXBUW12A8C13B2E2
p1901
aVSOPFMTH12A6D4F7E43
p1902
aa(lp1903
VSOCUARC12A6701E94D
p1904
aVSORWJSF12A8C138AB6
p1905
aVSOMIXXT12D021B27DE
p1906
aVSOGGYCD12A6D4F8152
p1907
aa(lp1908
VSOXCZGH12A8C13C4FE
p1909
aVSOBNWZK12A8C133A06
p1910
aVSOYDQFR12AB017B27D
p1911
aa(lp1912
VSOLJWHN12AB017ACCE
p1913
aVSOSGHFM12A6D4FBBE1
p1914
aa(lp1915
VSOELXDO12A6D4FA2EA
p1916
aVSODWNTS12A6310D98C
p1917
aVSOAGHJN12AF7299B88
p1918
aa(lp1919
VSOZMCPU12A8C1405F0
p1920
aVSOQVONK12A6D4F405D
p1921
aVSODGJMC12A6701E5ED
p1922
aVSOYWOGW12AB018E2BA
p1923
aa(lp1924
VSONKLUS12A6D4F789B
p1925
aVSONKNTS12AB018075F
p1926
aVSODKPAZ12A6310E98D
p1927
aa(lp1928
VSOZKDMB12B0B80C4AC
p1929
aVSOCRRDX12AB017BCF8
p1930
aVSOGPWRZ12A8C14065C
p1931
aa(lp1932
VSONYNMM12D021B3AF3
p1933
aVSOYXZGI12AB0180460
p1934
aa(lp1935
VSOMJJRS12AF729E156
p1936
aVSOZSKPI12A8C13CDFD
p1937
aVSOOCNDR12AF72A6292
p1938
aVSOGXPMY12A6701D45F
p1939
aa(lp1940
VSOYUDOT12D02191475
p1941
aVSOZXYCR12B0B806649
p1942
aa(lp1943
VSOLKYJW12A6701C4C8
p1944
aVSODKOHP12A8AE46D3D
p1945
aa(lp1946
VSOXFWWT12AC468CDC2
p1947
aVSOCNLFS12AB0180662
p1948
aa(lp1949
VSOHHALP12A6D4FB6A8
p1950
aVSOINJVD12A6D4F91D3
p1951
aVSOYKUXZ12A8C133F39
p1952
aVSOZRMCJ12A6701F6A6
p1953
aa(lp1954
VSOLSJKY12A8AE4852A
p1955
aVSOJEOST12A58A7B3CD
p1956
aa(lp1957
VSOKAQVS12A6D4F7830
p1958
aVSOMLDDB12A8C137375
p1959
aa(lp1960
VSOXWIWP12A67020CDB
p1961
aVSOQREWN12A8C139154
p1962
aa(lp1963
VSOSDSAF127CF8DEAD9
p1964
aVSOIVMMX12D021B410A
p1965
aVSONVPTP12A6D4F7A34
p1966
aa(lp1967
VSONWOHJ12A6D4F920A
p1968
aVSOWHYMX12A6310F91F
p1969
aVSOMJAEG12A58A7BB99
p1970
aa(lp1971
VSOPOIFA12A6701E780
p1972
aVSODVJBY12A6D4F6F75
p1973
aVSOECFKJ12A6D4F9751
p1974
aa(lp1975
VSOIEDDR12A6D4F9C65
p1976
aVSOKRSCG12A8C138DF1
p1977
aa(lp1978
VSOPXFIS12A6D4F4A51
p1979
aVSOWJSDG12AB0182561
p1980
aVSOBILME12A6701EEAB
p1981
aa(lp1982
VSOVDORI12A58A7CB76
p1983
aVSOATFKF12A8C142E94
p1984
aa(lp1985
VSOGZTJI12A6701E100
p1986
aVSOBOMJI12A8C13E40F
p1987
aa(lp1988
VSONMNYH12A8C131C99
p1989
aVSOQEEGD12AB0181026
p1990
aVSOLZUOI12AB018713E
p1991
aa(lp1992
VSOUFRAV12A8C13AC31
p1993
aVSODRQUV12A8C137B0B
p1994
aa(lp1995
VSOGPZUW12A8C13FAAC
p1996
aVSOZKDMB12B0B80C4AC
p1997
aa(lp1998
VSOSUYOY12A6D4F96A8
p1999
aVSOGDATI12A8C13B8BA
p2000
aVSOORMPD12A6701E339
p2001
aa(lp2002
VSOHXTVX12A8C135760
p2003
aVSOLTDQP12A8C133D7C
p2004
aVSOLEHFW12A8C133273
p2005
aa(lp2006
VSOTSXHU12AF72A3B65
p2007
aVSOXUXPB12D02192440
p2008
aa(lp2009
VSOUNUSP12AB01846C6
p2010
aVSOCQUUM12A6D4FBA9B
p2011
aa(lp2012
VSOSLSLS12A8C135B5F
p2013
aVSOBFBTF12A6D4FCA92
p2014
aa(lp2015
VSOZIYBU12A6D4F976B
p2016
aVSOZKDMB12B0B80C4AC
p2017
aa(lp2018
VSOAOPCG12AC468D27E
p2019
aVSOWHCUL12D02199D88
p2020
aVSOCFPSZ12A6D4FCA89
p2021
aVSOINLAM12A6701E1C1
p2022
aVSORBCFP12CF5F8934F
p2023
aVSOGIFHM12A670207B7
p2024
aVSOSHAJP12AB0184848
p2025
aa(lp2026
VSOFZBLV12D0219A746
p2027
aVSOGRCBF12A8C13233B
p2028
aVSOODMPS12A8AE4842A
p2029
aa(lp2030
VSOKZYKB12A8C14399F
p2031
aVSOWIYJT12AC91D4022
p2032
aa(lp2033
VSOFNOEU12A6D4F73FE
p2034
aVSOQYQCJ12A8C135BF9
p2035
aa(lp2036
VSOMUCFP12A6701F28E
p2037
aVSOGZQWT12AF72A4B83
p2038
aVSOBQRTD12AF72A3F00
p2039
aVSONJNMA12A6701DFDE
p2040
aa(lp2041
VSOBXGEK12AB018FDC6
p2042
aVSOWMWPK12AB01853AC
p2043
aVSODTGOI12A8C13EBE8
p2044
aa(lp2045
VSOIMJGN12B0B80B184
p2046
aVSONJNMA12A6701DFDE
p2047
aVSOCAAWX12A6D4F7901
p2048
aVSOUOAQW12A8C13515E
p2049
aa(lp2050
VSOBVVGZ12A58A7B929
p2051
aVSOKMFQY12A6D4F904A
p2052
aa(lp2053
VSOZKDMB12B0B80C4AC
p2054
aVSOAJODS12A8C138A23
p2055
aa(lp2056
VSOXDUPR12CF5F87A38
p2057
aVSOVQSZA12AF72A3633
p2058
aa(lp2059
VSOYXCTI12A8C13CE04
p2060
aVSORTDSD12A6D4F798B
p2061
aa(lp2062
VSOIPHIT12A58A7ECF8
p2063
aVSOKRYXH12A6701D468
p2064
aVSOMIKUU12A58A7B427
p2065
aa(lp2066
VSOZSKZX12A6D4FB67F
p2067
aVSOTRPKS12A8C13D0CA
p2068
aa(lp2069
VSOJIOCN12A670209D4
p2070
aVSOOASRI12A8C136D8E
p2071
aa(lp2072
VSOLYNPX12A8C135016
p2073
aVSOFLDOK12A8C13E8F7
p2074
aa(lp2075
VSOLIQUE12A58A78306
p2076
aVSOIIBKJ12AB017DB0C
p2077
aVSOVQSZA12AF72A3633
p2078
aVSOFCWRL12A67021CD4
p2079
aVSOQZOKD12AF72A7499
p2080
aa(lp2081
VSOGSZXZ12A6701F16F
p2082
aVSOWLJRX12A6D4F7BBB
p2083
aa(lp2084
VSOGDNNP12A58A7E610
p2085
aVSOXSCCL12A6D4FB7A8
p2086
aa(lp2087
VSOOVHJW12A6D4F8078
p2088
aVSOYPKDM12A81C215FC
p2089
aa(lp2090
VSOVRYLZ12A8C142330
p2091
aVSOBITKZ12CF582660A
p2092
aVSOWPFRJ12A8C13EC0F
p2093
aVSOZSYYS12A8C13C04F
p2094
aVSOESVVP12CF5F8799A
p2095
aVSOKCJPR12AF72AC24D
p2096
aVSOWUUSO12A8C13F066
p2097
aVSOQEWWH12AB0189BB8
p2098
aa(lp2099
VSOQVCMV12A58A786F3
p2100
aVSOTIUCH12A6310E0B3
p2101
aa(lp2102
VSOGLXJK12A8C136CD2
p2103
aVSOZOSWK12A6D4F6E33
p2104
aa(lp2105
VSOYZDVE12AAF3B3B18
p2106
aVSOZRPIQ12A8C13CE0B
p2107
aa(lp2108
VSODTIVH12AB018E717
p2109
aVSOFUDXG12A6D4F65BE
p2110
aVSOUYQUB12AB0180EBD
p2111
aVSOLLXZA12A8C13514C
p2112
aa(lp2113
VSOWFSEV12AB01815CD
p2114
aVSOFMSAK12A8C13EDD2
p2115
aa(lp2116
VSOUEAGF12A8C131FBD
p2117
aVSOLCEUG12A58A79898
p2118
aVSOFZDOF12A8C13894C
p2119
aVSOPXKYD12A6D4FA876
p2120
aVSOGJMTM12A6310E17B
p2121
aVSOAGQAJ12AAFF429E3
p2122
aa(lp2123
VSOCMQFQ12A81C2098C
p2124
aVSOKLGUH12A6701F9C5
p2125
aa(lp2126
VSOLVIWU12A58A80754
p2127
aVSOSTFXC12A8C130ADD
p2128
aa(lp2129
VSOIHAXS12AC4689194
p2130
aVSOSYCAB12A8C132F77
p2131
aa(lp2132
VSOVFEOE12A81C215D4
p2133
aVSOZBZSY12A6D4FA404
p2134
aa(lp2135
VSOLKFQU12A6D4F9A74
p2136
aVSOZSHHJ12A8151CA10
p2137
aVSOVROUJ12A8C13A508
p2138
aa(lp2139
VSOZRMVM12AB0186BE1
p2140
aVSOQQQMM12A6310DFCC
p2141
aVSOAOLHP12A8C13281F
p2142
aVSOZUBUC12AB01890EB
p2143
aa(lp2144
VSOLOIRJ12A6D4F7F1E
p2145
aVSOZOSTH12A6D4FB48E
p2146
aa(lp2147
VSOOIQZG12A6D4F9E97
p2148
aVSOWKXZP12A8C141FFD
p2149
aa(lp2150
VSOVXIYH12A6D4FA5E8
p2151
aVSOUPGAE12A8AE47026
p2152
aVSOFSRNH12A8C133C97
p2153
aVSOGLXHK12AB017EBC1
p2154
aa(lp2155
VSOIYBET12A8C13D69D
p2156
aVSOSWPSM12AB0189E28
p2157
aVSOLKIAM12B0B809BAE
p2158
aVSOBLNAT12A6310DFDF
p2159
aa(lp2160
VSORDYVO12A8C141A40
p2161
aVSOAHSMI12AF72A9FA7
p2162
aVSOEKUHU12A8C137F62
p2163
aa(lp2164
VSOAZKPR12A6310E267
p2165
aVSOMMUEG12AF729B982
p2166
aa(lp2167
VSOHAGHW12A6310E90E
p2168
aVSOPYHCY12AB01832B2
p2169
aa(lp2170
VSOKZPCE12CF5F88327
p2171
aVSOVDYXW12AB017CB97
p2172
aVSOQZPLT12AB017B8B5
p2173
aa(lp2174
VSODRBNX12A8C132F7E
p2175
aVSOAHSMI12AF72A9FA7
p2176
aa(lp2177
VSOEHHCE12A3F1ED465
p2178
aVSOPCDRW12AB017F61A
p2179
aa(lp2180
VSOGDJGD12A8C13A24E
p2181
aVSOJVIMG12AB0185DD3
p2182
aVSOVMKBF12A6310F22E
p2183
aa(lp2184
VSOYIRPZ12A6D4FCAB0
p2185
aVSOQETRI12AAF3B2F76
p2186
aa(lp2187
VSOIWMDS12AB017E8D2
p2188
aVSOOACQN12A6310D90F
p2189
aVSOLVXGO12AF72AA0C2
p2190
aVSODXPVT12A6D4FB8F9
p2191
aa(lp2192
VSOFPZIX12A6701CFAD
p2193
aVSOGBYUP12A8C1390B1
p2194
aVSOVGSJK12A58A7C297
p2195
aa(lp2196
VSOIIYNJ12A6D4FE177
p2197
aVSOZUSMF12A8C139D90
p2198
aVSOCJWPI12A8C13D357
p2199
aVSORNWTY12AB0182C29
p2200
aa(lp2201
VSOMHXGP12A8C13A70A
p2202
aVSOMUCFP12A6701F28E
p2203
aa(lp2204
VSOPQQNK12A8C13BF46
p2205
aVSOMMCFN12A6310F12F
p2206
aa(lp2207
VSONLDQF12A8C1364E3
p2208
aVSOXSTVU12A8C1364EA
p2209
aa(lp2210
VSOAJXVW12AB018085C
p2211
aVSORYSGA12A8C134FE9
p2212
aa(lp2213
VSOWHCUL12D02199D88
p2214
aVSODGFLS12D0219050F
p2215
aa(lp2216
VSOIRVTO12A58A77D12
p2217
aVSOSUWCH12AB0187380
p2218
aVSOYXCTI12A8C13CE04
p2219
aa(lp2220
VSONWVYC12A58A7DB0C
p2221
aVSOICKYJ12A6310E910
p2222
aVSOELMWZ12AF72A8845
p2223
aVSOCRRJX12A6701D96A
p2224
aa(lp2225
VSOOZZVS12AB017D0B8
p2226
aVSOFFKWR12D021B2CA2
p2227
aVSORUWOB12A8C136A2D
p2228
aa(lp2229
VSOSDYAS12AB0180457
p2230
aVSOTSYTH12A6701F0E6
p2231
aa(lp2232
VSOXBQDJ12A6D4F93CC
p2233
aVSOXNMQN12AB01831AA
p2234
aa(lp2235
VSOQMMLD12AB017F3CC
p2236
aVSOCPCNY12AB0183CCD
p2237
aa(lp2238
VSOTTDQA12A6D4F8C53
p2239
aVSOGJMTM12A6310E17B
p2240
aa(lp2241
VSOCTSGO12AC468A14D
p2242
aVSORHLNA12A6701F0B6
p2243
aa(lp2244
VSOGZTJI12A6701E100
p2245
aVSOXKZES12AB01883C7
p2246
aVSOBOMJI12A8C13E40F
p2247
aa(lp2248
VSONMNYH12A8C131C99
p2249
aVSOCCPFI12A6D4F6E0E
p2250
aVSOYCIJO12AB0180D6F
p2251
aa(lp2252
VSOPMPIG12AB018076F
p2253
aVSOLZUOI12AB018713E
p2254
aa(lp2255
VSOUFRAV12A8C13AC31
p2256
aVSODRQUV12A8C137B0B
p2257
aa(lp2258
VSOGPZUW12A8C13FAAC
p2259
aVSOZKDMB12B0B80C4AC
p2260
aa(lp2261
VSOEUDUO12B0B806673
p2262
aVSOBNLES12A679C8053
p2263
aa(lp2264
VSOWKEKB12A6310E969
p2265
aVSOWZKJE12A8C134D52
p2266
aVSOOCRKC12D0219917F
p2267
aa(lp2268
VSOUUBNX12A8C140A57
p2269
aVSOMDIFH12A6310F24B
p2270
aVSOHGBPZ12A6D4FA7E7
p2271
aVSOIHIYB12A6701EEB3
p2272
aa(lp2273
VSOTOKGH12AB0186D6F
p2274
aVSOCIEBJ12A8AE46AA3
p2275
aa(lp2276
VSONPJIJ12A6701F0B0
p2277
aVSOKFOUH12A8C133C16
p2278
aa(lp2279
VSOYRVSC12A6D4F8F4F
p2280
aVSOHXXKA12AB0187136
p2281
aVSOKHHVK12A8AE48182
p2282
aa(lp2283
VSOLZUOI12AB018713E
p2284
aVSOMUCFP12A6701F28E
p2285
aVSODAOII12AF729D951
p2286
aa(lp2287
VSOHVIGB12A8C1430F6
p2288
aVSOAFSVB12AB01858A6
p2289
aa(lp2290
VSOTQAZQ12AB0187D00
p2291
aVSOKTEUU12CF5F88920
p2292
aa(lp2293
VSOEAIGE12A8C1362F7
p2294
aVSOYHLBG12A8C139398
p2295
aa(lp2296
VSONFKXT12AB0187C95
p2297
aVSORDYVO12A8C141A40
p2298
aVSOJPJRR12A8C13D0B9
p2299
aa(lp2300
VSOMBQJN12A8C13936B
p2301
aVSOQZZKR12AF72A9F8B
p2302
aa(lp2303
VSOYHLBG12A8C139398
p2304
aVSOEAIGE12A8C1362F7
p2305
aa(lp2306
VSOJWIDQ12A58A7A588
p2307
aVSOZKDMB12B0B80C4AC
p2308
aa(lp2309
VSOBMQNQ12AB0184AAC
p2310
aVSOPKVQT12A6701FB27
p2311
aVSOOASRI12A8C136D8E
p2312
aVSOIOTFC12AF72A59FD
p2313
aa(lp2314
VSOPQJKW12A58A7AB38
p2315
aVSORBGRZ12D021B2802
p2316
aVSOIHMBV12A6D4FD90D
p2317
aa(lp2318
VSOGLZCT12A6D4FAF98
p2319
aVSOEMFBP12AB017FD35
p2320
aa(lp2321
VSOGJMTM12A6310E17B
p2322
aVSOSKKUE12AB0180108
p2323
aVSOWEWRL12A58A7961F
p2324
aa(lp2325
VSOHWBGO12A6D4FA87A
p2326
aVSOFNYUS12A8C135F9F
p2327
aVSOOZZVS12AB017D0B8
p2328
aVSOZNXMN12A8C1439A9
p2329
aVSOUDCZB12A8C139033
p2330
aVSOFHATH12AF72A8C8C
p2331
aa(lp2332
VSOBCKWQ12A6D4F736B
p2333
aVSOERPBX12A81C234C5
p2334
aa(lp2335
VSOYWOGW12AB018E2BA
p2336
aVSOSPYYA12A8C1385B7
p2337
aVSOHYXSQ12A6D4F9699
p2338
aVSOOHOEG12A8AE474EA
p2339
aVSOQUFVY12AB018ABC0
p2340
aVSOCNHHN12AC3DFB01F
p2341
aVSODYHRO12AB018B08A
p2342
aVSOALJTF12A6310E8DA
p2343
aVSOFGFXU12AF729F55C
p2344
aa(lp2345
VSOKYVVZ12A8C13CC1F
p2346
aVSOVLNNR12AB017EF32
p2347
aa(lp2348
VSOIVYWK12A6310DBE1
p2349
aVSOPWGOX12A6701F9E1
p2350
aa(lp2351
VSOMGHMR12A6D4F82FC
p2352
aVSOTJXAQ12A8C13E0C3
p2353
aa(lp2354
VSOJLAIG12A6D4F7D6B
p2355
aVSODGVXC12A8C137B07
p2356
aVSOEFCXI12A8C13D670
p2357
aa(lp2358
VSOBDVAK12AC90759A2
p2359
aVSOMJZLT12A8C140186
p2360
aa(lp2361
VSOQHBCM12A8C13D672
p2362
aVSOFKDOF12A6310E990
p2363
aa(lp2364
VSOKZPCE12CF5F88327
p2365
aVSOCFUAW12AB017EFB6
p2366
aVSOKSZEI12A8AE46E1A
p2367
aVSOORCWC12A6310EA5E
p2368
aVSORKERW12AB0183DA2
p2369
aa(lp2370
VSODVOXR12A58A7A060
p2371
aVSOHWBGO12A6D4FA87A
p2372
aVSOVZSCE12B0B806C00
p2373
aa(lp2374
VSOUMOMJ12A6701DFDC
p2375
aVSOLOJQS12A8C132C27
p2376
aa(lp2377
VSONICDM12AB0183A5D
p2378
aVSOFFHFE12A58A7C19A
p2379
aa(lp2380
VSOJONTI12AC468B774
p2381
aVSORARKX12A58A75FB8
p2382
aa(lp2383
VSOEHKIP12A6D4F97E7
p2384
aVSOBGAVK12A6310F10A
p2385
aVSOLIQUE12A58A78306
p2386
aa(lp2387
VSOIOTFC12AF72A59FD
p2388
aVSOSLZXV12A8C1354C9
p2389
aa(lp2390
VSOFZECY12A6D4FA1DA
p2391
aVSOVSWBY12A8C13D206
p2392
aa(lp2393
VSOCLQXP12A8C143630
p2394
aVSOZSYYS12A8C13C04F
p2395
aa(lp2396
VSOTGOSH12A6701F127
p2397
aVSOXUOKM12AB017FE02
p2398
aVSOWZSEB12A6D4F3C95
p2399
aVSOWUPIA12A58A7CEA5
p2400
aa(lp2401
VSOVEWZT12AB017C008
p2402
aVSOKWIGA12A6701F130
p2403
aa(lp2404
VSORWOEA12AF72A3880
p2405
aVSOBXUHH12A8C137D54
p2406
aVSOZMCPU12A8C1405F0
p2407
aa(lp2408
VSOLJKNP12AC3DFB030
p2409
aVSOMQMFR12A8C137B1F
p2410
aa(lp2411
VSOAOPHC12A8C13CDF7
p2412
aVSOCMQFQ12A81C2098C
p2413
aVSOXLOYZ12A6D4FC3A9
p2414
aVSOEFJXY12AB018AB05
p2415
aVSOEXFZQ12A6D4FC33E
p2416
aa(lp2417
VSOASKMA12AB017ED10
p2418
aVSOIXFQP12A81C2327A
p2419
aVSOIEDMT12A6D4F9A09
p2420
aVSOAJXFD12AB0183ACD
p2421
aa(lp2422
VSOBGAVK12A6310F10A
p2423
aVSOTNKOM12AB017EAB3
p2424
aa(lp2425
VSOHUVIV12A6D4F9827
p2426
aVSOJYPCG12AB0180A65
p2427
aa(lp2428
VSOSAGCZ12A6D4F7FC6
p2429
aVSOIDPRL12AB017EC07
p2430
aa(lp2431
VSOZKDMB12B0B80C4AC
p2432
aVSOHXRVD12A8C131266
p2433
aa(lp2434
VSOSLZXV12A8C1354C9
p2435
aVSOZNXMN12A8C1439A9
p2436
aa(lp2437
VSOODMPS12A8AE4842A
p2438
aVSOLJYEI12A8C13F7B3
p2439
aa(lp2440
VSOOCYQI12A8C132F15
p2441
aVSOPOAOO12AB0185863
p2442
aa(lp2443
VSOJYOKS12A8C1388E6
p2444
aVSOMFUWD12AB01845C5
p2445
aa(lp2446
VSOKSRPB12A8C131A5E
p2447
aVSOATAAV12A8C1424D2
p2448
aVSOWKGCO12AC4687E42
p2449
aa(lp2450
VSOGBLMI12AB01856AC
p2451
aVSOIQZXP12AF72A2044
p2452
aVSOJQZGT12AC4684FE4
p2453
aVSODKTET12A8C13125A
p2454
aa(lp2455
VSOHDTPZ12AB018B590
p2456
aVSOALJTF12A6310E8DA
p2457
aa(lp2458
VSOJRSDV12A6701D936
p2459
aVSOAHMNB12A8C130EE8
p2460
aa(lp2461
VSOYGPCH12A8151BD66
p2462
aVSOAXGBS12A6310E17A
p2463
aa(lp2464
VSOKYVVZ12A8C13CC1F
p2465
aVSOZKDMB12B0B80C4AC
p2466
aVSOSMDZW12A58A79015
p2467
aVSOYHLBG12A8C139398
p2468
aVSOQTHIJ12A6D4F8A26
p2469
aVSOWQQQJ12A670208EB
p2470
aVSOLJWIQ12A6D4FA875
p2471
aVSOCWGDQ12A67021CD9
p2472
aVSOCZTMT12AF72A078E
p2473
aVSOOFVEG12A8C1380D4
p2474
aa(lp2475
VSOCRVKB12AB017AA1C
p2476
aVSOHVIGB12A8C1430F6
p2477
aVSOCJWZY12A67021D18
p2478
aa(lp2479
VSOVDKCX12A8C134378
p2480
aVSOUQKMD12A8C130ED9
p2481
aVSOISCKG12A8C13212D
p2482
aVSOTBYQW12A6D4FE74B
p2483
aVSOKJQFF12A8C1360FD
p2484
aa(lp2485
VSOAAUFR12D021925B6
p2486
aVSOPXKYD12A6D4FA876
p2487
aa(lp2488
VSOVFWZD12D02191C02
p2489
aVSOOGJOQ12AF72AB00E
p2490
aa(lp2491
VSOBUJAW12AB0184040
p2492
aVSOCNPTC12A8C144911
p2493
aVSOFLDOK12A8C13E8F7
p2494
aVSORQSRC12A8C13420C
p2495
aVSOBRQFE12A8C142A54
p2496
aVSOQXVHS12A58A78837
p2497
aVSOICYCD12AC3DFB03C
p2498
aa(lp2499
VSOXNMQN12AB01831AA
p2500
aVSOEGCSN12A81C225A4
p2501
aVSOUGVQS12A8C1307B6
p2502
aVSOBAPJF12A670208FD
p2503
aVSOWPFRJ12A8C13EC0F
p2504
aVSOCFKHP12A8C13B931
p2505
aVSOXDLRI12AB018409E
p2506
aVSOPRZBV12A6D4FC2A0
p2507
aVSOZKDMB12B0B80C4AC
p2508
aa(lp2509
VSOEFTHE12A6D4FA79D
p2510
aVSOXUPXV12A6701FAA7
p2511
aa(lp2512
VSOTTTOP12A58A7B8AD
p2513
aVSOLLMFO12A81C21749
p2514
aVSOWTXCN12A6701DFAF
p2515
aVSOXOURR12AB0186379
p2516
aa(lp2517
VSOSJLXU12A6310F2B2
p2518
aVSOECIFL12A6D4F78FE
p2519
aVSOOXRJG12A8C13773E
p2520
aVSOSKWGF12A8C141C39
p2521
aa(lp2522
VSOYGPKN12A6D4FAF3D
p2523
aVSOOOMOR12A6D4F6995
p2524
aVSODQTJM12A8C13F66A
p2525
aVSOOSUOP12A6D4FBEA1
p2526
aVSOUAHAL12A6701C924
p2527
aa(lp2528
VSOEDPCF12A8AE44BF0
p2529
aVSOEKEJG12A6D4FBD6B
p2530
aa(lp2531
VSOVBPVD12A8C144C18
p2532
aVSOQVONK12A6D4F405D
p2533
aVSOANWOX12A8C135ADD
p2534
aa(lp2535
VSOEERSL12A6701F6FE
p2536
aVSOGGBYJ12A8C13CE4E
p2537
aVSOILZBZ12AC3DFAA3E
p2538
aa(lp2539
VSOFGPAQ12A6D4FA36D
p2540
aVSOWBMEV12A8C130EF5
p2541
aVSOYWRJH12A8C13BC6E
p2542
aa(lp2543
VSOAKQDM12A6701BFD3
p2544
aVSOPQFUC12A8C1445BB
p2545
aVSOMJZLT12A8C140186
p2546
aa(lp2547
VSOBRIXB12AB0182257
p2548
aVSONESBK12A6D4F750C
p2549
aVSOBEZUO12A8C135B73
p2550
aa(lp2551
VSOESZML12A8C13EE75
p2552
aVSODUTPI12CF56626B5
p2553
aa(lp2554
VSOSZPUK12A6701CD77
p2555
aVSOAPOAZ12A6D4F5147
p2556
aa(lp2557
VSOKLHVK12A8C13404F
p2558
aVSORKQLX12A6D4F8A60
p2559
aa(lp2560
VSOGYELC12D021B12AB
p2561
aVSOODPSC12A6D4F6220
p2562
aVSOMTEGI12B34F1C789
p2563
aa(lp2564
VSOBSNNU12A8C140F01
p2565
aVSOUUMKG12A6D4FB43D
p2566
aa(lp2567
VSOWRUTR12AB01860BE
p2568
aVSOWXTJA12A8C137B1D
p2569
aVSORWOEA12AF72A3880
p2570
aa(lp2571
VSOSYMOP12AB01891B9
p2572
aVSOKHQUE12AB0181925
p2573
aVSOKCCAJ12AAF3B527B
p2574
aa(lp2575
VSOWBYAL12B0B807B49
p2576
aVSOHOJJF12A58A807AB
p2577
aVSODXPEL12A8C13B6A0
p2578
aa(lp2579
VSODVULJ12A58A7CA4D
p2580
aVSORPBWE12A6701F6B1
p2581
aVSOAJCSA12AC468C991
p2582
aa(lp2583
VSOSMPWJ12AB0186C73
p2584
aVSOSLUAF12A8C132AF8
p2585
aVSOTVRRL12B0B80615C
p2586
aa(lp2587
VSONPJIJ12A6701F0B0
p2588
aVSOTKTDY12AB01879BC
p2589
aa(lp2590
VSONAQRQ12AB017FD0B
p2591
aVSOLEKRH12A6310EA5C
p2592
aa(lp2593
VSOFLDOK12A8C13E8F7
p2594
aVSOEDQBM12A6701E0BD
p2595
aVSOWQEXV12A6701E3C4
p2596
aVSODZDBP12A8C1442C2
p2597
aa(lp2598
VSOQQWFI12A67020F95
p2599
aVSOUCKDH12A8C138FF5
p2600
aVSONDBJB12A8C13125F
p2601
aVSOTLMEP12A6D4F78F0
p2602
aVSOLHUWV12AF72A1557
p2603
aVSOBNLES12A679C8053
p2604
aVSOBOASZ12AB018104B
p2605
aVSOOMBYE12AB018D70C
p2606
aVSODVOXR12A58A7A060
p2607
aa(lp2608
VSONDYTA12A8C14287D
p2609
aVSONKJLG12A6D4F8F73
p2610
aVSOZJWDN12A8151B851
p2611
aVSOPEJLZ12A67021850
p2612
aa(lp2613
VSOESTZQ12A67021556
p2614
aVSOEVYFJ12A6D4F7657
p2615
aVSOGMAUB12A6D4F8E41
p2616
aVSOUDXOX12A6701C538
p2617
aa(lp2618
VSOXNMQN12AB01831AA
p2619
aVSOBMAFJ12A8C137C88
p2620
aVSOUPNIS12AF72A6FB0
p2621
aVSOSVIDH12A8C133544
p2622
aVSOSSMGA12A67020F9A
p2623
aVSOGUBGT12A8C13EAAF
p2624
aVSOERDZS12A6701EB15
p2625
aVSOSKEPU12A8C13CD2E
p2626
aa(lp2627
VSOIHLCZ12A8C13E700
p2628
aVSOCACSK12D0219BF2F
p2629
aVSORRLHG12A8C13772C
p2630
aVSOEDXFM12A8C1459E9
p2631
aVSOWYWFB12CF5F88A8C
p2632
aa(lp2633
VSOHIXIC12A58A79DC5
p2634
aVSOAVCUA12D02198DE3
p2635
aVSONDGEH12A8C144BE1
p2636
aVSOULEIC12A8C143E0A
p2637
aa(lp2638
VSOWMWPK12AB01853AC
p2639
aVSOKXFFZ12AF72A89AD
p2640
aa(lp2641
VSOXDDBS12A8C13B494
p2642
aVSOHIZYZ12A6D4FC352
p2643
aVSOGJMTM12A6310E17B
p2644
aVSOFPMBD12AB018B4EF
p2645
aa(lp2646
VSOCFPSZ12A6D4FCA89
p2647
aVSOFIZRR12A6701EEF1
p2648
aVSOAZOYN12A6701EEF2
p2649
aVSOJITPC12AB018877E
p2650
aVSOMJAEG12A58A7BB99
p2651
aVSOEUANM12A8AE47FD4
p2652
aVSOZQJHZ12A58A77971
p2653
aVSOGEHWA12A81C22D9E
p2654
aVSOTVFIU12AC46878B7
p2655
aa(lp2656
VSOSEVUP12A6D4FA605
p2657
aVSOAQJHG12A6D4FB498
p2658
aa(lp2659
VSOEXFZQ12A6D4FC33E
p2660
aVSOBMWXO12A8C132120
p2661
aa(lp2662
VSOPKNYC12AF72A4BB0
p2663
aVSOPCSGN12AB017CFFA
p2664
aa(lp2665
VSONAVXO12B0B80AF4F
p2666
aVSOMQCLH12A8C137394
p2667
aa(lp2668
VSORGVYS12A8AE48882
p2669
aVSOMRYSL12AB01852A8
p2670
aVSOZVWWU12A8C136D73
p2671
aVSOHHALP12A6D4FB6A8
p2672
aVSODRBNX12A8C132F7E
p2673
aa(lp2674
VSOYXQBU12CF5F88FAA
p2675
aVSOFWDCB12A6D4F9E11
p2676
aa(lp2677
VSOIOSMN12AB018749E
p2678
aVSOSZPDX12A6701FA47
p2679
aa(lp2680
VSOLNGDC12D0219BC28
p2681
aVSOGYSDR12A8AE488B9
p2682
aa(lp2683
VSOJLAGH12A8C1398B2
p2684
aVSOHLXPJ12A8C13269A
p2685
aa(lp2686
VSOHNYQT12A8C13F284
p2687
aVSORDYVO12A8C141A40
p2688
aVSOMIKUU12A58A7B427
p2689
aVSOBJSLW12A6D4F9158
p2690
aVSOFTHRH12A6310E87D
p2691
aVSOBWFXM12AB0182808
p2692
aVSOZZDYR12A8C138D6A
p2693
aVSOEBRFJ12AF72A37AD
p2694
aVSOVLDZB12A81C206F5
p2695
aa(lp2696
VSOZRHFX12A6701CD8A
p2697
aVSONZQPJ12A6702105C
p2698
aVSORSZKX12A8C13B85B
p2699
aa(lp2700
VSOIQZXP12AF72A2044
p2701
aVSOAOCOE12A8C131251
p2702
aVSOVROUJ12A8C13A508
p2703
aa(lp2704
VSOUFRAV12A8C13AC31
p2705
aVSOQKKHU12A6D4F929C
p2706
aa(lp2707
VSOZTGCH12A6D4F64EB
p2708
aVSOYMPFA12A8C141F09
p2709
aa(lp2710
VSOIMHHA12A8C132214
p2711
aVSOEPLVW12AB018614C
p2712
aa(lp2713
VSOXBNSI12A58A7D44B
p2714
aVSOOJHIT12A8AE44BE4
p2715
aa(lp2716
VSOWQRQQ12A6D4FBEF6
p2717
aVSOFVJHW12A6D4FCA7A
p2718
aa(lp2719
VSORZZNU12A6D4FB8F2
p2720
aVSOCMFLE12A8C135AF7
p2721
aVSONIHLI12A6D4F76F3
p2722
aa(lp2723
VSOHILWC12AF729FE67
p2724
aVSOSBMRU12A8AE474FA
p2725
aVSORICKK12A58A7CDD4
p2726
aVSOXUJXJ12A8C133963
p2727
aa(lp2728
VSODHCAZ12A8C13B337
p2729
aVSOSMTTD12AF729F19A
p2730
aa(lp2731
VSOCXSUW12A6D4F60A1
p2732
aVSOPQQNK12A8C13BF46
p2733
aVSOEUKCM12A6D4F8253
p2734
aVSOLUKGT12A67ADF6B0
p2735
aVSOLMZMB12A6D4F8A11
p2736
aVSONYOEQ12A8AE465B4
p2737
aa(lp2738
VSOLSODY12A8C1348AA
p2739
aVSOFWTDB12AF72A3C5C
p2740
aa(lp2741
VSOXFMZO12A6701D019
p2742
aVSONCOXB12A6D4F75F0
p2743
aVSOZKDMB12B0B80C4AC
p2744
aa(lp2745
VSOQZOZB12AB018F176
p2746
aVSONUYHC12B0B807D10
p2747
aa(lp2748
VSOMXWNY12A58A7961C
p2749
aVSOENYZL12A8C136ED9
p2750
aVSOSERZH12A8C142A38
p2751
aa(lp2752
VSOJLTZU12A58A7E3C4
p2753
aVSOVCXOV12AB0180989
p2754
aa(lp2755
VSOKDRXQ12AF72A2ACB
p2756
aVSONVPTP12A6D4F7A34
p2757
aa(lp2758
VSONBNGU12A6701FA99
p2759
aVSOOCYQI12A8C132F15
p2760
aa(lp2761
VSOPNDNI12A6702080F
p2762
aVSOQNLUL12A8C1307AE
p2763
aa(lp2764
VSOJCRUY12A67ADA4C2
p2765
aVSOHQELP12A8C13645A
p2766
aVSOINJVD12A6D4F91D3
p2767
aa(lp2768
VSOKZPCE12CF5F88327
p2769
aVSOBAPJF12A670208FD
p2770
aa(lp2771
VSOZKDMB12B0B80C4AC
p2772
aVSOXDUPR12CF5F87A38
p2773
aa(lp2774
VSOVPKER12A8C13DA60
p2775
aVSOVWHZL12A6D4F9A7C
p2776
aVSOBNPWQ12A58A7A725
p2777
aa(lp2778
VSOEIUZI12AB018504A
p2779
aVSOKUNRJ12AF72A4B55
p2780
aVSOYIRPZ12A6D4FCAB0
p2781
aVSOWPRYI12A58A7B51A
p2782
aVSOFMPOX12A6701D688
p2783
aVSOWKEUN12AF72AB837
p2784
aa(lp2785
VSOVNRPV12A58A81454
p2786
aVSOJXCFK12AF72A1B7C
p2787
aa(lp2788
VSOXFMZO12A6701D019
p2789
aVSOQCBHW12D021997C8
p2790
aa(lp2791
VSORBGRZ12D021B2802
p2792
aVSOMUCFP12A6701F28E
p2793
aVSOEMZYC12A6D4FA619
p2794
aa(lp2795
VSOKUFKZ12A6D4FB9C2
p2796
aVSOMVBHV12A8C13D0A0
p2797
aVSOCATTQ12A8C141E86
p2798
aa(lp2799
VSORKYUV12A8C139AA3
p2800
aVSOFTPGU12A8C135C94
p2801
aa(lp2802
VSOCVHMA12AB0185829
p2803
aVSOWZMGC12AB018612C
p2804
aa(lp2805
VSOQSUKO12A6701FA9D
p2806
aVSOMWBJM12A6702048C
p2807
aVSOPPRIE12AAA8C598A
p2808
aVSOGIFHM12A670207B7
p2809
aVSOVRYLZ12A8C142330
p2810
aVSOAXGBS12A6310E17A
p2811
aa(lp2812
VSOKRYXH12A6701D468
p2813
aVSOVPKER12A8C13DA60
p2814
aVSOVWHZL12A6D4F9A7C
p2815
aVSOBNPWQ12A58A7A725
p2816
aa(lp2817
VSOCOPCJ12A58A7BFD5
p2818
aVSOAYWEZ12A8C140059
p2819
aa(lp2820
VSOWFKTM12A6D4F954D
p2821
aVSOLMSQN12A8C1312DE
p2822
aVSOAFQYQ12AB017EC12
p2823
aa(lp2824
VSOWJOPI12A6310E272
p2825
aVSOSBAIR12A6D4F8480
p2826
aa(lp2827
VSONKLUS12A6D4F789B
p2828
aVSOXKTAV12A58A7E199
p2829
aa(lp2830
VSOEBNYF12D02198918
p2831
aVSORICIC12A58A79A0A
p2832
aVSOKXVBM12AB018EB0C
p2833
aa(lp2834
VSOGZTJI12A6701E100
p2835
aVSOWFALZ12A8C13D677
p2836
aVSOSOJGE12A8C1363D6
p2837
aa(lp2838
VSOENOLX12A8C13C65B
p2839
aVSOJRGSB12A8159E8CD
p2840
aVSOCGDFI12A8C137B08
p2841
aVSOFZBLV12D0219A746
p2842
aa(lp2843
VSOVJYXY12AC468A93E
p2844
aVSOMNULF12A8C135F65
p2845
aVSOJSZKL12A8C13A691
p2846
aa(lp2847
VSOZKDMB12B0B80C4AC
p2848
aVSOLUKGT12A67ADF6B0
p2849
aVSORMUIW12A6D4F4CBA
p2850
aVSOHLLST12A6D4F777A
p2851
aVSOYOAAB12AB0182D25
p2852
aa(lp2853
VSONQBUB12A6D4F8ED0
p2854
aVSOVXSJM12AF72A2AFD
p2855
aVSOIPHIT12A58A7ECF8
p2856
aa(lp2857
VSORPBWE12A6701F6B1
p2858
aVSOEGPXE12AF729FC3B
p2859
aVSOJSWGE12AF72A6DA7
p2860
aVSOSZPDX12A6701FA47
p2861
aVSOFAFRF12A58A7D766
p2862
aa(lp2863
VSOZBUXE12A6D4FA352
p2864
aVSOELXVD12AF72AA37A
p2865
aa(lp2866
VSOKRACG12A8C1438AC
p2867
aVSOCFPFR12A8C1439EF
p2868
aVSOAPXWU12AB0185F99
p2869
aa(lp2870
VSOIIVGZ12A8C1320CF
p2871
aVSOMEGDD12CF533D033
p2872
aVSOJUSHW12CF5CFD768
p2873
aVSOKMHKY12AF72AB079
p2874
aVSOAGNRU12A58A7AC5C
p2875
aVSOKYOVA12A6D4F9E65
p2876
aVSOKXJMH12AB0187C52
p2877
aa(lp2878
VSOYLEJQ12A8C136363
p2879
aVSOJLUJZ12A8C136298
p2880
aa(lp2881
VSOSKKUE12AB0180108
p2882
aVSOVUBJC12D021B3D35
p2883
aa(lp2884
VSOMUCFP12A6701F28E
p2885
aVSOOACQN12A6310D90F
p2886
aa(lp2887
VSOILGZL12A8C1413D7
p2888
aVSOAXGBS12A6310E17A
p2889
aVSOONKIW12A58A7B5A2
p2890
aVSOYVTUO12CF5F87BC6
p2891
aa(lp2892
VSOMQHZK12A6D4F8074
p2893
aVSODATBN12A6D4FD7AE
p2894
aa(lp2895
VSOGBUJP12AAF3B52A7
p2896
aVSOORCWC12A6310EA5E
p2897
aa(lp2898
VSOCPNNV12A6D4F74DD
p2899
aVSOQLZXJ12A6D4F63CA
p2900
aa(lp2901
VSOSHYIS12A8C142272
p2902
aVSOIPHIT12A58A7ECF8
p2903
aa(lp2904
VSOMAOJV12A67020F91
p2905
aVSOCNPTC12A8C144911
p2906
aa(lp2907
VSOCTEXM12AC4686774
p2908
aVSOXDUPR12CF5F87A38
p2909
aVSOHKEYV12AF72AC678
p2910
aa(lp2911
VSOZZQPL12AB0181B00
p2912
aVSOVPKER12A8C13DA60
p2913
aVSOMJZLT12A8C140186
p2914
aa(lp2915
VSOOGNOC12D02198D6B
p2916
aVSOEJWCU12A8AE461FF
p2917
aa(lp2918
VSOEDDJN12AB018461A
p2919
aVSOHWLCX12A58A7AAEA
p2920
aVSOADISH12AB018DFAC
p2921
aa(lp2922
VSOAVNBD12A6D4F884C
p2923
aVSOZKDMB12B0B80C4AC
p2924
aa(lp2925
VSOXSXEF12A6701F6A5
p2926
aVSOJWOZX12AF72A04E5
p2927
aVSONOOYW12AB018451F
p2928
aa(lp2929
VSOUGJVR12AB017F07F
p2930
aVSOTTQAF12A6310F21D
p2931
aVSOAJCSA12AC468C991
p2932
aa(lp2933
VSOKYIDV12A58A7956A
p2934
aVSOHWRJH12A8C139AFC
p2935
aa(lp2936
VSOKEUYU12A67ADF7E6
p2937
aVSOKJSGT12AB0183D54
p2938
aVSOMWJKM12A8C14662A
p2939
aa(lp2940
VSOMLSAV12AF72A1D53
p2941
aVSOQAWJC12A6D4F66F2
p2942
aVSONGEAY12AF72AA53B
p2943
aa(lp2944
VSOKGLWL12AB01846C1
p2945
aVSOQJQPJ12A6D4F45CC
p2946
aVSOGMCAI12A8C13AB67
p2947
aVSOPLBKW12A6D4F9A4F
p2948
aVSOEVTSI12AB01898CF
p2949
aa(lp2950
VSOYVIAO12A8C13A22C
p2951
aVSOIPUCH12A8C135A25
p2952
aa(lp2953
VSOHWBGO12A6D4FA87A
p2954
aVSOAZOYN12A6701EEF2
p2955
aVSOCRRFM12A8C1355AE
p2956
aVSOFRVRA12A6D4F7D71
p2957
aa(lp2958
VSOUGDQZ12AB017CE00
p2959
aVSOPXFAU12A6701F6EE
p2960
aVSOVNCNR12A6310DFD6
p2961
aVSOQPKMW12A6310D993
p2962
aa(lp2963
VSOBMAFJ12A8C137C88
p2964
aVSOCXDBM12A6D4FB3FC
p2965
aVSODTGOI12A8C13EBE8
p2966
aVSOJCBAM12A6701FD04
p2967
aVSOMPRGY12A6D4F8426
p2968
aVSOIDKMK12A67AE0DD6
p2969
aVSOMTEGI12B34F1C789
p2970
aa(lp2971
VSOEQIQI12A8C138C24
p2972
aVSOCPMIK12A6701E96D
p2973
aa(lp2974
VSOSAUVD12A67ADE6AE
p2975
aVSOTVFIU12AC46878B7
p2976
aa(lp2977
VSOEQLER12AB0185CCD
p2978
aVSOWFNFZ12AB0185CD9
p2979
aa(lp2980
VSORTHVW12A6D4FA1DD
p2981
aVSOJREMI12AF72A4D34
p2982
aa(lp2983
VSOBMJTV12A6310F31A
p2984
aVSOGCWFB12A8C13EC24
p2985
aVSOQFVJZ12AB017B5E6
p2986
aa(lp2987
VSOMKLBG12A6D4F9F21
p2988
aVSOTWGMK12A6310F326
p2989
aVSOFBAUD12AF72A3183
p2990
aVSOEEGKC12A6310E003
p2991
aVSOHINHP12A8C13AF31
p2992
aVSOCIMVO12A6D4F8AB6
p2993
aa(lp2994
VSOBKGSH12A6310EE00
p2995
aVSOIBPQQ12A6310F0F4
p2996
aVSOMYHCF12AB0187701
p2997
aVSOJQZGT12AC4684FE4
p2998
aa(lp2999
VSOQQHHG12A8C132A5B
p3000
aVSOZMCPU12A8C1405F0
p3001
aVSOQJQPJ12A6D4F45CC
p3002
aa(lp3003
VSOYMUJE12A8C13FD26
p3004
aVSOCSSXQ12A6D4F8226
p3005
aa(lp3006
VSOYIRPZ12A6D4FCAB0
p3007
aVSOQETRI12AAF3B2F76
p3008
aa(lp3009
VSOIWMDS12AB017E8D2
p3010
aVSOHILWC12AF729FE67
p3011
aa(lp3012
VSONELFF12A6D4F78B1
p3013
aVSODXPVT12A6D4FB8F9
p3014
aVSOHGXUU12A6D4F4061
p3015
aa(lp3016
VSOWQJUV12A6701FA45
p3017
aVSOJTWQW12AB0185F37
p3018
aVSOEYTXB12AB01858C8
p3019
aVSOXZRUA12A6D4F7445
p3020
aa(lp3021
VSOKCCAJ12AAF3B527B
p3022
aVSOUSAYC12A58A7D428
p3023
aa(lp3024
VSOLPIVB12A6701F118
p3025
aVSOYOUHY12A8C137B10
p3026
aVSOHUEXF12AB0183420
p3027
aVSOVOYPB12A8C1389A0
p3028
aa(lp3029
VSOVBORF12AC3DF57B6
p3030
aVSOBHFDN12AF72A87F8
p3031
aa(lp3032
VSOOAYQS12A67020A75
p3033
aVSOENNXS12A6701CD98
p3034
aa(lp3035
VSOCKLJW12A8135825E
p3036
aVSOXCRFQ12A8C138D3E
p3037
aa(lp3038
VSOJQZGT12AC4684FE4
p3039
aVSOQAMAK12AB017C383
p3040
aa(lp3041
VSOPBMHE12A8151D703
p3042
aVSOJLINC12A6D4FB2F7
p3043
aVSOAWVNJ12A8C133CB7
p3044
aVSOVZVLG12A6D4F5243
p3045
aVSOJBHPL12A6D4FB2F3
p3046
aa(lp3047
VSOYXWKZ12A6701E7A7
p3048
aVSOGQKIV12A6D4F8413
p3049
aa(lp3050
VSOIDSRL12AF729F4BF
p3051
aVSOSYQMQ12A6D4FAF53
p3052
aa(lp3053
VSOSERZH12A8C142A38
p3054
aVSOBBKGF12A8C1311EE
p3055
aVSOHOETK12CF5F87FF2
p3056
aa(lp3057
VSOJQZGT12AC4684FE4
p3058
aVSOMQFEF12A8C1340D6
p3059
aa(lp3060
VSOANAYR12A8C134201
p3061
aVSOVHJOL12A8C1333D4
p3062
aa(lp3063
VSOZNNFV12AF72A0090
p3064
aVSOQAMKF12D0219369E
p3065
aa(lp3066
VSOANWOX12A8C135ADD
p3067
aVSOQPCVN12AF729FB85
p3068
aa(lp3069
VSOLRAGY12A58A775AE
p3070
aVSOMIEDP12A6D4FD1C8
p3071
aa(lp3072
VSOZKWRO12A8C14236F
p3073
aVSOLIAQG12A8C134A41
p3074
aa(lp3075
VSOOCWHK12A8C137627
p3076
aVSOEGQWM12A6D4F48A8
p3077
aVSOWPVXY12A8C13B814
p3078
aVSOMUCFP12A6701F28E
p3079
aVSOWDUTV12A67020692
p3080
aVSOOCRKC12D0219917F
p3081
aVSOAVZDO12A8AE47FE2
p3082
aVSOCWVCW12AAF3B2F24
p3083
aVSOZYSJA12AB0182E9E
p3084
aVSOKYYQU12A8AE46E26
p3085
aVSOYHLBG12A8C139398
p3086
aVSOTMPBN12AB01830E4
p3087
aVSOHVHIR12AB017FC3E
p3088
aVSOXIKFY12AB0184035
p3089
aVSOHTDUI12A8C136662
p3090
aVSOBBGTM12A6D4F6199
p3091
aVSOXWIWP12A67020CDB
p3092
aa(lp3093
VSOZNTAD12A67ADE6AD
p3094
aVSORGVYS12A8AE48882
p3095
aVSOURSQW12AB017C987
p3096
aa(lp3097
VSOOFAQQ12CF5465266
p3098
aVSOXNJQL12AB0186983
p3099
aa(lp3100
VSODJARL12A8C13861E
p3101
aVSORUPSG12AB0187CA4
p3102
aa(lp3103
VSOTJLMM12A8C135AE9
p3104
aVSONKMBE12A8C137F81
p3105
aVSOFLTSF12A8C135F71
p3106
aa(lp3107
VSOAINNA12AB017D8D5
p3108
aVSOHRVOM12AB0187CC1
p3109
aa(lp3110
VSOCGNHR12A6D4F69E0
p3111
aVSOWQNJW12A6D4F69DB
p3112
aa(lp3113
VSOHIJIQ12A6310D913
p3114
aVSOCGJND12A6D4FBD31
p3115
aVSOTJRCG12A679C808D
p3116
aa(lp3117
VSOUYLBM12A58A818CB
p3118
aVSOFZOTX12A67ADF6DB
p3119
aa(lp3120
VSOIFEAC12AB018C497
p3121
aVSOBLNPW12A58A78B95
p3122
aa(lp3123
VSOBARLM12A8C13781C
p3124
aVSOTDPWU12A8AE47B2B
p3125
aa(lp3126
VSOMRYYN12A6310F0F3
p3127
aVSOZBZFF12A6310F12D
p3128
aa(lp3129
VSOLJKNP12AC3DFB030
p3130
aVSONLPZH12AB01843BA
p3131
aVSOHBTXV12A6701F976
p3132
aVSONKMFR12A6D4F750E
p3133
aa(lp3134
VSOBBDDR12A6D4F8A0C
p3135
aVSOFEXYL12AF729FB58
p3136
aa(lp3137
VSOXHCMZ12A6D4F74E5
p3138
aVSOQYEVA12A6D4F89E5
p3139
aVSOGOLRD12A6D4F89E9
p3140
aVSOHUSJF12CF5CFC54C
p3141
aVSOHTEJN12A58A783FF
p3142
aVSOFMBJI12A6D4F89F3
p3143
aa(lp3144
VSODPIWR12AC3DFB054
p3145
aVSOAHFHX12A6702148F
p3146
aVSOAMGLD12AF72A38C5
p3147
aa(lp3148
VSOBMSJK12A6701F980
p3149
aVSOBUHDI12A6701E5BA
p3150
aa(lp3151
VSOGYLQB12A6D4F89E2
p3152
aVSOTVSBY12A6D4F74D8
p3153
aVSOAOYSQ12A6D4F74DB
p3154
aa(lp3155
VSOUHDKF12A6D4F89FC
p3156
aVSOBPAEP12A58A77F49
p3157
aa(lp3158
VSOESGPR12A81C22DB4
p3159
aVSOHANXF12CF5F87974
p3160
aa(lp3161
VSOQZOKD12AF72A7499
p3162
aVSOEVMJC12A6D4FAED1
p3163
aa(lp3164
VSOLNDJE12A6D4FA336
p3165
aVSOBXUHH12A8C137D54
p3166
aa(lp3167
VSONWOHJ12A6D4F920A
p3168
aVSOHPYOS12A8C13D08F
p3169
aa(lp3170
VSOQQINU12A8151B866
p3171
aVSOLCEUG12A58A79898
p3172
aVSOAOPHC12A8C13CDF7
p3173
aVSOUTZRW12A6310E16C
p3174
aa(lp3175
VSOEXTKX12A8C133699
p3176
aVSOWLKGF12AB017E647
p3177
aa(lp3178
VSONZXCJ12A81C22596
p3179
aVSODVULJ12A58A7CA4D
p3180
aVSOFFOIF12A6310D90E
p3181
aVSOVQSZA12AF72A3633
p3182
aa(lp3183
VSOZUMNX12AB0184C8F
p3184
aVSOHWBGO12A6D4FA87A
p3185
aa(lp3186
VSOFGHCY12A6D4FB15B
p3187
aVSOSNOWI12AB01850AD
p3188
aa(lp3189
VSOIVGYQ12A67020467
p3190
aVSONQBBD12A8AE47D66
p3191
aVSOLZUOI12AB018713E
p3192
aa(lp3193
VSOUUVUS12A8C1408E0
p3194
aVSOKNQQV12AB018529C
p3195
aVSOHDWQZ12A8C13F555
p3196
aa(lp3197
VSOAERMK12AF72A2595
p3198
aVSOORLVA12A8C142EFD
p3199
aVSOCKADU12AF72A5271
p3200
aa(lp3201
VSOUSNEI12A8C13A19F
p3202
aVSOBLFSK12AC3DF98DB
p3203
aVSOZKDMB12B0B80C4AC
p3204
aa(lp3205
VSONDUWO12A8C13712C
p3206
aVSONYOEQ12A8AE465B4
p3207
aVSOOZCXS12AB017FA50
p3208
aVSOQLTKT12AB018D1D6
p3209
aa(lp3210
VSOIQUGX12AB0181B18
p3211
aVSODQTJM12A8C13F66A
p3212
aVSOKNKXQ12AB0182E29
p3213
aa(lp3214
VSOMIMSB12A58A7B07C
p3215
aVSOYIZMY12AC46870E0
p3216
aVSODKTET12A8C13125A
p3217
aVSOOBOAK12A6D4FA677
p3218
aVSOEAILQ12AF72A4A64
p3219
aVSOYLABQ12A8C135481
p3220
aVSOUEAGF12A8C131FBD
p3221
aVSOASIDK12A81C207C1
p3222
aVSOACNMR12D02190036
p3223
aVSOPOTAZ12A6D4FA225
p3224
aa(lp3225
VSOHLXER12AB0185A77
p3226
aVSOETRJW12A58A7B708
p3227
aVSOYJLRE12AB0186D10
p3228
aa(lp3229
VSOODKYT12A6701E0F8
p3230
aVSORNINT12AB0186297
p3231
aVSONDIMM12A58A7B690
p3232
aVSOMNULF12A8C135F65
p3233
aa(lp3234
VSOAOOXO12AF72A787F
p3235
aVSOJWUDB12A58A7D67F
p3236
aVSOGCJEE12A6701FAE4
p3237
aa(lp3238
VSORENTI12A8C13EE29
p3239
aVSOKGDYE12A58A7CFF3
p3240
aa(lp3241
VSOYVTBB12AF72AC610
p3242
aVSOKBMJS12A8C13D8B2
p3243
aVSOBJQJZ12A8C136D72
p3244
aa(lp3245
VSOBLYCD12A6701F343
p3246
aVSOFLSJQ12A8C133047
p3247
aVSOINYDQ12AB0185B1A
p3248
aa(lp3249
VSOTSTRC12AF72A332B
p3250
aVSOJAJVT12AB017E891
p3251
aa(lp3252
VSOFCAWX12A8C13AA57
p3253
aVSOBBJKN12CF5F873BB
p3254
aVSOWNALB12A58A7932C
p3255
aVSOIQZXP12AF72A2044
p3256
aVSOSPXWA12AB0181875
p3257
aVSOFZLRI12A8C1433C8
p3258
aVSOYDNDN12A58A77663
p3259
aVSORGJGA12A6D4FD9C4
p3260
aVSOJCRUY12A67ADA4C2
p3261
aa(lp3262
VSOEOFAZ12A6701C62E
p3263
aVSOHXGOL12A8C13808C
p3264
aa(lp3265
VSOPQJKW12A58A7AB38
p3266
aVSOLKYJW12A6701C4C8
p3267
aa(lp3268
VSOPQJKW12A58A7AB38
p3269
aVSOIOTFC12AF72A59FD
p3270
aa(lp3271
VSOTGBBO12D0219A24B
p3272
aVSOJYVPY12A8C1442FA
p3273
aVSOIUJZI12A58290F87
p3274
aVSOLSJKY12A8AE4852A
p3275
aVSOFJFYZ12A6D4FBEAD
p3276
aVSOHHALP12A6D4FB6A8
p3277
aa(lp3278
VSOZKDMB12B0B80C4AC
p3279
aVSOQQQMM12A6310DFCC
p3280
aa(lp3281
VSOFYXYD12AB018BE78
p3282
aVSOTMWTV12A8C134846
p3283
aVSOHZINE12A58A7C481
p3284
aa(lp3285
VSOQJWQC12AB018BE78
p3286
aVSOQNLUL12A8C1307AE
p3287
aVSODECVE12AB018E47E
p3288
aVSOUQHFX12AF72A7317
p3289
aa(lp3290
VSOZOTDQ12AB0182CD1
p3291
aVSOLKIAM12B0B809BAE
p3292
aVSOVDYXW12AB017CB97
p3293
aa(lp3294
VSOFJYUF12AB0182402
p3295
aVSOEHVLQ12A8C134E88
p3296
aVSOKVIDV12AB017AFC6
p3297
aVSOBZZDU12A6310D8A3
p3298
aa(lp3299
VSODQHSP12A6D4F81ED
p3300
aVSOMLEFW12A8C13774E
p3301
aa(lp3302
VSOORPXN12A58A7771C
p3303
aVSOKAQQO12A6D4F6A1D
p3304
aa(lp3305
VSOXNFUX12A6701E06E
p3306
aVSODUTPI12CF56626B5
p3307
aa(lp3308
VSOCAAWX12A6D4F7901
p3309
aVSOQGRUZ12A6D4F9035
p3310
aa(lp3311
VSOPDNUK12A8C142D97
p3312
aVSOYFHUC12A6701FDD3
p3313
aa(lp3314
VSOTGRJA12B0B808EA9
p3315
aVSODNNJT12AB0182E70
p3316
aVSODFIOI12A8C13BDE9
p3317
aVSOPZLQK12A8C136017
p3318
aVSOQENQU12A6D4FA2EB
p3319
aa(lp3320
VSORDYVO12A8C141A40
p3321
aVSORKERW12AB0183DA2
p3322
aa(lp3323
VSODMLIR12A6D4FA2F1
p3324
aVSOURKHI12A8C13F90A
p3325
aVSOKHRIW12A6701EEDA
p3326
aa(lp3327
VSOWGSWQ12AF72A659D
p3328
aVSOZWWXP12A8C133B9F
p3329
aVSOARTSF12A8C13983F
p3330
aa(lp3331
VSOOJBRQ12AB01831BE
p3332
aVSOEYXYW12A6D4FAD24
p3333
aa(lp3334
VSOLJZEL12AB018D3B4
p3335
aVSOEWVDH12A67AD94D0
p3336
aa(lp3337
VSOFZBLV12D0219A746
p3338
aVSOSYMOP12AB01891B9
p3339
aVSOJODJU12A6701C616
p3340
aVSOAQJHG12A6D4FB498
p3341
aa(lp3342
VSOBDOJT12A6701E782
p3343
aVSOLHUWV12AF72A1557
p3344
aa(lp3345
VSOFKIRP12A58A7D6AA
p3346
aVSOXHIWC12AC907183E
p3347
aa(lp3348
VSODKFTV12AB018DE20
p3349
aVSOXVIMJ12AB0183D2C
p3350
aa(lp3351
VSOHZYVP12A6D4F98DF
p3352
aVSOMUKPH12A67ADAC05
p3353
aVSOHXWSB12A6D4F7820
p3354
aa(lp3355
VSOVFRMH12AC961847C
p3356
aVSOFBZVX12AB0185203
p3357
aa(lp3358
VSOMNOLG12AB0182BA2
p3359
aVSOCKUIL12A6D4FA84E
p3360
aVSONCOXB12A6D4F75F0
p3361
aa(lp3362
VSOZGDUH12AF72A6DB2
p3363
aVSOHSVAE12A8C13E698
p3364
aVSOAEZCC12B0B80880E
p3365
aa(lp3366
VSOVESZU12AF72AAC11
p3367
aVSOKLGUH12A6701F9C5
p3368
aa(lp3369
VSOFIZRR12A6701EEF1
p3370
aVSOROVGA12AF72A3E23
p3371
aVSOZKDMB12B0B80C4AC
p3372
aVSOCMHVP12B0B806521
p3373
aa(lp3374
VSOEJYBW12A8C134B17
p3375
aVSOPQJKW12A58A7AB38
p3376
aVSOTCLCI12A58A7A94C
p3377
aa(lp3378
VSOOHZKW12A8C135BA0
p3379
aVSOROJER12A8C140911
p3380
aVSOEMKGR12A6701FCFD
p3381
aa(lp3382
VSOQHUWM12A8C13AACF
p3383
aVSOFYUQI12A6310F24A
p3384
aVSOOQQDQ12A8AE47CA9
p3385
aa(lp3386
VSODHMNT12A8C143F26
p3387
aVSOCEXUP12A8C139796
p3388
aVSOBITKZ12CF582660A
p3389
aVSOFDDKC12AB018E2D7
p3390
aVSOMZYJG12A8C14138C
p3391
aVSOENAJB12A8C13F2FC
p3392
aVSOUQKMD12A8C130ED9
p3393
aVSODRKWR12D0219A551
p3394
aa(lp3395
VSOHPESC12A6D4F9873
p3396
aVSOMUCFP12A6701F28E
p3397
aVSOXWAEI12A58A7CD9F
p3398
aa(lp3399
VSOOUXTL12AB01808C1
p3400
aVSOLNDJE12A6D4FA336
p3401
aa(lp3402
VSOODMPS12A8AE4842A
p3403
aVSOJTKUX12A8C1339C0
p3404
aVSOCTRUR12AF72A0A90
p3405
aVSOSAGCZ12A6D4F7FC6
p3406
aVSOHWPPS12A670205ED
p3407
aVSOUYOKR12AB017CFE9
p3408
aa(lp3409
VSOUFQHD12A6D4FA68E
p3410
aVSOBAPJF12A670208FD
p3411
aa(lp3412
VSOSYMOP12AB01891B9
p3413
aVSOBFDWJ12AB018B5E3
p3414
aVSOKTXJS12A6701F2F6
p3415
aa(lp3416
VSOFBGYH12A6701F0CB
p3417
aVSOEGJEB12D02192678
p3418
aa(lp3419
VSONSBZR12A3F1EB1B4
p3420
aVSOCLJWP12AB0188285
p3421
aVSOTKDBW12A6D4F761A
p3422
aVSOQXDBN12A6D4F97A8
p3423
aVSOXVCUB12AF729FAE7
p3424
aVSOBZVFP12A58A8129D
p3425
aVSOVFYFW12A8C131F0D
p3426
aVSOEZOJK12A8C131447
p3427
aVSOPNQEW12A8C13756E
p3428
aVSOSGEPP12D021B0C83
p3429
aa(lp3430
VSOEPXVB12A6D4FB42A
p3431
aVSOVJVRG12A67AD9360
p3432
aVSOSSIFU12A6D4F6EF3
p3433
aVSOIVSXV12AB0181554
p3434
aVSODRVMJ12A8C13E5BB
p3435
aa(lp3436
VSOBITKZ12CF582660A
p3437
aVSOGFYOC12A6D4FA6E8
p3438
aVSORSZKX12A8C13B85B
p3439
aa(lp3440
VSONWHQP12A6310E8CB
p3441
aVSORPAZI12A8C13EB5C
p3442
aa(lp3443
VSOCYXFK12A8C13F71E
p3444
aVSOUSDKZ12AC392626A
p3445
aa(lp3446
VSOAQJHG12A6D4FB498
p3447
aVSOFCNJP12A8C13DD78
p3448
aa(lp3449
VSOQHHLA12A6D4FC15B
p3450
aVSOSANEH12AB018054E
p3451
aa(lp3452
VSOVFVIL12AB018983E
p3453
aVSOPKIJE12A8C13EA48
p3454
aa(lp3455
VSOIBPQQ12A6310F0F4
p3456
aVSOIPHIT12A58A7ECF8
p3457
aVSOITYIS12A6310F230
p3458
aVSOUEAGF12A8C131FBD
p3459
aVSOXQJST12A6D4F9A4C
p3460
aVSOMAOJV12A67020F91
p3461
aa(lp3462
VSORIIPU12A6D4F712F
p3463
aVSOPXFAU12A6701F6EE
p3464
aVSOUQKMD12A8C130ED9
p3465
aa(lp3466
VSOZNTAD12A67ADE6AD
p3467
aVSORIKLE12A6D4F92A6
p3468
aa(lp3469
VSOUBUJX12A8C134755
p3470
aVSOCJWZY12A67021D18
p3471
aVSOJQZGT12AC4684FE4
p3472
aa(lp3473
VSOHXRVD12A8C131266
p3474
aVSOZKDMB12B0B80C4AC
p3475
aa(lp3476
VSOAGPYL12A67AE0ED1
p3477
aVSOTVFIU12AC46878B7
p3478
aVSONDBJB12A8C13125F
p3479
aa(lp3480
VSONIJFN12A6D4F7A7A
p3481
aVSOKBAHA12AB017E3D6
p3482
aVSOUKXIN12A8C133C7F
p3483
aa(lp3484
VSOVDPYT12A8C1317CA
p3485
aVSOIPECI12B0B80A191
p3486
aa(lp3487
VSOXOPLI12A6D4F93FD
p3488
aVSOOXRJG12A8C13773E
p3489
aVSOSNPDZ12AC468AF21
p3490
aVSOKIHFM12B0B807B55
p3491
aa(lp3492
VSOSLHFN12AC4685CEB
p3493
aVSOTDFAQ12A6D4FB3E1
p3494
aVSOQCHNW12A81C22D83
p3495
aa(lp3496
VSOLXAEZ12A6D4F7D83
p3497
aVSOZBHGK12A8C142BCE
p3498
aVSODOYVB12A8AE46156
p3499
aVSOMIKUU12A58A7B427
p3500
aa(lp3501
VSOECKND12AF72AB34A
p3502
aVSOCAAWX12A6D4F7901
p3503
aa(lp3504
VSOPQJKW12A58A7AB38
p3505
aVSOBAPJF12A670208FD
p3506
aVSONCNWH12AF72A430D
p3507
aVSOFCQGW12A58A7BC25
p3508
aVSOFLDOK12A8C13E8F7
p3509
aVSOFTCXE12A6D4F778B
p3510
aVSOUCKDH12A8C138FF5
p3511
aVSOZKDMB12B0B80C4AC
p3512
aa(lp3513
VSOJYVPY12A8C1442FA
p3514
aVSORPLGQ12A6D4F8D5C
p3515
aa(lp3516
VSOECKND12AF72AB34A
p3517
aVSOROJER12A8C140911
p3518
aVSOKPGXI12A6701F164
p3519
aVSOBPALD12A8C13F8B3
p3520
aa(lp3521
VSOUQKMD12A8C130ED9
p3522
aVSONOMMQ12AB01824B2
p3523
aa(lp3524
VSOFZBLV12D0219A746
p3525
aVSOGHRXK12A8C1373FA
p3526
aVSOAKCFL12A6D4F9CC5
p3527
aa(lp3528
VSOGGBYJ12A8C13CE4E
p3529
aVSOFLDOK12A8C13E8F7
p3530
aa(lp3531
VSOLKHDW12A8C13D8AA
p3532
aVSOXUYUZ12A8C13A67E
p3533
aa(lp3534
VSOCKFSS12A8C132896
p3535
aVSOECVCH12A8C13514B
p3536
aa(lp3537
VSOULJSK12A58A7B674
p3538
aVSOTXHTN12A6D4F87DB
p3539
aVSOYVTUO12CF5F87BC6
p3540
aVSOUPAIC12A81C20720
p3541
aa(lp3542
VSOILGZL12A8C1413D7
p3543
aVSOVMJPQ12AB0186FB4
p3544
aa(lp3545
VSOPQJKW12A58A7AB38
p3546
aVSOIUPNL12A6310D89B
p3547
aa(lp3548
VSOGIHQH12AF72A72DC
p3549
aVSOLZVFP12D021907D6
p3550
aa(lp3551
VSOQZCOQ12B0B8067AA
p3552
aVSOELATK12AB018A61F
p3553
aa(lp3554
VSOHXRVD12A8C131266
p3555
aVSODHZSM12A58A7B5D9
p3556
aa(lp3557
VSOBRMFS12A6D4F658F
p3558
aVSOTKYBW12A8C13C3EA
p3559
aVSOSVPUS12A8C13D6A3
p3560
aVSOOFPVL12AAF3B2598
p3561
aVSORTDSD12A6D4F798B
p3562
aVSOBYFCL12AC468CFEE
p3563
aVSOQPIDC12A58A7CC60
p3564
aVSOJCDEO12A6D4F6D73
p3565
aa(lp3566
VSOIHSWI12A8C13E93F
p3567
aVSOHIJIQ12A6310D913
p3568
aVSOAYAIU12A8C1410EC
p3569
aVSOHFZIT12A8C13CF46
p3570
aVSOHMMUG12A8C14345A
p3571
aVSOUPJHJ12A8C13E6E6
p3572
aa(lp3573
VSOVKNKJ12A6D4FD01D
p3574
aVSOQFZYF12AAF3B2A31
p3575
aVSOAWFJW12AB0181EB5
p3576
aa(lp3577
VSOYYIZX12A6D4FD72C
p3578
aVSODLOFG12AB0184FD9
p3579
aVSOTNCRW12A8C13BBA9
p3580
aa(lp3581
VSOEXFZQ12A6D4FC33E
p3582
aVSOTNZQC12A8C13656F
p3583
aa(lp3584
VSOEFNKQ12A8C13269C
p3585
aVSOJSZKL12A8C13A691
p3586
aVSORQOKM12D021930FF
p3587
aa(lp3588
VSOIKDDT12A81C21919
p3589
aVSOCFPSZ12A6D4FCA89
p3590
aa(lp3591
VSOTWWZV12D02191B01
p3592
aVSOCOIWY12A8C13E047
p3593
aVSOSJFDH12A8C143096
p3594
aa(lp3595
VSOIRLFW12AB0182AA0
p3596
aVSOKCKIO12AB0182045
p3597
aVSOGZTJI12A6701E100
p3598
aVSODKCKX12A8C132C1F
p3599
aVSOPQJKW12A58A7AB38
p3600
aVSONAQRQ12AB017FD0B
p3601
aVSOLKYJW12A6701C4C8
p3602
aa(lp3603
VSOMNULF12A8C135F65
p3604
aVSOTVFIU12AC46878B7
p3605
aVSORRYHJ12AF72A3480
p3606
aVSOTNZQC12A8C13656F
p3607
aVSOSZMLK12A58A796F5
p3608
aVSOQKKHU12A6D4F929C
p3609
aa(lp3610
VSOTSCKX12AB01857AA
p3611
aVSONHCTF12AB018FD9B
p3612
aa(lp3613
VSOMJZLT12A8C140186
p3614
aVSOECUYI12AF729DC3A
p3615
aVSOQRXUX12A8C14497B
p3616
aa(lp3617
VSOCDXHL12A8C137A8A
p3618
aVSOGHIHH12AB01858BB
p3619
aVSOHWDOE12A58A79DD9
p3620
aVSOHHALP12A6D4FB6A8
p3621
aVSOPRUJE12A6D4FD492
p3622
aa(lp3623
VSOQSTLP12A8C13A57F
p3624
aVSOSZPUK12A6701CD77
p3625
aVSOLXAEZ12A6D4F7D83
p3626
aVSOINJVD12A6D4F91D3
p3627
aa(lp3628
VSOYKUXZ12A8C133F39
p3629
aVSOYVXRG12A6701F2F9
p3630
aa(lp3631
VSOKWTFA12AB0183C4A
p3632
aVSOROJER12A8C140911
p3633
aa(lp3634
VSOEVGAK12A6D4F92A5
p3635
aVSODLZVP12A8C13AD62
p3636
aa(lp3637
VSOFFOIF12A6310D90E
p3638
aVSOFNREZ12A8C131268
p3639
aVSOKLGUH12A6701F9C5
p3640
aVSOGHTML12AF72A57D4
p3641
aVSOXJWKH12A6D4FA059
p3642
aVSOVWIPG12A8C1311AE
p3643
aVSOAKFQG12A8AE48426
p3644
aa(lp3645
VSOPQZTX12A6D4FC70F
p3646
aVSOSMTTD12AF729F19A
p3647
aVSOFJYUF12AB0182402
p3648
aa(lp3649
VSOUIPGD12AF72A4480
p3650
aVSOXHNRF12A6D4F82E6
p3651
aa(lp3652
VSOEFTHE12A6D4FA79D
p3653
aVSOZRPIQ12A8C13CE0B
p3654
aa(lp3655
VSOBFZOD12A8C138443
p3656
aVSOWHYMX12A6310F91F
p3657
aa(lp3658
VSOJGJQP12A8C14596E
p3659
aVSORRYHJ12AF72A3480
p3660
aa(lp3661
VSOTDSQS12A8C135733
p3662
aVSOTMPBN12AB01830E4
p3663
aVSONKTIL12A8C13AFF4
p3664
aa(lp3665
VSOGVWII12A6D4F8F50
p3666
aVSOBAJSE12A8C135A3D
p3667
aVSOURKPP12A8C13FA7B
p3668
aVSOXSOIM12A8C133FC6
p3669
aVSOCJHXV12AB017ED4A
p3670
aVSODTWQE12A6D4FAFA4
p3671
aa(lp3672
VSOUCJQY12A8C1321E0
p3673
aVSOIIDJM12AB017AFEB
p3674
aa(lp3675
VSOMZWQQ12AAFF416CB
p3676
aVSODCJKL12AB018191C
p3677
aVSOVJYXY12AC468A93E
p3678
aVSOVRPDE12A6701E053
p3679
aa(lp3680
VSOJKUHQ12AB018182A
p3681
aVSOAKMDU12A8C1346A9
p3682
aVSOCSOVA12A6310F238
p3683
aVSOHATSR12A6702045F
p3684
aVSODKYFX12D0219BC06
p3685
aa(lp3686
VSOHLLRP12A6701F2F4
p3687
aVSOHJQRM12A8AE4622B
p3688
aVSOCXBLC12AB018479A
p3689
aa(lp3690
VSOCVHOS12A58A7BBE6
p3691
aVSOAOUZB12AF72A1990
p3692
aVSOKGBEK12A6701E3BE
p3693
aa(lp3694
VSONRJZY12A8C1420CC
p3695
aVSOSOHQJ12A6D4F97A3
p3696
aa(lp3697
VSOBUJOL12AB0183D2D
p3698
aVSOBMQXK12A6701E179
p3699
aa(lp3700
VSOYKKEK12A6D4F7B4D
p3701
aVSOQQQMM12A6310DFCC
p3702
aa(lp3703
VSOQMDHS12AB0183F02
p3704
aVSODWIAC12A6BD56C20
p3705
aa(lp3706
VSODLRTP12A6D4F96A1
p3707
aVSOOLZIJ12B0B809459
p3708
aa(lp3709
VSOTCLCI12A58A7A94C
p3710
aVSOWSDLK12A8C137A50
p3711
aa(lp3712
VSOCXMWS12AB017DE39
p3713
aVSOYQNUK12A6D4F77A9
p3714
aVSOSSMGA12A67020F9A
p3715
aVSOOCYYU12AB0183D0F
p3716
aa(lp3717
VSOQZOZB12AB018F176
p3718
aVSOSSQCT12A6310E049
p3719
aVSOKLVFF12A8C136DB3
p3720
aVSOCXEUQ12A6D4F59CF
p3721
aVSOOXYEN12A6310F2AA
p3722
aVSOXXJQK12AF729E5DB
p3723
aVSOLXAEZ12A6D4F7D83
p3724
aa(lp3725
VSOPQJKW12A58A7AB38
p3726
aVSOOFEBK12B3504908A
p3727
aa(lp3728
VSOVYVPA12CF5F87B4A
p3729
aVSOSLCRU12A6701DB0B
p3730
aVSOWQJUV12A6701FA45
p3731
aVSOAEJKI12A8AE48382
p3732
aa(lp3733
VSOXMCZP12A8C136419
p3734
aVSOOYAYM12A8C13FE7E
p3735
aVSOXBXAK12CF51A9663
p3736
aVSOMCWAZ12A67ADBCE3
p3737
aVSOWEWRL12A58A7961F
p3738
aVSOGJNVW12AF72A2A61
p3739
aa(lp3740
VSOXBQDJ12A6D4F93CC
p3741
aVSOHYHHW12A6D4F93CD
p3742
aa(lp3743
VSOLMGCH12A8AE47BC1
p3744
aVSOPQDXH12A8C133BFE
p3745
aVSOCTAVJ12A8C13FED0
p3746
aa(lp3747
VSOHJOTN12AF72A1250
p3748
aVSOTEBWE12A81C2365A
p3749
aVSORFPKL12A6701E684
p3750
aa(lp3751
VSOBWDFY12A58A7B175
p3752
aVSOWKYIJ12AB017B0AA
p3753
aVSOVBORF12AC3DF57B6
p3754
aVSOHWDKN12A6D4F94F4
p3755
aa(lp3756
VSOHDSVJ12A6D4F93FF
p3757
aVSOBLFSK12AC3DF98DB
p3758
aVSOOMFRQ12A6701D19C
p3759
aa(lp3760
VSOOMONH12A6701E0D4
p3761
aVSOMZQED12AB017C530
p3762
aVSOWUHYP12A6D4FA6E9
p3763
aa(lp3764
VSOLOMAX12AB017999D
p3765
aVSOZEDHN12AF729E843
p3766
aVSOLSKJC12A8AE44E8E
p3767
aa(lp3768
VSOFJKDY12AF72AA475
p3769
aVSOMNBZO12A6701FD65
p3770
aa(lp3771
VSOPFURM12A67020D2A
p3772
aVSOSNCOH12AB017D397
p3773
aVSOEMBBK12A6D4FB04F
p3774
aa(lp3775
VSOHMEGA12A8C13DA91
p3776
aVSOPBSIS12AB0187132
p3777
aVSOTSJVL12AB018E0FC
p3778
aVSODZZZS12A8C133C5D
p3779
aVSOZOHMX12B0B806619
p3780
aVSOESVBQ12A8C13B448
p3781
aa(lp3782
VSOQRATK12A8C133D3A
p3783
aVSOLIKID12A6D4F9B13
p3784
aa(lp3785
VSOJAFFL12A6D4F8F68
p3786
aVSOGBZFA12A8C136DBB
p3787
aVSOOYHDP12A6701CDC7
p3788
aVSOZIREF12A8C13FF74
p3789
aVSOMNKKZ12A6701C48D
p3790
aVSOZBZFF12A6310F12D
p3791
aa(lp3792
VSOAMFCO12A6701F117
p3793
aVSOYMZYD12A58A7B210
p3794
aa(lp3795
VSODKGVD12AB01815CF
p3796
aVSOIPHIT12A58A7ECF8
p3797
aVSOUFRAV12A8C13AC31
p3798
aa(lp3799
VSONTOPY12AB01846BA
p3800
aVSOYCIJO12AB0180D6F
p3801
aa(lp3802
VSOGPZUW12A8C13FAAC
p3803
aVSOZKDMB12B0B80C4AC
p3804
aa(lp3805
VSOJLTZU12A58A7E3C4
p3806
aVSODKPAZ12A6310E98D
p3807
aVSOTUYZV12A6310E448
p3808
aVSOEPUNB12A6D4F8B08
p3809
aVSODZDRK12A6D4F838A
p3810
aVSOSZPUK12A6701CD77
p3811
aa(lp3812
VSOADVUP12AB0185246
p3813
aVSOJFTNX12A6D4F5D44
p3814
aVSOXZSQM12A58A7BAE1
p3815
aVSOZKDMB12B0B80C4AC
p3816
aVSOKHHVK12A8AE48182
p3817
aVSOPOXUR12A8C1331F2
p3818
aa(lp3819
VSOQFAUN12AB0182B90
p3820
aVSOWEJXI12A58A7B04F
p3821
aVSOFCPOU12A8C13BF40
p3822
aVSOIXOEG12A6701D926
p3823
aVSOMNULF12A8C135F65
p3824
aa(lp3825
VSOHLHRN12CF5465207
p3826
aVSOLAWAQ12A8C1344D5
p3827
aVSOOMONH12A6701E0D4
p3828
aa(lp3829
VSOETDKA12AB0186BF0
p3830
aVSOJDMXM12A6701EEEF
p3831
aa(lp3832
VSOSJFTV12A6D4F98DD
p3833
aVSOKYPXK12D021949D4
p3834
aa(lp3835
VSOMJZLT12A8C140186
p3836
aVSOTFRTW12A8C13DB36
p3837
aVSOGFRWP12A6310EDBF
p3838
aVSOKBAHA12AB017E3D6
p3839
aVSOIOTFC12AF72A59FD
p3840
aa(lp3841
VSOYCSNI12A67ADAF23
p3842
aVSOMUCFP12A6701F28E
p3843
aVSOUSNEI12A8C13A19F
p3844
aa(lp3845
VSOKOGZJ12AB0186ED1
p3846
aVSOFCCPN12A8C1435FE
p3847
aa(lp3848
VSOCVBFV12A6701FB94
p3849
aVSOHCWKB12B0B8063CC
p3850
aVSOMJZGN12A6310F9A3
p3851
aVSOFTCXE12A6D4F778B
p3852
aa(lp3853
VSODAOII12AF729D951
p3854
aVSOXSQBN12A8C140120
p3855
aVSOHLLRP12A6701F2F4
p3856
aVSOOZHVU12AB018018E
p3857
aVSOHUEXF12AB0183420
p3858
aa(lp3859
VSODLOFG12AB0184FD9
p3860
aVSOIJXRT12A6D4FA2F2
p3861
aVSOIOSMN12AB018749E
p3862
aVSOLSODY12A8C1348AA
p3863
aa(lp3864
VSOFTDVS12A8C13F57A
p3865
aVSOVJHFQ12A8C13BBF1
p3866
aa(lp3867
VSOOFYTN12A6D4FADC5
p3868
aVSOSOHQJ12A6D4F97A3
p3869
aa(lp3870
VSOOZAPG12A8C14221F
p3871
aVSOQPWUV12A6D4F9A72
p3872
aVSOWXTJA12A8C137B1D
p3873
aa(lp3874
VSOKOQIK12AF72AA1E4
p3875
aVSODKVUC12A8159E8AF
p3876
aVSOZNXMN12A8C1439A9
p3877
aa(lp3878
VSOMFAEK12A6D4F93B9
p3879
aVSOYIQNO12AB018650B
p3880
aVSOBLEDO12A8C13C935
p3881
aVSOIWIOI12A58A7A502
p3882
aVSOHQDJH12A6310E2BD
p3883
aa(lp3884
VSOLGRBI12A8C1431A8
p3885
aVSODGDMY12B0B80827A
p3886
aVSOVNGDO12A6D4F405F
p3887
aVSOKAXSE12A8C13CDFC
p3888
aa(lp3889
VSOORLVA12A8C142EFD
p3890
aVSOWLJDA12A6D4FCAC5
p3891
aVSOBBULB12AB0180E01
p3892
aVSOWOKUB12AB017EC1C
p3893
aVSOLCPTP12AB0189E33
p3894
aa(lp3895
VSOPMTTO12AB0183DB9
p3896
aVSONBSAR12B0B80677F
p3897
aVSOVSINB12A8C134CF2
p3898
aVSOOKAYC12AF72A0921
p3899
aa(lp3900
VSOWQCNQ12A8C13387D
p3901
aVSORNFKB12AB0187523
p3902
aa(lp3903
VSONIOIX12A6D4F7E55
p3904
aVSOBTOAO12A679D8AF6
p3905
aa(lp3906
VSOJLANL12AB0186316
p3907
aVSOTHGXK12AB0180E18
p3908
aa(lp3909
VSOCRRRR12A8C13AD41
p3910
aVSORKZFB12A6D4FCABC
p3911
aVSOQQRXS12AF72A186D
p3912
aa(lp3913
VSOSOJGE12A8C1363D6
p3914
aVSOFBGNM12AF72A315E
p3915
aa(lp3916
VSOSZPUK12A6701CD77
p3917
aVSOEPIKI12A8AE4821F
p3918
aVSOFLDOK12A8C13E8F7
p3919
aVSOZMCPU12A8C1405F0
p3920
aVSOAJXFD12AB0183ACD
p3921
aVSOQNLUL12A8C1307AE
p3922
aVSOMWBJM12A6702048C
p3923
aa(lp3924
VSOZRPKD12A6D4FD25E
p3925
aVSOLHUWV12AF72A1557
p3926
aa(lp3927
VSOULPDB12AB017CD57
p3928
aVSOIWRAH12A6D4F66C0
p3929
aVSOBHHNN12A81C21F12
p3930
aa(lp3931
VSODSLFT12A8C1321EE
p3932
aVSOPQJKW12A58A7AB38
p3933
aa(lp3934
VSOYVSAQ12AB017B0B5
p3935
aVSOMAOJV12A67020F91
p3936
aVSOWHLBU12AB0180300
p3937
aa(lp3938
VSODGGKP12AAA8C6B42
p3939
aVSOKJQFF12A8C1360FD
p3940
aVSOIZRLR12A67021292
p3941
aVSOWKYCH12A8C13BB21
p3942
aa(lp3943
VSOWUUQG12A6701F9C2
p3944
aVSOAOVTO12A8C1314A6
p3945
aa(lp3946
VSOWRUTR12AB01860BE
p3947
aVSOSLZXV12A8C1354C9
p3948
aVSONPJIJ12A6701F0B0
p3949
aa(lp3950
VSOGEHWA12A81C22D9E
p3951
aVSOBFBCM12AB018999A
p3952
aVSOQHWMN12A6701E2D9
p3953
aa(lp3954
VSOQBDEH12AB017FD2B
p3955
aVSOTVFIU12AC46878B7
p3956
aa(lp3957
VSOGCVWE12AB01857FF
p3958
aVSONKJMB12A8C138B2E
p3959
aVSONMNYH12A8C131C99
p3960
aa(lp3961
VSOMBJXP12AB017F694
p3962
aVSOKJQSO12A81C20707
p3963
aa(lp3964
VSOYTIYH12A6701D01C
p3965
aVSOMRUQL12D02199DCE
p3966
aVSODKTET12A8C13125A
p3967
aa(lp3968
VSOOQWXY12A8C136E77
p3969
aVSOODMPS12A8AE4842A
p3970
aa(lp3971
VSOOAGYC12A58A7C7C8
p3972
aVSOGBUJP12AAF3B52A7
p3973
aa(lp3974
VSOZKDMB12B0B80C4AC
p3975
aVSOPYLQO12A58A78B02
p3976
aVSOCQGTF12A8C131F89
p3977
aVSOGXWDM12A58A7B902
p3978
aa(lp3979
VSOQJLDY12AAF3B456D
p3980
aVSOCCNSC12A58A7C593
p3981
aVSOVGMVV12A6D4F9557
p3982
aVSOFCCPN12A8C1435FE
p3983
aa(lp3984
VSOVDPJR12AB018AB91
p3985
aVSODKYFX12D0219BC06
p3986
aa(lp3987
VSOBAPJF12A670208FD
p3988
aVSOSIUGV12AB0184F45
p3989
aVSOKQBKL12A6D4FB416
p3990
aVSOOABEG12AF72A828F
p3991
aVSOKLPPG12A6D4F8259
p3992
aa(lp3993
VSOCKDQN12A8C140339
p3994
aVSOSXWRD12A8C14109F
p3995
aa(lp3996
VSONBTJI12A670208F2
p3997
aVSOQLYVL12AC907550B
p3998
aVSOIIYNJ12A6D4FE177
p3999
aVSOABALV12A58A7ACA0
p4000
aVSOPKSJC12A58A7EC25
p4001
aVSOXWWTX12A6D4F81E5
p4002
aVSOKHHVK12A8AE48182
p4003
aa(lp4004
VSOMGQOD12A81C22986
p4005
aVSOQNOTY12A8151BA1A
p4006
aVSOFYSLV12AB018426B
p4007
aa(lp4008
VSOEFTHE12A6D4FA79D
p4009
aVSOOBCJS12A8C13DA96
p4010
aa(lp4011
VSOKENTC12AB01831F3
p4012
aVSOQGELR12AB01851EF
p4013
aVSOLSGAY12A8C13E752
p4014
aa(lp4015
VSOWKJFX12CF5F879A4
p4016
aVSOBZVNR12AF72A5CC0
p4017
aVSOGGLUO12A8C138A1E
p4018
aa(lp4019
VSOAIULF12A8C13CB20
p4020
aVSOEGPXE12AF729FC3B
p4021
aa(lp4022
VSOXOMQQ12A8C13BF49
p4023
aVSOKLGUH12A6701F9C5
p4024
aVSOQQWFI12A67020F95
p4025
aa(lp4026
VSOHNRMO12AB0185985
p4027
aVSOSLCRU12A6701DB0B
p4028
aa(lp4029
VSOFNREZ12A8C131268
p4030
aVSOAINXH12A6D4F66F4
p4031
aa(lp4032
VSOHIJIQ12A6310D913
p4033
aVSOGOJRV12AB018AAAD
p4034
aa(lp4035
VSOJEVNN12A8C1330ED
p4036
aVSOCFKHP12A8C13B931
p4037
aa(lp4038
VSOBJSLW12A6D4F9158
p4039
aVSOZWJEP12A6310E1F5
p4040
aa(lp4041
VSODJGTO12AB018AADA
p4042
aVSOQPUGI12AB018256E
p4043
aVSOJNANN12A8C134A3D
p4044
aa(lp4045
VSOERHQB12AB0188D93
p4046
aVSOFCVZV12A58A7A3C6
p4047
aVSOSEBVP12A6D4F9CBB
p4048
aVSORDYVO12A8C141A40
p4049
aVSOMCWAZ12A67ADBCE3
p4050
aVSOVZMAN12A6D4FE1DA
p4051
aa(lp4052
VSOGBZFA12A8C136DBB
p4053
aVSOJMTEQ12A5891FE43
p4054
aVSOCTRUR12AF72A0A90
p4055
aVSOBAPJF12A670208FD
p4056
aVSOWZTOE12AB017DFA6
p4057
aVSOBQXPW12AF72A429C
p4058
aVSOVSINB12A8C134CF2
p4059
aVSOLJWIQ12A6D4FA875
p4060
aa(lp4061
VSOEZOJK12A8C131447
p4062
aVSOWROAI12A6D4F7D3F
p4063
aVSOVDZOP12AF72A2A04
p4064
aa(lp4065
VSOULKJA12A8C140620
p4066
aVSOTTQAF12A6310F21D
p4067
aVSOODVDL12A6701F9C6
p4068
aa(lp4069
VSONZXCJ12A81C22596
p4070
aVSOYPYFT12AF72A1D58
p4071
aVSOILGZL12A8C1413D7
p4072
aa(lp4073
VSOOIOWA12A6D4F897C
p4074
aVSOYVTUO12CF5F87BC6
p4075
aa(lp4076
VSODLCIU12A8AE45F1D
p4077
aVSODJOWC12A6701CD9A
p4078
aVSOJEWNP12A6D4FD1E6
p4079
aa(lp4080
VSOADISH12AB018DFAC
p4081
aVSOGFRWP12A6310EDBF
p4082
aa(lp4083
VSOTKPUP12A58A7F96F
p4084
aVSOQQQMM12A6310DFCC
p4085
aVSOPOQLN12A8AE45A31
p4086
aa(lp4087
VSOLCEUG12A58A79898
p4088
aVSOETONU12AB018AAC0
p4089
aVSOZKDMB12B0B80C4AC
p4090
aa(lp4091
VSODTGOI12A8C13EBE8
p4092
aVSOMQJYW12A8C132673
p4093
aa(lp4094
VSOATZEE12A6D4FA633
p4095
aVSOKRACG12A8C1438AC
p4096
aVSOWICMJ12B0B80BFC7
p4097
aVSOEGVWD12A63110835
p4098
aa(lp4099
VSOGKSXJ12A8C13A980
p4100
aVSOAZVRO12AB0185422
p4101
aVSOKHMLK12AB018CE58
p4102
aa(lp4103
VSODFKOO12A67ADE31D
p4104
aVSOMKMVG12AB0182EC2
p4105
aa(lp4106
VSOFBQVT12AB01826DB
p4107
aVSOVTDBG12A8C13A1CC
p4108
aa(lp4109
VSOOKIZK12A8C140E55
p4110
aVSOINSPS12A6310F925
p4111
aa(lp4112
VSOYZITN12A58A7CFF8
p4113
aVSOIEFNX12A6D4F9FB0
p4114
aa(lp4115
VSOIOSMN12AB018749E
p4116
aVSOSSFNX12A8C13FCFA
p4117
aVSONKNTS12AB018075F
p4118
aa(lp4119
VSOVKVNI12A6D4FB87A
p4120
aVSOZKDMB12B0B80C4AC
p4121
aVSOKPIDP12A8C131B46
p4122
aVSOGVJAT12A6D4FBC0D
p4123
aa(lp4124
VSODCQWN12A8C13728C
p4125
aVSODDPBA12A6310E938
p4126
aVSOKZQYX12A6D4F9CA1
p4127
aa(lp4128
VSOWUKLA12A6D4FA51A
p4129
aVSOFDAIR12A6D4F982D
p4130
aVSOTIDJI12A8C134CC9
p4131
aa(lp4132
VSOVBPVD12A8C144C18
p4133
aVSOPDNOU12AB017F1D4
p4134
aa(lp4135
VSOMDHDH12A679D7E29
p4136
aVSOXFIOK12A582912BC
p4137
aa(lp4138
VSOMQMFR12A8C137B1F
p4139
aVSOFYGAB12A6D4F9A91
p4140
aa(lp4141
VSOGLAQB12D0219B3D9
p4142
aVSOZWKGN12A8C130065
p4143
aa(lp4144
VSOBUOKC12AB018A18B
p4145
aVSOXWLZY12A6D4F6F42
p4146
aVSOCAAWX12A6D4F7901
p4147
aa(lp4148
VSOUZIIN12AB017FB85
p4149
aVSOUPJHJ12A8C13E6E6
p4150
aa(lp4151
VSODTGOI12A8C13EBE8
p4152
aVSOTBYQW12A6D4FE74B
p4153
aVSOBCVWW12A8AE45A52
p4154
aa(lp4155
VSOMUCFP12A6701F28E
p4156
aVSOZKDMB12B0B80C4AC
p4157
aVSONQLBJ12A6D4FA7C2
p4158
aa(lp4159
VSOYKUXZ12A8C133F39
p4160
aVSOXHBIW12AC468D4E6
p4161
aa(lp4162
VSOHMVGA12AC4687E05
p4163
aVSOTNKOM12AB017EAB3
p4164
aVSOSZGCT12A58A79D19
p4165
aVSOKLGUH12A6701F9C5
p4166
aa(lp4167
VSOXQRLK12CF5F88AF0
p4168
aVSOQPKMW12A6310D993
p4169
aa(lp4170
VSOOPCEP12A6701C4DA
p4171
aVSOHRDVQ12A670208EE
p4172
aa(lp4173
VSOLCLPM12A6D4FB001
p4174
aVSOHPWXI12A8C143BC7
p4175
aa(lp4176
VSOCHTDD12AB0182BA8
p4177
aVSOTRQEJ12AF72A45D7
p4178
aa(lp4179
VSOFJAMK12AB018CCD9
p4180
aVSODAOII12AF729D951
p4181
aa(lp4182
VSOIIBKJ12AB017DB0C
p4183
aVSOWZTOE12AB017DFA6
p4184
aVSOJTWWK12AB017E389
p4185
aa(lp4186
VSOQXCYQ12A8C13594D
p4187
aVSOFTKFP12AF7299F4D
p4188
aa(lp4189
VSOBLFSK12AC3DF98DB
p4190
aVSOZKDMB12B0B80C4AC
p4191
aa(lp4192
VSOKQBKL12A6D4FB416
p4193
aVSOMDVMS12A6D4FB8C6
p4194
aVSOCVTLJ12A6310F0FD
p4195
aa(lp4196
VSOEPJEF12AF72A44DA
p4197
aVSOHUZQE12AB0185E6F
p4198
aa(lp4199
VSOYJLDR12A8C13D375
p4200
aVSORBBRE12AF72AAF1A
p4201
aVSOSYMOP12AB01891B9
p4202
aa(lp4203
VSOLIVPY12A8C13F156
p4204
aVSOPCQFN12A6701F955
p4205
aVSOLOUIR12A6310D7B4
p4206
aVSOOANEZ12A6D4F7499
p4207
aa(lp4208
VSOKMHKY12AF72AB079
p4209
aVSOQWLQZ12A8C1342C1
p4210
aVSOIHMBV12A6D4FD90D
p4211
aVSOZRYST12812D07C72
p4212
aa(lp4213
VSONUNTU12A8C1332E4
p4214
aVSOCKQOE12D0219A9A0
p4215
aVSOGPBDO12A6D4F7F85
p4216
aa(lp4217
VSOBISRM12A58A7BF48
p4218
aVSOUQKMD12A8C130ED9
p4219
aVSORCMOX12A6D4FA2E7
p4220
aVSOBKHRF12A6D4FA2EE
p4221
aVSOIJXRT12A6D4FA2F2
p4222
aVSOOODKI12A6D4FA2F5
p4223
aa(lp4224
VSOYIUZM12A6D4F8E2C
p4225
aVSOWEJXI12A58A7B04F
p4226
aVSOAPDAL12D021B26FE
p4227
aa(lp4228
VSOVLJVF12A6D4F8D87
p4229
aVSOIWUIV12A6D4F909E
p4230
aa(lp4231
VSOWAJDP12A8C13A3C5
p4232
aVSOHSXAV12A67ADF7E7
p4233
aa(lp4234
VSOUGDEY12A8C1318C3
p4235
aVSOZXCOM12A8C13A859
p4236
aa(lp4237
VSOUDDMN12D02191AFE
p4238
aVSOGTGWG12A58A7B7BB
p4239
aa(lp4240
VSOPEEAZ12A6701CFD3
p4241
aVSOTXHTN12A6D4F87DB
p4242
aa(lp4243
VSOHTDUI12A8C136662
p4244
aVSOWIPFM12AB0181DA0
p4245
aVSOEASNB12A6701E102
p4246
aVSOJSRKL12A8159E8A8
p4247
aa(lp4248
VSOUJWQU12A6D4FACF4
p4249
aVSOJWIDQ12A58A7A588
p4250
aVSOQDVZC12A6701F79F
p4251
aVSONKGST12A6D4F81F6
p4252
aVSOQOJUK12CF5F88127
p4253
aa(lp4254
VSOEGZHD12A8C13BF3D
p4255
aVSOZKDMB12B0B80C4AC
p4256
aVSOCMZYK12A8C13FF84
p4257
aVSOAINXH12A6D4F66F4
p4258
aVSOQAMCZ12AB018318D
p4259
aVSOYRKJS12A8C137964
p4260
aVSOPKVQT12A6701FB27
p4261
aa(lp4262
VSOLCMOQ12D0219A9B2
p4263
aVSOUVAIM12A8C138609
p4264
aVSODELZF12A8AE46D0A
p4265
aa(lp4266
VSOPRZOH12D0219836D
p4267
aVSONEASJ12AB0182363
p4268
aVSOAKCFL12A6D4F9CC5
p4269
aVSOEZOJK12A8C131447
p4270
aVSOESFQZ12A8C134D7F
p4271
aVSOCRIQD12A6D4FBECE
p4272
aVSOGEYYQ12A6D4F8C50
p4273
aVSOFTCXE12A6D4F778B
p4274
aVSOJKMYL12B0B8074AF
p4275
aa(lp4276
VSODOCAB12A6D4F70A9
p4277
aVSOEHHCE12A3F1ED465
p4278
aa(lp4279
VSOIEPHH12AF729F2FB
p4280
aVSOHEZBY12A6701F62F
p4281
aa(lp4282
VSOIMZKY12A8159E8E6
p4283
aVSOTVFIU12AC46878B7
p4284
aa(lp4285
VSOGUUKW12A6D4FB656
p4286
aVSONEYYW12AF72A2AA6
p4287
aa(lp4288
VSODITQB12AF72AA382
p4289
aVSOUKJJL12A6D4F7EF2
p4290
aVSOXQGGI12AB0180D03
p4291
aVSOWTXCC12A8151B85A
p4292
aVSONDFZL12A8C13962C
p4293
aa(lp4294
VSOAJCSA12AC468C991
p4295
aVSOEPHAK12A8C1383D5
p4296
aa(lp4297
VSOQQINU12A8151B866
p4298
aVSOVQSZA12AF72A3633
p4299
aVSOZHXKX12AAFF4083C
p4300
aa(lp4301
VSOMGOBR12AB0189932
p4302
aVSORJHCZ12A8C143351
p4303
aa(lp4304
VSOAPVIO12A6701F509
p4305
aVSONCOXB12A6D4F75F0
p4306
aa(lp4307
VSOLJWIQ12A6D4FA875
p4308
aVSOGDROK12AF72A32B8
p4309
aa(lp4310
VSOLHUWV12AF72A1557
p4311
aVSOIKVNN12A8C13D9FF
p4312
aa(lp4313
VSOYVSAQ12AB017B0B5
p4314
aVSOYMQDV12A6D4F914C
p4315
aVSOGEFNI12AF72A1FA5
p4316
aVSOJYVPY12A8C1442FA
p4317
aa(lp4318
VSOIFLMJ12A8C13FA94
p4319
aVSOGDOYR12CF5F87D7E
p4320
aVSOZKDMB12B0B80C4AC
p4321
aVSODWQTC12A6D4F81BE
p4322
aa(lp4323
VSOBHKSJ12A58A7BFBD
p4324
aVSOIVPRW12A6310F237
p4325
aVSOAZQJH12D021B270F
p4326
aVSOONGJS12A6701DAAA
p4327
aVSOHLXPJ12A8C13269A
p4328
aa(lp4329
VSOTMIFT12A8C142A30
p4330
aVSOFLGWU12A6701D482
p4331
aVSOLFOAD12A6701D483
p4332
aa(lp4333
VSOGMYVA12A679AE59D
p4334
aVSOEURIB12A8C134745
p4335
aa(lp4336
VSOBQJCA12AB017F1DA
p4337
aVSOVBXRX12AF72A2FE2
p4338
aVSOKJVAE12A8C132CA7
p4339
aVSOCQNII12A6D4FD0EF
p4340
aa(lp4341
VSOHGXUU12A6D4F4061
p4342
aVSOQDQXF12A6D4F76EE
p4343
aVSODNGEM12A6D4FCA8F
p4344
aa(lp4345
VSOYOUHY12A8C137B10
p4346
aVSODGJTP12A6D4FA6FF
p4347
aa(lp4348
VSOEBOWM12AB017F279
p4349
aVSOUKXIN12A8C133C7F
p4350
aVSOOJJCT12A6310E1C0
p4351
aa(lp4352
VSOJDANO12A8C137227
p4353
aVSOBNLQK12A8C131F2E
p4354
aVSOVBILE12AB0180551
p4355
aa(lp4356
VSOHUVIV12A6D4F9827
p4357
aVSOWJOPI12A6310E272
p4358
aa(lp4359
VSOQLJOI12D02197A50
p4360
aVSOSZPUK12A6701CD77
p4361
aVSOXSXLN12A6310E26D
p4362
aVSOKCCAJ12AAF3B527B
p4363
aVSONDBJB12A8C13125F
p4364
aa(lp4365
VSOIJFWS12A8AE46BBC
p4366
aVSOAMFCO12A6701F117
p4367
aa(lp4368
VSOOXYEN12A6310F2AA
p4369
aVSOEBOWM12AB017F279
p4370
aVSOIQARR12A6D4F601E
p4371
aa(lp4372
VSOBARLM12A8C13781C
p4373
aVSOSYMOP12AB01891B9
p4374
aa(lp4375
VSOZHBOD12AF72A3FE5
p4376
aVSONCNWH12AF72A430D
p4377
aVSOGJDOV12A6310E91B
p4378
aa(lp4379
VSOFJDTE12AB017EFD4
p4380
aVSONSBZR12A3F1EB1B4
p4381
aVSOIQUGX12AB0181B18
p4382
aa(lp4383
VSOQYVMK12AB018714E
p4384
aVSOCQZNB12AF72AD03B
p4385
aa(lp4386
VSOSUZFA12A8C13C04A
p4387
aVSOXNDXG12A6D4F78EB
p4388
aVSOVQSZA12AF72A3633
p4389
aa(lp4390
VSOMOXSE12B0B80BEBB
p4391
aVSOGTGNC12A8C139F67
p4392
aVSOEFTHE12A6D4FA79D
p4393
aVSOQXNDH12AC9074EC3
p4394
aa(lp4395
VSOQQQMM12A6310DFCC
p4396
aVSOCQZNB12AF72AD03B
p4397
aVSOPCDRW12AB017F61A
p4398
aa(lp4399
VSOMUCFP12A6701F28E
p4400
aVSOYGPKN12A6D4FAF3D
p4401
aVSOFFOIF12A6310D90E
p4402
aa(lp4403
VSONKCAW12A8C137CFA
p4404
aVSOZRPIQ12A8C13CE0B
p4405
aVSOQXYNO12A8C143F95
p4406
aa(lp4407
VSOAGTAG12A6D4F7441
p4408
aVSOGQEVI12CF54651C8
p4409
aVSOWUHYP12A6D4FA6E9
p4410
aa(lp4411
VSOHUEXF12AB0183420
p4412
aVSOLCCZN12AB018E2B0
p4413
aa(lp4414
VSOFLTSF12A8C135F71
p4415
aVSOZBZFF12A6310F12D
p4416
aVSONDBJB12A8C13125F
p4417
aa(lp4418
VSOBZVFP12A58A8129D
p4419
aVSOFTCXE12A6D4F778B
p4420
aa(lp4421
VSOZKDMB12B0B80C4AC
p4422
aVSOVDYXW12AB017CB97
p4423
aVSOOCRKC12D0219917F
p4424
aa(lp4425
VSOYDJVW12A6701DAA6
p4426
aVSOMJZLT12A8C140186
p4427
aa(lp4428
VSORDYVO12A8C141A40
p4429
aVSOPWSPF12A67021505
p4430
aa(lp4431
VSOWWEJV12AB0183396
p4432
aVSOOWJTX12A6D4F99A6
p4433
aaa(lp4434
g1674
ag1679
ag790
ag793
ag3848
ag3853
ag2306
ag2309
ag2314
ag345
ag2764
ag2768
ag2771
ag399
ag2638
ag2641
ag2646
ag2656
ag2659
ag2662
ag4395
ag1595
ag3395
ag3399
ag3100
ag3864
ag3867
ag3870
ag3771
ag1720
ag116
ag507
ag4132
ag821
ag829
ag1699
ag1702
ag1705
ag1708
ag2936
ag2940
ag4138
ag4141
ag4144
ag3595
ag3603
ag1750
ag1755
ag4348
ag4352
ag2551
ag2554
ag4052
a(lp4435
VSOANSPC12A6702154A
p4436
aVSOXNGCY12D021B263C
p4437
aa(lp4438
VSOVOOHI12A8C132F3D
p4439
aVSOJLAGH12A8C1398B2
p4440
aVSOASTVM12A8C133E04
p4441
aVSOSJFTV12A6D4F98DD
p4442
aa(lp4443
VSOTGOSH12A6701F127
p4444
aVSORRYHJ12AF72A3480
p4445
aVSOMACTH12AB01815AD
p4446
aa(lp4447
VSONKNTS12AB018075F
p4448
aVSOTGOSH12A6701F127
p4449
aVSOAPDAL12D021B26FE
p4450
aVSOQXNDH12AC9074EC3
p4451
aVSOWZZTA12AF729E2E8
p4452
aVSONMNYH12A8C131C99
p4453
aVSOBHFDN12AF72A87F8
p4454
aVSOKCCAJ12AAF3B527B
p4455
aa(lp4456
VSOFJUQP12A6310F233
p4457
aVSOVZOXM12A6D4F4060
p4458
aa(lp4459
VSOQLDML12A8C13CE56
p4460
aVSOIFGCB12A8C134160
p4461
aag514
ag518
a(lp4462
VSORQFRB12A58A7860F
p4463
aVSOMXWNY12A58A7961C
p4464
aVSOZUMNX12AB0184C8F
p4465
aa(lp4466
VSOPQJKW12A58A7AB38
p4467
aVSOMJZLT12A8C140186
p4468
aag424
ag427
ag1786
ag1789
ag1793
ag1796
a(lp4469
VSOLSODY12A8C1348AA
p4470
aVSOILGZL12A8C1413D7
p4471
aa(lp4472
VSOTELBF12A6701FA4A
p4473
aVSOKJQSO12A81C20707
p4474
aVSOSYJJL12B0B80B28D
p4475
aVSOQUOXF12A6310EE68
p4476
aa(lp4477
VSOFIZRR12A6701EEF1
p4478
aVSOWBQYP12AF7299AC3
p4479
aa(lp4480
VSOSUYOY12A6D4F96A8
p4481
aVSOBJFWS12AB01878ED
p4482
aVSOPQJKW12A58A7AB38
p4483
aVSOJKYRI12A6701F926
p4484
aa(lp4485
VSOECIFL12A6D4F78FE
p4486
aVSOGKXDT12A58A7B505
p4487
aag1654
ag1657
ag3197
ag3201
ag119
ag122
ag844
ag847
ag3874
ag3878
ag1216
ag1221
ag1600
ag1606
ag261
ag266
ag1740
ag1744
ag3016
ag3021
ag2613
ag2618
ag2627
ag2633
a(lp4488
VSOBSHGA12AF72AA250
p4489
aVSORWOEA12AF72A3880
p4490
aVSOQABRZ12A58A790BC
p4491
aa(lp4492
VSODCNAS12AB01871D3
p4493
aVSOCIURW12A8C130B10
p4494
aVSOPPICS12AF72A9A84
p4495
aVSOJEDXU12A58A76B33
p4496
aa(lp4497
VSOVVHEE12A8C137B24
p4498
aVSOQZCOQ12B0B8067AA
p4499
aVSOMXXET12AC4688DD6
p4500
aag2963
ag2802
ag2805
ag3294
ag4061
ag4065
ag4069
ag3795
ag3799
ag3802
ag1541
ag1023
ag2290
ag2383
ag2387
ag1903
ag698
ag702
ag711
ag718
ag2450
ag4106
ag4109
ag4112
ag2081
ag2084
a(lp4501
VSODDBST12A58A7DDFD
p4502
aVSOZREPK12CF57010B0
p4503
aVSOGMRDI12A8C131B55
p4504
aVSOCQJZC12AF72A7021
p4505
aa(lp4506
VSOVMCEO128F57D71E5
p4507
aVSOVJHCB12A8AE4636E
p4508
aag1971
ag1975
ag3645
ag3402
ag3409
ag2980
ag2983
ag2987
a(lp4509
VSOSYMOP12AB01891B9
p4510
aVSOBFDWJ12AB018B5E3
p4511
aVSOKTXJS12A6701F2F6
p4512
aa(lp4513
VSOFBGYH12A6701F0CB
p4514
aVSOEGJEB12D02192678
p4515
aVSODVULJ12A58A7CA4D
p4516
aVSOBBKGF12A8C1311EE
p4517
aag271
ag275
ag284
ag3337
ag3342
ag3110
ag4301
ag1288
ag1291
ag1294
ag348
ag351
ag832
ag835
ag838
ag2126
ag2129
ag1426
ag1429
ag3733
ag3740
ag1662
ag1668
ag1998
ag2002
ag2006
ag3706
ag3709
ag3712
ag1765
ag1769
ag1772
ag1778
a(lp4518
VSOPCQGP12AB0182AA0
p4519
aVSOOUWEI12A8C13EC42
p4520
aa(lp4521
VSOGZJLY12A8AE4791C
p4522
aVSOOHFSU12A6D4F9252
p4523
aa(lp4524
VSOZPMEQ12A8C142F53
p4525
aVSOPHHAG12A8C13E809
p4526
aa(lp4527
VSOQKMWH12AF72A6B41
p4528
aVSOCWWON12A8C142190
p4529
aag3103
ag3107
ag54
ag58
ag2116
ag2123
a(lp4530
VSOHNHEL12AF729E72D
p4531
aVSOIZNTM12A6D4F7FB6
p4532
aa(lp4533
VSOSECXX12A8C1332AB
p4534
aVSOFEIQN12AF729EA6F
p4535
aVSOSNSJI12A8C1340E8
p4536
aa(lp4537
VSOQQXKG12A6701C4D6
p4538
aVSOFFHEG12AB0183375
p4539
aa(lp4540
VSOZQQPH12A6310E39E
p4541
aVSOUQKMD12A8C130ED9
p4542
aag2351
ag1641
ag1644
ag1648
ag1651
a(lp4543
VSOOUZQO12AF72A4B42
p4544
aVSOTTEOF12A8C1393B8
p4545
aa(lp4546
VSOSYLKN12A67020DFA
p4547
aVSOXYAUN12A58A7BE87
p4548
aa(lp4549
VSOZJULR12AF729D135
p4550
aVSOWFSMK12A6D4F796C
p4551
aa(lp4552
VSOIIRLR12AB0182484
p4553
aVSODSBXG12A6310E90F
p4554
aVSOQPWUV12A6D4F9A72
p4555
aa(lp4556
VSOIOXZM12A8C1355BD
p4557
aVSORUTRB12A6701D011
p4558
aag662
ag666
ag451
ag457
a(lp4559
VSOBPGZK12A6701CD96
p4560
aVSOEIUZI12AB018504A
p4561
aVSOZCXLJ12AB017FE57
p4562
aVSOAVUSU12A8C130CD7
p4563
aVSOHDWQZ12A8C13F555
p4564
aa(lp4565
VSODGVXC12A8C137B07
p4566
aVSOYVFQB12A8AE45B99
p4567
aag2293
ag2296
ag2300
ag2303
ag1398
ag1401
ag1404
a(lp4568
VSOJCTGE12A8C143A3F
p4569
aVSOYFUCF12AB0183D18
p4570
aa(lp4571
VSOQZXOH12A6D4FD0B2
p4572
aVSODYKBY12AC4687734
p4573
aa(lp4574
VSOHTDUI12A8C136662
p4575
aVSOWHFCV12A67AD728A
p4576
aVSOTWXDV12A8C138466
p4577
aVSOQSZZY12A8AE4480A
p4578
aa(lp4579
VSOUTNZH12A8C132FD3
p4580
aVSOAVBVE12A6D4F6EF0
p4581
aVSONRWKK12A8C13CE51
p4582
aVSOJCRNK12A8C1394D3
p4583
aag2925
ag2929
ag2933
ag1127
ag1132
ag1135
ag4176
ag4179
ag2213
ag2216
ag1442
ag1448
ag1451
ag1454
a(lp4584
VSOHYTHX12A8C13E04E
p4585
aVSOVZSCE12B0B806C00
p4586
aa(lp4587
VSOOLXPO12A8AE46ABE
p4588
aVSOXMTEY12AAF3B2E01
p4589
aVSOGBZFA12A8C136DBB
p4590
aVSOLNVZW12A582A2C28
p4591
aVSOOKMGA12A6D4FB3E6
p4592
aVSOSYMOP12AB01891B9
p4593
aVSOQZZKR12AF72A9F8B
p4594
aVSODAOII12AF729D951
p4595
aa(lp4596
VSOYVTUO12CF5F87BC6
p4597
aVSOAZOYN12A6701EEF2
p4598
aa(lp4599
VSOJLAIG12A6D4F7D6B
p4600
aVSODGVXC12A8C137B07
p4601
aVSOEFCXI12A8C13D670
p4602
aag2062
ag4294
ag4297
a(lp4603
VSOWAMPQ12A58A7CF2A
p4604
aVSOHLLST12A6D4F777A
p4605
aVSOBDZNY12A6310E1CA
p4606
aVSORFHBD12A58A7C3E3
p4607
aVSOAINXH12A6D4F66F4
p4608
aa(lp4609
VSOBFQSF12A8C13ED0C
p4610
aVSOPDPKY12AB017D012
p4611
aa(lp4612
VSOKALSK12AF72ABFDE
p4613
aVSONAQRQ12AB017FD0B
p4614
aa(lp4615
VSOUGJVR12AB017F07F
p4616
aVSOGVCRP12A8C139B03
p4617
aVSOWFNYL12A8C1405FF
p4618
aVSORBGRZ12D021B2802
p4619
aag229
ag233
ag1386
ag62
ag66
ag3984
ag3987
ag3993
ag730
ag733
ag737
a(lp4620
VSOQBMFW12A8C135F74
p4621
aVSOMNULF12A8C135F65
p4622
aa(lp4623
VSOPPRIE12AAA8C598A
p4624
aVSOKTSLI12A67ADE3E0
p4625
aag3299
ag3302
ag3305
ag3308
ag3129
ag3134
ag3137
ag3144
ag3148
ag3151
ag3155
ag3158
ag2354
a(lp4626
VSORFSKE12A6701F286
p4627
aVSOBUJAW12AB0184040
p4628
aa(lp4629
VSOKGBEK12A6701E3BE
p4630
aVSOGPDLS12A58A7A754
p4631
aa(lp4632
VSOVWSML12AB01811FF
p4633
aVSOVNEYS12AB01811DE
p4634
aa(lp4635
VSOFDBBA12A58A7C0BA
p4636
aVSOHQQKO12A6701E3BA
p4637
aa(lp4638
VSOHUGFM12A58A7E956
p4639
aVSONPTVW12A58A7BD84
p4640
aVSOKIUGA12A6701F73B
p4641
aag1954
ag1957
ag1960
ag1963
ag1967
a(lp4642
VSOIIYNJ12A6D4FE177
p4643
aVSONMNYH12A8C131C99
p4644
aVSOHBWZM12A8C14586D
p4645
aag2108
ag2113
ag898
ag901
ag999
ag1003
ag1006
ag1010
ag1013
a(lp4646
VSOFCDXJ12A6D4FB68A
p4647
aVSOUAWSV12D02191B38
p4648
aVSOKDIGZ12A8C1321E9
p4649
aa(lp4650
VSOQGAEG12A6701E5B1
p4651
aVSOMCWAZ12A67ADBCE3
p4652
aVSOEXFZQ12A6D4FC33E
p4653
aVSOHZYVP12A6D4F98DF
p4654
aVSOAGMLZ12A8C13B808
p4655
aag3581
ag3584
ag3588
ag3591
ag305
ag309
a(lp4656
VSOWNTLJ12AAF3B2D60
p4657
aVSOSEBVP12A6D4F9CBB
p4658
aVSOPIEQP12A8C13F268
p4659
aa(lp4660
VSONDBJB12A8C13125F
p4661
aVSOZKDMB12B0B80C4AC
p4662
aVSODBBVX12AB0182E5D
p4663
aVSOFPMBD12AB018B4EF
p4664
aa(lp4665
VSOQHXKV12A6D4F93CE
p4666
aVSOAZOYN12A6701EEF2
p4667
aVSONYNMM12D021B3AF3
p4668
aag2390
ag2393
ag2045
ag2050
ag2053
ag2056
a(lp4669
VSOVVHEE12A8C137B24
p4670
aVSORKZFB12A6D4FCABC
p4671
aa(lp4672
VSOHVHRJ12AB018435E
p4673
aVSOAOPHC12A8C13CDF7
p4674
aVSOYUKWL12A8C130FFE
p4675
aag2774
ag3290
ag681
ag686
ag1737
ag2748
ag2752
a(lp4676
VSOZQQPH12A6310E39E
p4677
aVSONDBJB12A8C13125F
p4678
aa(lp4679
VSOQKZYU12A8C142EDE
p4680
aVSOHSVAE12A8C13E698
p4681
aa(lp4682
VSOPQQNK12A8C13BF46
p4683
aVSOYXLUK12A8C13EA8A
p4684
aa(lp4685
VSOGFRWP12A6310EDBF
p4686
aVSOUQKMD12A8C130ED9
p4687
aa(lp4688
VSOKLXQR12A8C13243F
p4689
aVSOSIUGV12AB0184F45
p4690
aa(lp4691
VSORLPYW12CF5F89041
p4692
aVSOYFUCF12AB0183D18
p4693
aVSOTEXKZ12A6D4FA2EF
p4694
aVSOKSGNA12A8C138DC9
p4695
aVSOJHSOL12AB0186758
p4696
aVSORPLFM12D02192FDC
p4697
aVSOHZRTW12A8C13AB95
p4698
aa(lp4699
VSOJFCGR12A6D4FA3A0
p4700
aVSOSKKUE12AB0180108
p4701
aVSOCRAIA12AF729FD40
p4702
aVSOFBAUD12AF72A3183
p4703
aVSOTGOSH12A6701F127
p4704
aVSOORCWC12A6310EA5E
p4705
aa(lp4706
VSOVVHEE12A8C137B24
p4707
aVSOKWIGA12A6701F130
p4708
aVSOAXGBS12A6310E17A
p4709
aag945
ag2830
a(lp4710
VSOPQLBY12A6310E992
p4711
aVSONUEKO12A8AE45757
p4712
aVSOAATHE12A8C13ADD6
p4713
aa(lp4714
VSOAMZFO12A58A7C423
p4715
aVSOGDYBX12AB018ACC8
p4716
aa(lp4717
VSOOGKFU12A8C1439DA
p4718
aVSOAGFNB12AB018DE7A
p4719
aa(lp4720
VSOPQFUC12A8C1445BB
p4721
aVSONCTIR12A8C136753
p4722
aa(lp4723
VSOBMSJK12A6701F980
p4724
aVSOHTDUI12A8C136662
p4725
aVSOKKUOS12AB018ACF3
p4726
aag1801
ag402
ag407
ag1199
ag1202
ag1205
ag2164
ag2167
ag3225
ag3229
a(lp4727
VSOIIVGZ12A8C1320CF
p4728
aVSOTVGKI12AB0182502
p4729
aVSOCCYPB12A58A7BAB2
p4730
aa(lp4731
VSOZVUQV12A6D4F8B88
p4732
aVSORLTIR12A6310EA6C
p4733
aVSOOHDHX12A8C1339A0
p4734
aVSOZNTAD12A67ADE6AD
p4735
aa(lp4736
VSOVQZUX12A6310D7D5
p4737
aVSOEQLLD12A8C137F34
p4738
aa(lp4739
VSOKFGIQ12A8C13A35C
p4740
aVSOFAIUK12A6D4F66E3
p4741
aa(lp4742
VSOZFEWT12A6D4F6163
p4743
aVSOJXTZJ12A6D4F6162
p4744
aag3649
ag3652
ag3655
ag3658
ag3513
ag3516
ag3521
ag3524
ag2522
ag2918
ag2922
ag3747
ag3751
ag3756
a(lp4745
VSOHDWMA12AB01835EF
p4746
aVSOIHDJS12A6D4FB686
p4747
aVSOMAHKV12AB0181ADC
p4748
aVSOETHLL12AF729C182
p4749
aa(lp4750
VSONRWKK12A8C13CE51
p4751
aVSOJMJTA12A8C13D0B3
p4752
aag647
ag650
ag1026
ag1824
ag1827
ag3035
a(lp4753
VSOJSWGE12AF72A6DA7
p4754
aVSOQTUZG12AB018D1F0
p4755
aVSOFKBBA12B0B806617
p4756
aa(lp4757
VSOSHYIS12A8C142272
p4758
aVSOTBYQW12A6D4FE74B
p4759
aVSOKZQYX12A6D4F9CA1
p4760
aVSOCSLWF12AB01843FC
p4761
aa(lp4762
VSOSYMOP12AB01891B9
p4763
aVSOICSRU12A6D4FBA5D
p4764
aVSOINSCE12A6310D89D
p4765
aa(lp4766
VSOZKDMB12B0B80C4AC
p4767
aVSOXBOGM12A8C1333F8
p4768
aa(lp4769
VSOMFWDD12A6D4F8427
p4770
aVSOTDHYX12A8C139ACA
p4771
aVSOIQKPT12A8C140753
p4772
aVSOPQQNK12A8C13BF46
p4773
aVSORKZFB12A6D4FCABC
p4774
aVSOPYEXA12A6D4FA66C
p4775
aa(lp4776
VSOPAIFF12CF54662D4
p4777
aVSOCLPJQ12A6D4F9144
p4778
aVSOQYMNH12A8C137AA0
p4779
aag3909
ag3913
ag692
ag695
ag29
ag2170
ag2174
ag2177
a(lp4780
VSOTDLLE12A6D4F69E2
p4781
aVSOBZVNR12AF72A5CC0
p4782
aa(lp4783
VSOPVGPL12A6D4F8515
p4784
aVSOOKLWU12A6D4FA2D0
p4785
aag2971
ag2974
a(lp4786
VSOLUHRQ12AB018D110
p4787
aVSOTLMUF12A6D4FB52F
p4788
aa(lp4789
VSOYHPFI12D0219A467
p4790
aVSOGKETN12A8C13C039
p4791
aVSOEJCEZ12A6D4FC330
p4792
aVSORPMBI12A6D4F6D15
p4793
aag1488
ag1493
ag1497
ag437
ag440
ag448
ag3419
ag3825
ag3829
ag3832
ag960
ag963
a(lp4794
VSOLFDCM12A6D4F7A7C
p4795
aVSOMKAOG12A8C13E853
p4796
aa(lp4797
VSONJJOE12A8BED74B8
p4798
aVSOFQAEO12A6D4F9F4F
p4799
aVSOMDJRE12AF72A7325
p4800
aVSOZZIIQ12D02197970
p4801
aVSONAYMY12A8C135304
p4802
aag1985
ag1988
ag1992
ag1995
a(lp4803
VSOXRLWE12D0219A762
p4804
aVSOUGAYY12A6D4F859D
p4805
aa(lp4806
VSOPAOYJ12A81C23E41
p4807
aVSOCWSVU12A6701F139
p4808
aa(lp4809
VSOHWDKN12A6D4F94F4
p4810
aVSOZFZEE12A6D4F9CF0
p4811
aVSOLNDJE12A6D4FA336
p4812
aag1307
ag1312
ag1316
ag4266
ag4276
ag4279
a(lp4813
VSOIEDMT12A6D4F9A09
p4814
aVSOMALGO12A8C134A27
p4815
aag2491
ag2499
a(lp4816
VSOHGXUU12A6D4F4061
p4817
aVSOOFCHQ12AF729FF21
p4818
aVSOHWZGV12A8C1388A7
p4819
aVSOYOUHY12A8C137B10
p4820
aa(lp4821
VSONDHQS12A8C135E61
p4822
aVSOLQXRS12AB0183397
p4823
aa(lp4824
VSOFBGNM12AF72A315E
p4825
aVSOZRPIQ12A8C13CE0B
p4826
aa(lp4827
VSOQQTFV12A6701C5F6
p4828
aVSOODBJS12A6D4FC83C
p4829
aVSOHCVCZ12AF72A91E6
p4830
aVSOEFCXI12A8C13D670
p4831
aag3066
ag3069
ag3072
ag3075
ag3093
ag3097
a(lp4832
VSOODVDL12A6701F9C6
p4833
aVSODRKWR12D0219A551
p4834
aa(lp4835
VSOVOUFS12A6D4F8AC7
p4836
aVSOINJVD12A6D4F91D3
p4837
aag3717
ag3725
ag2220
ag2225
ag2229
ag2232
ag2870
ag2878
ag4310
ag4313
ag4318
a(lp4838
VSOCAOAC12A8C1416F0
p4839
aVSOVGMXF12AB0181593
p4840
aa(lp4841
VSOFZVEK12AC4685005
p4842
aVSOFBWNL12AB01815AB
p4843
aVSOCGYWS12A6310E0B7
p4844
aa(lp4845
VSOQKGFQ12A6D4FA424
p4846
aVSOWGCQV12AB0188DA3
p4847
aa(lp4848
VSODTGOI12A8C13EBE8
p4849
aVSOEYNEW12AC468B14F
p4850
aVSOCVBKK12A8C13F58A
p4851
aVSOVMMOD12A8C13EBBE
p4852
aVSOYLOQV12A6310D9F8
p4853
aVSOLADRT12AB018A565
p4854
aVSORUVIM12A58A77C01
p4855
aVSOLLGHN12D02193611
p4856
aa(lp4857
VSOAKCFL12A6D4F9CC5
p4858
aVSOAHMNB12A8C130EE8
p4859
aVSOETVSH12A81C21DA6
p4860
aa(lp4861
VSONWGJF12A8C13DA90
p4862
aVSORDYVO12A8C141A40
p4863
aag3123
ag3126
ag1557
ag1560
ag3634
ag3637
a(lp4864
VSOIUHJK12A8C13CB31
p4865
aVSOLTVQF12A8C13170C
p4866
aVSOBMWXO12A8C132120
p4867
aVSOCNPTC12A8C144911
p4868
aVSOUIVLG12A6D4FAC6D
p4869
aa(lp4870
VSOAGQAJ12AAFF429E3
p4871
aVSOHANSQ12AB0188FF8
p4872
aVSOEYHOF12AB0188211
p4873
aVSOJTZDM12A8C13CA6A
p4874
aa(lp4875
VSOHELTA12AC468BF98
p4876
aVSOXDEDR12A8AE452CC
p4877
aag4203
ag4208
ag4213
ag3528
ag3531
ag3534
ag2018
ag2026
ag4135
ag4094
ag4099
ag4103
ag753
ag756
a(lp4878
VSOWVJIK12A8C14138E
p4879
aVSONQYGL128F9C2D337
p4880
aa(lp4881
VSOBWBAG12AB017DCE7
p4882
aVSOHLMLU127BB0A7A10
p4883
aVSOWFUGW12A67ADF9FF
p4884
aag587
ag590
ag2509
ag4217
ag4224
ag4228
ag3327
ag2069
ag2072
ag2075
ag1389
ag3859
ag3355
ag3358
ag140
ag148
ag152
ag2087
ag2090
ag213
ag218
ag221
ag224
ag4341
ag4345
ag948
ag951
ag957
ag4015
ag4019
ag2535
ag2539
ag2543
ag1407
a(lp4885
VSORUNSN12A8C13348E
p4886
aVSORXUDE12AB018955A
p4887
aa(lp4888
VSOQUEIY12A81C21927
p4889
aVSOOTLSK12A8C13F68C
p4890
aag1080
ag1088
ag1095
ag1102
ag1107
ag1110
ag511
ag3841
ag3845
a(lp4891
VSOLJWIQ12A6D4FA875
p4892
aVSOCHYVZ12A6D4F5908
p4893
aa(lp4894
VSOCGKOQ12B0B80BDBF
p4895
aVSOCUARC12A6701E94D
p4896
aVSOAPVIO12A6701F509
p4897
aa(lp4898
VSOBLFSK12AC3DF98DB
p4899
aVSOCKADU12AF72A5271
p4900
aVSOSLCRU12A6701DB0B
p4901
aa(lp4902
VSOENMWG12A6D4FA7A7
p4903
aVSOEGZHD12A8C13BF3D
p4904
aa(lp4905
VSOBFBCM12AB018999A
p4906
aVSOURPIN12A6D4F32D3
p4907
aag2192
ag2196
a(lp4908
VSOUWDEZ12A58A77429
p4909
aVSOBAPJF12A670208FD
p4910
aVSOLYNPX12A8C135016
p4911
aVSOKYDGS12A6701E3CB
p4912
aVSODAIMX12A6D4F74D6
p4913
aag1691
ag1695
ag1900
a(lp4914
VSOQQQMM12A6310DFCC
p4915
aVSOPCDRW12AB017F61A
p4916
aa(lp4917
VSOBZVNR12AF72A5CC0
p4918
aVSOAUINR12A6D4FD7B1
p4919
aag2512
ag1569
a(lp4920
VSODTGOI12A8C13EBE8
p4921
aVSOBTMLA12A6D4FC2EB
p4922
aVSONQAWV12A6310F99A
p4923
aVSODYHMD12A6D4FDA8B
p4924
aVSOEZMOD12A8C136CC7
p4925
aVSOBJSLW12A6D4F9158
p4926
aa(lp4927
VSOTKCTK12AC468E80B
p4928
aVSOFKBBA12B0B806617
p4929
aVSOYAPMX12A8C13CB1F
p4930
aVSOVXRSR12A6D4F8051
p4931
aVSORKZFB12A6D4FCABC
p4932
aa(lp4933
VSODCRCS12A6D4FA76E
p4934
aVSOXJDKN12AF72A0051
p4935
aVSOONMPM12A8C13DA19
p4936
aVSOXFGUT12A8C13ECFC
p4937
aVSOAOHXZ12A6D4FBC78
p4938
aVSOJVQLR12A6D4FB9B8
p4939
aag3412
ag3416
a(lp4940
VSOINKEZ12A6310E1FC
p4941
aVSOBDZVH12AC468AB54
p4942
aa(lp4943
VSOMCWAZ12A67ADBCE3
p4944
aVSOBWCXE12A58A7B7FA
p4945
aVSOCRRJX12A6701D96A
p4946
aa(lp4947
VSOZFEWT12A6D4F6163
p4948
aVSODRBNX12A8C132F7E
p4949
aa(lp4950
VSOPUARH12AB0180E23
p4951
aVSOJTBOT12A8C13DB20
p4952
aVSOXEWZK12A8C1351BA
p4953
aVSOJQZGT12AC4684FE4
p4954
aag1325
ag1330
ag1333
ag1336
ag1341
a(lp4955
VSOENRIE12A8AE468A4
p4956
aVSOSOLGI12AB017D198
p4957
aa(lp4958
VSOMZBOC12A6D4F93C2
p4959
aVSOUDQDW12AF729F367
p4960
aVSOCTGHU12D021B3AA8
p4961
aVSORGVYS12A8AE48882
p4962
aVSOXBQDJ12A6D4F93CC
p4963
aVSOQTHIJ12A6D4F8A26
p4964
aa(lp4965
VSOBYHAJ12A6701BF1D
p4966
aVSOSLZXV12A8C1354C9
p4967
aag2517
ag3924
ag3927
ag1152
ag291
ag294
ag301
ag3895
ag2180
ag2184
ag2187
ag3455
ag3462
ag3466
ag2778
ag2785
ag3996
ag4004
ag4008
ag2139
ag2144
a(lp4968
VSOCZIRO12A8C133A39
p4969
aVSOSEEXZ12AB0184EEA
p4970
aag1413
ag1417
ag1420
ag1423
ag4167
ag4170
ag4173
ag3285
a(lp4971
VSOOODKI12A6D4FA2F5
p4972
aVSONESBK12A6D4F750C
p4973
aag3245
ag3249
ag2380
ag1116
ag1119
ag1122
ag1392
ag1395
a(lp4974
VSOFTMOK12A8C13D2F9
p4975
aVSOVYEHX12A8C13D69F
p4976
aVSOIFGCB12A8C134160
p4977
aa(lp4978
VSOHKZFV12A8C1429A8
p4979
aVSOXMWCR12A6D4FA267
p4980
aag619
ag3050
ag3053
ag3057
a(lp4981
VSOCRRDX12AB017BCF8
p4982
aVSOWROAI12A6D4F7D3F
p4983
aa(lp4984
VSOAMFCO12A6701F117
p4985
aVSODZSVV12A8AE47B25
p4986
aa(lp4987
VSONZKPM12A8C13D332
p4988
aVSOLVMMA12A8C13B66B
p4989
aa(lp4990
VSOIPECI12B0B80A191
p4991
aVSOLJWIQ12A6D4FA875
p4992
aVSOPPRIE12AAA8C598A
p4993
aVSOOFZKK12A58A7CCD1
p4994
aag1355
a(lp4995
VSOIFLMJ12A8C13FA94
p4996
aVSOWQXHG12AB0189D1A
p4997
aa(lp4998
VSOLUKGT12A67ADF6B0
p4999
aVSODEZKA12A8C1345E0
p5000
aVSOUVSJO12A6701E174
p5001
aVSOMOXSE12B0B80BEBB
p5002
aag1544
a(lp5003
VSOOSMFR12A8C13EBC8
p5004
aVSOGYRGX12AB017B8BF
p5005
aVSOAAUFR12D021925B6
p5006
aVSODRBNX12A8C132F7E
p5007
aa(lp5008
VSOSBNFQ12AB0185969
p5009
aVSOEHHCE12A3F1ED465
p5010
aa(lp5011
VSOEOTHD12AB01839DA
p5012
aVSONZXCJ12A81C22596
p5013
aVSOUOKFY12AB0184812
p5014
aVSOXLOVY12AB018156D
p5015
aVSOSERKW12AB017E6BC
p5016
aVSONAQRQ12AB017FD0B
p5017
aVSOBHKSR12AF729D340
p5018
aag860
ag863
ag868
ag356
ag332
ag335
ag4124
ag4128
ag1891
ag1897
a(lp5019
VSOBNLES12A679C8053
p5020
aVSOMERYR12A6310DFDE
p5021
aa(lp5022
VSOQITFW12A8C13480C
p5023
aVSOTAREX12AB018753F
p5024
aVSOKOGRH12A6D4FA395
p5025
aa(lp5026
VSOURKPP12A8C13FA7B
p5027
aVSOTKCTK12AC468E80B
p5028
aVSOOUAIU12AB0182EF5
p5029
aa(lp5030
VSOGNQCG12D021B2405
p5031
aVSOQFAUN12AB0182B90
p5032
aa(lp5033
VSOAEZLF12A58A7F572
p5034
aVSOVZSCE12B0B806C00
p5035
aag4399
ag4403
ag3175
ag3178
ag3183
a(lp5036
VSOAIBIH12AAFF43569
p5037
aVSOVOOFI12AAF3B219C
p5038
aVSONSAOY12A8C13EFB3
p5039
aag3252
ag318
ag323
ag3
ag4425
ag4428
ag546
ag549
ag553
ag556
ag4386
ag4390
a(lp5040
VSOBLOXH12AB018E0DC
p5041
aVSOFHVIW12AAF3B2AD7
p5042
aVSOHTDUI12A8C136662
p5043
aVSOGXWDM12A58A7B902
p5044
aa(lp5045
VSOAKCFL12A6D4F9CC5
p5046
aVSOVFWZD12D02191C02
p5047
aVSOCVBFV12A6701FB94
p5048
aVSOZKDMB12B0B80C4AC
p5049
aa(lp5050
VSOKCYEI12A58A7B7D4
p5051
aVSOHNTXC12CF5F87C80
p5052
aVSOJUIRW12A8C140BAE
p5053
aa(lp5054
VSOLHUWV12AF72A1557
p5055
aVSOSPYYA12A8C1385B7
p5056
aVSOZKDMB12B0B80C4AC
p5057
aa(lp5058
VSOMJJRS12AF729E156
p5059
aVSONEBDR12A8C1418C2
p5060
aa(lp5061
VSOMUDJA12AB018CCF8
p5062
aVSOSRZZU12AB017BD8D
p5063
aa(lp5064
VSOJLAIG12A6D4F7D6B
p5065
aVSODGVXC12A8C137B07
p5066
aVSOEFCXI12A8C13D670
p5067
aag1711
ag1714
ag1717
ag2881
ag2884
ag2887
ag3957
ag3961
ag2977
ag2150
ag3686
ag3690
ag3314
ag3320
ag3323
a(lp5068
VSOLKYJW12A6701C4C8
p5069
aVSOAVOUK12A8AE47504
p5070
aa(lp5071
VSOBUYWV12AB0181A02
p5072
aVSOIOSMN12AB018749E
p5073
aVSOHHWUB12AAF3B49D5
p5074
aa(lp5075
VSOKMBKR12A6701C4D5
p5076
aVSOTCCFL12AF72A23AB
p5077
aVSORBGRZ12D021B2802
p5078
aVSORRYHJ12AF72A3480
p5079
aa(lp5080
VSOMVBHV12A8C13D0A0
p5081
aVSORRYHJ12AF72A3480
p5082
aVSOUWDEZ12A58A77429
p5083
aa(lp5084
VSOPMHBZ12A6701E0FE
p5085
aVSOCGDFI12A8C137B08
p5086
aag4323
ag4329
ag4333
ag3672
ag3675
ag3680
ag2847
ag2853
a(lp5087
VSOIOTFC12AF72A59FD
p5088
aVSOSYMOP12AB01891B9
p5089
aa(lp5090
VSOAMBKN12A8C137A71
p5091
aVSOADISH12AB018DFAC
p5092
aa(lp5093
VSOBEQZF12AB0181BAE
p5094
aVSOKWHDH12AB018301B
p5095
aag2147
ag35
ag38
a(lp5096
VSOTEAIL12A6701D22C
p5097
aVSOMJFPG12A58A7DD95
p5098
aag850
ag853
ag856
ag4248
ag4254
ag4262
ag3964
ag3968
ag3038
ag3041
ag3047
ag2608
ag2898
ag3542
ag3545
ag3548
ag3345
ag3348
ag3351
ag2437
ag2440
ag2132
ag2135
ag656
ag3234
ag3238
ag3812
ag3819
ag2059
ag1359
ag1362
ag2422
ag2425
ag2428
ag2358
ag2361
a(lp5099
VSOMKEVH12B0B806C38
p5100
aVSOCUARC12A6701E94D
p5101
aVSODLVDX12A6310DF22
p5102
aVSOJYVPY12A8C1442FA
p5103
aVSOEXFZQ12A6D4FC33E
p5104
aVSOIIDJM12AB017AFEB
p5105
aag2590
ag2593
ag2598
ag103
ag4076
ag4080
ag1138
ag1141
ag1270
ag1273
ag1281
ag3557
ag3566
ag3573
ag3577
ag3060
ag3063
ag939
ag942
ag497
ag503
ag388
ag392
ag3551
ag3554
ag1209
ag1212
a(lp5106
VSOGHGSC12A8C13F549
p5107
aVSOXWQRJ12A58A7B191
p5108
aa(lp5109
VSOLDVFK12A6D4F8165
p5110
aVSONLOYY12A8C13720D
p5111
aVSOEMBBK12A6D4FB04F
p5112
aag178
ag181
ag184
a(lp5113
VSOKRDWT12A8C139242
p5114
aVSOZMCPU12A8C1405F0
p5115
aa(lp5116
VSODSBXG12A6310E90F
p5117
aVSOBBKGF12A8C1311EE
p5118
aVSOROJER12A8C140911
p5119
aVSOLMGCH12A8AE47BC1
p5120
aVSONOMMQ12AB01824B2
p5121
aa(lp5122
VSOSYMOP12AB01891B9
p5123
aVSOKCCAJ12AAF3B527B
p5124
aag1481
ag1485
ag3193
ag385
ag80
ag83
ag3006
ag3009
ag3012
ag968
ag16
ag20
ag23
ag26
ag3805
ag3496
ag1458
ag1465
ag1149
ag917
ag923
ag632
ag638
ag2820
ag3214
ag1284
ag2994
ag2999
ag3003
a(lp5125
VSOQHMPB12AB0183726
p5126
aVSOXLAQN12A8C1388D7
p5127
aVSOIDVSA12A8C13D203
p5128
aVSOTGWKQ12A8C138773
p5129
aa(lp5130
VSOCZUZX12D021B0A85
p5131
aVSOBECLR12A6D22723E
p5132
aag796
ag809
ag3331
ag3334
ag1254
ag1257
ag1260
ag1264
ag1267
ag4231
ag4234
ag4237
ag4240
ag312
ag315
ag396
ag740
ag743
ag746
ag750
ag2488
a(lp5133
VSONLURB12A8C13C72E
p5134
aVSOCVTLJ12A6310F0FD
p5135
aVSOPXKYD12A6D4FA876
p5136
aVSODAMRS12A8C142682
p5137
aVSOXBXDV12A8C134608
p5138
aVSOTRFFL12A8C133817
p5139
aag2332
ag4115
ag4119
a(lp5140
VSOGIHQH12AF72A72DC
p5141
aVSOUDTFW12AAF3B29FF
p5142
aa(lp5143
VSOEIQTI12A67021CBB
p5144
aVSOXESOK12B0B80B0FE
p5145
aag3268
ag3271
a(lp5146
VSOQBRAQ12A58A7D473
p5147
aVSOLSEQE12B0B80BBCB
p5148
aVSOPZEYW12A67020C32
p5149
aa(lp5150
VSOQKHZX12A8C133137
p5151
aVSOPKWEY12A67020C3B
p5152
aag2455
ag2458
ag2461
ag2464
ag2201
ag2204
a(lp5153
VSOITTRF12A6D4F8594
p5154
aVSOENEQZ12A6D4F7DF9
p5155
aag3189
ag783
ag4365
ag4368
ag4372
a(lp5156
VSOJUOYC12AB017F6A7
p5157
aVSOIECBG12A6701E940
p5158
aa(lp5159
VSOHZCXP12A58A78620
p5160
aVSORCQRX12AF72AC4CC
p5161
aVSOVJDOE12CF5CFC4C7
p5162
aVSOBKEHB12A58A7E9B3
p5163
aVSOCWIWP12AB018D16D
p5164
aa(lp5165
VSOOYJEC12AC468A1FA
p5166
aVSOXLVRT12A58A7E8F5
p5167
aa(lp5168
VSOOYLGA12A8C1455B3
p5169
aVSOJQGWQ12A8C131D63
p5170
aVSODZBQE12AB0183332
p5171
aa(lp5172
VSOCLPWM12A8C13DBD7
p5173
aVSOGYWKS12A6701D232
p5174
aVSOZERJS12AC9070FF3
p5175
aVSORBMRY12A6D4FA230
p5176
aag566
ag574
ag578
ag2863
ag2866
ag4159
ag4162
ag2207
ag2210
ag2235
ag2238
ag2241
ag2824
ag2827
ag4336
ag1610
ag1616
ag1619
ag1622
ag2318
ag2321
ag2325
a(lp5177
VSOBWKKF12A6D4F5AC3
p5178
aVSOIHAIJ12A8C1447E9
p5179
aVSOYHUOA12A8C13F1C8
p5180
aVSOTFXIR12A6D4F8B4C
p5181
aa(lp5182
VSOLIYJU12A6D4F8B4A
p5183
aVSOZNXQR12A8C144BC4
p5184
aVSOGWYPC12AB017A58A
p5185
aag1782
ag2345
ag2348
a(lp5186
VSOOUXDQ12A582912DB
p5187
aVSORFVJK12A6D4FD1CD
p5188
aa(lp5189
VSOFLLNJ12A6D4FA78A
p5190
aVSOKPULH12A8C138D78
p5191
aa(lp5192
VSOLUABP12AF72A2CD2
p5193
aVSOQACAA12A6D4F744C
p5194
aVSORVMJU12AB017D3C6
p5195
aa(lp5196
VSOTLYNF12A6D4F96A8
p5197
aVSOMTAKH12AB0182B37
p5198
aa(lp5199
VSOPOQLN12A8AE45A31
p5200
aVSOALVHO12A6D4F9068
p5201
aVSOPDIIZ12A67AE0D9F
p5202
aa(lp5203
VSORSZKX12A8C13B85B
p5204
aVSOBFGET12AB017DF7D
p5205
aag3900
ag3903
ag3906
ag1943
ag1946
ag1949
ag470
ag3728
ag4022
ag4026
ag4029
ag4032
ag3697
ag3700
ag1840
ag1844
ag1851
ag2686
ag2696
ag4182
ag2579
ag1508
ag1515
ag1521
ag2431
ag2434
ag2547
a(lp5206
VSOXWIWP12A67020CDB
p5207
aVSOTMWTV12A8C134846
p5208
aVSOYCXBA12A6701E35B
p5209
aVSOOCYQI12A8C132F15
p5210
aa(lp5211
VSOMAOJV12A67020F91
p5212
aVSOFRAZJ12A8C143CDB
p5213
aa(lp5214
VSOFHYZU12CF530E59B
p5215
aVSOGLZCT12A6D4FAF98
p5216
aVSOIBYYY12A8C143CDE
p5217
aa(lp5218
VSOSLZXV12A8C1354C9
p5219
aVSOHHALP12A6D4FB6A8
p5220
aag1928
ag1932
ag1469
ag1472
a(lp5221
VSOYVSAQ12AB017B0B5
p5222
aVSOPFKGZ12A6D4F91F2
p5223
aVSOJSLMT12A6D4F6155
p5224
aVSOAHLGV12AF72A6DFC
p5225
aVSORLTIR12A6310EA6C
p5226
aa(lp5227
VSOQUAEM12A8C1322E0
p5228
aVSOJDRGP12A8AE4789F
p5229
aa(lp5230
VSOBEQZF12AB0181BAE
p5231
aVSOLZRQN12A8C138E34
p5232
aa(lp5233
VSOTZBHX12A8C138529
p5234
aVSOSSIFU12A6D4F6EF3
p5235
aVSOKHHFL12A6D4FBE9F
p5236
aag6
ag9
ag12
ag3473
a(lp5237
VSOZGTNW12A58A7E193
p5238
aVSOFRNXC12A8C133DE4
p5239
aVSOLNVZW12A582A2C28
p5240
aVSONKLUS12A6D4F789B
p5241
aag1524
ag1528
ag1762
ag2396
ag2401
a(lp5242
VSOJPNTY12A8C1386F9
p5243
aVSOCMQFQ12A81C2098C
p5244
aVSOYWVMS12AB017E866
p5245
aVSOWXQEP12AC46870EE
p5246
aVSOCLPJQ12A6D4F9144
p5247
aVSOFRGKF12AF729D78D
p5248
aa(lp5249
VSOTJLMM12A8C135AE9
p5250
aVSONKMBE12A8C137F81
p5251
aVSOFLTSF12A8C135F71
p5252
aa(lp5253
VSOAINNA12AB017D8D5
p5254
aVSOHRVOM12AB0187CC1
p5255
aag2528
ag2531
ag3382
ag3386
ag3501
ag3504
a(lp5256
VSOCQFPV12A8C13BACD
p5257
aVSOWZSEB12A6D4F3C95
p5258
aa(lp5259
VSOKAFZY12A6310E85A
p5260
aVSOEEVKV12A8C133A5D
p5261
aa(lp5262
VSOEMXKI12AB01824C9
p5263
aVSOQAWJC12A6D4F66F2
p5264
aVSOVEUED12A8C133A61
p5265
aag2953
ag2958
a(lp5266
VSOARTSF12A8C13983F
p5267
aVSOSVIDH12A8C133544
p5268
aa(lp5269
VSOLWGTQ12A81C22A82
p5270
aVSOBTQQX12A6310EA72
p5271
aa(lp5272
VSOEBPAG12CF5F88981
p5273
aVSONLPZH12AB01843BA
p5274
aa(lp5275
VSOFZSNW12AB01876C5
p5276
aVSOSERZH12A8C142A38
p5277
aVSOMDHDH12A679D7E29
p5278
aVSOHXRVD12A8C131266
p5279
aVSOAPOAZ12A6D4F5147
p5280
aa(lp5281
VSOGITOE12AB018327F
p5282
aVSOSUYOY12A6D4F96A8
p5283
aVSOZKDMB12B0B80C4AC
p5284
aag1935
ag1940
ag2404
ag2408
ag2411
ag1908
ag1912
ag3946
ag3950
ag3954
a(lp5285
VSOIGCVK12A8C1441C0
p5286
aVSOBJSLW12A6D4F9158
p5287
aVSOFLDOK12A8C13E8F7
p5288
aVSOLKYJW12A6701C4C8
p5289
aa(lp5290
VSONJNQI12A6310EDEE
p5291
aVSOGVKTC12A8C131787
p5292
aag2364
ag2370
ag3241
ag1818
ag1821
ag907
ag911
ag914
ag2417
ag1978
ag1982
a(lp5293
VSOYESWP12A8AE475A4
p5294
aVSOBKKGP12AB017C9DA
p5295
aVSOKKFUS12A6701DAFA
p5296
aa(lp5297
VSODQPUF12AF72A4298
p5298
aVSOAZVHU12A8C13A8D5
p5299
aVSOSOQNO12AB0180A49
p5300
aVSOWMZFV12A6D4FB690
p5301
aa(lp5302
VSOPAJGQ12AB017F47D
p5303
aVSONBQJR12A8C13ABC4
p5304
aag3703
ag4083
ag4087
ag4091
a(lp5305
VSOGLZSU12A6701BE5E
p5306
aVSORZVEE12A58A7BB85
p5307
aa(lp5308
VSOLXYFV12A8AE45FE3
p5309
aVSOSYBEV12AB0182933
p5310
aa(lp5311
VSOZWFNI12A8C13CB20
p5312
aVSOHPYRP12AF729FB1D
p5313
aVSORXCYP12A6D4F96F6
p5314
aVSOXOUMN12AF72A01F5
p5315
aa(lp5316
VSOODXRD12A6310EE5F
p5317
aVSOUISOE12A8AE46081
p5318
aa(lp5319
VSOCRRJX12A6701D96A
p5320
aVSORJBNM12A6310DFE4
p5321
aVSOFTSRG12A6D4FA7EE
p5322
aa(lp5323
VSOJGDBM12A8C131297
p5324
aVSOJYPCG12AB0180A65
p5325
aa(lp5326
VSOVBORF12AC3DF57B6
p5327
aVSOVBMMH12A6701E3C0
p5328
aVSOUTJYC12A6D4FB439
p5329
aVSOEGPXE12AF729FC3B
p5330
aa(lp5331
VSONDBJB12A8C13125F
p5332
aVSOJAYIT12A58A79D4D
p5333
aa(lp5334
VSOMTQNR12A6D4F6986
p5335
aVSOWLJDA12A6D4FCAC5
p5336
aag3931
ag3934
ag3938
ag3943
ag1723
ag1733
ag3205
ag3210
ag1572
ag1576
ag1579
ag841
ag1030
ag1033
a(lp5337
VSOEGZHD12A8C13BF3D
p5338
aVSODWQTC12A6D4F81BE
p5339
aag2335
ag984
ag991
ag995
ag3785
ag3792
ag3469
ag2030
ag2066
ag1039
ag1044
ag1049
ag594
ag598
ag602
ag460
ag1231
ag560
ag975
ag980
a(lp5340
VSOMUCFP12A6701F28E
p5341
aVSOQVONK12A6D4F405D
p5342
aVSOQXYNO12A8C143F95
p5343
aVSOFFOIF12A6310D90E
p5344
aVSOTXXZZ12A8AE46EDC
p5345
aVSOZRPIQ12A8C13CE0B
p5346
aa(lp5347
VSONAVXO12B0B80AF4F
p5348
aVSOGDNAW12A6D4F6804
p5349
aa(lp5350
VSONKCAW12A8C137CFA
p5351
aVSOICTOM12A6D4FCE8F
p5352
aag488
ag494
ag2475
ag2479
ag2485
ag1502
ag1505
ag2700
ag2704
a(lp5353
VSOOASRI12A8C136D8E
p5354
aVSOULUTZ12A8C13FCDB
p5355
aVSOFGHUH12AF72A055C
p5356
aVSOGYELC12D021B12AB
p5357
aVSOOPDJT12A8AE48793
p5358
aVSOWNTLJ12AAF3B2D60
p5359
aVSOVSPDA12A8C134CA9
p5360
aVSOJSYKB12AB0181B30
p5361
aVSOJSIBX12A679C804C
p5362
aVSOUELYE12A8C14078F
p5363
aVSODQPWQ12AF72A24C4
p5364
aVSOOVWHG12A8C135751
p5365
aa(lp5366
VSOINYDQ12AB0185B1A
p5367
aVSOVQLVQ12A8C132BDA
p5368
aVSOOBDRI12A8C132391
p5369
aag1565
ag3835
a(lp5370
VSOCAAWX12A6D4F7901
p5371
aVSOVFWZD12D02191C02
p5372
aa(lp5373
VSOXIRXE12AB017BD94
p5374
aVSOXHBBH12AB0183F90
p5375
aVSOCQZNB12AF72AD03B
p5376
aa(lp5377
VSOSEQCI12A8C13438D
p5378
aVSOAJXFD12AB0183ACD
p5379
aVSOYQSBM12AB0183BEF
p5380
aa(lp5381
VSOJGDZQ12AB017FEC0
p5382
aVSOTWLJL12A58A7DA90
p5383
aVSOLPFSW12A81C208CF
p5384
aVSOYKKEK12A6D4F7B4D
p5385
aVSOCTRUR12AF72A0A90
p5386
aa(lp5387
VSOVFYFW12A8C131F0D
p5388
aVSOHDPSU12A6D4FC8C0
p5389
aag2571
a(lp5390
VSOCOKAA12A6D4F8E0C
p5391
aVSOJSWGE12AF72A6DA7
p5392
aVSORLHNG12A8C13F776
p5393
aa(lp5394
VSOIIYNJ12A6D4FE177
p5395
aVSOSYARO12A6D4F7001
p5396
aVSOEMFBP12AB017FD35
p5397
aa(lp5398
VSOBVNFB12A8AE47215
p5399
aVSOARTSF12A8C13983F
p5400
aa(lp5401
VSOHNHEL12AF729E72D
p5402
aVSOVYUYG12A8AE47BAB
p5403
aa(lp5404
VSOKDIGZ12A8C1321E9
p5405
aVSOCTRUR12AF72A0A90
p5406
aa(lp5407
VSOHAMQZ12A8AE463E3
p5408
aVSOLEZRF12A6D4F8652
p5409
aVSOJFDAD12A6D4FA265
p5410
aVSORSZKX12A8C13B85B
p5411
aa(lp5412
VSOEXHTO12A8C143D4C
p5413
aVSOCXXCP12A8C13BEB8
p5414
aa(lp5415
VSOAPOAZ12A6D4F5147
p5416
aVSOKWEUK12A8C136932
p5417
aag410
a(lp5418
VSONLJXS12A6701FA2D
p5419
aVSOCRLBT12AF72A77C5
p5420
aa(lp5421
VSOQHWQW12A8C14329C
p5422
aVSOPGPTD12A6310E032
p5423
aa(lp5424
VSOAGMLZ12A8C13B808
p5425
aVSOSAYIM12A8C139F74
p5426
aa(lp5427
VSOYQGHD12A6D4F7E5D
p5428
aVSOSEJLE12A8C13AFA3
p5429
aa(lp5430
VSOKDEGZ12AB017AE9C
p5431
aVSOQAWJC12A6D4F66F2
p5432
aa(lp5433
VSOFWKTO12AF72A5DDF
p5434
aVSOTKDWF12A6701ECF8
p5435
aa(lp5436
VSOVRXWW12A6D4F74D3
p5437
aVSOAKZZS12AB018B67B
p5438
aa(lp5439
VSOHNOOC12A8C13BF35
p5440
aVSOTOXYL12A8C139E18
p5441
aa(lp5442
VSOKYZSI12AB0183789
p5443
aVSOPXKYD12A6D4FA876
p5444
aag431
ag434
ag1548
ag1551
a(lp5445
VSOBYPHK12A67ADE61B
p5446
aVSOURYDB12A8C135A6A
p5447
aa(lp5448
VSORQFEH12A58A7B741
p5449
aVSOZNAEQ12AC468A427
p5450
aag2817
ag1532
ag1537
a(lp5451
VSOUZIIN12AB017FB85
p5452
aVSOVDYXW12AB017CB97
p5453
aVSOTKWCX12A8C13EB46
p5454
aVSOZKDMB12B0B80C4AC
p5455
aa(lp5456
VSOHTDUI12A8C136662
p5457
aVSOBNLES12A679C8053
p5458
aVSOCVTLJ12A6310F0FD
p5459
aa(lp5460
VSORRYHJ12AF72A3480
p5461
aVSOIICEF12AB01845DA
p5462
aVSOJNNQL12A6D4F548B
p5463
aag416
ag420
a(lp5464
VSOFAIVM12A8C1364F7
p5465
aVSOHVOJW12A8C141F54
p5466
aVSOJYOLS12A8C13C06F
p5467
aVSOEYJDX12A8C143C42
p5468
aa(lp5469
VSOSIOIT12A6D4FA79E
p5470
aVSOEDBAO12A8AE476FE
p5471
aVSOJEWNP12A6D4FD1E6
p5472
aVSODVAFI12A67ADA4CE
p5473
aVSOSZPUK12A6701CD77
p5474
aa(lp5475
VSOCKADU12AF72A5271
p5476
aVSOMDYRG12A8C138DAB
p5477
aag88
ag91
ag4148
ag4151
ag4155
ag1857
ag1860
a(lp5478
VSOQPKMW12A6310D993
p5479
aVSOPQJKW12A58A7AB38
p5480
aVSOIEDMT12A6D4F9A09
p5481
aVSOZVVIB12A8BEEEEB0
p5482
aa(lp5483
VSOAAUFR12D021925B6
p5484
aVSOZKDMB12B0B80C4AC
p5485
aVSOVFYFW12A8C131F0D
p5486
aVSOKZPCE12CF5F88327
p5487
aa(lp5488
VSOSZPUK12A6701CD77
p5489
aVSOLNTKO12A63110845
p5490
aVSOOCRKC12D0219917F
p5491
aa(lp5492
VSOMMPAO12A8C13203D
p5493
aVSOQEJUC12A6310EE07
p5494
aVSORFSJB12A81358261
p5495
aVSOMOSXL12A6701E5DC
p5496
aVSOILGZL12A8C1413D7
p5497
aVSOBMAFJ12A8C137C88
p5498
aVSORLHNG12A8C13F776
p5499
aag3311
ag3694
ag812
ag817
ag4421
a(lp5500
VSOIQNYM12AAF3B46D0
p5501
aVSOIMLSA12AB018772D
p5502
aag2719
ag2723
ag2728
a(lp5503
VSONMEPF12A6D4F3C92
p5504
aVSOMUCFP12A6701F28E
p5505
aa(lp5506
VSODMLIR12A6D4FA2F1
p5507
aVSOLSODY12A8C1348AA
p5508
aa(lp5509
VSOBRIXB12AB0182257
p5510
aVSOFGOJS12A6D4FA643
p5511
aa(lp5512
VSOXFIOK12A582912BC
p5513
aVSOJSGIR12AB018109D
p5514
aa(lp5515
VSOBILME12A6701EEAB
p5516
aVSOJXBMH12AB01857BE
p5517
aa(lp5518
VSORZCNB12AF72A3B00
p5519
aVSOSANYV12AB0186251
p5520
aa(lp5521
VSOTKVYT12A6701EEAD
p5522
aVSONZRGF12AB0180268
p5523
aa(lp5524
VSOJXCFK12AF72A1B7C
p5525
aVSOLJDYM12AB01857B5
p5526
aVSOQXIGE12A6D4F69DE
p5527
aVSOPOGHW12A58A7ABE0
p5528
aVSORJXZM12AB0186247
p5529
aa(lp5530
VSOIEVTM12A67021D72
p5531
aVSOQQWFI12A67020F95
p5532
aVSOZOHMX12B0B806619
p5533
aVSOONWZM12AB0184EBE
p5534
aVSOERSBA12A6D4F9823
p5535
aag2755
ag2758
ag2761
ag75
ag786
a(lp5536
VSOUZOFT12A6701DAA2
p5537
aVSOWUZVU12A6D4F914D
p5538
aVSOYDOZE12A6701FC22
p5539
aa(lp5540
VSOSYARO12A6D4F7001
p5541
aVSOKTYWZ12A6D4F9766
p5542
aa(lp5543
VSOOCRKC12D0219917F
p5544
aVSOYVTBB12AF72AC610
p5545
aa(lp5546
VSOZFEWT12A6D4F6163
p5547
aVSOVHDVT12A6D4F942B
p5548
aa(lp5549
VSOXEZLY12A8C137AB0
p5550
aVSOFPAQH12AF72AAF36
p5551
aVSOQCKYP12A6310E204
p5552
aa(lp5553
VSOGLWEY12A6310DFA4
p5554
aVSOGFXYQ12A8C132088
p5555
aag3971
ag3974
ag3979
aa(lp5556
g2608
ag4248
ag4254
ag4262
ag4469
ag4472
ag4477
ag4603
ag4609
ag4612
ag3747
ag3751
ag3756
ag1740
ag1744
ag4838
ag4841
ag156
ag161
ag4857
ag4861
ag5177
ag5182
ag4015
ag4019
ag560
ag2235
ag2238
ag2241
ag1683
ag1687
ag5036
a(lp5557
VSOQABRZ12A58A790BC
p5558
aVSOFJDTE12AB017EFD4
p5559
aa(lp5560
VSOUMOMJ12A6701DFDC
p5561
aVSOSYSTY12A67020C3A
p5562
aa(lp5563
VSOZAXCJ12A8C144A60
p5564
aVSOISXVJ12A6701F1CD
p5565
aa(lp5566
VSOOCRKC12D0219917F
p5567
aVSOQKHZX12A8C133137
p5568
aa(lp5569
VSOOJWZE12A8C144A85
p5570
aVSOTVFIU12AC46878B7
p5571
aag2994
ag2999
ag3003
ag4688
ag4691
ag3706
ag3709
ag3712
ag4543
ag2126
ag2129
ag1824
ag1827
ag2488
ag1192
ag1195
ag5512
ag5515
ag5518
ag5521
ag5524
ag4159
ag4162
ag3841
ag3845
ag1863
ag2220
ag2225
ag2229
ag2232
ag3513
ag3516
ag3521
ag3524
ag5068
ag5071
ag5075
ag1508
ag1515
ag1521
ag1572
ag1576
ag1579
a(lp5572
VSOHFHVX12AB017E4A1
p5573
aVSOHRVOM12AB0187CC1
p5574
aa(lp5575
VSOZKDMB12B0B80C4AC
p5576
aVSOEZOJK12A8C131447
p5577
aVSOKZQYX12A6D4F9CA1
p5578
aag1557
ag1560
ag305
ag309
ag581
ag5080
ag5084
ag4203
ag4208
ag4213
ag5285
ag5290
ag2547
ag3686
ag3690
ag698
ag702
ag711
ag718
ag4231
ag4234
ag4237
ag4240
ag2863
ag2866
ag5407
ag5412
ag5415
ag3785
ag3792
ag4399
ag4403
ag1891
ag1897
ag3225
ag3229
ag5337
ag521
ag525
ag528
ag2383
ag2387
ag365
ag368
ag372
ag375
ag378
ag5221
ag5227
ag5230
ag5233
ag119
ag122
ag2774
a(lp5579
VSOMOKCH12A8159E8A0
p5580
aVSOHWZGV12A8C1388A7
p5581
aa(lp5582
VSOROJER12A8C140911
p5583
aVSONKNVU12A3F1EB037
p5584
aVSONDBJB12A8C13125F
p5585
aVSOQAAZP12A67AE0D9A
p5586
aag3805
ag3649
ag3652
ag3655
ag3658
ag2374
ag2377
a(lp5587
VSOJYGHN12A8C13758C
p5588
aVSODZXPP12AB018762D
p5589
aa(lp5590
VSOMKCLA12A8AE4562E
p5591
aVSORVTIK12AB0183AAC
p5592
aVSOUAMUK12AB01897EC
p5593
aVSOSHOVR12AB0181436
p5594
aVSOSLZXV12A8C1354C9
p5595
aa(lp5596
VSOZBZFF12A6310F12D
p5597
aVSOOYQXS12A6D4F84B9
p5598
aag1127
ag1132
ag1135
ag236
ag239
ag242
ag1544
ag5478
ag5483
ag2977
ag740
ag743
ag746
ag750
ag4509
ag4513
ag3294
ag4022
ag4026
ag4029
ag4032
ag3496
ag3299
ag3302
ag3305
ag3308
ag4875
ag3661
ag3665
ag1762
ag2788
ag2791
ag2795
ag2799
ag2069
ag2072
ag2075
ag2901
ag2904
ag2907
ag1881
ag1887
ag2404
ag2408
ag2411
ag917
ag923
ag1392
ag1395
ag3110
a(lp5599
VSOGRROR12AB018C723
p5600
aVSOADWHB12A8C13E1D5
p5601
aVSOHZDFT12A8C13BBA4
p5602
aVSOYBFYM12A8C13EB41
p5603
aVSOHUESZ12AB0183AFA
p5604
aVSOLLCUE12A6D4FA1AA
p5605
aVSOVTWII12AB0182D1E
p5606
aVSOAOTTA12AB0186E84
p5607
aVSOAZNCA12AB0185D96
p5608
aVSOSHKVH12AB0185F4D
p5609
aVSORQPDQ12AB018ABF5
p5610
aVSOYFGYE12A670215BE
p5611
aag4132
ag463
ag466
ag4885
ag4888
ag3610
ag3613
ag1867
ag1873
ag1877
ag4902
ag4905
ag3924
ag3927
ag2170
ag2174
ag2177
ag1971
ag1975
ag326
ag329
ag2812
ag2332
ag2335
ag2155
ag2160
ag1026
ag1943
ag1946
ag1949
ag140
ag148
ag152
ag3262
ag3265
ag4310
ag4313
ag4318
ag4073
ag2318
ag2321
ag2325
ag4530
ag4533
ag4537
ag4540
ag3035
ag3345
ag3348
ag3351
ag4480
ag4485
ag29
ag4518
ag4521
ag4524
ag4527
ag3971
ag3974
ag3979
ag1398
ag1401
ag1404
a(lp5612
VSOUQKMD12A8C130ED9
p5613
aVSOKPPGR12A81C217A7
p5614
aVSOSOJGE12A8C1363D6
p5615
aag1674
ag1679
ag5305
ag5308
ag5311
ag5316
ag1355
ag514
ag518
ag35
ag38
ag338
ag341
ag3957
ag3961
ag1407
ag5125
ag5130
ag850
ag853
ag856
ag475
ag480
ag5370
ag5373
ag832
ag835
ag838
ag3278
ag3281
ag1152
a(lp5616
VSOMUCFP12A6701F28E
p5617
aVSOZEUQZ12A6310E8E3
p5618
aa(lp5619
VSOORCUY12A67021562
p5620
aVSOGIEOU12A8C134815
p5621
aVSOICTOM12A6D4FCE8F
p5622
aVSOQATIZ12AB017CFF5
p5623
aVSOVXIMF12B0B807329
p5624
aag4182
ag4615
ag1254
ag1257
ag1260
ag1264
ag1267
ag396
ag4192
ag4196
ag4199
ag5026
ag5030
ag5033
ag1806
ag1809
ag3476
ag4786
ag4789
ag2261
ag2264
ag2268
ag2273
ag4266
ag4276
ag4279
ag460
ag6
ag9
ag12
ag3337
ag3342
ag2147
ag898
ag901
ag5050
ag5054
ag5058
ag5061
ag1711
ag1714
ag1717
ag2306
ag2309
ag2314
ag2918
ag2922
ag753
ag756
ag2164
ag2167
ag2062
a(lp5625
VSOTVFIU12AC46878B7
p5626
aVSOUCKDH12A8C138FF5
p5627
aa(lp5628
VSOPCQFN12A6701F955
p5629
aVSOUNXOC12A6D4FB438
p5630
aa(lp5631
VSOFKBBA12B0B806617
p5632
aVSOIEFBH12A8C13587D
p5633
aa(lp5634
VSOQTUZG12AB018D1F0
p5635
aVSOVEBPD12A8AE46B9B
p5636
aa(lp5637
VSOQKBUJ12A6D4F7D6F
p5638
aVSOBARLM12A8C13781C
p5639
aVSONSBLZ12A6D4FAD3D
p5640
aVSOVQSZA12AF72A3633
p5641
aa(lp5642
VSOPCUXO12A8C143664
p5643
aVSOCVGXR12AB017D324
p5644
aVSOESOCJ12A8C135B00
p5645
aVSOICJSZ12D0219B17D
p5646
aa(lp5647
VSORACYK12D02193097
p5648
aVSOTRNAV12AB018970E
p5649
aVSOTUUWK12AB01821C6
p5650
aVSOFUUEH12AB0185F34
p5651
aa(lp5652
VSOSPXMF12AF72A33E9
p5653
aVSONAZWN12A8151C957
p5654
aVSOXGLCH12A6D4F51C4
p5655
aa(lp5656
VSOOIVVR12A6D4F968C
p5657
aVSOCRUBT12A8C13D30C
p5658
aVSOFQIXL12A8C143648
p5659
aVSOCCPPD12AB017E6EA
p5660
aVSOYINSW12B0B80BEBD
p5661
aa(lp5662
VSOLRECS12A8C13D300
p5663
aVSOANSPR12A8C13E8D0
p5664
aVSOYDKBT12AB017BD24
p5665
aag4243
ag3634
ag3637
ag1840
ag1844
ag1851
ag1458
ag1465
ag3186
ag4407
ag4411
ag1299
ag1302
ag1469
ag1472
ag2207
ag2210
ag424
ag427
ag4414
ag4418
a(lp5666
VSOMFBUY12A6D4F548E
p5667
aVSOPSRBB12A8AE46C0F
p5668
aa(lp5669
VSOSVFCJ12AC4687C17
p5670
aVSOGJPVV12A6310E159
p5671
aVSOZKLBY12A8C130060
p5672
aag3984
ag3987
ag3993
ag431
ag434
ag4336
ag382
ag2437
ag2440
ag2045
ag2050
ag2053
ag2056
ag2745
ag4106
ag4109
ag4112
ag4794
ag4797
ag2431
ag2434
ag4974
ag4978
ag3835
ag1216
ag1221
ag1186
ag1189
ag2665
ag2668
ag1322
ag3859
ag841
ag4894
ag4898
ag4914
a(lp5673
VSORGVYS12A8AE48882
p5674
aVSOGEFOF12A81C2235D
p5675
aa(lp5676
VSOEPJXE12A8AE47FF5
p5677
aVSONGIXY12A58A7BB42
p5678
aa(lp5679
VSOTSRUQ12A81C22359
p5680
aVSOETHQM12A8C1366A9
p5681
aVSOXNDBB12A58A7C279
p5682
aa(lp5683
VSOICVFJ12A8AE47FF0
p5684
aVSOCQSZB12A58A7B71D
p5685
aVSONAISQ12A81C2236D
p5686
aVSOHMSPV12AB0185643
p5687
aVSOWHCUL12D02199D88
p5688
aVSOQFZDY12A8C1402DF
p5689
aag5445
ag5448
ag5146
ag5150
ag261
ag266
ag3412
ag3416
ag5275
ag5281
ag2748
ag2752
ag2108
ag2113
a(lp5690
VSOZBZFF12A6310F12D
p5691
aVSOWRUTR12AB01860BE
p5692
aag2390
ag2393
ag5106
ag5109
ag3290
ag2293
ag2296
ag2300
ag2303
ag4642
ag116
ag3931
ag3934
ag3938
ag3943
ag721
ag724
ag271
ag275
ag284
ag1228
ag332
ag335
ag3542
ag3545
ag3548
ag80
ag83
ag1488
ag1493
ag1497
ag2778
ag2785
ag948
ag951
ag957
ag2820
ag2925
ag2929
ag2933
ag1524
ag1528
ag2528
ag2531
ag5133
ag2201
ag2204
ag670
ag677
ag1039
ag1044
ag1049
ag3964
ag3968
ag2847
ag2853
ag2059
ag3205
ag3210
ag4714
ag4717
ag4720
ag4723
ag4584
ag4587
ag48
ag51
ag4803
ag4806
ag4809
ag5418
ag5421
ag5424
ag416
ag420
ag213
ag218
ag221
ag224
ag4845
ag4848
ag5427
ag5430
ag4920
ag4927
ag4933
ag1410
ag3123
ag3126
ag1231
ag2036
ag2041
ag796
ag809
ag4011
ag2857
ag4699
ag4706
ag907
ag911
ag914
ag4596
ag3743
ag1080
ag1088
ag1095
ag1102
ag1107
ag1110
ag2450
ag4138
ag4141
ag4144
ag1052
ag1056
ag1059
ag3996
ag4004
ag4008
ag3946
ag3950
ag3954
a(lp5693
VSOEZOJK12A8C131447
p5694
aVSOSKQZD12A8C131F6D
p5695
aa(lp5696
VSOZRCJR12AB0182FDB
p5697
aVSOWFNYL12A8C1405FF
p5698
aVSODUWRY12AB0189983
p5699
aVSOLJWIQ12A6D4FA875
p5700
aVSOCTYHG12A679D7E2B
p5701
aa(lp5702
VSONEANG12A8C13FA0F
p5703
aVSOOCRKC12D0219917F
p5704
aVSOEMFBP12AB017FD35
p5705
aa(lp5706
VSOVBMMH12A6701E3C0
p5707
aVSOQYVMK12AB018714E
p5708
aag3327
ag4878
ag4881
ag3672
ag3675
ag3680
ag4669
ag4672
ag3016
ag3021
ag790
ag793
ag4736
ag4739
ag4742
ag3916
ag3771
a(lp5709
VSOBNWZK12A8C133A06
p5710
aVSOCRHFJ12A67021D74
p5711
aVSOLMGCM12A58A7878A
p5712
aVSOVMWUC12A8C13750B
p5713
aVSOTGDON12A6D4FA3A8
p5714
aa(lp5715
VSOEUFFD12A6D4FBDF5
p5716
aVSOJJINB12AF72A35F5
p5717
aag892
ag895
ag2491
ag2499
ag2030
ag1284
ag488
ag494
ag5500
ag3581
ag3584
ag3588
ag3591
ag4745
ag4750
ag2351
a(lp5718
VSORWOEA12AF72A3880
p5719
aVSONLSLK12A58A7992B
p5720
aa(lp5721
VSODCQWN12A8C13728C
p5722
aVSOBWVGX12AB017BD87
p5723
aVSOXCDZA12CF58273A7
p5724
aag656
ag1801
ag1928
ag1932
ag2087
ag2090
ag821
ag829
ag4061
ag4065
ag4069
ag2686
ag2696
ag4646
ag4650
ag769
ag772
ag775
ag778
ag2081
ag2084
ag5249
ag5253
ag3551
ag3554
ag3314
ag3320
ag3323
ag1030
ag1033
ag62
ag66
ag2590
ag2593
ag2598
ag4546
ag4549
ag4552
ag2364
ag2370
ag4217
ag4224
ag4228
ag945
ag3285
ag1830
ag1833
ag4356
ag4359
ag606
ag610
ag613
a(lp5725
VSOSKOBW12AB018BBD3
p5726
aVSOXBVSW12AB0182C78
p5727
aa(lp5728
VSOIFLLR12A8C13522F
p5729
aVSOQHNBP12A67020172
p5730
aag2358
ag2361
ag4186
ag4189
ag2396
ag2401
ag2279
ag2283
ag2287
ag3480
ag3484
ag3487
ag3492
ag4816
ag4821
ag4824
ag4827
ag1786
ag1789
ag1793
ag1796
ag3760
ag3764
ag3768
ag1654
ag1657
ag5293
ag5297
ag5302
ag2707
ag2710
ag2713
ag2716
ag483
ag2522
ag2150
ag632
ag638
ag312
ag315
ag5488
ag5492
ag5153
ag5460
ag2892
ag2895
ag647
ag650
ag2535
ag2539
ag2543
ag1270
ag1273
ag1281
ag2817
ag4908
ag3623
ag3628
ag3631
ag3694
ag4556
ag1630
ag1634
ag1638
ag3024
ag3029
ag3032
ag388
ag392
ag2116
ag2123
ag5087
ag5090
ag5093
ag4052
ag4421
ag546
ag549
ag553
ag556
ag5156
ag5159
ag5165
ag5168
ag5172
ag3
ag2132
ag2135
ag3557
ag3566
ag3573
ag3577
ag4294
ag4297
ag4676
ag4679
ag786
ag3189
ag3402
ag3409
ag437
ag440
ag448
ag2719
ag2723
ag2728
ag5451
ag5456
ag1158
ag1161
ag1164
ag1168
ag3595
ag3603
ag1978
ag1982
ag532
ag535
ag539
ag542
ag1737
ag2244
ag2248
ag2252
ag2255
ag2258
ag1857
ag1860
ag4813
ag641
ag644
ag4459
ag54
ag58
a(lp5731
VSOILBPW12B0B806A0E
p5732
aVSOFZBLV12D0219A746
p5733
aVSOIPBBF12A6310F107
p5734
aa(lp5735
VSOSSMGA12A67020F9A
p5736
aVSOWZSEB12A6D4F3C95
p5737
aVSOKVIDV12AB017AFC6
p5738
aag32
ag2802
ag2805
ag3864
ag3867
ag3870
ag759
ag762
ag766
ag164
ag168
ag173
ag470
a(lp5739
VSODXCHF12A8C132FA3
p5740
aVSOCMSDV12A8C13B96C
p5741
aVSODKFTV12AB018DE20
p5742
aa(lp5743
VSOUPGDD12A67AD811D
p5744
aVSOCLXOF12D021930E8
p5745
aa(lp5746
VSOGEJBA12A6D4F768C
p5747
aVSOKWIGA12A6701F130
p5748
aag4425
ag4428
ag2834
ag2838
ag2843
ag844
ag847
ag4968
ag3825
ag3829
ag3832
ag1641
ag1644
ag1648
ag1651
ag1691
ag1695
ag41
ag45
ag2475
ag2479
ag2485
ag4501
ag4506
ag1116
ag1119
ag1122
ag4727
ag4731
ag1935
ag1940
ag1359
ag1362
ag2638
ag2641
ag2646
ag2656
ag2659
ag2662
ag507
ag1541
ag3645
ag3129
ag3134
ag3137
ag3144
ag3148
ag3151
ag3155
ag3158
ag4282
ag2009
ag2012
ag2015
ag2276
ag3100
ag622
ag625
ag2290
ag4035
ag4038
ag4041
ag4045
ag5353
ag5366
a(lp5749
VSOMQVXX12A58A7B56E
p5750
aVSOMYOKO12A8AE476DC
p5751
aVSOHVJKX12A670208ED
p5752
aa(lp5753
VSOLPIVB12A6701F118
p5754
aVSOLJWIQ12A6D4FA875
p5755
aVSOHBTJO12AB018626F
p5756
aVSOLSGAY12A8C13E752
p5757
aVSONOARU12A6D4F7E32
p5758
aa(lp5759
VSODUPFL12A6701EAA9
p5760
aVSOORMIV12A6D4F60C0
p5761
aag1662
ag1668
ag4766
ag4769
ag4776
a(lp5762
VSONDBJB12A8C13125F
p5763
aVSOFAFRF12A58A7D766
p5764
aVSOEGPXE12AF729FC3B
p5765
aa(lp5766
VSOSSSPZ12A679AE575
p5767
aVSOZUMNX12AB0184C8F
p5768
aVSOGITOE12AB018327F
p5769
aVSOARNMW12A8C14093C
p5770
aag75
ag1765
ag1769
ag1772
ag1778
ag4395
ag2018
ag2026
ag3895
ag3501
ag3504
ag2731
ag2738
ag2741
ag2870
ag2878
ag2944
ag2950
ag5530
ag1502
ag1505
ag2898
a(lp5771
VSOOASRI12A8C136D8E
p5772
aVSOCJWZY12A67021D18
p5773
aVSOARNMW12A8C14093C
p5774
aVSOEUESM12AB01871A3
p5775
aVSOROJYH12A6D4F7EA7
p5776
aa(lp5777
VSOVFWZD12D02191C02
p5778
aVSOILMZO12AB017C0E1
p5779
aag4386
ag4390
ag3060
ag3063
ag4304
ag4307
ag2971
ag2974
ag2755
ag2758
ag2761
ag3175
ag3178
ag3183
ag1915
ag1919
ag1924
ag3197
ag3201
ag4958
ag4965
ag1149
ag4323
ag4329
ag4333
ag3469
ag4568
ag4571
ag4574
ag4579
ag3268
ag3271
a(lp5780
VSOATRZG12AC4687E04
p5781
aVSOBSNNU12A8C140F01
p5782
aa(lp5783
VSODJTMH12A8AE47BAE
p5784
aVSOQQHHG12A8C132A5B
p5785
aVSOACEDS12A6701EAAA
p5786
aag188
ag191
ag194
ag4753
ag4757
ag4762
ag3103
ag3107
ag3050
ag3053
ag3057
ag1023
ag5464
ag5469
ag3795
ag3799
ag3802
ag4435
ag4438
ag3362
ag3366
ag3369
ag2099
ag2102
ag2105
ag4559
ag4565
ag3161
ag3164
ag3167
ag616
ag1075
a(lp5787
VSOWEJXI12A58A7B04F
p5788
aVSOEWPQB12A8C13222B
p5789
aa(lp5790
VSOUAHTQ12AB0182C8A
p5791
aVSOCJNZK12B0B8076C6
p5792
aVSOOTDEL12A6D4F6E2A
p5793
aa(lp5794
VSOGQYIS12A8C1424F2
p5795
aVSOEPHAK12A8C1383D5
p5796
aVSOHTLCH12A6D4FB9B6
p5797
aag860
ag863
ag868
ag5256
ag5259
ag5262
ag3066
ag3069
ag3072
ag3075
ag3093
ag3097
ag5319
ag5323
ag5326
ag5331
ag3733
ag3740
ag2683
ag5186
ag5189
ag5192
ag5196
ag5199
ag5203
ag1699
ag1702
ag1705
ag1708
ag2443
ag2446
ag497
ag503
ag4431
ag5140
ag5143
ag3617
a(lp5798
VSOUXUWL12AB01827AB
p5799
aVSOWNOIU12A8C142BE5
p5800
aa(lp5801
VSOCDXHL12A8C137A8A
p5802
aVSOGMKGT12A6701F931
p5803
aVSOJHYTV12A8C1345CD
p5804
aa(lp5805
VSOWAEMT12A58A79771
p5806
aVSOAPDAL12D021B26FE
p5807
aag2824
ag2827
ag291
ag294
ag301
ag1481
ag1485
a(lp5808
VSOZSTIE12A6D4FC7FE
p5809
aVSOIYWPO12A8159E8B7
p5810
aVSOOZXYS12A6D4FBC04
p5811
aag4375
ag4379
ag4383
ag399
ag1199
ag1202
ag1205
ag5113
ag4864
ag4870
ag2963
ag5340
ag5347
ag5350
ag1475
ag1478
ag4135
ag681
ag686
a(lp5812
VSOGYELC12D021B12AB
p5813
aVSOJLANL12AB0186316
p5814
aVSOZOSTH12A6D4FB48E
p5815
aVSOVOQAH12A8C133D34
p5816
aa(lp5817
VSOXVCUB12AF729FAE7
p5818
aVSOGMHJO12A6D4FA747
p5819
aag1367
ag1375
ag1381
ag4115
ag4119
ag16
ag20
ag23
ag26
ag69
ag72
ag356
ag5404
ag3170
ag4443
ag4447
ag4456
ag1016
ag1019
ag2881
ag2884
ag2887
ag125
ag128
ag132
ag872
ag875
ag878
ag883
ag886
ag889
ag3331
ag3334
ag4626
ag4629
ag4632
ag4635
ag4638
ag1585
ag1588
ag1591
ag5099
ag3874
ag3878
ag3728
ag3382
ag3386
ag3006
ag3009
ag3012
ag2345
ag2348
ag1569
ag3430
ag3436
ag3440
ag2953
ag2958
ag451
ag457
ag4682
ag4685
ag2517
ag1908
ag1912
ag3697
ag3700
ag348
ag351
ag402
ag407
ag229
ag233
ag4124
ag4128
a(lp5820
VSOXTNEG12A8C139823
p5821
aVSOJMITH12A8C13B6E5
p5822
aVSOSMUYB12A8C14356D
p5823
aag3193
ag5019
ag5022
ag3374
ag3378
ag1720
aa(lp5824
g1322
ag3785
ag3792
ag2150
ag2488
ag5096
ag80
ag83
ag431
ag434
ag3285
ag4356
ag4359
ag4556
ag1548
ag1551
ag3916
ag3957
ag3961
ag470
ag4459
ag3728
ag2431
ag2434
ag1149
ag385
ag2764
ag2768
ag2771
ag2293
ag2296
ag2300
ag2303
ag3825
ag3829
ag3832
ag345
ag5488
ag5492
ag4971
ag2731
ag2738
ag2741
ag2332
ag3884
ag3889
ag2030
ag1355
ag2380
ag3412
ag3416
ag4061
ag4065
ag4069
ag5221
ag5227
ag5230
ag5233
ag3496
ag2892
ag2895
ag2164
ag2167
ag4766
ag4769
ag4776
ag2147
ag1398
ag1401
ag1404
ag3697
ag3700
ag5113
ag3314
ag3320
ag3323
ag5445
ag5448
ag2351
ag2778
ag2785
ag475
ag480
ag2774
ag4688
ag4691
ag254
ag257
ag4656
ag4660
ag4665
ag1116
ag1119
ag1122
ag2944
ag2950
ag1392
ag1395
ag670
ag677
ag4940
ag4943
ag4947
ag4950
ag2817
ag3186
ag1270
ag1273
ag1281
ag3775
ag3782
ag4891
ag382
ag2009
ag2012
ag2015
ag606
ag610
ag613
ag5377
ag5381
ag5387
ag4546
ag4549
ag4552
ag2417
ag1199
ag1202
ag1205
ag1541
a(lp5825
VSODUMKR12AB0186A11
p5826
aVSOEFNKQ12A8C13269C
p5827
aa(lp5828
VSOYZVFK12A8C140A20
p5829
aVSOQQQMM12A6310DFCC
p5830
aVSOWDNYE12A58A7D2AB
p5831
aa(lp5832
VSOEASNB12A6701E102
p5833
aVSOILCEB12AF72AD86D
p5834
aag999
ag1003
ag1006
ag1010
ag1013
ag917
ag923
ag1127
ag1132
ag1135
ag4310
ag4313
ag4318
ag5249
ag5253
ag4132
ag3694
ag3717
ag3725
ag4182
ag416
ag420
ag5451
ag5456
ag4857
ag4861
ag388
ag392
ag4780
ag4783
ag2911
ag2915
ag1532
ag1537
ag3100
ag326
ag329
ag4176
ag4179
ag5553
ag4803
ag4806
ag4809
ag4914
ag4885
ag4888
ag3835
ag4469
ag4472
ag4477
ag5612
ag1971
ag1975
ag2509
ag3623
ag3628
ag3631
ag2422
ag2425
ag2428
ag3038
ag3041
ag3047
ag1891
ag1897
ag3581
ag3584
ag3588
ag3591
ag511
ag5064
ag4995
ag4998
ag850
ag853
ag856
a(lp5835
VSONWOHJ12A6D4F920A
p5836
aVSORTDSD12A6D4F798B
p5837
aa(lp5838
VSOIOIPB12A6701F11B
p5839
aVSOFJDTE12AB017EFD4
p5840
aag2443
ag2446
ag5305
ag5308
ag5311
ag5316
ag2132
ag2135
ag4115
ag4119
ag5503
ag5506
ag5509
ag2207
ag2210
ag2036
ag2041
ag35
ag38
ag3278
ag3281
ag3703
ag3909
ag3913
ag41
ag45
ag1915
ag1919
ag1924
ag4878
ag4881
ag1998
ag2002
ag2006
ag1585
ag1588
ag1591
ag5427
ag5430
ag5718
ag5721
ag3189
ag2517
ag1840
ag1844
ag1851
ag1824
ag1827
ag460
ag4094
ag4099
ag4103
ag69
ag72
ag5140
ag5143
ag5003
ag5008
ag5011
ag4022
ag4026
ag4029
ag4032
ag1052
ag1056
ag1059
ag3110
ag812
ag817
ag1595
ag4864
ag4870
ag116
ag844
ag847
ag3299
ag3302
ag3305
ag3308
ag4736
ag4739
ag4742
ag463
ag466
ag4248
ag4254
ag4262
ag4615
ag4266
ag4276
ag4279
ag1954
ag1957
ag1960
ag1963
ag1967
ag5133
ag4083
ag4087
ag4091
ag786
ag3476
ag2033
ag1711
ag1714
ag1717
ag2608
a(lp5841
VSOLKYJW12A6701C4C8
p5842
aVSOYXZGI12AB0180460
p5843
aVSOSYMOP12AB01891B9
p5844
aa(lp5845
VSOIEIPS12A58A7DF20
p5846
aVSOAGTAG12A6D4F7441
p5847
aa(lp5848
VSOCLJWP12AB0188285
p5849
aVSOVDYXW12AB017CB97
p5850
aag3193
ag5177
ag5182
ag488
ag494
a(lp5851
VSOGRHUH12AB017ED7A
p5852
aVSOGKZSK12AB018BDC6
p5853
aVSOIIOXN12AB018C83C
p5854
aa(lp5855
VSOTYJJW12AB0180454
p5856
aVSOPIVNU12A6D4FA6EA
p5857
aag1978
ag1982
ag5616
ag5619
ag1240
ag1244
ag1249
ag5579
ag5582
ag5808
ag2898
ag29
ag4894
ag4898
ag5099
ag594
ag598
ag602
ag1152
ag3686
ag3690
ag2069
ag2072
ag2075
ag3551
ag3554
ag2674
ag2677
ag2680
ag2834
ag2838
ag2843
ag3035
ag4599
ag2551
ag2554
ag2745
ag1985
ag1988
ag1992
ag1995
ag730
ag733
ag737
ag3743
ag247
ag251
ag5749
ag5753
ag5759
ag2901
ag2904
ag2907
ag1389
ag48
ag51
ag1830
ag1833
ag5500
ag4480
ag4485
ag4431
ag483
ag1674
ag1679
ag4386
ag4390
ag2535
ag2539
ag2543
ag1469
ag1472
ag2857
ag3402
ag3409
ag4106
ag4109
ag4112
ag1737
ag3610
ag3613
ag1750
ag1755
ag566
ag574
ag578
ag4786
ag4789
ag2126
ag2129
ag3859
ag2977
ag656
ag1508
ag1515
ag1521
ag1284
ag769
ag772
ag775
ag778
ag4626
ag4629
ag4632
ag4635
ag4638
ag2318
ag2321
ag2325
ag164
ag168
ag173
ag2081
ag2084
ag5156
ag5159
ag5165
ag5168
ag5172
ag305
ag309
ag3964
ag3968
ag4620
ag4623
ag2383
ag2387
ag3016
ag3021
ag2364
ag2370
ag3268
ag3271
ag4974
ag4978
ag348
ag351
ag3374
ag3378
ag3528
ag3531
ag3534
ag451
ag457
ag948
ag951
ag957
ag3595
ag3603
ag4501
ag4506
ag1481
ag1485
ag4908
ag1458
ag1465
ag2557
ag2560
ag2564
ag2567
ag1569
ag5285
ag5290
ag3345
ag3348
ag3351
ag622
ag625
ag4955
ag3060
ag3063
ag2155
ag2160
ag5599
ag2192
ag2196
ag1786
ag1789
ag1793
ag1796
ag125
ag128
ag132
ag2683
ag1857
ag1860
ag5293
ag5297
ag5302
ag5725
ag5728
ag753
ag756
a(lp5858
VSOBVFUX12A6D4F9E1B
p5859
aVSOLUGJQ12AC3DFB349
p5860
aVSOETDKA12AB0186BF0
p5861
aVSOPWBHC12AF72A7B35
p5862
aa(lp5863
VSOYESWP12A8AE475A4
p5864
aVSOWNCZA12A58A797EC
p5865
aVSOCYZRT12AB018506D
p5866
aVSOIWULR12A6702162B
p5867
aVSOTWWSP12AB017F5FF
p5868
aVSOLABNV12A8C13D698
p5869
aVSOBTRCD12A6701E976
p5870
aag4443
ag4447
ag4456
ag1654
ag1657
ag3066
ag3069
ag3072
ag3075
ag3093
ag3097
ag5798
ag5801
ag5805
ag3900
ag3903
ag3906
ag5418
ag5421
ag5424
ag5475
ag532
ag535
ag539
ag542
ag2108
ag2113
ag4124
ag4128
ag790
ag793
ag2345
ag2348
ag1075
ag1935
ag1940
ag1691
ag1695
ag5080
ag5084
ag359
ag362
ag4968
ag3841
ag3845
ag1192
ag1195
ag1442
ag1448
ag1451
ag1454
ag4011
ag32
ag410
ag796
ag809
ag3050
ag3053
ag3057
ag140
ag148
ag152
ag5125
ag5130
ag1023
ag4285
ag4288
ag2953
ag2958
ag2590
ag2593
ag2598
ag1288
ag1291
ag1294
ag4902
ag4905
ag832
ag835
ag838
a(lp5871
VSOYRKFK12AC468BDDA
p5872
aVSOFFOIF12A6310D90E
p5873
aVSODIDWO12A8C13D2D4
p5874
aa(lp5875
VSOFCAWX12A8C13AA57
p5876
aVSOLRANO12AB0182E47
p5877
aVSOLFGVT12A8C133C00
p5878
aVSOZKDMB12B0B80C4AC
p5879
aVSOHBWZM12A8C14586D
p5880
aag3501
ag3504
ag2279
ag2283
ag2287
ag2583
ag2587
ag1433
ag1436
ag1439
ag5275
ag5281
ag4816
ag4821
ag4824
ag4827
ag4035
ag4038
ag4041
ag4045
ag4596
ag4488
ag4492
ag4497
ag103
ag3024
ag3029
ag3032
ag3634
ag3637
ag1881
ag1887
ag291
ag294
ag301
ag5050
ag5054
ag5058
ag5061
ag3864
ag3867
ag3870
ag1908
ag1912
ag892
ag895
a(lp5881
VSOHFNEH12AB0181FBC
p5882
aVSOBXIIX12A6D4FA32F
p5883
aVSOMRFHJ12A8C1334AB
p5884
aa(lp5885
VSOZBHGK12A8C142BCE
p5886
aVSOTBAAJ12AB0181047
p5887
aa(lp5888
VSOFMREE12A8C13BAE9
p5889
aVSOHKFZG12AF72AAD27
p5890
aa(lp5891
VSOMNKXS12A58A79668
p5892
aVSOAHMJN12A67ADF85F
p5893
aag1723
ag1733
ag4375
ag4379
ag4383
ag2354
ag5709
ag5715
ag3996
ag4004
ag4008
ag2963
ag4745
ag4750
ag3355
ag3358
ag2404
ag2408
ag2411
ag2116
ag2123
ag3
ag75
ag521
ag525
ag528
ag1138
ag1141
ag332
ag335
ag4584
ag4587
ag4714
ag4717
ag4720
ag4723
ag5812
ag5817
ag5036
ag3175
ag3178
ag3183
ag4425
ag4428
ag3443
ag3446
ag3449
ag3452
ag4341
ag4345
ag2170
ag2174
ag2177
ag3760
ag3764
ag3768
ag2613
ag2618
ag2627
ag2633
ag5625
ag5628
ag5631
ag5634
ag5637
ag1475
ag1478
ag1307
ag1312
ag1316
ag3214
ag3874
ag3878
ag3480
ag3484
ag3487
ag3492
ag135
ag4543
ag1557
ag1560
ag3327
ag4399
ag4403
ag4875
ag2830
ag619
ag898
ag901
ag2788
ag2791
ag2795
ag2799
ag5771
ag5777
ag5787
ag5790
ag5794
ag2290
ag1867
ag1873
ag1877
ag1345
ag1349
a(lp5894
VSORPANR12A6D4FA414
p5895
aVSOHCNWJ12A8C139F0C
p5896
aVSOFYBVR12A58A7D5AE
p5897
aag1572
ag1576
ag1579
ag2201
ag2204
ag5040
ag5045
ag1254
ag1257
ag1260
ag1264
ag1267
ag1186
ag1189
ag3649
ag3652
ag3655
ag3658
ag928
ag933
ag936
ag1630
ag1634
ag1638
ag2335
ag698
ag702
ag711
ag718
ag4530
ag4533
ag4537
ag4540
ag2863
ag2866
ag3331
ag3334
ag4167
ag4170
ag4173
ag5433
ag5436
ag5439
ag5442
ag616
ag939
ag942
ag1565
ag4845
ag4848
ag3395
ag3399
ag3205
ag3210
ag2059
ag2437
ag2440
ag3984
ag3987
ag3993
ag3245
ag3249
ag54
ag58
ag1683
ag1687
ag2045
ag2050
ag2053
ag2056
ag4710
ag2099
ag2102
ag2105
ag1016
ag1019
ag587
ag590
ag312
ag315
ag1080
ag1088
ag1095
ag1102
ag1107
ag1110
ag1228
ag424
ag427
ag581
ag200
ag206
ag210
ag5693
ag5696
ag5702
ag5706
ag5587
ag5590
ag5596
ag2455
ag2458
ag2461
ag2464
ag2707
ag2710
ag2713
ag2716
ag4832
ag4835
ag4753
ag4757
ag4762
ag2213
ag2216
ag3103
ag3107
ag2870
ag2878
ag975
ag980
ag1065
ag1072
ag2220
ag2225
ag2229
ag2232
ag5572
ag5575
ag2261
ag2264
ag2268
ag2273
ag1610
ag1616
ag1619
ag1622
ag2881
ag2884
ag2887
ag5337
ag16
ag20
ag23
ag26
ag5019
ag5022
ag2450
ag5334
ag1544
ag1900
ag119
ag122
ag4669
ag4672
ag3645
ag4073
ag4203
ag4208
ag4213
ag2087
ag2090
ag2358
ag2361
ag5512
ag5515
ag5518
ag5521
ag5524
ag3225
ag3229
ag94
ag98
ag2374
ag2377
ag4301
ag1740
ag1744
ag5404
ag3805
ag1806
ag1809
ag402
ag407
ag4231
ag4234
ag4237
ag4240
ag4365
ag4368
ag4372
ag1524
ag1528
ag3747
ag3751
ag3756
ag1216
ag1221
ag437
ag440
ag448
ag5242
ag318
ag323
ag4282
ag4243
ag365
ag368
ag372
ag375
ag378
ag178
ag181
ag184
ag2847
ag2853
ag841
ag560
ag1359
ag1362
ag2755
ag2758
ag2761
ag5739
ag5743
ag5746
ag3537
ag4676
ag4679
ag5464
ag5469
ag3419
ag3895
ag1641
ag1644
ag1648
ag1651
ag5266
ag5269
ag5272
ag2802
ag2805
a(lp5898
VSOSUFXY12A58A7D337
p5899
aVSOAKWVM12A6D4F73F9
p5900
aag1407
ag5370
ag5373
ag5353
ag5366
ag4395
ag356
ag4646
ag4650
ag4568
ag4571
ag4574
ag4579
ag2547
ag5026
ag5030
ag5033
ag5762
ag5766
ag759
ag762
ag766
ag5557
ag5560
ag5563
ag5566
ag5569
ag3706
ag3709
ag3712
ag2638
ag2641
ag2646
ag2656
ag2659
ag2662
ag1488
ag1493
ag1497
ag1662
ag1668
ag2820
ag4192
ag4196
ag4199
ag4435
ag4438
ag338
ag341
ag821
ag829
ag3542
ag3545
ag3548
ag2244
ag2248
ag2252
ag2255
ag2258
ag4813
ag3931
ag3934
ag3938
ag3943
ag3430
ag3436
ag3440
ag2528
ag2531
ag1928
ag1932
ag3513
ag3516
ag3521
ag3524
ag5116
ag5122
ag4917
ag907
ag911
ag914
ag4015
ag4019
ag1039
ag1044
ag1049
ag641
ag644
ag4462
ag4466
ag1171
ag1175
ag1178
ag1182
ag2812
ag2180
ag2184
ag2187
ag692
ag695
ag3455
ag3462
ag3466
ag4421
ag4981
ag4984
ag4987
ag4990
aa(lp5901
g5237
ag385
ag3595
ag3603
ag4132
ag4568
ag4571
ag4574
ag4579
ag1998
ag2002
ag2006
ag5725
ag5728
ag5445
ag5448
ag2820
ag5293
ag5297
ag5302
ag2036
ag2041
ag3835
ag2488
ag3884
ag3889
ag3551
ag3554
ag560
ag1954
ag1957
ag1960
ag1963
ag1967
ag2911
ag2915
ag5334
ag968
ag4421
ag3314
ag3320
ag3323
ag832
ag835
ag838
ag2069
ag2072
ag2075
ag2834
ag2838
ag2843
ag2925
ag2929
ag2933
ag338
ag341
ag4285
ag4288
ag945
ag135
ag532
ag535
ag539
ag542
ag1426
ag1429
ag759
ag762
ag766
ag229
ag233
ag3610
ag3613
ag812
ag817
ag5553
ag4710
ag3355
ag3358
ag4138
ag4141
ag4144
ag4794
ag4797
ag1654
ag1657
ag3496
ag3634
ag3637
ag3957
ag3961
ag1475
ag1478
ag483
ag4556
ag3795
ag3799
ag3802
ag1325
ag1330
ag1333
ag1336
ag1341
ag402
ag407
ag3193
ag178
ag181
ag184
ag4480
ag4485
ag3225
ag3229
ag5851
ag5855
ag2475
ag2479
ag2485
ag3805
ag4348
ag4352
ag5858
ag5863
ag4356
ag4359
ag783
ag4167
ag4170
ag4173
ag2139
ag2144
ag4425
ag4428
ag5186
ag5189
ag5192
ag5196
ag5199
ag5203
ag69
ag72
ag4845
ag4848
ag2944
ag2950
ag3100
ag1915
ag1919
ag1924
ag1508
ag1515
ag1521
ag359
ag362
ag2380
ag75
ag3476
ag271
ag275
ag284
ag470
ag662
ag666
ag261
ag266
ag1481
ag1485
ag1398
ag1401
ag1404
ag4301
ag1548
ag1551
ag5153
ag507
ag5666
ag5669
ag116
ag3645
ag2220
ag2225
ag2229
ag2232
ag4803
ag4806
ag4809
ag4304
ag4307
ag4231
ag4234
ag4237
ag4240
ag4642
ag4699
ag4706
ag5133
ag1782
ag4816
ag4821
ag4824
ag4827
ag4688
ag4691
ag1171
ag1175
ag1178
ag1182
ag5881
ag5885
ag5888
ag5891
ag521
ag525
ag528
ag2383
ag2387
ag4135
ag4243
ag4076
ag4080
ag2059
ag2213
ag2216
ag4875
ag5249
ag5253
ag2030
ag1052
ag1056
ag1059
ag2994
ag2999
ag3003
ag4035
ag4038
ag4041
ag4045
ag5256
ag5259
ag5262
ag291
ag294
ag301
ag5019
ag5022
ag4974
ag4978
ag1152
ag5616
ag5619
ag2977
ag5404
ag2748
ag2752
ag2455
ag2458
ag2461
ag2464
ag1840
ag1844
ag1851
ag3623
ag3628
ag3631
ag2892
ag2895
ag4022
ag4026
ag4029
ag4032
ag4186
ag4189
ag4323
ag4329
ag4333
ag3697
ag3700
ag2192
ag2196
ag3984
ag3987
ag3993
ag4124
ag4128
ag5898
ag5825
ag5828
ag5832
ag4106
ag4109
ag4112
ag62
ag66
ag2443
ag2446
ag2345
ag2348
ag1322
ag1345
ag1349
ag318
ag323
ag1544
ag2613
ag2618
ag2627
ag2633
ag2066
ag975
ag980
ag2686
ag2696
ag5418
ag5421
ag5424
ag1569
ag4159
ag4162
ag2870
ag2878
ag437
ag440
ag448
ag1818
ag1821
ag3848
ag3853
ag3473
ag1683
ag1687
ag5087
ag5090
ag5093
ag32
ag4940
ag4943
ag4947
ag4950
ag4365
ag4368
ag4372
ag2707
ag2710
ag2713
ag2716
ag3299
ag3302
ag3305
ag3308
ag4176
ag4179
ag4462
ag4466
ag4832
ag4835
ag3327
ag4669
ag4672
ag4435
ag4438
ag4386
ag4390
ag3895
ag3189
ag1240
ag1244
ag1249
ag4955
ag3924
ag3927
ag4011
ag1806
ag1809
ag4920
ag4927
ag4933
ag641
ag644
ag2332
ag5377
ag5381
ag5387
ag3537
ag1585
ag1588
ag1591
ag1765
ag1769
ag1772
ag1778
ag1389
ag1891
ag1897
ag698
ag702
ag711
ag718
ag3362
ag3366
ag3369
ag2335
ag2116
ag2123
ag4885
ag4888
ag3617
ag2812
ag4546
ag4549
ag4552
ag1270
ag1273
ag1281
ag5146
ag5150
ag5080
ag5084
ag2045
ag2050
ag2053
ag2056
ag1413
ag1417
ag1420
ag1423
ag3285
ag3717
ag3725
ag4908
ag606
ag610
ag613
ag4813
ag3290
ag1786
ag1789
ag1793
ag1796
ag3337
ag3342
ag103
ag4282
a(lp5902
VSOSMPFF12A8C133D9A
p5903
aVSOAINXH12A6D4F66F4
p5904
aa(lp5905
VSOXFWWT12AC468CDC2
p5906
aVSOYAWUE12A8C133831
p5907
aVSOAPLZA12AF72A476A
p5908
aa(lp5909
VSOJRTGA12A8AE4866C
p5910
aVSOPTJQX12AF72A8CF2
p5911
aag213
ag218
ag221
ag224
ag5275
ag5281
ag2674
ag2677
ag2680
ag5835
ag5838
ag3581
ag3584
ag3588
ag3591
ag2898
ag3557
ag3566
ag3573
ag3577
ag1407
ag4878
ag4881
ag581
ag3931
ag3934
ag3938
ag3943
ag5749
ag5753
ag5759
ag35
ag38
ag514
ag518
ag4596
ag164
ag168
ag173
ag2033
ag1641
ag1644
ag1648
ag1651
ag2953
ag2958
ag3430
ag3436
ag3440
ag1469
ag1472
ag5116
ag5122
ag1711
ag1714
ag1717
ag1158
ag1161
ag1164
ag1168
ag2638
ag2641
ag2646
ag2656
ag2659
ag2662
ag2881
ag2884
ag2887
ag356
ag1254
ag1257
ag1260
ag1264
ag1267
ag2802
ag2805
ag2731
ag2738
ag2741
ag4894
ag4898
ag3649
ag3652
ag3655
ag3658
ag29
ag1971
ag1975
ag4518
ag4521
ag4524
ag4527
ag1557
ag1560
ag4341
ag4345
a(lp5912
VSOBISWA12A6D4F90A1
p5913
aVSOEZOJK12A8C131447
p5914
aa(lp5915
VSODZLMJ127D977E810
p5916
aVSOSLCRU12A6701DB0B
p5917
aag463
ag466
ag5140
ag5143
ag4399
ag4403
ag4336
ag656
ag4073
ag1600
ag1606
ag4501
ag4506
ag3268
ag3271
ag622
ag625
ag48
ag51
ag2535
ag2539
ag2543
ag1359
ag1362
ag3694
ag5841
ag5845
ag5848
ag4203
ag4208
ag4213
ag753
ag756
a(lp5918
VSOORMPD12A6701E339
p5919
aVSOQMAAA12A8C13EBE6
p5920
aVSOBNLES12A679C8053
p5921
aVSORAEDY12AB01864B8
p5922
aVSOKZPCE12CF5F88327
p5923
aag5642
ag5647
ag5652
ag5656
ag5662
ag3785
ag3792
ag2918
ag2922
ag188
ag191
ag194
ag5612
ag566
ag574
ag578
ag1288
ag1291
ag1294
ag5156
ag5159
ag5165
ag5168
ag5172
ag1762
ag5125
ag5130
ag5557
ag5560
ag5563
ag5566
ag5569
ag3050
ag3053
ag3057
ag3686
ag3690
ag1386
ag3661
ag3665
ag1075
ag156
ag161
ag5475
ag80
ag83
ag3294
ag5739
ag5743
ag5746
ag1737
ag388
ag392
ag2901
ag2904
ag2907
ag844
ag847
ag5026
ag5030
ag5033
ag5096
ag4431
ag1900
ag1881
ag1887
ag3345
ag3348
ag3351
ag4115
ag4119
ag4753
ag4757
ag4762
ag5530
ag2971
ag2974
ag2164
ag2167
ag4914
ag254
ag257
ag1674
ag1679
ag4615
ag4626
ag4629
ag4632
ag4635
ag4638
ag3278
ag3281
ag424
ag427
ag2719
ag2723
ag2728
ag2018
ag2026
ag1830
ag1833
ag1502
ag1505
ag5242
ag1867
ag1873
ag1877
ag4656
ag4660
ag4665
ag3706
ag3709
ag3712
ag2665
ag2668
ag1595
ag4780
ag4783
ag2517
ag396
ag1458
ag1465
ag928
ag933
ag936
ag2936
ag2940
ag1367
ag1375
ag1381
ag5536
ag5540
ag5543
ag5546
ag5549
ag326
ag329
ag5599
ag3129
ag3134
ag3137
ag3144
ag3148
ag3151
ag3155
ag3158
ag451
ag457
ag2590
ag2593
ag2598
ag1299
ag1302
ag5709
ag5715
ag2857
ag4766
ag4769
ag4776
ag4488
ag4492
ag4497
ag1610
ag1616
ag1619
ag1622
ag1016
ag1019
ag872
ag875
ag878
ag883
ag886
ag889
ag5003
ag5008
ag5011
ag3038
ag3041
ag3047
ag5319
ag5323
ag5326
ag5331
ag4182
ag2009
ag2012
ag2015
ag670
ag677
ag721
ag724
ag3469
ag2824
ag2827
ag2683
ag5625
ag5628
ag5631
ag5634
ag5637
ag236
ag239
ag242
ag2390
ag2393
ag4217
ag4224
ag4228
ag4310
ag4313
ag4318
ag5894
ag4968
ag5353
ag5366
ag511
ag3161
ag3164
ag3167
ag1442
ag1448
ag1451
ag1454
ag2700
ag2704
a(lp5924
VSORIKDT12A6D4F6896
p5925
aVSOMTARK12AB0185008
p5926
aag2608
ag4838
ag4841
ag3035
ag4902
ag4905
ag5808
ag1908
ag1912
ag1524
ag1528
ag1541
ag88
ag91
ag2512
ag5266
ag5269
ag5272
ag3024
ag3029
ag3032
ag3395
ag3399
ag3909
ag3913
ag1985
ag1988
ag1992
ag1995
ag2417
ag790
ag793
ag3252
ag1186
ag1189
ag4192
ag4196
ag4199
ag3528
ag3531
ag3534
ag4061
ag4065
ag4069
ag2099
ag2102
ag2105
ag5206
ag5211
ag5214
ag5218
ag3812
ag3819
a(lp5927
VSOBJQJZ12A8C136D72
p5928
aVSOFPBMA12A8AE474FD
p5929
aVSODGDMY12B0B80827A
p5930
aVSOHKSAA12B0B806BCE
p5931
aVSOCONED12B0B806BED
p5932
aVSOXHEXZ12A6D4FB693
p5933
aVSOGBLMI12AB01856AC
p5934
aa(lp5935
VSOYMWBU12A67AD8E79
p5936
aVSOZBYHB12A58A7F93B
p5937
aVSOILAQO12A8C13AEB7
p5938
aVSOUJZBN12D021977A3
p5939
aag2745
ag1928
ag1932
ag2261
ag2264
ag2268
ag2273
ag4266
ag4276
ag4279
ag1433
ag1436
ag1439
ag4509
ag4513
ag1392
ag1395
ag546
ag549
ag553
ag556
ag497
ag503
ag850
ag853
ag856
ag2150
ag1127
ag1132
ag1135
ag2422
ag2425
ag2428
ag3946
ag3950
ag3954
ag730
ag733
ag737
ag3513
ag3516
ag3521
ag3524
ag6
ag9
ag12
ag5464
ag5469
ag4148
ag4151
ag4155
a(lp5940
VSOKXLFB12A8C137805
p5941
aVSOAQJHG12A6D4FB498
p5942
aVSOVXTZF12A670207D2
p5943
aVSOZIOED12AB018102A
p5944
aVSORTDSD12A6D4F798B
p5945
aVSOMJFPG12A58A7DD95
p5946
aVSOLHXPD12AB0182B7B
p5947
aVSOAFEDG12A8C1312BF
p5948
aa(lp5949
VSOISXVJ12A6701F1CD
p5950
aVSOILMZO12AB017C0E1
p5951
aVSOMBBSK12AF729E0E0
p5952
aag4584
ag4587
ag3245
ag3249
ag4395
ag3205
ag3210
ag3743
ag3760
ag3764
ag3768
ag2431
ag2434
ag4414
ag4418
ag5787
ag5790
ag5794
ag5780
ag5783
ag3419
ag2522
ag4407
ag4411
ag1630
ag1634
ag1638
ag960
ag963
ag5305
ag5308
ag5311
ag5316
ag3197
ag3201
ag2551
ag2554
ag1023
ag5221
ag5227
ag5230
ag5233
ag3443
ag3446
ag3449
ag3452
ag1192
ag1195
ag4745
ag4750
ag345
ag2108
ag2113
ag5478
ag5483
ag4727
ag4731
ag2155
ag2160
ag2180
ag2184
ag2187
ag1307
ag1312
ag1316
ag786
ag1284
ag3016
ag3021
ag3480
ag3484
ag3487
ag3492
ag2830
ag3170
ag616
ag2358
ag2361
ag2147
ag488
ag494
ag3311
ag5503
ag5506
ag5509
ag3542
ag3545
ag3548
ag1699
ag1702
ag1705
ag1708
ag619
ag2364
ag2370
ag2863
ag2866
ag3
ag2132
ag2135
ag1691
ag1695
ag1355
ag3964
ag3968
ag2351
ag587
ag590
ag2235
ag2238
ag2241
ag3775
ag3782
ag1572
ag1576
ag1579
ag3402
ag3409
ag2293
ag2296
ag2300
ag2303
ag1720
ag2354
ag382
ag1080
ag1088
ag1095
ag1102
ag1107
ag1110
ag5113
ag3262
ag3265
ag769
ag772
ag775
ag778
ag4052
ag4248
ag4254
ag4262
ag2201
ag2204
ag647
ag650
ag3501
ag3504
ag632
ag638
ag1723
ag1733
ag5673
ag5676
ag5679
ag5683
ag5285
ag5290
ag681
ag686
ag460
ag2847
ag2853
ag594
ag598
ag602
ag1410
ag1216
ag1221
ag4469
ag4472
ag4477
ag841
ag2318
ag2321
ag2325
ag5690
ag4857
ag4861
ag4015
ag4019
ag3113
ag3117
ag3120
ag5064
ag4676
ag4679
ag2306
ag2309
ag2314
ag3123
ag3126
ag5407
ag5412
ag5415
ag3382
ag3386
ag5488
ag5492
ag1026
ag692
ag695
aa(lp5953
g2132
ag2135
ag3835
ag2892
ag2895
ag1433
ag1436
ag1439
ag907
ag911
ag914
ag4864
ag4870
ag3805
ag3645
ag3581
ag3584
ag3588
ag3591
ag4488
ag4492
ag4497
ag94
ag98
ag1541
ag2069
ag2072
ag2075
ag2059
ag5798
ag5801
ag5805
ag5739
ag5743
ag5746
ag2547
ag1691
ag1695
ag483
ag3743
ag1023
ag1903
ag850
ag853
ag856
ag5206
ag5211
ag5214
ag5218
ag3337
ag3342
ag1881
ag1887
ag4061
ag4065
ag4069
ag5040
ag5045
ag4813
ag3395
ag3399
ag832
ag835
ag838
ag437
ag440
ag448
ag5319
ag5323
ag5326
ag5331
ag1699
ag1702
ag1705
ag1708
ag4596
ag4124
ag4128
ag3825
ag3829
ag3832
ag4336
ag247
ag251
ag4955
ag4845
ag4848
ag3984
ag3987
ag3993
ag4816
ag4821
ag4824
ag4827
ag4981
ag4984
ag4987
ag4990
ag5125
ag5130
ag2963
ag2351
ag4518
ag4521
ag4524
ag4527
ag2551
ag2554
ag1662
ag1668
ag841
ag1186
ag1189
ag5787
ag5790
ag5794
ag5808
ag1325
ag1330
ag1333
ag1336
ag1341
ag348
ag351
ag5927
ag5935
ag2192
ag2196
ag2099
ag2102
ag2105
ag2062
ag35
ag38
ag345
ag1711
ag1714
ag1717
ag236
ag239
ag242
ag1985
ag1988
ag1992
ag1995
ag3123
ag3126
ag1307
ag1312
ag1316
ag2066
ag4341
ag4345
ag1610
ag1616
ag1619
ag1622
ag1469
ag1472
ag2918
ag2922
ag5407
ag5412
ag5415
ag5718
ag5721
ag2522
ag3706
ag3709
ag3712
ag1389
ag5156
ag5159
ag5165
ag5168
ag5172
ag1674
ag1679
ag5064
ag396
ag3294
ag470
ag2491
ag2499
ag796
ag809
ag1762
ag254
ag257
ag5133
ag4878
ag4881
ag2033
ag3327
ag3038
ag3041
ag3047
ag1158
ag1161
ag1164
ag1168
ag1830
ag1833
ag4971
ag4135
ag2925
ag2929
ag2933
ag5050
ag5054
ag5058
ag5061
ag2126
ag2129
ag2608
ag3331
ag3334
ag5918
ag1765
ag1769
ag1772
ag1778
ag4958
ag4965
ag4421
ag2830
ag4736
ag4739
ag4742
ag5898
ag4076
ag4080
ag3795
ag3799
ag3802
ag4304
ag4307
ag5019
ag5022
ag2731
ag2738
ag2741
ag1127
ag1132
ag1135
ag1231
ag2244
ag2248
ag2252
ag2255
ag2258
ag2443
ag2446
ag3542
ag3545
ag3548
ag3050
ag3053
ag3057
ag740
ag743
ag746
ag750
ag5841
ag5845
ag5848
ag5871
ag5875
ag2488
ag5812
ag5817
ag3473
ag2261
ag2264
ag2268
ag2273
ag1026
ag3268
ag3271
ag4914
ag681
ag686
ag3617
ag3205
ag3210
ag2764
ag2768
ag2771
ag156
ag161
ag2901
ag2904
ag2907
ag1954
ag1957
ag1960
ag1963
ag1967
ag4745
ag4750
ag3314
ag3320
ag3323
ag5275
ag5281
ag3443
ag3446
ag3449
ag3452
ag463
ag466
ag4159
ag4162
ag4323
ag4329
ag4333
ag3703
ag2293
ag2296
ag2300
ag2303
ag4682
ag4685
ag3103
ag3107
ag5731
ag5735
ag1750
ag1755
ag5709
ag5715
ag4186
ag4189
ag4248
ag4254
ag4262
ag3747
ag3751
ag3756
ag2579
ag3610
ag3613
ag1345
ag1349
ag4530
ag4533
ag4537
ag4540
ag5924
ag4310
ag4313
ag4318
ag1359
ag1362
ag5616
ag5619
ag5536
ag5540
ag5543
ag5546
ag5549
ag4656
ag4660
ag4665
ag1569
ag5693
ag5696
ag5702
ag5706
ag2364
ag2370
ag261
ag266
ag4669
ag4672
ag2036
ag2041
ag1908
ag1912
ag4015
ag4019
ag3234
ag3238
ag3
ag2150
ag1548
ag1551
ag4106
ag4109
ag4112
ag632
ag638
ag3694
ag3946
ag3950
ag3954
ag812
ag817
ag1502
ag1505
ag521
ag525
ag528
ag2139
ag2144
ag2437
ag2440
ag1039
ag1044
ag1049
ag4282
ag69
ag72
ag1565
ag3874
ag3878
ag2081
ag2084
ag507
ag3551
ag3554
ag656
ag5106
ag5109
ag451
ag457
ag3129
ag3134
ag3137
ag3144
ag3148
ag3151
ag3155
ag3158
ag5116
ag5122
ag3469
ag532
ag535
ag539
ag542
ag2213
ag2216
ag3161
ag3164
ag3167
ag4780
ag4783
ag769
ag772
ag775
ag778
ag3110
ag4615
ag3537
ag5460
ag3430
ag3436
ag3440
ag2944
ag2950
ag475
ag480
ag3496
ag5475
ag3245
ag3249
ag898
ag901
ag1065
ag1072
ag3186
ag2404
ag2408
ag2411
ag928
ag933
ag936
ag135
ag1723
ag1733
ag3374
ag3378
ag178
ag181
ag184
ag5334
ag3480
ag3484
ag3487
ag3492
ag4559
ag4565
ag3812
ag3819
ag1322
ag2748
ag2752
ag416
ag420
ag5612
ag2422
ag2425
ag2428
ag4138
ag4141
ag4144
ag5256
ag5259
ag5262
ag2220
ag2225
ag2229
ag2232
ag88
ag91
ag594
ag598
ag602
ag488
ag494
ag3035
ag1270
ag1273
ag1281
ag2045
ag2050
ag2053
ag2056
ag5587
ag5590
ag5596
ag5377
ag5381
ag5387
ag1386
ag4301
ag2755
ag2758
ag2761
ag1935
ag1940
ag2817
ag2575
ag3016
ag3021
ag3672
ag3675
ag3680
ag2517
ag2774
ag4414
ag4418
ag1720
ag4386
ag4390
ag560
ag511
ag3931
ag3934
ag3938
ag3943
ag5599
ag5036
ag4894
ag4898
ag5146
ag5150
ag3066
ag3069
ag3072
ag3075
ag3093
ag3097
ag460
ag388
ag392
ag2390
ag2393
ag1442
ag1448
ag1451
ag1454
ag4231
ag4234
ag4237
ag4240
ag4073
ag2870
ag2878
ag497
ag503
ag3501
ag3504
ag616
ag2345
ag2348
ag4167
ag4170
ag4173
ag3225
ag3229
ag4626
ag4629
ag4632
ag4635
ag4638
ag5113
ag1481
ag1485
ag4509
ag4513
ag1824
ag1827
ag2276
ag1016
ag1019
ag140
ag148
ag152
ag1532
ag1537
ag4435
ag4438
ag4603
ag4609
ag4612
ag3402
ag3409
ag4891
ag4857
ag4861
ag3419
ag2455
ag2458
ag2461
ag2464
ag4584
ag4587
ag5572
ag5575
ag2009
ag2012
ag2015
ag2881
ag2884
ag2887
ag1240
ag1244
ag1249
ag1857
ag1860
ag5512
ag5515
ag5518
ag5521
ag5524
ag5912
ag5915
ag4646
ag4650
ag1284
ag1998
ag2002
ag2006
ag5080
ag5084
ag80
ag83
ag305
ag309
ag4203
ag4208
ag4213
ag3362
ag3366
ag3369
ag1600
ag1606
ag1630
ag1634
ag1638
ag5725
ag5728
ag2863
ag2866
ag3634
ag3637
ag3717
ag3725
ag326
ag329
ag1801
ag2590
ag2593
ag2598
ag16
ag20
ag23
ag26
ag2512
ag698
ag702
ag711
ag718
ag975
ag980
ag4543
ag4556
ag4425
ag4428
ag5427
ag5430
ag5003
ag5008
ag5011
ag4132
ag1654
ag1657
ag410
ag4094
ag4099
ag4103
ag1254
ag1257
ag1260
ag1264
ag1267
ag2450
ag3864
ag3867
ag3870
ag3760
ag3764
ag3768
ag2936
ag2940
ag188
ag191
ag194
ag1052
ag1056
ag1059
ag2638
ag2641
ag2646
ag2656
ag2659
ag2662
ag5642
ag5647
ag5652
ag5656
ag5662
ag3252
ag3957
ag3961
ag271
ag275
ag284
ag1171
ag1175
ag1178
ag1182
ag2683
ag999
ag1003
ag1006
ag1010
ag1013
ag2279
ag2283
ag2287
ag5186
ag5189
ag5192
ag5196
ag5199
ag5203
ag2953
ag2958
ag4995
ag4998
ag2306
ag2309
ag2314
ag1943
ag1946
ag1949
ag3214
ag4727
ag4731
ag3311
ag5285
ag5290
ag2857
ag32
ag1216
ag1221
ag5221
ag5227
ag5230
ag5233
ag1585
ag1588
ag1591
ag968
ag402
ag407
ag5140
ag5143
ag3909
ag3913
ag5418
ag5421
ag5424
ag5390
ag5394
ag5398
ag5401
ag2116
ag2123
ag48
ag51
ag5099
ag1192
ag1195
ag5153
ag5825
ag5828
ag5832
ag3197
ag3201
ag1199
ag1202
ag1205
ag4285
ag4288
ag1683
ag1687
ag4620
ag4623
ag5451
ag5456
ag1152
ag960
ag963
ag3175
ag3178
ag3183
ag359
ag362
ag1544
ag5894
ag3382
ag3386
ag3455
ag3462
ag3466
ag2087
ag2090
ag5762
ag5766
ag2700
ag2704
ag365
ag368
ag372
ag375
ag378
ag116
ag2834
ag2838
ag2843
ag4546
ag4549
ag4552
ag2528
ag2531
ag3996
ag4004
ag4008
ag3170
ag1508
ag1515
ag1521
ag385
ag3924
ag3927
ag356
ag6
ag9
ag12
ag5293
ag5297
ag5302
ag4192
ag4196
ag4199
ag2977
ag4599
ag2571
ag2686
ag2696
ag5500
ag4115
ag4119
ag4148
ag4151
ag4155
ag4676
ag4679
ag5835
ag5838
ag41
ag45
ag54
ag58
ag3661
ag3665
ag4753
ag4757
ag4762
ag1595
ag4348
ag4352
ag312
ag315
ag1806
ag1809
ag4803
ag4806
ag4809
ag566
ag574
ag578
ag4568
ag4571
ag4574
ag4579
ag4920
ag4927
ag4933
ag5557
ag5560
ag5563
ag5566
ag5569
ag3971
ag3974
ag3979
ag5820
ag2396
ag2401
ag5026
ag5030
ag5033
ag29
ag3557
ag3566
ag3573
ag3577
ag1786
ag1789
ag1793
ag1796
ag2820
ag4885
ag4888
ag581
ag2707
ag2710
ag2713
ag2716
ag4035
ag4038
ag4041
ag4045
ag1891
ag1897
ag3060
ag3063
ag2812
ag4443
ag4447
ag4456
ag3278
ag3281
ag5237
ag2170
ag2174
ag2177
ag213
ag218
ag221
ag224
ag2358
ag2361
ag4875
ag860
ag863
ag868
ag2971
ag2974
ag2824
ag2827
ag2994
ag2999
ag3003
ag3775
ag3782
ag2374
ag2377
ag1572
ag1576
ag1579
ag2380
ag4469
ag4472
ag4477
ag3841
ag3845
ag641
ag644
ag5579
ag5582
ag1737
ag3728
ag619
ag3113
ag3117
ag3120
ag5340
ag5347
ag5350
ag5353
ag5366
ag332
ag335
ag3345
ag3348
ag3351
ag4832
ag4835
ag1458
ag1465
ag5940
ag5949
ag2155
ag2160
ag1978
ag1982
ag3623
ag3628
ag3631
ag2788
ag2791
ag2795
ag2799
ag948
ag951
ag957
ag2665
ag2668
ag4968
ag3649
ag3652
ag3655
ag3658
ag3355
ag3358
ag5503
ag5506
ag5509
ag514
ag518
ag3697
ag3700
ag338
ag341
ag1410
ag3859
ag4266
ag4276
ag4279
ag1915
ag1919
ag1924
ag424
ag427
ag662
ag666
ag3006
ag3009
ag3012
ag3412
ag3416
ag2535
ag2539
ag2543
ag5666
ag5669
ag2164
ag2167
ag4356
ag4359
ag2417
ag4501
ag4506
ag5433
ag5436
ag5439
ag5442
ag1782
ag2108
ag2113
ag670
ag677
ag4786
ag4789
ag4399
ag4403
ag1740
ag1744
ag4688
ag4691
ag2180
ag2184
ag2187
aa(lp5954
g29
ag3161
ag3164
ag3167
ag5418
ag5421
ag5424
ag3661
ag3665
ag698
ag702
ag711
ag718
ag1840
ag1844
ag1851
ag460
ag4530
ag4533
ag4537
ag4540
ag4266
ag4276
ag4279
ag5125
ag5130
ag5612
ag1299
ag1302
ag5407
ag5412
ag5415
ag1532
ag1537
ag4176
ag4179
ag948
ag951
ag957
ag5557
ag5560
ag5563
ag5566
ag5569
ag5242
ag3197
ag3201
ag3430
ag3436
ag3440
ag365
ag368
ag372
ag375
ag378
ag5019
ag5022
ag1398
ag1401
ag1404
ag3060
ag3063
ag619
ag5579
ag5582
ag3900
ag3903
ag3906
ag1943
ag1946
ag1949
ag4914
ag2994
ag2999
ag3003
ag4518
ag4521
ag4524
ag4527
ag5427
ag5430
ag5153
ag3895
ag2033
ag1052
ag1056
ag1059
ag5787
ag5790
ag5794
ag4955
ag2817
ag511
ag4336
ag3686
ag3690
ag3771
ag2911
ag2915
ag6
ag9
ag12
ag898
ag901
ag3733
ag3740
ag566
ag574
ag578
ag4192
ag4196
ag4199
ag632
ag638
ag4669
ag4672
ag4386
ag4390
ag1935
ag1940
ag1138
ag1141
ag1740
ag1744
ag470
ag4462
ag4466
ag3946
ag3950
ag3954
ag2638
ag2641
ag2646
ag2656
ag2659
ag2662
ag4135
ag3476
ag5835
ag5838
ag3314
ag3320
ag3323
ag5731
ag5735
ag5003
ag5008
ag5011
ag2437
ag2440
ag2802
ag2805
ag1867
ag1873
ag1877
ag5087
ag5090
ag5093
ag2748
ag2752
ag769
ag772
ag775
ag778
ag1863
ag796
ag809
ag2547
ag507
ag3412
ag3416
ag3971
ag3974
ag3979
ag928
ag933
ag936
ag5040
ag5045
ag2431
ag2434
ag5912
ag5915
ag1683
ag1687
ag2132
ag2135
ag4599
ag3909
ag3913
ag1630
ag1634
ag1638
ag2608
ag4546
ag4549
ag4552
ag5690
ag5798
ag5801
ag5805
ag5293
ag5297
ag5302
ag5266
ag5269
ag5272
ag5275
ag5281
ag1508
ag1515
ag1521
ag3225
ag3229
ag488
ag494
ag3110
ag5237
ag2824
ag2827
ag2590
ag2593
ag2598
ag497
ag503
ag2244
ag2248
ag2252
ag2255
ag2258
ag345
ag4885
ag4888
ag4917
ag3931
ag3934
ag3938
ag3943
ag1691
ag1695
ag1209
ag1212
ag5186
ag5189
ag5192
ag5196
ag5199
ag5203
ag5749
ag5753
ag5759
ag5599
ag1641
ag1644
ag1648
ag1651
ag2613
ag2618
ag2627
ag2633
ag1458
ag1465
ag2522
ag4832
ag4835
ag1928
ag1932
ag5812
ag5817
ag3285
ag3501
ag3504
ag4159
ag4162
ag69
ag72
ag2261
ag2264
ag2268
ag2273
ag2583
ag2587
ag2345
ag2348
ag3864
ag3867
ag3870
ag4310
ag4313
ag4318
ag945
ag4642
ag3595
ag3603
ag606
ag610
ag613
ag1699
ag1702
ag1705
ag1708
ag5940
ag5949
ag1389
ag2290
ag1426
ag1429
ag5771
ag5777
ag1149
ag4167
ag4170
ag4173
ag5881
ag5885
ag5888
ag5891
ag5762
ag5766
ag5099
ag2374
ag2377
ag3528
ag3531
ag3534
ag5642
ag5647
ag5652
ag5656
ag5662
ag841
ag4501
ag4506
ag984
ag991
ag995
ag2066
ag261
ag266
ag94
ag98
ag1355
ag125
ag128
ag132
ag5841
ag5845
ag5848
ag2579
ag2788
ag2791
ag2795
ag2799
ag1413
ag1417
ag1420
ag1423
ag5924
ag2745
ag3129
ag3134
ag3137
ag3144
ag3148
ag3151
ag3155
ag3158
ag4714
ag4717
ag4720
ag4723
ag1891
ag1897
ag2830
ag103
ag939
ag942
ag156
ag161
ag4682
ag4685
ag2018
ag2026
ag2164
ag2167
ag3268
ag3271
ag5894
ag1231
ag5512
ag5515
ag5518
ag5521
ag5524
ag1127
ag1132
ag1135
ag960
ag963
ag4294
ag4297
ag3697
ag3700
ag4584
ag4587
ag5221
ag5227
ag5230
ag5233
ag1216
ag1221
ag1325
ag1330
ag1333
ag1336
ag1341
ag1765
ag1769
ag1772
ag1778
ag3617
ag5106
ag5109
ag3294
ag1359
ag1362
ag662
ag666
ag5780
ag5783
ag1158
ag1161
ag1164
ag1168
ag410
ag3374
ag3378
ag2099
ag2102
ag2105
ag2925
ag2929
ag2933
ag88
ag91
ag5460
ag416
ag420
ag2475
ag2479
ag2485
ag4323
ag4329
ag4333
ag5451
ag5456
ag1908
ag1912
ag2820
ag3672
ag3675
ag3680
ag35
ag38
ag3327
ag3331
ag3334
ag385
ag5488
ag5492
ag2170
ag2174
ag2177
ag2276
ag622
ag625
ag4443
ag4447
ag4456
ag3038
ag3041
ag3047
ag3743
ag5587
ag5590
ag5596
ag2881
ag2884
ag2887
ag1818
ag1821
ag1228
ag587
ag590
ag356
ag2963
ag3066
ag3069
ag3072
ag3075
ag3093
ag3097
ag2108
ag2113
ag2180
ag2184
ag2187
ag2036
ag2041
ag581
ag5353
ag5366
ag4015
ag4019
ag2306
ag2309
ag2314
ag5256
ag5259
ag5262
ag32
ag670
ag677
ag4356
ag4359
ag790
ag793
ag4421
ag4488
ag4492
ag4497
ag4124
ag4128
ag4375
ag4379
ag4383
ag5820
ag164
ag168
ag173
ag2953
ag2958
ag388
ag392
ag1469
ag1472
ag2491
ag2499
ag4399
ag4403
ag3016
ag3021
ag1023
ag4908
ag2354
ag2700
ag2704
ag1039
ag1044
ag1049
ag4745
ag4750
ag514
ag518
ag2551
ag2554
ag4022
ag4026
ag4029
ag4032
ag2936
ag2940
ag681
ag686
ag4688
ag4691
ag2116
ag2123
ag1345
ag1349
ag3610
ag3613
ag451
ag457
ag5851
ag5855
ag5625
ag5628
ag5631
ag5634
ag5637
ag312
ag315
ag4348
ag4352
ag5404
ag254
ag257
ag872
ag875
ag878
ag883
ag886
ag889
ag5616
ag5619
ag753
ag756
ag5918
ag48
ag51
ag1065
ag1072
ag4656
ag4660
ag4665
ag1254
ag1257
ag1260
ag1264
ag1267
ag2380
ag3337
ag3342
ag1806
ag1809
ag5718
ag5721
ag692
ag695
ag3189
ag4902
ag4905
ag5536
ag5540
ag5543
ag5546
ag5549
ag236
ag239
ag242
ag3496
ag5156
ag5159
ag5165
ag5168
ag5172
ag200
ag206
ag210
ag2139
ag2144
ag656
ag740
ag743
ag746
ag750
ag2892
ag2895
ag2279
ag2283
ag2287
ag4813
ag5050
ag5054
ag5058
ag5061
ag4076
ag4080
ag4676
ag4679
ag5319
ag5323
ag5326
ag5331
ag892
ag895
ag1557
ag1560
ag5305
ag5308
ag5311
ag5316
ag1723
ag1733
ag1737
ag4603
ag4609
ag4612
ag4816
ag4821
ag4824
ag4827
ag5572
ag5575
ag5871
ag5875
ag3581
ag3584
ag3588
ag3591
ag3957
ag3961
ag5709
ag5715
ag4727
ag4731
ag271
ag275
ag284
ag1016
ag1019
ag4407
ag4411
ag3557
ag3566
ag3573
ag3577
ag1026
ag1711
ag1714
ag1717
ag5725
ag5728
ag2755
ag2758
ag2761
ag2834
ag2838
ag2843
ag1502
ag1505
ag3123
ag3126
ag229
ag233
ag3355
ag3358
ag338
ag341
ag4968
ag4875
ag2009
ag2012
ag2015
ag4766
ag4769
ag4776
ag1541
ag2059
ag2443
ag2446
ag4940
ag4943
ag4947
ag4950
ag3916
ag999
ag1003
ag1006
ag1010
ag1013
ag483
ag5478
ag5483
ag3841
ag3845
ag4971
ag1662
ag1668
ag1442
ag1448
ag1451
ag1454
ag4301
ag2571
ag4615
ag4974
ag4978
ag4425
ag4428
ag305
ag309
ag3964
ag3968
ag2665
ag2668
ag2778
ag2785
ag4243
ag4786
ag4789
ag3113
ag3117
ag3120
ag1524
ag1528
ag2422
ag2425
ag2428
ag4083
ag4087
ag4091
ag3760
ag3764
ag3768
ag4431
ag135
ag1284
ag5927
ag5935
ag5464
ag5469
ag2971
ag2974
ag4138
ag4141
ag4144
ag3443
ag3446
ag3449
ag3452
ag4186
ag4189
ag2081
ag2084
ag178
ag181
ag184
ag2358
ag2361
ag3234
ag3238
ag5390
ag5394
ag5398
ag5401
ag1610
ag1616
ag1619
ag1622
ag2351
ag1585
ag1588
ag1591
ag2396
ag2401
ag119
ag122
ag1488
ag1493
ag1497
ag1857
ag1860
ag560
ag4365
ag4368
ag4372
ag783
ag4304
ag4307
ag4106
ag4109
ag4112
ag2731
ag2738
ag2741
ag4231
ag4234
ag4237
ag4240
ag5808
ag5902
ag5905
ag5909
ag2707
ag2710
ag2713
ag2716
ag2404
ag2408
ag2411
ag1270
ag1273
ag1281
ag5673
ag5676
ag5679
ag5683
ag3
ag1750
ag1755
ag2213
ag2216
ag3419
ag5140
ag5143
ag4115
ag4119
ag1915
ag1919
ag1924
ag3290
ag2383
ag2387
ag3278
ag3281
ag332
ag335
ag4920
ag4927
ag4933
ag2045
ag2050
ag2053
ag2056
ag4556
ag4646
ag4650
ag2390
ag2393
ag2977
ag1288
ag1291
ag1294
ag2509
ag424
ag427
ag1782
ag3395
ag3399
ag1186
ag1189
ag2980
ag2983
ag2987
ag4509
ag4513
ag2155
ag2160
ag399
ag4620
ag4623
ag5825
ag5828
ag5832
ag1367
ag1375
ag1381
ag437
ag440
ag448
ag54
ag58
ag3728
ag5096
ag3311
ag532
ag535
ag539
ag542
ag3455
ag3462
ag3466
ag3835
ag3623
ag3628
ag3631
ag4061
ag4065
ag4069
ag291
ag294
ag301
ag3480
ag3484
ag3487
ag3492
ag4958
ag4965
ag3537
ag2207
ag2210
ag3382
ag3386
ag907
ag911
ag914
ag2557
ag2560
ag2564
ag2567
ag1978
ag1982
ag4435
ag4438
ag2293
ag2296
ag2300
ag2303
ag641
ag644
ag759
ag762
ag766
ag2847
ag2853
ag5080
ag5084
ag4459
ag2901
ag2904
ag2907
ag1544
ag5433
ag5436
ag5439
ag5442
ag2870
ag2878
ag4203
ag4208
ag4213
ag4794
ag4797
ag1080
ag1088
ag1095
ag1102
ag1107
ag1110
ag2863
ag2866
ag16
ag20
ag23
ag26
ag2069
ag2072
ag2075
ag4894
ag4898
ag3649
ag3652
ag3655
ag3658
ag1322
ag1481
ag1485
ag4878
ag4881
ag1171
ag1175
ag1178
ag1182
ag812
ag817
ag3170
ag5285
ag5290
ag5337
ag3006
ag3009
ag3012
ag3706
ag3709
ag3712
ag4469
ag4472
ag4477
ag2719
ag2723
ag2728
ag1881
ag1887
ag860
ag863
ag868
ag3825
ag3829
ag3832
ag5693
ag5696
ag5702
ag5706
ag5898
ag2364
ag2370
ag2898
ag75
ag1075
ag1654
ag1657
ag4395
ag1240
ag1244
ag1249
ag3214
ag1392
ag1395
ag4073
ag1569
ag721
ag724
ag2030
ag116
ag1900
ag41
ag45
ag2235
ag2238
ag2241
ag5475
ag3795
ag3799
ag3802
ag2417
ag1985
ag1988
ag1992
ag1995
ag4710
ag3050
ag3053
ag3057
ag1192
ag1195
ag3473
ag2857
ag3205
ag3210
ag1475
ag1478
ag3513
ag3516
ag3521
ag3524
ag4148
ag4151
ag4155
ag2686
ag2696
aa(lp5955
g5536
ag5540
ag5543
ag5546
ag5549
ag3623
ag3628
ag3631
ag5337
ag3900
ag3903
ag3906
ag2220
ag2225
ag2229
ag2232
ag5003
ag5008
ag5011
ag3193
ag332
ag335
ag2944
ag2950
ag4971
ag1240
ag1244
ag1249
ag3537
ag5186
ag5189
ag5192
ag5196
ag5199
ag5203
ag3382
ag3386
ag5718
ag5721
ag4958
ag4965
ag2390
ag2393
ag1192
ag1195
ag2396
ag2401
ag16
ag20
ag23
ag26
ag4646
ag4650
ag424
ag427
ag5612
ag5153
ag4981
ag4984
ag4987
ag4990
ag119
ag122
ag3672
ag3675
ag3680
ag1830
ag1833
ag5530
ag3355
ag3358
ag2892
ag2895
ag291
ag294
ag301
ag2925
ag2929
ag2933
ag4501
ag4506
ag5019
ag5022
ag841
ag5572
ag5575
ag4248
ag4254
ag4262
ag1532
ag1537
ag4914
ag3971
ag3974
ag3979
ag48
ag51
ag1674
ag1679
ag2488
ag999
ag1003
ag1006
ag1010
ag1013
ag786
ag4148
ag4151
ag4155
ag2977
ag740
ag743
ag746
ag750
ag5353
ag5366
ag200
ag206
ag210
ag2579
ag2834
ag2838
ag2843
ag2748
ag2752
ag1985
ag1988
ag1992
ag1995
ag1325
ag1330
ag1333
ag1336
ag1341
ag1023
ag5616
ag5619
ag5599
ag5898
ag229
ag233
ag2583
ag2587
ag5808
ag4780
ag4783
ag1158
ag1161
ag1164
ag1168
ag5390
ag5394
ag5398
ag5401
ag94
ag98
ag1345
ag1349
ag2700
ag2704
ag3299
ag3302
ag3305
ag3308
ag382
ag3513
ag3516
ag3521
ag3524
ag5780
ag5783
ag2817
ag1407
ag1915
ag1919
ag1924
ag4135
ag5068
ag5071
ag5075
ag968
ag416
ag420
ag2824
ag2827
ag5940
ag5949
ag1367
ag1375
ag1381
ag5087
ag5090
ag5093
ag2293
ag2296
ag2300
ag2303
ag4076
ag4080
ag1080
ag1088
ag1095
ag1102
ag1107
ag1110
ag759
ag762
ag766
ag670
ag677
ag4813
ag4469
ag4472
ag4477
ag348
ag351
ag1928
ag1932
ag2881
ag2884
ag2887
ag560
ag1209
ag1212
ag3314
ag3320
ag3323
ag1786
ag1789
ag1793
ag1796
ag4336
ag1171
ag1175
ag1178
ag1182
ag2590
ag2593
ag2598
ag312
ag315
ag917
ag923
ag2108
ag2113
ag1881
ag1887
ag3024
ag3029
ag3032
ag3895
ag62
ag66
ag821
ag829
ag4462
ag4466
ag1548
ag1551
ag3661
ag3665
ag2437
ag2440
ag721
ag724
ag4243
ag3123
ag3126
ag4803
ag4806
ag4809
ag125
ag128
ag132
ag4656
ag4660
ag4665
ag4348
ag4352
ag945
ag402
ag407
ag75
ag29
ag1216
ag1221
ag1762
ag4568
ag4571
ag4574
ag4579
ag4940
ag4943
ag4947
ag4950
ag656
ag4518
ag4521
ag4524
ag4527
ag2994
ag2999
ag3003
ag1900
ag1052
ag1056
ag1059
ag2213
ag2216
ag5924
ag2686
ag2696
ag2745
ag4908
ag1630
ag1634
ag1638
ag928
ag933
ag936
ag4745
ag4750
ag4603
ag4609
ag4612
ag2081
ag2084
ag5404
ag698
ag702
ag711
ag718
ag1541
ag2036
ag2041
ag2150
ag5771
ag5777
ag2380
ag463
ag466
ag1544
ag5418
ag5421
ag5424
ag514
ag518
ag35
ag38
ag1433
ag1436
ag1439
ag488
ag494
ag3812
ag3819
ag1502
ag1505
ag2613
ag2618
ag2627
ag2633
ag1750
ag1755
ag3035
ag69
ag72
ag2683
ag3884
ag3889
ag5113
ag1863
ag356
ag4794
ag4797
ag1782
ag1595
ag1711
ag1714
ag1717
ag2528
ag2531
ag3916
ag3694
ag2830
ag365
ag368
ag372
ag375
ag378
ag3473
ag3262
ag3265
ag3345
ag3348
ag3351
ag532
ag535
ag539
ag542
ag1026
ag521
ag525
ag528
ag470
ag2116
ag2123
ag3110
ag1392
ag1395
ag3924
ag3927
ag5500
ag3859
ag2139
ag2144
ag2069
ag2072
ag2075
ag4753
ag4757
ag4762
ag2963
ag581
ag1600
ag1606
ag832
ag835
ag838
ag3189
ag3480
ag3484
ag3487
ag3492
ag594
ag598
ag602
ag4596
ag497
ag503
ag5642
ag5647
ag5652
ag5656
ag5662
ag4073
ag3581
ag3584
ag3588
ag3591
ag2857
ag236
ag239
ag242
ag5040
ag5045
ag1971
ag1975
ag4421
ag5731
ag5735
ag318
ag323
ag2870
ag2878
ag5407
ag5412
ag5415
ag5690
ag247
ag251
ag135
ag254
ag257
ag1654
ag1657
ag4282
ag939
ag942
ag4864
ag4870
ag1442
ag1448
ag1451
ag1454
ag5881
ag5885
ag5888
ag5891
ag1469
ag1472
ag2719
ag2723
ag2728
ag4192
ag4196
ag4199
ag4902
ag4905
ag1572
ag1576
ag1579
ag3278
ag3281
ag88
ag91
ag5293
ag5297
ag5302
ag2306
ag2309
ag2314
ag156
ag161
ag3501
ag3504
ag3443
ag3446
ag3449
ag3452
ag3964
ag3968
ag5445
ag5448
ag5106
ag5109
ag3617
ag3
ag437
ag440
ag448
ag1254
ag1257
ag1260
ag1264
ag1267
ag2936
ag2940
ag5912
ag5915
ag3066
ag3069
ag3072
ag3075
ag3093
ag3097
ag790
ag793
ag975
ag980
ag619
ag3234
ag3238
ag3551
ag3554
ag5080
ag5084
ag4891
ag5064
ag872
ag875
ag878
ag883
ag886
ag889
ag3805
ag5340
ag5347
ag5350
ag2755
ag2758
ag2761
ag1475
ag1478
ag4955
ag3848
ag3853
ag2911
ag2915
ag769
ag772
ag775
ag778
ag4443
ag4447
ag4456
ag1585
ag1588
ag1591
ag103
ag2364
ag2370
ag3841
ag3845
ag4615
ag5851
ag5855
ag5221
ag5227
ag5230
ag5233
ag326
ag329
ag5370
ag5373
ag2522
ag5377
ag5381
ag5387
ag1818
ag1821
ag5433
ag5436
ag5439
ag5442
ag753
ag756
ag41
ag45
ag3205
ag3210
ag2608
ag2812
ag1065
ag1072
ag1569
ag2351
ag2422
ag2425
ag2428
ag5579
ag5582
ag2279
ag2283
ag2287
ag2638
ag2641
ag2646
ag2656
ag2659
ag2662
ag1954
ag1957
ag1960
ag1963
ag1967
ag4530
ag4533
ag4537
ag4540
ag2443
ag2446
ag1691
ag1695
ag5099
ag2774
ag3419
ag1355
ag4559
ag4565
ag5319
ag5323
ag5326
ag5331
ag5812
ag5817
ag5478
ag5483
ag3610
ag3613
ag2575
ag4786
ag4789
ag1943
ag1946
ag1949
ag2731
ag2738
ag2741
ag4875
ag54
ag58
ag3113
ag3117
ag3120
ag460
ag5927
ag5935
ag2066
ag566
ag574
ag578
ag5242
ag2332
ag2802
ag2805
ag4356
ag4359
ag1039
ag1044
ag1049
ag3241
ag3825
ag3829
ag3832
ag1935
ag1940
ag1662
ag1668
ag3175
ag3178
ag3183
ag431
ag434
ag2764
ag2768
ag2771
ag3197
ag3201
ag5427
ag5430
ag2261
ag2264
ag2268
ag2273
ag3129
ag3134
ag3137
ag3144
ag3148
ag3151
ag3155
ag3158
ag3252
ag3957
ag3961
ag730
ag733
ag737
ag4176
ag4179
ag4894
ag4898
ag5096
ag5871
ag5875
ag4995
ag4998
ag4920
ag4927
ag4933
ag4917
ag2009
ag2012
ag2015
ag396
ag5334
ag5256
ag5259
ag5262
ag2535
ag2539
ag2543
ag5125
ag5130
ag1016
ag1019
ag4310
ag4313
ag4318
ag5206
ag5211
ag5214
ag5218
ag4365
ag4368
ag4372
ag5693
ag5696
ag5702
ag5706
ag1723
ag1733
ag622
ag625
ag2099
ag2102
ag2105
ag3703
ag4425
ag4428
ag1488
ag1493
ag1497
ag3542
ag3545
ag3548
ag5666
ag5669
ag5762
ag5766
ag2953
ag2958
ag4203
ag4208
ag4213
ag4124
ag4128
ag1857
ag1860
ag4217
ag4224
ag4228
ag3362
ag3366
ag3369
ag2431
ag2434
ag3747
ag3751
ag3756
ag4710
ag261
ag266
ag5673
ag5676
ag5679
ag5683
ag2358
ag2361
ag2450
ag4714
ag4717
ag4720
ag4723
ag2665
ag2668
ag213
ag218
ag221
ag224
ag3835
ag4968
ag338
ag341
ag3557
ag3566
ag3573
ag3577
ag2155
ag2160
ag2147
ag1299
ag1302
ag388
ag392
ag2335
ag4138
ag4141
ag4144
ag3374
ag3378
ag641
ag644
ag4011
ag4845
ag4848
ag1737
ag3717
ag3725
ag1199
ag1202
ag1205
ag1116
ag1119
ag1122
ag3785
ag3792
ag2126
ag2129
ag1740
ag1744
ag410
ag1481
ag1485
ag587
ag590
ag2033
ag5858
ag5863
ag3469
ag5902
ag5905
ag5909
ag4682
ag4685
ag2971
ag2974
ag4642
ag892
ag895
ag5140
ag5143
ag796
ag809
ag3294
ag511
ag1389
ag2170
ag2174
ag2177
ag5177
ag5182
ag3186
ag4186
ag4189
ag1288
ag1291
ag1294
ag140
ag148
ag152
ag1908
ag1912
ag1565
ag4885
ag4888
ag2901
ag2904
ag2907
ag606
ag610
ag613
ag3327
ag4407
ag4411
ag4115
ag4119
ag1720
ag4266
ag4276
ag4279
ag5285
ag5290
ag4676
ag4679
ag5050
ag5054
ag5058
ag5061
ag1413
ag1417
ag1420
ag1423
ag3874
ag3878
ag1152
ag5749
ag5753
ag5759
ag783
ag984
ag991
ag995
ag2847
ag2853
ag3686
ag3690
ag3245
ag3249
ag2180
ag2184
ag2187
ag3697
ag3700
ag1138
ag1141
ag3528
ag3531
ag3534
ag4132
ag4167
ag4170
ag4173
ag3496
ag1891
ag1897
ag960
ag963
ag3771
ag4301
ag2551
ag2554
ag3864
ag3867
ag3870
ag2863
ag2866
ag2491
ag2499
ag4399
ag4403
ag844
ag847
ag1322
ag4414
ag4418
ag3103
ag3107
ag1410
ag3909
ag3913
ag4395
ag3395
ag3399
ag1699
ag1702
ag1705
ag1708
ag5557
ag5560
ag5563
ag5566
ag5569
ag1867
ag1873
ag1877
ag4838
ag4841
ag850
ag853
ag856
ag1075
ag5156
ag5159
ag5165
ag5168
ag5172
ag475
ag480
ag907
ag911
ag914
ag5237
ag1840
ag1844
ag1851
ag2404
ag2408
ag2411
ag399
ag2517
ag4182
ag4766
ag4769
ag4776
ag4052
ag4626
ag4629
ag4632
ag4635
ag4638
ag5553
ag812
ag817
ag359
ag362
ag3290
ag3706
ag3709
ag3712
ag3775
ag3782
ag4543
ag3060
ag3063
ag1030
ag1033
ag4878
ag4881
ag4386
ag4390
ag3476
ag1806
ag1809
ag860
ag863
ag868
ag2201
ag2204
ag632
ag638
ag5587
ag5590
ag5596
ag5709
ag5715
ag1824
ag1827
ag2455
ag2458
ag2461
ag2464
ag1458
ag1465
ag1426
ag1429
ag1801
ag6
ag9
ag12
aa(lp5956
g4875
ag4052
ag4076
ag4080
ag4908
ag2764
ag2768
ag2771
ag247
ag251
ag2953
ag2958
ag69
ag72
ag5579
ag5582
ag32
ag3382
ag3386
ag338
ag341
ag3278
ag3281
ag88
ag91
ag1389
ag681
ag686
ag4304
ag4307
ag1075
ag2235
ag2238
ag2241
ag2201
ag2204
ag1641
ag1644
ag1648
ag1651
ag3617
ag1367
ag1375
ag1381
ag4745
ag4750
ag4035
ag4038
ag4041
ag4045
ag5536
ag5540
ag5543
ag5546
ag5549
ag3946
ag3950
ag3954
ag2290
ag783
ag5940
ag5949
ag3686
ag3690
ag356
ag3006
ag3009
ag3012
ag2977
ag4845
ag4848
ag4688
ag4691
ag5050
ag5054
ag5058
ag5061
ag4135
ag2417
ag3225
ag3229
ag4425
ag4428
ag475
ag480
ag4559
ag4565
ag2528
ag2531
ag5918
ag2583
ag2587
ag5445
ag5448
ag3050
ag3053
ag3057
ag5266
ag5269
ag5272
ag1881
ag1887
ag850
ag853
ag856
ag2517
ag3205
ag3210
ag5673
ag5676
ag5679
ag5683
ag4940
ag4943
ag4947
ag4950
ag4356
ag4359
ag125
ag128
ag132
ag4167
ag4170
ag4173
ag4556
ag4407
ag4411
ag3234
ag3238
ag3103
ag3107
ag4011
ag3290
ag5739
ag5743
ag5746
ag2475
ag2479
ag2485
ag3528
ag3531
ag3534
ag3703
ag5340
ag5347
ag5350
ag416
ag420
ag3262
ag3265
ag3327
ag3537
ag4981
ag4984
ag4987
ag4990
ag2276
ag2437
ag2440
ag5377
ag5381
ag5387
ag3024
ag3029
ag3032
ag5625
ag5628
ag5631
ag5634
ag5637
ag5500
ag3241
ag5096
ag2066
ag2126
ag2129
ag5390
ag5394
ag5398
ag5401
ag2674
ag2677
ag2680
ag2335
ag5087
ag5090
ag5093
ag5478
ag5483
ag1786
ag1789
ag1793
ag1796
ag3110
ag5221
ag5227
ag5230
ag5233
ag2345
ag2348
ag532
ag535
ag539
ag542
ag2755
ag2758
ag2761
ag1544
ag1765
ag1769
ag1772
ag1778
ag4469
ag4472
ag4477
ag4530
ag4533
ag4537
ag4540
ag4832
ag4835
ag4509
ag4513
ag345
ag5068
ag5071
ag5075
ag1867
ag1873
ag1877
ag3697
ag3700
ag1065
ag1072
ag2306
ag2309
ag2314
ag5898
ag3931
ag3934
ag3938
ag3943
ag821
ag829
ag1325
ag1330
ag1333
ag1336
ag1341
ag1740
ag1744
ag3551
ag3554
ag3924
ag3927
ag5460
ag2971
ag2974
ag4780
ag4783
ag3825
ag3829
ag3832
ag2443
ag2446
ag5337
ag5553
ag1565
ag5599
ag4192
ag4196
ag4199
ag2069
ag2072
ag2075
ag1407
ag54
ag58
ag5488
ag5492
ag2719
ag2723
ag2728
ag3016
ag3021
ag1900
ag1052
ag1056
ag1059
ag907
ag911
ag914
ag463
ag466
ag2820
ag2279
ag2283
ag2287
ag2547
ag402
ag407
ag5237
ag3337
ag3342
ag3909
ag3913
ag1711
ag1714
ag1717
ag3645
ag1270
ag1273
ag1281
ag4599
ag3595
ag3603
ag483
ag5825
ag5828
ag5832
ag3038
ag3041
ag3047
ag2700
ag2704
ag4955
ag5285
ag5290
ag1699
ag1702
ag1705
ag1708
ag2522
ag5475
ag2665
ag2668
ag860
ag863
ag868
ag2059
ag1548
ag1551
ag5616
ag5619
ag898
ag901
ag759
ag762
ag766
ag4217
ag4224
ag4228
ag3419
ag5693
ag5696
ag5702
ag5706
ag1288
ag1291
ag1294
ag236
ag239
ag242
ag164
ag168
ag173
ag460
ag1355
ag3170
ag2147
ag5106
ag5109
ag730
ag733
ag737
ag3268
ag3271
ag410
ag2383
ag2387
ag5140
ag5143
ag4115
ag4119
ag721
ag724
ag4902
ag4905
ag2557
ag2560
ag2564
ag2567
ag3066
ag3069
ag3072
ag3075
ag3093
ag3097
ag2857
ag5418
ag5421
ag5424
ag619
ag3285
ag2774
ag5808
ag2745
ag4336
ag2802
ag2805
ag271
ag275
ag284
ag1413
ag1417
ag1420
ag1423
ag4182
ag103
ag560
ag4395
ag5530
ag5731
ag5735
ag3
ag5116
ag5122
ag4022
ag4026
ag4029
ag4032
ag4294
ag4297
ag1138
ag1141
ag1284
ag3728
ag5912
ag5915
ag4676
ag4679
ag3747
ag3751
ag3756
ag769
ag772
ag775
ag778
ag2512
ag5433
ag5436
ag5439
ag5442
ag2901
ag2904
ag2907
ag1209
ag1212
ag3874
ag3878
ag1026
ag2925
ag2929
ag2933
ag4266
ag4276
ag4279
ag3542
ag3545
ag3548
ag1985
ag1988
ag1992
ag1995
ag4958
ag4965
ag2018
ag2026
ag1954
ag1957
ag1960
ag1963
ag1967
ag497
ag503
ag4857
ag4861
ag1359
ag1362
ag2834
ag2838
ag2843
ag4914
ag1149
ag4159
ag4162
ag2396
ag2401
ag546
ag549
ag553
ag556
ag3314
ag3320
ag3323
ag5894
ag5787
ag5790
ag5794
ag5036
ag5404
ag4132
ag3771
ag1171
ag1175
ag1178
ag1182
ag4584
ag4587
ag796
ag809
ag4231
ag4234
ag4237
ag4240
ag4626
ag4629
ag4632
ag4635
ag4638
ag5858
ag5863
ag2488
ag3706
ag3709
ag3712
ag3805
ag1426
ag1429
ag29
ag2351
ag1508
ag1515
ag1521
ag1410
ag2918
ag2922
ag3864
ag3867
ag3870
ag4864
ag4870
ag812
ag817
ag2683
ag4615
ag1762
ag5871
ag5875
ag4348
ag4352
ag3476
ag3717
ag3725
ag3859
ag5099
ag2244
ag2248
ag2252
ag2255
ag2258
ag75
ag4968
ag606
ag610
ag613
ag119
ag122
ag1782
ag3733
ag3740
ag3623
ag3628
ag3631
ag1801
ag662
ag666
ag488
ag494
ag566
ag574
ag578
ag1691
ag1695
ag2571
ag1458
ag1465
ag3473
ag1023
ag2911
ag2915
ag928
ag933
ag936
ag1595
ag3035
ag382
ag1908
ag1912
ag4323
ag4329
ag4333
ag581
ag4813
ag968
ag4603
ag4609
ag4612
ag3835
ag229
ag233
ag4894
ag4898
ag4501
ag4506
ag2450
ag2170
ag2174
ag2177
ag5305
ag5308
ag5311
ag5316
ag521
ag525
ag528
ag2033
ag261
ag266
ag2613
ag2618
ag2627
ag2633
ag5427
ag5430
ag4518
ag4521
ag4524
ag4527
ag1978
ag1982
ag305
ag309
ag2207
ag2210
ag4766
ag4769
ag4776
ag365
ag368
ag372
ag375
ag378
ag698
ag702
ag711
ag718
ag200
ag206
ag210
ag3957
ag3961
ag2213
ag2216
ag1943
ag1946
ag1949
ag3557
ag3566
ag3573
ag3577
ag872
ag875
ag878
ag883
ag886
ag889
ag2180
ag2184
ag2187
ag832
ag835
ag838
ag140
ag148
ag152
ag2824
ag2827
ag1818
ag1821
ag1857
ag1860
ag5902
ag5905
ag5909
ag2009
ag2012
ag2015
ag2030
ag4917
ag1541
ag5851
ag5855
ag3694
ag2293
ag2296
ag2300
ag2303
ag1806
ag1809
ag2817
ag5557
ag5560
ag5563
ag5566
ag5569
ag5334
ag5249
ag5253
ag790
ag793
ag5026
ag5030
ag5033
ag4421
ag3245
ag3249
ag1557
ag1560
ag3916
ag1630
ag1634
ag1638
ag4310
ag4313
ag4318
ag2358
ag2361
ag5080
ag5084
ag5820
ag4186
ag4189
ag587
ag590
ag647
ag650
ag318
ag323
ag3311
ag2863
ag2866
ag3331
ag3334
ag2608
ag5156
ag5159
ag5165
ag5168
ag5172
ag4710
ag2491
ag2499
ag786
ag4365
ag4368
ag4372
ag5407
ag5412
ag5415
ag2535
ag2539
ag2543
ag1524
ag1528
ag5242
ag399
ag3469
ag5186
ag5189
ag5192
ag5196
ag5199
ag5203
ag4794
ag4797
ag2132
ag2135
ag5835
ag5838
ag3775
ag3782
ag1254
ag1257
ag1260
ag1264
ag1267
ag4015
ag4019
ag2812
ag5812
ag5817
ag3884
ag3889
ag156
ag161
ag1863
ag4285
ag4288
ag4459
ag3848
ag3853
ag2731
ag2738
ag2741
ag188
ag191
ag194
ag3455
ag3462
ag3466
ag4203
ag4208
ag4213
ag1915
ag1919
ag1924
ag1585
ag1588
ag1591
ag4431
ag1442
ag1448
ag1451
ag1454
ag62
ag66
ag3100
ag4971
ag753
ag756
ag4443
ag4447
ag4456
ag4488
ag4492
ag4497
ag4341
ag4345
ag844
ag847
ag5125
ag5130
ag1345
ag1349
ag3785
ag3792
ag178
ag181
ag184
ag1322
ag116
ag2686
ag2696
ag35
ag38
ag1433
ag1436
ag1439
ag3812
ag3819
ag1683
ag1687
ag5718
ag5721
ag656
ag326
ag329
ag945
ag2045
ag2050
ag2053
ag2056
ag4282
ag3214
ag616
ag2374
ag2377
ag5512
ag5515
ag5518
ag5521
ag5524
ag4736
ag4739
ag4742
ag2099
ag2102
ag2105
ag1481
ag1485
ag2354
ag1398
ag1401
ag1404
ag1502
ag1505
ag3964
ag3968
ag437
ag440
ag448
ag4816
ag4821
ag4824
ag4827
ag5206
ag5211
ag5214
ag5218
ag1488
ag1493
ag1497
ag1152
ag1610
ag1616
ag1619
ag1622
ag641
ag644
ag3672
ag3675
ag3680
ag4546
ag4549
ag4552
ag4885
ag4888
ag4248
ag4254
ag4262
ag4176
ag4179
ag5881
ag5885
ag5888
ag5891
ag670
ag677
ag2108
ag2113
ag4301
ag5064
ag1127
ag1132
ag1135
ag2150
ag94
ag98
ag3345
ag3348
ag3351
ag1662
ag1668
ag2881
ag2884
ag2887
ag4375
ag4379
ag4383
ag3841
ag3845
ag1824
ag1827
ag1228
ag4753
ag4757
ag4762
ag431
ag434
ag4974
ag4978
ag2509
ag2898
ag1600
ag1606
ag3581
ag3584
ag3588
ag3591
ag5709
ag5715
ag1080
ag1088
ag1095
ag1102
ag1107
ag1110
ag2192
ag2196
ag1030
ag1033
ag1475
ag1478
ag4620
ag4623
ag1891
ag1897
ag396
ag511
ag470
ag451
ag457
ag3294
ag5353
ag5366
ag4386
ag4390
ag1532
ag1537
ag3971
ag3974
ag3979
ag4878
ag4881
ag5113
ag1469
ag1472
ag975
ag980
ag692
ag695
ag892
ag895
ag2081
ag2084
ag1016
ag1019
ag424
ag427
ag3412
ag3416
ag1971
ag1975
ag5133
ag3197
ag3201
ag1569
ag3496
ag2318
ag2321
ag2325
ag5319
ag5323
ag5326
ag5331
ag2455
ag2458
ag2461
ag2464
ag1720
ag4480
ag4485
ag3189
ag4596
ag5451
ag5456
ag2963
ag48
ag51
ag254
ag257
ag4435
ag4438
ag3193
aa(lp5957
g4124
ag4128
ag3581
ag3584
ag3588
ag3591
ag1284
ag399
ag1209
ag1212
ag1240
ag1244
ag1249
ag872
ag875
ag878
ag883
ag886
ag889
ag514
ag518
ag3909
ag3913
ag532
ag535
ag539
ag542
ag2700
ag2704
ag4386
ag4390
ag2244
ag2248
ag2252
ag2255
ag2258
ag1662
ag1668
ag5080
ag5084
ag2475
ag2479
ag2485
ag1630
ag1634
ag1638
ag5319
ag5323
ag5326
ag5331
ag1299
ag1302
ag2422
ag2425
ag2428
ag4167
ag4170
ag4173
ag116
ag1699
ag1702
ag1705
ag1708
ag4559
ag4565
ag1426
ag1429
ag3996
ag4004
ag4008
ag907
ag911
ag914
ag2994
ag2999
ag3003
ag3175
ag3178
ag3183
ag5460
ag5924
ag1475
ag1478
ag5572
ag5575
ag1216
ag1221
ag4425
ag4428
ag2030
ag3161
ag3164
ag3167
ag4035
ag4038
ag4041
ag4045
ag4971
ag4917
ag5404
ag5488
ag5492
ag3314
ag3320
ag3323
ag2276
ag4094
ag4099
ag4103
ag3024
ag3029
ag3032
ag4015
ag4019
ag1908
ag1912
ag2351
ag1971
ag1975
ag1186
ag1189
ag2235
ag2238
ag2241
ag4669
ag4672
ag1857
ag1860
ag291
ag294
ag301
ag4864
ag4870
ag4301
ag4803
ag4806
ag4809
ag69
ag72
ag1711
ag1714
ag1717
ag5026
ag5030
ag5033
ag2830
ag1023
ag2778
ag2785
ag3268
ag3271
ag424
ag427
ag4469
ag4472
ag4477
ag451
ag457
ag5285
ag5290
ag1355
ag135
ag2033
ag3290
ag5808
ag4348
ag4352
ag984
ag991
ag995
ag1954
ag1957
ag1960
ag1963
ag1967
ag1881
ag1887
ag5256
ag5259
ag5262
ag1572
ag1576
ag1579
ag1152
ag5625
ag5628
ag5631
ag5634
ag5637
ag3501
ag3504
ag4443
ag4447
ag4456
ag662
ag666
ag1080
ag1088
ag1095
ag1102
ag1107
ag1110
ag1075
ag948
ag951
ag957
ag1985
ag1988
ag1992
ag1995
ag1458
ag1465
ag1998
ag2002
ag2006
ag4603
ag4609
ag4612
ag3760
ag3764
ag3768
ag2045
ag2050
ag2053
ag2056
ag3661
ag3665
ag4304
ag4307
ag488
ag494
ag16
ag20
ag23
ag26
ag3703
ag3189
ag4885
ag4888
ag88
ag91
ag4914
ag1488
ag1493
ag1497
ag3848
ag3853
ag4699
ag4706
ag2608
ag4832
ag4835
ag5003
ag5008
ag5011
ag4656
ag4660
ag4665
ag1765
ag1769
ag1772
ag1778
ag2396
ag2401
ag1345
ag1349
ag917
ag923
ag945
ag345
ag616
ag2936
ag2940
ag5305
ag5308
ag5311
ag5316
ag1149
ag1433
ag1436
ag1439
ag3262
ag3265
ag1915
ag1919
ag1924
ag5206
ag5211
ag5214
ag5218
ag1762
ag1171
ag1175
ag1178
ag1182
ag1138
ag1141
ag587
ag590
ag4974
ag4978
ag4981
ag4984
ag4987
ag4990
ag4745
ag4750
ag470
ag2571
ag2847
ag2853
ag164
ag168
ag173
ag2290
ag2863
ag2866
ag3971
ag3974
ag3979
ag1840
ag1844
ag1851
ag4727
ag4731
ag1502
ag1505
ag3775
ag3782
ag1532
ag1537
ag3537
ag3129
ag3134
ag3137
ag3144
ag3148
ag3151
ag3155
ag3158
ag5334
ag619
ag5718
ag5721
ag5140
ag5143
ag1270
ag1273
ag1281
ag3984
ag3987
ag3993
ag388
ag392
ag844
ag847
ag2164
ag2167
ag5940
ag5949
ag3874
ag3878
ag410
ag753
ag756
ag3006
ag3009
ag3012
ag4676
ag4679
ag3110
ag4816
ag4821
ag4824
ag4827
ag3795
ag3799
ag3802
ag1039
ag1044
ag1049
ag2665
ag2668
ag1158
ag1161
ag1164
ag1168
ag4266
ag4276
ag4279
ag4203
ag4208
ag4213
ag1824
ag1827
ag5464
ag5469
ag365
ag368
ag372
ag375
ag378
ag475
ag480
ag5512
ag5515
ag5518
ag5521
ag5524
ag2220
ag2225
ag2229
ag2232
ag670
ag677
ag2707
ag2710
ag2713
ag2716
ag5798
ag5801
ag5805
ag2380
ag1806
ag1809
ag3496
ag5146
ag5150
ag318
ag323
ag730
ag733
ag737
ag5749
ag5753
ag5759
ag483
ag1026
ag4599
ag1782
ag4231
ag4234
ag4237
ag4240
ag5040
ag5045
ag5820
ag3964
ag3968
ag5186
ag5189
ag5192
ag5196
ag5199
ag5203
ag312
ag315
ag2180
ag2184
ag2187
ag4336
ag5825
ag5828
ag5832
ag4845
ag4848
ag5116
ag5122
ag2132
ag2135
ag4908
ag850
ag853
ag856
ag1978
ag1982
ag581
ag2318
ag2321
ag2325
ag1900
ag5503
ag5506
ag5509
ag939
ag942
ag2551
ag2554
ag3528
ag3531
ag3534
ag261
ag266
ag4407
ag4411
ag3884
ag3889
ag1867
ag1873
ag1877
ag2901
ag2904
ag2907
ag4217
ag4224
ag4228
ag2898
ag5835
ag5838
ag975
ag980
ag4794
ag4797
ag928
ag933
ag936
ag4176
ag4179
ag1750
ag1755
ag3252
ag4243
ag125
ag128
ag132
ag6
ag9
ag12
ag4294
ag4297
ag4995
ag4998
ag2944
ag2950
ag356
ag3946
ag3950
ag3954
ag3038
ag3041
ag3047
ag5337
ag3916
ag3214
ag3864
ag3867
ag3870
ag1740
ag1744
ag698
ag702
ag711
ag718
ag3645
ag566
ag574
ag578
ag4556
ag3362
ag3366
ag3369
ag5771
ag5777
ag3733
ag3740
ag3859
ag3100
ag5266
ag5269
ag5272
ag759
ag762
ag766
ag1585
ag1588
ag1591
ag4076
ag4080
ag5780
ag5783
ag3595
ag3603
ag740
ag743
ag746
ag750
ag103
ag3197
ag3201
ag247
ag251
ag5433
ag5436
ag5439
ag5442
ag2036
ag2041
ag1231
ag1801
ag4891
ag1389
ag3785
ag3792
ag721
ag724
ag5871
ag5875
ag2358
ag2361
ag1595
ag5293
ag5297
ag5302
ag4714
ag4717
ag4720
ag4723
ag4052
ag5725
ag5728
ag892
ag895
ag32
ag1891
ag1897
ag4615
ag4375
ag4379
ag4383
ag3805
ag3430
ag3436
ag3440
ag1565
ag2557
ag2560
ag2564
ag2567
ag1863
ag5898
ag5475
ag5787
ag5790
ag5794
ag1307
ag1312
ag1316
ag4022
ag4026
ag4029
ag4032
ag3706
ag3709
ag3712
ag5275
ag5281
ag1600
ag1606
ag2817
ag1413
ag1417
ag1420
ag1423
ag5500
ag1469
ag1472
ag48
ag51
ag1943
ag1946
ag1949
ag5851
ag5855
ag2918
ag2922
ag5064
ag4414
ag4418
ag2147
ag4878
ag4881
ag1065
ag1072
ag1386
ag641
ag644
ag75
ag546
ag549
ag553
ag556
ag2583
ag2587
ag2345
ag2348
ag2417
ag5096
ag3617
ag4135
ag3355
ag3358
ag4186
ag4189
ag5068
ag5071
ag5075
ag4341
ag4345
ag783
ag2980
ag2983
ag2987
ag4323
ag4329
ag4333
ag5918
ag2953
ag2958
ag2512
ag4530
ag4533
ag4537
ag4540
ag3113
ag3117
ag3120
ag3419
ag3294
ag2087
ag2090
ag1683
ag1687
ag2390
ag2393
ag3686
ag3690
ag2774
ag2062
ag2201
ag2204
ag5390
ag5394
ag5398
ag5401
ag790
ag793
ag437
ag440
ag448
ag2155
ag2160
ag511
ag2306
ag2309
ag2314
ag2455
ag2458
ag2461
ag2464
ag5427
ag5430
ag463
ag466
ag2528
ag2531
ag3623
ag3628
ag3631
ag4736
ag4739
ag4742
ag4780
ag4783
ag5666
ag5669
ag3374
ag3378
ag5418
ag5421
ag5424
ag4620
ag4623
ag2404
ag2408
ag2411
ag4011
ag5902
ag5905
ag5909
ag5812
ag5817
ag656
ag3697
ag3700
ag2788
ag2791
ag2795
ag2799
ag5050
ag5054
ag5058
ag5061
ag385
ag5451
ag5456
ag2066
ag3337
ag3342
ag2971
ag2974
ag29
ag4421
ag1610
ag1616
ag1619
ag1622
ag1508
ag1515
ag1521
ag4132
ag2018
ag2026
ag2509
ag213
ag218
ag221
ag224
ag4501
ag4506
ag2116
ag2123
ag5709
ag5715
ag332
ag335
ag4626
ag4629
ag4632
ag4635
ag4638
ag812
ag817
ag898
ag901
ag5019
ag5022
ag5693
ag5696
ag5702
ag5706
ag2674
ag2677
ag2680
ag786
ag3480
ag3484
ag3487
ag3492
ag594
ag598
ag602
ag1127
ag1132
ag1135
ag3743
ag2745
ag2579
ag1116
ag1119
ag1122
ag2748
ag2752
ag3382
ag3386
ag254
ag257
ag1691
ag1695
ag5841
ag5845
ag5848
ag62
ag66
ag431
ag434
ag3241
ag2719
ag2723
ag2728
ag1030
ag1033
ag2535
ag2539
ag2543
ag4182
ag2332
ag35
ag38
ag2069
ag2072
ag2075
ag2613
ag2618
ag2627
ag2633
ag4940
ag4943
ag4947
ag4950
ag2881
ag2884
ag2887
ag2491
ag2499
ag5036
ag4073
ag3035
ag1192
ag1195
ag4365
ag4368
ag4372
ag1674
ag1679
ag3634
ag3637
ag5099
ag1199
ag1202
ag1205
ag5690
ag5530
ag5579
ag5582
ag796
ag809
ag4431
ag3895
ag860
ag863
ag868
ag2683
ag1830
ag1833
ag2977
ag4083
ag4087
ag4091
ag305
ag309
ag4875
ag2437
ag2440
ag2279
ag2283
ag2287
ag382
ag1254
ag1257
ag1260
ag1264
ag1267
ag5536
ag5540
ag5543
ag5546
ag5549
ag647
ag650
ag5407
ag5412
ag5415
ag3402
ag3409
ag4958
ag4965
ag3825
ag3829
ag3832
ag1052
ag1056
ag1059
ag2925
ag2929
ag2933
ag2335
ag4786
ag4789
ag2522
ag3186
ag3193
ag2820
ag4395
ag2824
ag2827
ag832
ag835
ag838
ag2059
ag3542
ag3545
ag3548
ag41
ag45
ag2099
ag2102
ag2105
ag2192
ag2196
ag1322
ag4159
ag4162
ag1410
ag3672
ag3675
ag3680
ag3455
ag3462
ag3466
ag3331
ag3334
ag4584
ag4587
ag4682
ag4685
ag3513
ag3516
ag3521
ag3524
ag1654
ag1657
ag2261
ag2264
ag2268
ag2273
ag2354
ag4568
ag4571
ag4574
ag4579
ag3557
ag3566
ag3573
ag3577
ag1392
ag1395
ag3771
ag140
ag148
ag152
ag4955
ag4894
ag4898
ag178
ag181
ag184
ag632
ag638
ag3931
ag3934
ag3938
ag3943
ag2443
ag2446
ag4688
ag4691
ag3103
ag3107
ag1720
ag5242
ag2764
ag2768
ag2771
ag5370
ag5373
ag3245
ag3249
ag5249
ag5253
ag5340
ag5347
ag5350
ag3924
ag3927
ag4543
ag5478
ag5483
ag4285
ag4288
ag5858
ag5863
ag5762
ag5766
ag5125
ag5130
ag3205
ag3210
ag54
ag58
ag5133
ag4813
ag4968
ag119
ag122
ag1359
ag1362
ag4546
ag4549
ag4552
ag2857
ag1407
aa.